
.//main.elf:     file format elf32-sparc


Disassembly of section .text:

00000000 <_start>:
       0:	40 00 00 9d 	call  274 <clear_stack_pointers>
       4:	01 00 00 00 	nop 

00000008 <CORTOS_SET_PSR>:
       8:	21 00 00 04 	sethi  %hi(0x1000), %l0
       c:	a0 14 20 e0 	or  %l0, 0xe0, %l0	! 10e0 <__ajit_serial_set_baudrate_via_vmap__+0x48>
      10:	81 88 00 10 	mov  %l0, %psr

00000014 <COROTS_WIMSET>:
      14:	a0 10 20 01 	mov  1, %l0
      18:	81 94 20 00 	mov  %l0, %wim
      1c:	21 00 00 3c 	sethi  %hi(0xf000), %l0
      20:	a0 14 20 00 	mov  %l0, %l0	! f000 <trap_table_base>
      24:	81 9c 20 00 	mov  %l0, %tbr

00000028 <CORTOS_READ_CORE_THREAD_ID>:
      28:	a3 47 40 00 	rd  %asr29, %l1

0000002c <CORTOS_SETUP_THREADS>:
      2c:	25 14 14 80 	sethi  %hi(0x50520000), %l2
      30:	80 a4 40 12 	cmp  %l1, %l2
      34:	12 80 00 8c 	bne  264 <CORTOS_HALT_ERROR>
      38:	01 00 00 00 	nop 
      3c:	1d 00 00 77 	sethi  %hi(0x1dc00), %sp
      40:	9c 13 a3 a0 	or  %sp, 0x3a0, %sp	! 1dfa0 <_custom_printf_handler+0x6ccc>
      44:	bc 10 00 00 	mov  %g0, %fp
      48:	05 00 00 59 	sethi  %hi(0x16400), %g2
      4c:	84 10 a0 c0 	or  %g2, 0xc0, %g2	! 164c0 <INIT_BY_00_DONE>
      50:	c4 00 80 00 	ld  [ %g2 ], %g2
      54:	86 10 20 00 	clr  %g3
      58:	c6 20 80 00 	st  %g3, [ %g2 ]
      5c:	05 00 00 59 	sethi  %hi(0x16400), %g2
      60:	84 10 a0 bc 	or  %g2, 0xbc, %g2	! 164bc <PT_FLAG>
      64:	c4 00 80 00 	ld  [ %g2 ], %g2
      68:	86 10 20 00 	clr  %g3
      6c:	c6 20 80 00 	st  %g3, [ %g2 ]
      70:	40 00 00 56 	call  1c8 <__cortos_init_region_to_zero>
      74:	01 00 00 00 	nop 
      78:	40 00 3b 04 	call  ec88 <page_table_setup>
      7c:	01 00 00 00 	nop 
      80:	2d 00 00 59 	sethi  %hi(0x16400), %l6
      84:	ac 15 a0 bc 	or  %l6, 0xbc, %l6	! 164bc <PT_FLAG>
      88:	ec 05 80 00 	ld  [ %l6 ], %l6
      8c:	ae 10 20 01 	mov  1, %l7
      90:	ee 25 80 00 	st  %l7, [ %l6 ]
      94:	40 00 3a ff 	call  ec90 <set_context_table_pointer>
      98:	01 00 00 00 	nop 
      9c:	90 10 20 01 	mov  1, %o0	! 1 <_start+0x1>
      a0:	d0 a0 00 80 	sta  %o0, [ %g0 ] #ASI_N
      a4:	40 00 00 ed 	call  458 <cortos_init_locks>
      a8:	01 00 00 00 	nop 
      ac:	40 00 10 4f 	call  41e8 <__cortos_bpool>
      b0:	01 00 00 00 	nop 
      b4:	40 00 01 d9 	call  818 <cortos_init_hw_traps>
      b8:	01 00 00 00 	nop 
      bc:	40 00 01 da 	call  824 <cortos_init_sw_traps>
      c0:	01 00 00 00 	nop 
      c4:	40 00 00 9f 	call  340 <cortos_init_printing>
      c8:	01 00 00 00 	nop 
      cc:	40 00 10 09 	call  40f0 <cortos_init_logging>
      d0:	01 00 00 00 	nop 
      d4:	05 00 00 59 	sethi  %hi(0x16400), %g2
      d8:	84 10 a0 c0 	or  %g2, 0xc0, %g2	! 164c0 <INIT_BY_00_DONE>
      dc:	c4 00 80 00 	ld  [ %g2 ], %g2
      e0:	86 10 20 01 	mov  1, %g3
      e4:	c6 20 80 00 	st  %g3, [ %g2 ]
      e8:	a3 47 40 00 	rd  %asr29, %l1
      ec:	10 80 00 1c 	b  15c <CORTOS_START_THREADS>
      f0:	01 00 00 00 	nop 

000000f4 <AFTER_PTABLE_SETUP>:
      f4:	2d 00 00 59 	sethi  %hi(0x16400), %l6
      f8:	ac 15 a0 bc 	or  %l6, 0xbc, %l6	! 164bc <PT_FLAG>
      fc:	ec 05 80 00 	ld  [ %l6 ], %l6
     100:	ee 05 80 00 	ld  [ %l6 ], %l7
     104:	b0 10 20 01 	mov  1, %i0
     108:	80 a6 00 17 	cmp  %i0, %l7
     10c:	12 bf ff fa 	bne  f4 <AFTER_PTABLE_SETUP>
     110:	01 00 00 00 	nop 
     114:	40 00 3a df 	call  ec90 <set_context_table_pointer>
     118:	01 00 00 00 	nop 
     11c:	90 10 20 01 	mov  1, %o0	! 1 <_start+0x1>
     120:	d0 a0 00 80 	sta  %o0, [ %g0 ] #ASI_N
     124:	10 80 00 0e 	b  15c <CORTOS_START_THREADS>
     128:	01 00 00 00 	nop 

0000012c <ODD_THREAD_WAIT_ON_PTABLE_SETUP>:
     12c:	2d 00 00 59 	sethi  %hi(0x16400), %l6
     130:	ac 15 a0 bc 	or  %l6, 0xbc, %l6	! 164bc <PT_FLAG>
     134:	ec 05 80 00 	ld  [ %l6 ], %l6
     138:	ee 05 80 00 	ld  [ %l6 ], %l7
     13c:	b0 10 20 01 	mov  1, %i0
     140:	80 a6 00 17 	cmp  %i0, %l7
     144:	12 bf ff fa 	bne  12c <ODD_THREAD_WAIT_ON_PTABLE_SETUP>
     148:	01 00 00 00 	nop 
     14c:	40 00 3a d1 	call  ec90 <set_context_table_pointer>
     150:	01 00 00 00 	nop 
     154:	90 10 20 01 	mov  1, %o0	! 1 <_start+0x1>
     158:	d0 a0 00 80 	sta  %o0, [ %g0 ] #ASI_N

0000015c <CORTOS_START_THREADS>:
     15c:	25 14 14 80 	sethi  %hi(0x50520000), %l2
     160:	80 a4 40 12 	cmp  %l1, %l2
     164:	12 80 00 40 	bne  264 <CORTOS_HALT_ERROR>
     168:	01 00 00 00 	nop 
     16c:	40 00 01 89 	call  790 <main_00>
     170:	01 00 00 00 	nop 

00000174 <START_THREAD_0_0_LOOP>:
     174:	10 80 00 3e 	b  26c <CORTOS_HALT_OKAY>
     178:	01 00 00 00 	nop 

0000017c <__cortos_clear_stack_pointers>:
     17c:	81 90 00 00 	mov  %g0, %wim
     180:	9c 10 00 00 	mov  %g0, %sp
     184:	81 e0 00 00 	save 
     188:	9c 10 00 00 	mov  %g0, %sp
     18c:	81 e0 00 00 	save 
     190:	9c 10 00 00 	mov  %g0, %sp
     194:	81 e0 00 00 	save 
     198:	9c 10 00 00 	mov  %g0, %sp
     19c:	81 e0 00 00 	save 
     1a0:	9c 10 00 00 	mov  %g0, %sp
     1a4:	81 e0 00 00 	save 
     1a8:	9c 10 00 00 	mov  %g0, %sp
     1ac:	81 e0 00 00 	save 
     1b0:	9c 10 00 00 	mov  %g0, %sp
     1b4:	81 e0 00 00 	save 
     1b8:	9c 10 00 00 	mov  %g0, %sp
     1bc:	81 e0 00 00 	save 
     1c0:	81 c3 e0 08 	retl 
     1c4:	01 00 00 00 	nop 

000001c8 <__cortos_init_region_to_zero>:
     1c8:	21 00 00 5c 	sethi  %hi(0x17000), %l0
     1cc:	a0 14 20 00 	mov  %l0, %l0	! 17000 <printingLockAddr>
     1d0:	25 00 00 60 	sethi  %hi(0x18000), %l2
     1d4:	a4 14 a0 00 	mov  %l2, %l2	! 18000 <_custom_printf_handler+0xd2c>
     1d8:	a4 24 a0 04 	sub  %l2, 4, %l2

000001dc <_cortos_zero_init_area_BssSection>:
     1dc:	c0 2c 00 00 	clrb  [ %l0 ]
     1e0:	80 a4 00 12 	cmp  %l0, %l2
     1e4:	12 bf ff fe 	bne  1dc <_cortos_zero_init_area_BssSection>
     1e8:	a0 04 20 01 	inc  %l0
     1ec:	21 00 00 60 	sethi  %hi(0x18000), %l0
     1f0:	a0 14 20 00 	mov  %l0, %l0	! 18000 <_custom_printf_handler+0xd2c>
     1f4:	25 00 00 64 	sethi  %hi(0x19000), %l2
     1f8:	a4 14 a0 00 	mov  %l2, %l2	! 19000 <_custom_printf_handler+0x1d2c>
     1fc:	a4 24 a0 04 	sub  %l2, 4, %l2

00000200 <_cortos_zero_init_area_CacheableLocks>:
     200:	c0 2c 00 00 	clrb  [ %l0 ]
     204:	80 a4 00 12 	cmp  %l0, %l2
     208:	12 bf ff fe 	bne  200 <_cortos_zero_init_area_CacheableLocks>
     20c:	a0 04 20 01 	inc  %l0
     210:	21 00 00 64 	sethi  %hi(0x19000), %l0
     214:	a0 14 20 00 	mov  %l0, %l0	! 19000 <_custom_printf_handler+0x1d2c>
     218:	25 00 00 68 	sethi  %hi(0x1a000), %l2
     21c:	a4 14 a0 00 	mov  %l2, %l2	! 1a000 <_custom_printf_handler+0x2d2c>
     220:	a4 24 a0 04 	sub  %l2, 4, %l2

00000224 <_cortos_zero_init_area_NonCacheableLocks>:
     224:	c0 2c 00 00 	clrb  [ %l0 ]
     228:	80 a4 00 12 	cmp  %l0, %l2
     22c:	12 bf ff fe 	bne  224 <_cortos_zero_init_area_NonCacheableLocks>
     230:	a0 04 20 01 	inc  %l0
     234:	81 c3 e0 08 	retl 
     238:	01 00 00 00 	nop 

0000023c <__cortos_wait_for_init_by_00>:
     23c:	2d 00 00 59 	sethi  %hi(0x16400), %l6
     240:	ac 15 a0 c0 	or  %l6, 0xc0, %l6	! 164c0 <INIT_BY_00_DONE>
     244:	ec 05 80 00 	ld  [ %l6 ], %l6

00000248 <_CORTOS_WAIT_FOR_INIT_BY_00>:
     248:	ee 05 80 00 	ld  [ %l6 ], %l7
     24c:	b0 10 20 01 	mov  1, %i0
     250:	80 a6 00 17 	cmp  %i0, %l7
     254:	12 bf ff fd 	bne  248 <_CORTOS_WAIT_FOR_INIT_BY_00>
     258:	01 00 00 00 	nop 
     25c:	81 c3 e0 08 	retl 
     260:	01 00 00 00 	nop 

00000264 <CORTOS_HALT_ERROR>:
     264:	a1 80 20 01 	mov  1, %asr16
     268:	91 d0 20 00 	ta  0

0000026c <CORTOS_HALT_OKAY>:
     26c:	a1 80 20 00 	mov  %g0, %asr16
     270:	91 d0 20 00 	ta  0

00000274 <clear_stack_pointers>:
     274:	81 90 00 00 	mov  %g0, %wim
     278:	9c 10 00 00 	mov  %g0, %sp
     27c:	81 e0 00 00 	save 
     280:	9c 10 00 00 	mov  %g0, %sp
     284:	81 e0 00 00 	save 
     288:	9c 10 00 00 	mov  %g0, %sp
     28c:	81 e0 00 00 	save 
     290:	9c 10 00 00 	mov  %g0, %sp
     294:	81 e0 00 00 	save 
     298:	9c 10 00 00 	mov  %g0, %sp
     29c:	81 e0 00 00 	save 
     2a0:	9c 10 00 00 	mov  %g0, %sp
     2a4:	81 e0 00 00 	save 
     2a8:	9c 10 00 00 	mov  %g0, %sp
     2ac:	81 e0 00 00 	save 
     2b0:	9c 10 00 00 	mov  %g0, %sp
     2b4:	81 e0 00 00 	save 
     2b8:	81 c3 e0 08 	retl 
     2bc:	01 00 00 00 	nop 

000002c0 <cortos_lock_acquire_buzy>:
     2c0:	9d e3 bf a0 	save  %sp, -96, %sp

000002c4 <wait_for_lock>:
     2c4:	e2 0e 00 00 	ldub  [ %i0 ], %l1
     2c8:	80 94 40 00 	tst  %l1
     2cc:	12 bf ff fe 	bne  2c4 <wait_for_lock>
     2d0:	01 00 00 00 	nop 

000002d4 <try_to_lock>:
     2d4:	e2 6e 00 00 	ldstub  [ %i0 ], %l1
     2d8:	80 94 40 00 	tst  %l1
     2dc:	02 80 00 03 	be  2e8 <out>
     2e0:	01 00 00 00 	nop 
     2e4:	30 bf ff f8 	b,a   2c4 <wait_for_lock>

000002e8 <out>:
     2e8:	b0 10 20 01 	mov  1, %i0	! 1 <_start+0x1>
     2ec:	81 e8 00 00 	restore 
     2f0:	81 c3 e0 08 	retl 
     2f4:	01 00 00 00 	nop 

000002f8 <cortos_lock_acquire>:
     2f8:	9d e3 bf a0 	save  %sp, -96, %sp

000002fc <try_to_lock_once>:
     2fc:	e2 6e 00 00 	ldstub  [ %i0 ], %l1
     300:	80 94 40 00 	tst  %l1
     304:	02 80 00 03 	be  310 <lock_acquired>
     308:	01 00 00 00 	nop 
     30c:	30 80 00 03 	b,a   318 <lock_not_acquired>

00000310 <lock_acquired>:
     310:	10 80 00 03 	b  31c <exit_cortos_lock_acquire>
     314:	b0 10 20 01 	mov  1, %i0

00000318 <lock_not_acquired>:
     318:	b0 10 00 00 	mov  %g0, %i0

0000031c <exit_cortos_lock_acquire>:
     31c:	81 e8 00 00 	restore 
     320:	81 c3 e0 08 	retl 
     324:	01 00 00 00 	nop 

00000328 <cortos_lock_release>:
     328:	9d e3 bf a0 	save  %sp, -96, %sp
     32c:	81 43 c0 00 	stbar 
     330:	c0 2e 00 00 	clrb  [ %i0 ]
     334:	81 e8 00 00 	restore 
     338:	81 c3 e0 08 	retl 
     33c:	01 00 00 00 	nop 

00000340 <cortos_init_printing>:
     340:	84 10 20 01 	mov  1, %g2	! 1 <_start+0x1>
     344:	03 00 00 5c 	sethi  %hi(0x17000), %g1
     348:	82 10 60 28 	or  %g1, 0x28, %g1	! 17028 <allocatedLocksNc>
     34c:	c4 28 60 05 	stb  %g2, [ %g1 + 5 ]
     350:	05 00 00 64 	sethi  %hi(0x19000), %g2
     354:	03 00 00 5c 	sethi  %hi(0x17000), %g1
     358:	84 10 a0 05 	or  %g2, 5, %g2
     35c:	81 c3 e0 08 	retl 
     360:	c4 20 60 00 	st  %g2, [ %g1 ]

00000364 <cortos_get_clock_time>:
     364:	82 13 c0 00 	mov  %o7, %g1
     368:	40 00 02 19 	call  bcc <__ajit_get_clock_time>
     36c:	9e 10 40 00 	mov  %g1, %o7

00000370 <cortos_sleep>:
     370:	9d e3 bf a0 	save  %sp, -96, %sp
     374:	f0 27 a0 44 	st  %i0, [ %fp + 0x44 ]
     378:	d0 07 a0 44 	ld  [ %fp + 0x44 ], %o0
     37c:	40 00 02 1e 	call  bf4 <__ajit_sleep__>
     380:	01 00 00 00 	nop 
     384:	81 e8 00 00 	restore 
     388:	81 c3 e0 08 	retl 
     38c:	01 00 00 00 	nop 

00000390 <cortos_get_thread_id>:
     390:	9d e3 bf a0 	save  %sp, -96, %sp
     394:	a3 47 40 00 	rd  %asr29, %l1
     398:	82 10 00 11 	mov  %l1, %g1
     39c:	b1 30 60 07 	srl  %g1, 7, %i0
     3a0:	b0 0e 21 fe 	and  %i0, 0x1fe, %i0
     3a4:	82 06 00 01 	add  %i0, %g1, %g1
     3a8:	b1 28 60 18 	sll  %g1, 0x18, %i0
     3ac:	b1 3e 20 18 	sra  %i0, 0x18, %i0
     3b0:	81 c7 e0 08 	ret 
     3b4:	81 e8 00 00 	restore 

000003b8 <cortos_IsNcRamAddr>:
     3b8:	81 c3 e0 08 	retl 
     3bc:	90 10 20 00 	clr  %o0

000003c0 <cortos_vprintf>:
     3c0:	9d e3 bb a0 	save  %sp, -1120, %sp
     3c4:	92 10 00 18 	mov  %i0, %o1
     3c8:	94 10 00 19 	mov  %i1, %o2
     3cc:	ba 07 bc 00 	add  %fp, -1024, %i5
     3d0:	40 00 0f 03 	call  3fdc <vsprintf_>
     3d4:	90 10 00 1d 	mov  %i5, %o0
     3d8:	39 00 00 5c 	sethi  %hi(0x17000), %i4
     3dc:	7f ff ff b9 	call  2c0 <cortos_lock_acquire_buzy>
     3e0:	d0 07 20 00 	ld  [ %i4 ], %o0
     3e4:	d0 0f bc 00 	ldub  [ %fp + -1024 ], %o0
     3e8:	91 2a 20 18 	sll  %o0, 0x18, %o0
     3ec:	80 a2 20 00 	cmp  %o0, 0
     3f0:	02 80 00 0a 	be  418 <cortos_vprintf+0x58>
     3f4:	b0 10 20 00 	clr  %i0
     3f8:	40 00 0e bb 	call  3ee4 <uart_send_char>
     3fc:	91 3a 20 18 	sra  %o0, 0x18, %o0
     400:	b0 06 20 01 	inc  %i0
     404:	d0 0f 40 18 	ldub  [ %i5 + %i0 ], %o0
     408:	91 2a 20 18 	sll  %o0, 0x18, %o0
     40c:	80 a2 20 00 	cmp  %o0, 0
     410:	12 bf ff fa 	bne  3f8 <cortos_vprintf+0x38>
     414:	01 00 00 00 	nop 
     418:	7f ff ff c4 	call  328 <cortos_lock_release>
     41c:	d0 07 20 00 	ld  [ %i4 ], %o0
     420:	81 c7 e0 08 	ret 
     424:	81 e8 00 00 	restore 

00000428 <cortos_printf>:
     428:	9d e3 bf 98 	save  %sp, -104, %sp
     42c:	92 07 a0 48 	add  %fp, 0x48, %o1
     430:	f2 27 a0 48 	st  %i1, [ %fp + 0x48 ]
     434:	f4 27 a0 4c 	st  %i2, [ %fp + 0x4c ]
     438:	f6 27 a0 50 	st  %i3, [ %fp + 0x50 ]
     43c:	f8 27 a0 54 	st  %i4, [ %fp + 0x54 ]
     440:	fa 27 a0 58 	st  %i5, [ %fp + 0x58 ]
     444:	d2 27 bf fc 	st  %o1, [ %fp + -4 ]
     448:	7f ff ff de 	call  3c0 <cortos_vprintf>
     44c:	90 10 00 18 	mov  %i0, %o0
     450:	81 c7 e0 08 	ret 
     454:	91 e8 00 08 	restore  %g0, %o0, %o0

00000458 <cortos_init_locks>:
     458:	84 10 20 01 	mov  1, %g2
     45c:	03 00 00 5c 	sethi  %hi(0x17000), %g1
     460:	c4 28 60 28 	stb  %g2, [ %g1 + 0x28 ]	! 17028 <allocatedLocksNc>
     464:	05 00 00 64 	sethi  %hi(0x19000), %g2
     468:	03 00 00 5c 	sethi  %hi(0x17000), %g1
     46c:	81 c3 e0 08 	retl 
     470:	c4 20 60 20 	st  %g2, [ %g1 + 0x20 ]	! 17020 <cortos_reservedLockAddr>

00000474 <cortos_reserveLock>:
     474:	9d e3 bf a0 	save  %sp, -96, %sp
     478:	80 a6 20 00 	cmp  %i0, 0
     47c:	22 80 00 1b 	be,a   4e8 <cortos_reserveLock+0x74>
     480:	03 00 00 59 	sethi  %hi(0x16400), %g1
     484:	03 00 00 59 	sethi  %hi(0x16400), %g1
     488:	39 00 00 5c 	sethi  %hi(0x17000), %i4
     48c:	f0 00 60 c8 	ld  [ %g1 + 0xc8 ], %i0
     490:	b8 17 20 28 	or  %i4, 0x28, %i4
     494:	3b 00 00 5c 	sethi  %hi(0x17000), %i5
     498:	7f ff ff 8a 	call  2c0 <cortos_lock_acquire_buzy>
     49c:	d0 07 60 20 	ld  [ %i5 + 0x20 ], %o0	! 17020 <cortos_reservedLockAddr>
     4a0:	82 10 00 1c 	mov  %i4, %g1
     4a4:	10 80 00 06 	b  4bc <cortos_reserveLock+0x48>
     4a8:	84 10 20 00 	clr  %g2
     4ac:	84 00 a0 01 	inc  %g2
     4b0:	80 a0 a1 00 	cmp  %g2, 0x100
     4b4:	02 80 00 11 	be  4f8 <cortos_reserveLock+0x84>
     4b8:	82 00 60 01 	inc  %g1
     4bc:	c6 48 40 00 	ldsb  [ %g1 ], %g3
     4c0:	80 a0 e0 00 	cmp  %g3, 0
     4c4:	12 bf ff fa 	bne  4ac <cortos_reserveLock+0x38>
     4c8:	b8 10 00 02 	mov  %g2, %i4
     4cc:	86 10 20 01 	mov  1, %g3
     4d0:	d0 07 60 20 	ld  [ %i5 + 0x20 ], %o0
     4d4:	c6 28 40 00 	stb  %g3, [ %g1 ]
     4d8:	7f ff ff 94 	call  328 <cortos_lock_release>
     4dc:	b0 06 00 1c 	add  %i0, %i4, %i0
     4e0:	81 c7 e0 08 	ret 
     4e4:	81 e8 00 00 	restore 
     4e8:	39 00 00 5c 	sethi  %hi(0x17000), %i4
     4ec:	f0 00 60 cc 	ld  [ %g1 + 0xcc ], %i0
     4f0:	10 bf ff e9 	b  494 <cortos_reserveLock+0x20>
     4f4:	b8 17 21 28 	or  %i4, 0x128, %i4
     4f8:	b8 10 21 00 	mov  0x100, %i4
     4fc:	d0 07 60 20 	ld  [ %i5 + 0x20 ], %o0
     500:	7f ff ff 8a 	call  328 <cortos_lock_release>
     504:	b0 06 00 1c 	add  %i0, %i4, %i0
     508:	81 c7 e0 08 	ret 
     50c:	81 e8 00 00 	restore 

00000510 <cortos_freeLock>:
     510:	9d e3 bf a0 	save  %sp, -96, %sp
     514:	3b 00 00 59 	sethi  %hi(0x16400), %i5
     518:	c2 07 60 cc 	ld  [ %i5 + 0xcc ], %g1	! 164cc <lockStartAddr>
     51c:	80 a0 40 18 	cmp  %g1, %i0
     520:	18 80 00 05 	bgu  534 <cortos_freeLock+0x24>
     524:	82 00 61 00 	add  %g1, 0x100, %g1
     528:	80 a6 00 01 	cmp  %i0, %g1
     52c:	0a 80 00 0e 	bcs  564 <cortos_freeLock+0x54>
     530:	39 00 00 5c 	sethi  %hi(0x17000), %i4
     534:	3b 00 00 5c 	sethi  %hi(0x17000), %i5
     538:	7f ff ff 62 	call  2c0 <cortos_lock_acquire_buzy>
     53c:	d0 07 60 20 	ld  [ %i5 + 0x20 ], %o0	! 17020 <cortos_reservedLockAddr>
     540:	03 00 00 59 	sethi  %hi(0x16400), %g1
     544:	05 00 00 5c 	sethi  %hi(0x17000), %g2
     548:	c2 00 60 c8 	ld  [ %g1 + 0xc8 ], %g1
     54c:	84 10 a0 28 	or  %g2, 0x28, %g2
     550:	82 26 00 01 	sub  %i0, %g1, %g1
     554:	f0 07 60 20 	ld  [ %i5 + 0x20 ], %i0
     558:	c0 28 80 01 	clrb  [ %g2 + %g1 ]
     55c:	7f ff ff 73 	call  328 <cortos_lock_release>
     560:	81 e8 00 00 	restore 
     564:	7f ff ff 57 	call  2c0 <cortos_lock_acquire_buzy>
     568:	d0 07 20 20 	ld  [ %i4 + 0x20 ], %o0
     56c:	c2 07 60 cc 	ld  [ %i5 + 0xcc ], %g1
     570:	05 00 00 5c 	sethi  %hi(0x17000), %g2
     574:	82 26 00 01 	sub  %i0, %g1, %g1
     578:	84 10 a1 28 	or  %g2, 0x128, %g2
     57c:	f0 07 20 20 	ld  [ %i4 + 0x20 ], %i0
     580:	c0 28 80 01 	clrb  [ %g2 + %g1 ]
     584:	7f ff ff 69 	call  328 <cortos_lock_release>
     588:	81 e8 00 00 	restore 

0000058c <ajit_initialize_interrupt_handlers_to_null>:
     58c:	03 00 00 5c 	sethi  %hi(0x17000), %g1
     590:	82 10 62 28 	or  %g1, 0x228, %g1	! 17228 <ajit_global_interrupt_handlers>
     594:	84 00 60 40 	add  %g1, 0x40, %g2
     598:	c0 20 40 00 	clr  [ %g1 ]
     59c:	82 00 60 04 	add  %g1, 4, %g1
     5a0:	80 a0 40 02 	cmp  %g1, %g2
     5a4:	32 bf ff fe 	bne,a   59c <ajit_initialize_interrupt_handlers_to_null+0x10>
     5a8:	c0 20 40 00 	clr  [ %g1 ]
     5ac:	81 c3 e0 08 	retl 
     5b0:	01 00 00 00 	nop 

000005b4 <ajit_set_interrupt_handler>:
     5b4:	80 a2 20 0f 	cmp  %o0, 0xf
     5b8:	18 80 00 05 	bgu  5cc <ajit_set_interrupt_handler+0x18>
     5bc:	91 2a 20 02 	sll  %o0, 2, %o0
     5c0:	03 00 00 5c 	sethi  %hi(0x17000), %g1
     5c4:	82 10 62 28 	or  %g1, 0x228, %g1	! 17228 <ajit_global_interrupt_handlers>
     5c8:	d2 20 40 08 	st  %o1, [ %g1 + %o0 ]
     5cc:	81 c3 e0 08 	retl 
     5d0:	01 00 00 00 	nop 

000005d4 <readInterruptControlRegister>:
     5d4:	90 02 00 08 	add  %o0, %o0, %o0
     5d8:	03 20 00 00 	sethi  %hi(0x80000000), %g1
     5dc:	92 02 00 09 	add  %o0, %o1, %o1
     5e0:	82 10 62 00 	or  %g1, 0x200, %g1
     5e4:	91 2a 60 02 	sll  %o1, 2, %o0
     5e8:	90 02 00 01 	add  %o0, %g1, %o0
     5ec:	82 13 c0 00 	mov  %o7, %g1
     5f0:	40 00 02 1f 	call  e6c <__ajit_load_word_mmu_bypass__>
     5f4:	9e 10 40 00 	mov  %g1, %o7

000005f8 <writeInterruptControlRegister>:
     5f8:	90 02 00 08 	add  %o0, %o0, %o0
     5fc:	92 02 00 09 	add  %o0, %o1, %o1
     600:	90 10 00 0a 	mov  %o2, %o0
     604:	83 2a 60 02 	sll  %o1, 2, %g1
     608:	13 20 00 00 	sethi  %hi(0x80000000), %o1
     60c:	92 12 62 00 	or  %o1, 0x200, %o1	! 80000200 <_custom_printf_handler+0x7ffe8f2c>
     610:	92 00 40 09 	add  %g1, %o1, %o1
     614:	82 13 c0 00 	mov  %o7, %g1
     618:	40 00 01 9d 	call  c8c <__ajit_store_word_mmu_bypass__>
     61c:	9e 10 40 00 	mov  %g1, %o7

00000620 <enableInterruptController>:
     620:	9d e3 bf a0 	save  %sp, -96, %sp
     624:	90 10 00 18 	mov  %i0, %o0
     628:	7f ff ff eb 	call  5d4 <readInterruptControlRegister>
     62c:	92 10 00 19 	mov  %i1, %o1
     630:	b4 12 20 01 	or  %o0, 1, %i2
     634:	7f ff ff f1 	call  5f8 <writeInterruptControlRegister>
     638:	81 e8 00 00 	restore 

0000063c <disableInterruptController>:
     63c:	9d e3 bf a0 	save  %sp, -96, %sp
     640:	90 10 00 18 	mov  %i0, %o0
     644:	7f ff ff e4 	call  5d4 <readInterruptControlRegister>
     648:	92 10 00 19 	mov  %i1, %o1
     64c:	b4 0a 3f fe 	and  %o0, -2, %i2
     650:	7f ff ff ea 	call  5f8 <writeInterruptControlRegister>
     654:	81 e8 00 00 	restore 

00000658 <ajit_generic_interrupt_handler>:
     658:	9d e3 bf 98 	save  %sp, -104, %sp
     65c:	90 07 bf fe 	add  %fp, -2, %o0
     660:	40 00 01 50 	call  ba0 <ajit_get_core_and_thread_id>
     664:	92 07 bf ff 	add  %fp, -1, %o1
     668:	d0 0f bf fe 	ldub  [ %fp + -2 ], %o0
     66c:	7f ff ff f4 	call  63c <disableInterruptController>
     670:	d2 0f bf ff 	ldub  [ %fp + -1 ], %o1
     674:	b1 36 20 04 	srl  %i0, 4, %i0
     678:	b0 0e 20 ff 	and  %i0, 0xff, %i0
     67c:	82 06 3f ef 	add  %i0, -17, %g1
     680:	80 a0 60 0e 	cmp  %g1, 0xe
     684:	18 80 00 11 	bgu  6c8 <ajit_generic_interrupt_handler+0x70>
     688:	d0 0f bf fe 	ldub  [ %fp + -2 ], %o0
     68c:	b0 06 3f f0 	add  %i0, -16, %i0
     690:	03 00 00 5c 	sethi  %hi(0x17000), %g1
     694:	b1 2e 20 02 	sll  %i0, 2, %i0
     698:	82 10 62 28 	or  %g1, 0x228, %g1
     69c:	c2 00 40 18 	ld  [ %g1 + %i0 ], %g1
     6a0:	80 a0 60 00 	cmp  %g1, 0
     6a4:	02 80 00 09 	be  6c8 <ajit_generic_interrupt_handler+0x70>
     6a8:	01 00 00 00 	nop 
     6ac:	9f c0 40 00 	call  %g1
     6b0:	01 00 00 00 	nop 
     6b4:	d0 0f bf fe 	ldub  [ %fp + -2 ], %o0
     6b8:	7f ff ff da 	call  620 <enableInterruptController>
     6bc:	d2 0f bf ff 	ldub  [ %fp + -1 ], %o1
     6c0:	81 c7 e0 08 	ret 
     6c4:	81 e8 00 00 	restore 
     6c8:	7f ff ff d6 	call  620 <enableInterruptController>
     6cc:	d2 0f bf ff 	ldub  [ %fp + -1 ], %o1
     6d0:	91 d0 20 00 	ta  0
     6d4:	81 c7 e0 08 	ret 
     6d8:	81 e8 00 00 	restore 

000006dc <enableInterrupt>:
     6dc:	9d e3 bf a0 	save  %sp, -96, %sp
     6e0:	90 10 00 18 	mov  %i0, %o0
     6e4:	7f ff ff bc 	call  5d4 <readInterruptControlRegister>
     6e8:	92 10 00 19 	mov  %i1, %o1
     6ec:	82 10 20 01 	mov  1, %g1
     6f0:	b5 28 40 1a 	sll  %g1, %i2, %i2
     6f4:	b4 12 00 1a 	or  %o0, %i2, %i2
     6f8:	7f ff ff c0 	call  5f8 <writeInterruptControlRegister>
     6fc:	81 e8 00 00 	restore 

00000700 <enableAllInterrupts>:
     700:	9d e3 bf a0 	save  %sp, -96, %sp
     704:	35 00 00 3f 	sethi  %hi(0xfc00), %i2
     708:	90 10 00 18 	mov  %i0, %o0
     70c:	92 10 00 19 	mov  %i1, %o1
     710:	7f ff ff b1 	call  5d4 <readInterruptControlRegister>
     714:	b4 16 a3 fe 	or  %i2, 0x3fe, %i2
     718:	b4 12 00 1a 	or  %o0, %i2, %i2
     71c:	7f ff ff b7 	call  5f8 <writeInterruptControlRegister>
     720:	81 e8 00 00 	restore 

00000724 <enableInterruptControllerAndAllInterrupts>:
     724:	15 00 00 3f 	sethi  %hi(0xfc00), %o2
     728:	94 12 a3 ff 	or  %o2, 0x3ff, %o2	! ffff <SW_trap_0xfe+0x1f>
     72c:	82 13 c0 00 	mov  %o7, %g1
     730:	7f ff ff b2 	call  5f8 <writeInterruptControlRegister>
     734:	9e 10 40 00 	mov  %g1, %o7

00000738 <setInterruptMask>:
     738:	9d e3 bf a0 	save  %sp, -96, %sp
     73c:	90 10 00 18 	mov  %i0, %o0
     740:	7f ff ff a5 	call  5d4 <readInterruptControlRegister>
     744:	92 10 00 19 	mov  %i1, %o1
     748:	03 3f ff c0 	sethi  %hi(0xffff0000), %g1
     74c:	05 00 00 3f 	sethi  %hi(0xfc00), %g2
     750:	82 10 60 01 	or  %g1, 1, %g1
     754:	84 10 a3 fe 	or  %g2, 0x3fe, %g2
     758:	90 0a 00 01 	and  %o0, %g1, %o0
     75c:	b4 0e 80 02 	and  %i2, %g2, %i2
     760:	b4 12 00 1a 	or  %o0, %i2, %i2
     764:	7f ff ff a5 	call  5f8 <writeInterruptControlRegister>
     768:	81 e8 00 00 	restore 

0000076c <disableInterrupt>:
     76c:	9d e3 bf a0 	save  %sp, -96, %sp
     770:	90 10 00 18 	mov  %i0, %o0
     774:	7f ff ff 98 	call  5d4 <readInterruptControlRegister>
     778:	92 10 00 19 	mov  %i1, %o1
     77c:	82 10 20 01 	mov  1, %g1
     780:	b5 28 40 1a 	sll  %g1, %i2, %i2
     784:	b4 2a 00 1a 	andn  %o0, %i2, %i2
     788:	7f ff ff 9c 	call  5f8 <writeInterruptControlRegister>
     78c:	81 e8 00 00 	restore 

00000790 <main_00>:
     790:	9d e3 be a0 	save  %sp, -352, %sp
     794:	94 10 20 00 	clr  %o2
     798:	90 10 20 01 	mov  1, %o0
     79c:	40 00 02 c8 	call  12bc <__ajit_serial_configure_via_bypass__>
     7a0:	92 10 20 00 	clr  %o1
     7a4:	13 01 31 2d 	sethi  %hi(0x4c4b400), %o1
     7a8:	11 00 00 70 	sethi  %hi(0x1c000), %o0
     7ac:	40 00 01 f8 	call  f8c <__ajit_serial_set_baudrate_via_bypass__>
     7b0:	90 12 22 00 	or  %o0, 0x200, %o0	! 1c200 <_custom_printf_handler+0x4f2c>
     7b4:	40 00 03 d8 	call  1714 <__ajit_serial_set_uart_reset_via_bypass__>
     7b8:	90 10 20 00 	clr  %o0
     7bc:	90 07 bf 00 	add  %fp, -256, %o0
     7c0:	13 00 00 58 	sethi  %hi(0x16000), %o1
     7c4:	40 00 0f ca 	call  46ec <__GI_sprintf>
     7c8:	92 12 63 38 	or  %o1, 0x338, %o1	! 16338 <__clz_tab+0x100>
     7cc:	90 07 bf 00 	add  %fp, -256, %o0
     7d0:	40 00 03 80 	call  15d0 <__ajit_serial_puts_via_bypass__>
     7d4:	92 10 20 ff 	mov  0xff, %o1
     7d8:	90 07 bf 00 	add  %fp, -256, %o0
     7dc:	13 00 00 58 	sethi  %hi(0x16000), %o1
     7e0:	40 00 0f c3 	call  46ec <__GI_sprintf>
     7e4:	92 12 63 48 	or  %o1, 0x348, %o1	! 16348 <__clz_tab+0x110>
     7e8:	90 07 bf 00 	add  %fp, -256, %o0
     7ec:	40 00 03 79 	call  15d0 <__ajit_serial_puts_via_bypass__>
     7f0:	92 10 20 ff 	mov  0xff, %o1
     7f4:	90 07 bf 00 	add  %fp, -256, %o0
     7f8:	13 00 00 58 	sethi  %hi(0x16000), %o1
     7fc:	40 00 0f bc 	call  46ec <__GI_sprintf>
     800:	92 12 63 58 	or  %o1, 0x358, %o1	! 16358 <__clz_tab+0x120>
     804:	90 07 bf 00 	add  %fp, -256, %o0
     808:	40 00 03 72 	call  15d0 <__ajit_serial_puts_via_bypass__>
     80c:	92 10 20 ff 	mov  0xff, %o1
     810:	81 c7 e0 08 	ret 
     814:	81 e8 00 00 	restore 

00000818 <cortos_init_hw_traps>:
     818:	82 13 c0 00 	mov  %o7, %g1
     81c:	7f ff ff 5c 	call  58c <ajit_initialize_interrupt_handlers_to_null>
     820:	9e 10 40 00 	mov  %g1, %o7

00000824 <cortos_init_sw_traps>:
     824:	82 13 c0 00 	mov  %o7, %g1
     828:	40 00 0f 25 	call  44bc <ajit_initialize_sw_trap_handlers_to_null>
     82c:	9e 10 40 00 	mov  %g1, %o7
     830:	00 00 0c a8 	unimp  0xca8
     834:	00 00 0c e0 	unimp  0xce0
     838:	00 00 0c ec 	unimp  0xcec
     83c:	00 00 0c f8 	unimp  0xcf8
     840:	00 00 0d 04 	unimp  0xd04
     844:	00 00 0d 10 	unimp  0xd10
     848:	00 00 0d 1c 	unimp  0xd1c
     84c:	00 00 0d 28 	unimp  0xd28
     850:	00 00 0d 34 	unimp  0xd34
     854:	00 00 0d 40 	unimp  0xd40
     858:	00 00 0d 4c 	unimp  0xd4c
     85c:	00 00 0d 58 	unimp  0xd58
     860:	00 00 0d 64 	unimp  0xd64
     864:	00 00 0d 70 	unimp  0xd70
     868:	00 00 0c c8 	unimp  0xcc8
     86c:	00 00 0c d4 	unimp  0xcd4
     870:	00 00 0d 8c 	unimp  0xd8c
     874:	00 00 0d c4 	unimp  0xdc4
     878:	00 00 0d d0 	unimp  0xdd0
     87c:	00 00 0d dc 	unimp  0xddc
     880:	00 00 0d e8 	unimp  0xde8
     884:	00 00 0d f4 	unimp  0xdf4
     888:	00 00 0e 00 	unimp  0xe00
     88c:	00 00 0e 0c 	unimp  0xe0c
     890:	00 00 0e 18 	unimp  0xe18
     894:	00 00 0e 24 	unimp  0xe24
     898:	00 00 0e 30 	unimp  0xe30
     89c:	00 00 0e 3c 	unimp  0xe3c
     8a0:	00 00 0e 48 	unimp  0xe48
     8a4:	00 00 0e 54 	unimp  0xe54
     8a8:	00 00 0d ac 	unimp  0xdac
     8ac:	00 00 0d b8 	unimp  0xdb8

000008b0 <__ajit_clear_all_gp_registers__>:
     8b0:	82 10 00 00 	mov  %g0, %g1
     8b4:	84 10 00 00 	mov  %g0, %g2
     8b8:	86 10 00 00 	mov  %g0, %g3
     8bc:	88 10 00 00 	mov  %g0, %g4
     8c0:	8a 10 00 00 	mov  %g0, %g5
     8c4:	8c 10 00 00 	mov  %g0, %g6
     8c8:	8e 10 00 00 	mov  %g0, %g7
     8cc:	b0 10 00 00 	mov  %g0, %i0
     8d0:	b2 10 00 00 	mov  %g0, %i1
     8d4:	b4 10 00 00 	mov  %g0, %i2
     8d8:	b6 10 00 00 	mov  %g0, %i3
     8dc:	b8 10 00 00 	mov  %g0, %i4
     8e0:	ba 10 00 00 	mov  %g0, %i5
     8e4:	bc 10 00 00 	mov  %g0, %fp
     8e8:	be 10 00 00 	mov  %g0, %i7
     8ec:	a0 10 00 00 	mov  %g0, %l0
     8f0:	a2 10 00 00 	mov  %g0, %l1
     8f4:	a4 10 00 00 	mov  %g0, %l2
     8f8:	a6 10 00 00 	mov  %g0, %l3
     8fc:	a8 10 00 00 	mov  %g0, %l4
     900:	aa 10 00 00 	mov  %g0, %l5
     904:	ac 10 00 00 	mov  %g0, %l6
     908:	ae 10 00 00 	mov  %g0, %l7
     90c:	90 10 00 00 	mov  %g0, %o0
     910:	92 10 00 00 	mov  %g0, %o1
     914:	94 10 00 00 	mov  %g0, %o2
     918:	96 10 00 00 	mov  %g0, %o3
     91c:	98 10 00 00 	mov  %g0, %o4
     920:	9a 10 00 00 	mov  %g0, %o5
     924:	9c 10 00 00 	mov  %g0, %sp
     928:	9e 10 00 00 	mov  %g0, %o7
     92c:	82 10 20 07 	mov  7, %g1
     930:	81 e0 00 00 	save 
     934:	a0 10 00 00 	mov  %g0, %l0
     938:	a2 10 00 00 	mov  %g0, %l1
     93c:	a4 10 00 00 	mov  %g0, %l2
     940:	a6 10 00 00 	mov  %g0, %l3
     944:	a8 10 00 00 	mov  %g0, %l4
     948:	aa 10 00 00 	mov  %g0, %l5
     94c:	ac 10 00 00 	mov  %g0, %l6
     950:	ae 10 00 00 	mov  %g0, %l7
     954:	90 10 00 00 	mov  %g0, %o0
     958:	92 10 00 00 	mov  %g0, %o1
     95c:	94 10 00 00 	mov  %g0, %o2
     960:	96 10 00 00 	mov  %g0, %o3
     964:	98 10 00 00 	mov  %g0, %o4
     968:	9a 10 00 00 	mov  %g0, %o5
     96c:	9c 10 00 00 	mov  %g0, %sp
     970:	9e 10 00 00 	mov  %g0, %o7
     974:	82 80 7f ff 	addcc  %g1, -1, %g1
     978:	12 bf ff ee 	bne  930 <__ajit_clear_all_gp_registers__+0x80>
     97c:	01 00 00 00 	nop 
     980:	82 10 20 07 	mov  7, %g1	! 7 <__libc_errno+0x3>
     984:	81 e8 00 00 	restore 
     988:	82 80 7f ff 	addcc  %g1, -1, %g1
     98c:	12 bf ff fe 	bne  984 <__ajit_clear_all_gp_registers__+0xd4>
     990:	01 00 00 00 	nop 
     994:	81 c3 e0 08 	retl 
     998:	01 00 00 00 	nop 

0000099c <ajit_read_from_scratch_pad>:
     99c:	80 a2 20 1f 	cmp  %o0, 0x1f
     9a0:	18 80 00 05 	bgu  9b4 <ajit_read_from_scratch_pad+0x18>
     9a4:	82 10 20 00 	clr  %g1
     9a8:	91 2a 20 02 	sll  %o0, 2, %o0
     9ac:	03 20 00 04 	sethi  %hi(0x80001000), %g1
     9b0:	c2 02 00 01 	ld  [ %o0 + %g1 ], %g1
     9b4:	81 c3 e0 08 	retl 
     9b8:	90 10 00 01 	mov  %g1, %o0

000009bc <ajit_write_to_scratch_pad>:
     9bc:	80 a2 20 1f 	cmp  %o0, 0x1f
     9c0:	18 80 00 04 	bgu  9d0 <ajit_write_to_scratch_pad+0x14>
     9c4:	91 2a 20 02 	sll  %o0, 2, %o0
     9c8:	03 20 00 04 	sethi  %hi(0x80001000), %g1
     9cc:	d2 22 00 01 	st  %o1, [ %o0 + %g1 ]
     9d0:	81 c3 e0 08 	retl 
     9d4:	01 00 00 00 	nop 

000009d8 <ajit_configure_i2c_master>:
     9d8:	81 80 20 00 	mov  %g0, %y
     9dc:	01 00 00 00 	nop 
     9e0:	01 00 00 00 	nop 
     9e4:	01 00 00 00 	nop 
     9e8:	92 72 00 09 	udiv  %o0, %o1, %o1
     9ec:	03 20 00 02 	sethi  %hi(0x80000800), %g1
     9f0:	93 32 60 02 	srl  %o1, 2, %o1
     9f4:	82 10 63 00 	or  %g1, 0x300, %g1
     9f8:	90 10 20 00 	clr  %o0
     9fc:	81 c3 e0 08 	retl 
     a00:	d2 20 40 00 	st  %o1, [ %g1 ]

00000a04 <ajit_i2c_master_is_ready>:
     a04:	03 20 00 02 	sethi  %hi(0x80000800), %g1
     a08:	82 10 63 08 	or  %g1, 0x308, %g1	! 80000b08 <_custom_printf_handler+0x7ffe9834>
     a0c:	d0 00 40 00 	ld  [ %g1 ], %o0
     a10:	91 32 20 0a 	srl  %o0, 0xa, %o0
     a14:	81 c3 e0 08 	retl 
     a18:	90 0a 20 01 	and  %o0, 1, %o0

00000a1c <ajit_i2c_master_write_command>:
     a1c:	03 20 00 02 	sethi  %hi(0x80000800), %g1
     a20:	82 10 63 04 	or  %g1, 0x304, %g1	! 80000b04 <_custom_printf_handler+0x7ffe9830>
     a24:	81 c3 e0 08 	retl 
     a28:	d0 20 40 00 	st  %o0, [ %g1 ]

00000a2c <ajit_i2c_master_read_status>:
     a2c:	03 20 00 02 	sethi  %hi(0x80000800), %g1
     a30:	82 10 63 08 	or  %g1, 0x308, %g1	! 80000b08 <_custom_printf_handler+0x7ffe9834>
     a34:	81 c3 e0 08 	retl 
     a38:	d0 00 40 00 	ld  [ %g1 ], %o0

00000a3c <ajit_i2c_master_access_slave_memory_device>:
     a3c:	03 20 00 02 	sethi  %hi(0x80000800), %g1
     a40:	84 10 63 08 	or  %g1, 0x308, %g2	! 80000b08 <_custom_printf_handler+0x7ffe9834>
     a44:	c4 00 80 00 	ld  [ %g2 ], %g2
     a48:	80 88 a4 00 	btst  0x400, %g2
     a4c:	02 80 00 11 	be  a90 <ajit_i2c_master_access_slave_memory_device+0x54>
     a50:	82 10 63 04 	or  %g1, 0x304, %g1
     a54:	91 2a 20 10 	sll  %o0, 0x10, %o0
     a58:	87 2a 60 1f 	sll  %o1, 0x1f, %g3
     a5c:	09 18 00 00 	sethi  %hi(0x60000000), %g4
     a60:	95 2a a0 08 	sll  %o2, 8, %o2
     a64:	90 12 00 04 	or  %o0, %g4, %o0
     a68:	90 12 00 03 	or  %o0, %g3, %o0
     a6c:	94 12 00 0a 	or  %o0, %o2, %o2
     a70:	96 12 80 0b 	or  %o2, %o3, %o3
     a74:	d6 20 40 00 	st  %o3, [ %g1 ]
     a78:	80 a2 60 00 	cmp  %o1, 0
     a7c:	02 80 00 03 	be  a88 <ajit_i2c_master_access_slave_memory_device+0x4c>
     a80:	90 10 20 00 	clr  %o0
     a84:	90 10 00 02 	mov  %g2, %o0
     a88:	81 c3 e0 08 	retl 
     a8c:	90 0a 20 ff 	and  %o0, 0xff, %o0
     a90:	30 80 00 00 	b,a   a90 <ajit_i2c_master_access_slave_memory_device+0x54>

00000a94 <__ajit_read_core_thread_id_word__>:
     a94:	91 47 40 00 	rd  %asr29, %o0
     a98:	81 c3 e0 08 	retl 
     a9c:	01 00 00 00 	nop 

00000aa0 <ajit_read_thread_descriptor>:
     aa0:	9d e3 bf a0 	save  %sp, -96, %sp
     aa4:	83 47 00 00 	rd  %asr28, %g1
     aa8:	87 30 60 1e 	srl  %g1, 0x1e, %g3
     aac:	80 a0 e0 03 	cmp  %g3, 3
     ab0:	02 80 00 0a 	be  ad8 <ajit_read_thread_descriptor+0x38>
     ab4:	84 10 20 20 	mov  0x20, %g2
     ab8:	80 a0 e0 02 	cmp  %g3, 2
     abc:	02 80 00 07 	be  ad8 <ajit_read_thread_descriptor+0x38>
     ac0:	84 10 20 10 	mov  0x10, %g2
     ac4:	86 18 e0 01 	xor  %g3, 1, %g3
     ac8:	80 a0 00 03 	cmp  %g0, %g3
     acc:	84 60 20 00 	subx  %g0, 0, %g2
     ad0:	84 08 a0 fc 	and  %g2, 0xfc, %g2
     ad4:	84 00 a0 08 	add  %g2, 8, %g2
     ad8:	87 30 60 1c 	srl  %g1, 0x1c, %g3
     adc:	86 08 e0 03 	and  %g3, 3, %g3
     ae0:	80 a0 e0 03 	cmp  %g3, 3
     ae4:	02 80 00 2d 	be  b98 <ajit_read_thread_descriptor+0xf8>
     ae8:	c4 2e 00 00 	stb  %g2, [ %i0 ]
     aec:	80 a0 e0 02 	cmp  %g3, 2
     af0:	02 80 00 07 	be  b0c <ajit_read_thread_descriptor+0x6c>
     af4:	84 10 20 10 	mov  0x10, %g2
     af8:	86 18 e0 01 	xor  %g3, 1, %g3
     afc:	80 a0 00 03 	cmp  %g0, %g3
     b00:	84 60 20 00 	subx  %g0, 0, %g2
     b04:	84 08 a0 fc 	and  %g2, 0xfc, %g2
     b08:	84 00 a0 08 	add  %g2, 8, %g2
     b0c:	99 30 60 1a 	srl  %g1, 0x1a, %o4
     b10:	9b 30 60 18 	srl  %g1, 0x18, %o5
     b14:	9f 30 60 14 	srl  %g1, 0x14, %o7
     b18:	b3 30 60 10 	srl  %g1, 0x10, %i1
     b1c:	b5 30 60 0c 	srl  %g1, 0xc, %i2
     b20:	b7 30 60 09 	srl  %g1, 9, %i3
     b24:	b9 30 60 07 	srl  %g1, 7, %i4
     b28:	bb 30 60 05 	srl  %g1, 5, %i5
     b2c:	89 30 60 02 	srl  %g1, 2, %g4
     b30:	87 30 60 01 	srl  %g1, 1, %g3
     b34:	98 0b 20 03 	and  %o4, 3, %o4
     b38:	9a 0b 60 03 	and  %o5, 3, %o5
     b3c:	9e 0b e0 0f 	and  %o7, 0xf, %o7
     b40:	b2 0e 60 0f 	and  %i1, 0xf, %i1
     b44:	b4 0e a0 0f 	and  %i2, 0xf, %i2
     b48:	b6 0e e0 07 	and  %i3, 7, %i3
     b4c:	b8 0f 20 03 	and  %i4, 3, %i4
     b50:	ba 0f 60 03 	and  %i5, 3, %i5
     b54:	88 09 20 01 	and  %g4, 1, %g4
     b58:	86 08 e0 01 	and  %g3, 1, %g3
     b5c:	82 08 60 01 	and  %g1, 1, %g1
     b60:	c4 2e 20 01 	stb  %g2, [ %i0 + 1 ]
     b64:	d8 2e 20 02 	stb  %o4, [ %i0 + 2 ]
     b68:	da 2e 20 03 	stb  %o5, [ %i0 + 3 ]
     b6c:	de 2e 20 04 	stb  %o7, [ %i0 + 4 ]
     b70:	f2 2e 20 05 	stb  %i1, [ %i0 + 5 ]
     b74:	f4 2e 20 06 	stb  %i2, [ %i0 + 6 ]
     b78:	f6 2e 20 07 	stb  %i3, [ %i0 + 7 ]
     b7c:	f8 2e 20 08 	stb  %i4, [ %i0 + 8 ]
     b80:	fa 2e 20 09 	stb  %i5, [ %i0 + 9 ]
     b84:	c8 2e 20 0a 	stb  %g4, [ %i0 + 0xa ]
     b88:	c6 2e 20 0b 	stb  %g3, [ %i0 + 0xb ]
     b8c:	c2 2e 20 0c 	stb  %g1, [ %i0 + 0xc ]
     b90:	81 c7 e0 08 	ret 
     b94:	81 e8 00 00 	restore 
     b98:	10 bf ff dd 	b  b0c <ajit_read_thread_descriptor+0x6c>
     b9c:	84 10 20 20 	mov  0x20, %g2

00000ba0 <ajit_get_core_and_thread_id>:
     ba0:	83 47 40 00 	rd  %asr29, %g1
     ba4:	85 30 60 08 	srl  %g1, 8, %g2
     ba8:	c4 2a 00 00 	stb  %g2, [ %o0 ]
     bac:	81 c3 e0 08 	retl 
     bb0:	c2 2a 40 00 	stb  %g1, [ %o1 ]

00000bb4 <__ajit_read_cycle_count_register_high__>:
     bb4:	91 47 80 00 	rd  %asr30, %o0
     bb8:	81 c3 e0 08 	retl 
     bbc:	01 00 00 00 	nop 

00000bc0 <__ajit_read_cycle_count_register_low__>:
     bc0:	91 47 c0 00 	rd  %asr31, %o0
     bc4:	81 c3 e0 08 	retl 
     bc8:	01 00 00 00 	nop 

00000bcc <__ajit_get_clock_time>:
     bcc:	99 47 c0 00 	rd  %asr31, %o4
     bd0:	83 47 80 00 	rd  %asr30, %g1
     bd4:	86 10 20 00 	clr  %g3
     bd8:	9a 10 00 0c 	mov  %o4, %o5
     bdc:	98 10 20 00 	clr  %o4
     be0:	86 10 c0 0d 	or  %g3, %o5, %g3
     be4:	84 10 40 0c 	or  %g1, %o4, %g2
     be8:	92 10 00 03 	mov  %g3, %o1
     bec:	81 c3 e0 08 	retl 
     bf0:	90 10 00 02 	mov  %g2, %o0

00000bf4 <__ajit_sleep__>:
     bf4:	95 47 c0 00 	rd  %asr31, %o2
     bf8:	83 47 80 00 	rd  %asr30, %g1
     bfc:	9a 10 20 00 	clr  %o5
     c00:	96 10 00 0a 	mov  %o2, %o3
     c04:	9a 13 40 0b 	or  %o5, %o3, %o5
     c08:	92 83 40 08 	addcc  %o5, %o0, %o1
     c0c:	94 10 20 00 	clr  %o2
     c10:	98 10 40 0a 	or  %g1, %o2, %o4
     c14:	90 43 20 00 	addx  %o4, 0, %o0
     c18:	80 a2 00 0c 	cmp  %o0, %o4
     c1c:	08 80 00 0c 	bleu  c4c <__ajit_sleep__+0x58>
     c20:	01 00 00 00 	nop 
     c24:	99 47 c0 00 	rd  %asr31, %o4
     c28:	83 47 80 00 	rd  %asr30, %g1
     c2c:	86 10 20 00 	clr  %g3
     c30:	9a 10 00 0c 	mov  %o4, %o5
     c34:	98 10 20 00 	clr  %o4
     c38:	98 10 40 0c 	or  %g1, %o4, %o4
     c3c:	80 a2 00 0c 	cmp  %o0, %o4
     c40:	18 bf ff f9 	bgu  c24 <__ajit_sleep__+0x30>
     c44:	9a 10 c0 0d 	or  %g3, %o5, %o5
     c48:	80 a2 00 0c 	cmp  %o0, %o4
     c4c:	12 80 00 04 	bne  c5c <__ajit_sleep__+0x68>
     c50:	80 a2 40 0d 	cmp  %o1, %o5
     c54:	18 bf ff f4 	bgu  c24 <__ajit_sleep__+0x30>
     c58:	01 00 00 00 	nop 
     c5c:	81 c3 e0 08 	retl 
     c60:	01 00 00 00 	nop 

00000c64 <__ajit_set_mmu_default_cacheable_bit__>:
     c64:	80 a0 00 08 	cmp  %g0, %o0
     c68:	84 10 20 00 	clr  %g2
     c6c:	82 40 20 00 	addx  %g0, 0, %g1
     c70:	83 28 60 08 	sll  %g1, 8, %g1
     c74:	c2 a0 80 80 	sta  %g1, [ %g2 ] #ASI_N
     c78:	81 c3 e0 08 	retl 
     c7c:	01 00 00 00 	nop 

00000c80 <__ajit_store_word_mmu_reg__>:
     c80:	d0 a2 40 80 	sta  %o0, [ %o1 ] #ASI_N
     c84:	81 c3 e0 08 	retl 
     c88:	01 00 00 00 	nop 

00000c8c <__ajit_store_word_mmu_bypass__>:
     c8c:	d0 a2 44 00 	sta  %o0, [ %o1 ] #ASI_SCRATCHPAD
     c90:	81 c3 e0 08 	retl 
     c94:	01 00 00 00 	nop 

00000c98 <__ajit_store_word_to_physical_address__>:
     c98:	86 0a 60 0f 	and  %o1, 0xf, %g3
     c9c:	80 a0 e0 0f 	cmp  %g3, 0xf
     ca0:	08 80 00 05 	bleu  cb4 <__ajit_store_word_to_physical_address__+0x1c>
     ca4:	83 28 e0 02 	sll  %g3, 2, %g1
     ca8:	d0 a2 84 00 	sta  %o0, [ %o2 ] #ASI_SCRATCHPAD
     cac:	81 c3 e0 08 	retl 
     cb0:	01 00 00 00 	nop 
     cb4:	05 00 00 02 	sethi  %hi(0x800), %g2
     cb8:	84 10 a0 30 	or  %g2, 0x30, %g2	! 830 <cortos_init_sw_traps+0xc>
     cbc:	c2 00 80 01 	ld  [ %g2 + %g1 ], %g1
     cc0:	81 c0 40 00 	jmp  %g1
     cc4:	01 00 00 00 	nop 
     cc8:	d0 a2 85 c0 	sta  %o0, [ %o2 ] (46)
     ccc:	81 c3 e0 08 	retl 
     cd0:	01 00 00 00 	nop 
     cd4:	d0 a2 85 e0 	sta  %o0, [ %o2 ] (47)
     cd8:	81 c3 e0 08 	retl 
     cdc:	01 00 00 00 	nop 
     ce0:	d0 a2 84 20 	sta  %o0, [ %o2 ] #ASI_MMU
     ce4:	81 c3 e0 08 	retl 
     ce8:	01 00 00 00 	nop 
     cec:	d0 a2 84 40 	sta  %o0, [ %o2 ] (34)
     cf0:	81 c3 e0 08 	retl 
     cf4:	01 00 00 00 	nop 
     cf8:	d0 a2 84 60 	sta  %o0, [ %o2 ] #ASI_BLK_INIT_QUAD_LDD_AIUS
     cfc:	81 c3 e0 08 	retl 
     d00:	01 00 00 00 	nop 
     d04:	d0 a2 84 80 	sta  %o0, [ %o2 ] #ASI_NUCLEUS_QUAD_LDD
     d08:	81 c3 e0 08 	retl 
     d0c:	01 00 00 00 	nop 
     d10:	d0 a2 84 a0 	sta  %o0, [ %o2 ] #ASI_QUEUE
     d14:	81 c3 e0 08 	retl 
     d18:	01 00 00 00 	nop 
     d1c:	d0 a2 84 c0 	sta  %o0, [ %o2 ] #ASI_QUAD_LDD_PHYS_4V
     d20:	81 c3 e0 08 	retl 
     d24:	01 00 00 00 	nop 
     d28:	d0 a2 84 e0 	sta  %o0, [ %o2 ] (39)
     d2c:	81 c3 e0 08 	retl 
     d30:	01 00 00 00 	nop 
     d34:	d0 a2 85 00 	sta  %o0, [ %o2 ] (40)
     d38:	81 c3 e0 08 	retl 
     d3c:	01 00 00 00 	nop 
     d40:	d0 a2 85 20 	sta  %o0, [ %o2 ] (41)
     d44:	81 c3 e0 08 	retl 
     d48:	01 00 00 00 	nop 
     d4c:	d0 a2 85 40 	sta  %o0, [ %o2 ] (42)
     d50:	81 c3 e0 08 	retl 
     d54:	01 00 00 00 	nop 
     d58:	d0 a2 85 60 	sta  %o0, [ %o2 ] (43)
     d5c:	81 c3 e0 08 	retl 
     d60:	01 00 00 00 	nop 
     d64:	d0 a2 85 80 	sta  %o0, [ %o2 ] #ASI_NUCLEUS_QUAD_LDD_L
     d68:	81 c3 e0 08 	retl 
     d6c:	01 00 00 00 	nop 
     d70:	d0 a2 85 a0 	sta  %o0, [ %o2 ] (45)
     d74:	81 c3 e0 08 	retl 
     d78:	01 00 00 00 	nop 

00000d7c <__ajit_load_word_from_physical_address__>:
     d7c:	86 0a 20 0f 	and  %o0, 0xf, %g3
     d80:	80 a0 e0 0f 	cmp  %g3, 0xf
     d84:	08 80 00 05 	bleu  d98 <__ajit_load_word_from_physical_address__+0x1c>
     d88:	83 28 e0 02 	sll  %g3, 2, %g1
     d8c:	d0 82 44 00 	lda  [ %o1 ] #ASI_SCRATCHPAD, %o0
     d90:	81 c3 e0 08 	retl 
     d94:	01 00 00 00 	nop 
     d98:	05 00 00 02 	sethi  %hi(0x800), %g2
     d9c:	84 10 a0 70 	or  %g2, 0x70, %g2	! 870 <cortos_init_sw_traps+0x4c>
     da0:	c2 00 80 01 	ld  [ %g2 + %g1 ], %g1
     da4:	81 c0 40 00 	jmp  %g1
     da8:	01 00 00 00 	nop 
     dac:	d0 82 45 c0 	lda  [ %o1 ] (46), %o0
     db0:	81 c3 e0 08 	retl 
     db4:	01 00 00 00 	nop 
     db8:	d0 82 45 e0 	lda  [ %o1 ] (47), %o0
     dbc:	81 c3 e0 08 	retl 
     dc0:	01 00 00 00 	nop 
     dc4:	d0 82 44 20 	lda  [ %o1 ] #ASI_MMU, %o0
     dc8:	81 c3 e0 08 	retl 
     dcc:	01 00 00 00 	nop 
     dd0:	d0 82 44 40 	lda  [ %o1 ] (34), %o0
     dd4:	81 c3 e0 08 	retl 
     dd8:	01 00 00 00 	nop 
     ddc:	d0 82 44 60 	lda  [ %o1 ] #ASI_BLK_INIT_QUAD_LDD_AIUS, %o0
     de0:	81 c3 e0 08 	retl 
     de4:	01 00 00 00 	nop 
     de8:	d0 82 44 80 	lda  [ %o1 ] #ASI_NUCLEUS_QUAD_LDD, %o0
     dec:	81 c3 e0 08 	retl 
     df0:	01 00 00 00 	nop 
     df4:	d0 82 44 a0 	lda  [ %o1 ] #ASI_QUEUE, %o0
     df8:	81 c3 e0 08 	retl 
     dfc:	01 00 00 00 	nop 
     e00:	d0 82 44 c0 	lda  [ %o1 ] #ASI_QUAD_LDD_PHYS_4V, %o0
     e04:	81 c3 e0 08 	retl 
     e08:	01 00 00 00 	nop 
     e0c:	d0 82 44 e0 	lda  [ %o1 ] (39), %o0
     e10:	81 c3 e0 08 	retl 
     e14:	01 00 00 00 	nop 
     e18:	d0 82 45 00 	lda  [ %o1 ] (40), %o0
     e1c:	81 c3 e0 08 	retl 
     e20:	01 00 00 00 	nop 
     e24:	d0 82 45 20 	lda  [ %o1 ] (41), %o0
     e28:	81 c3 e0 08 	retl 
     e2c:	01 00 00 00 	nop 
     e30:	d0 82 45 40 	lda  [ %o1 ] (42), %o0
     e34:	81 c3 e0 08 	retl 
     e38:	01 00 00 00 	nop 
     e3c:	d0 82 45 60 	lda  [ %o1 ] (43), %o0
     e40:	81 c3 e0 08 	retl 
     e44:	01 00 00 00 	nop 
     e48:	d0 82 45 80 	lda  [ %o1 ] #ASI_NUCLEUS_QUAD_LDD_L, %o0
     e4c:	81 c3 e0 08 	retl 
     e50:	01 00 00 00 	nop 
     e54:	d0 82 45 a0 	lda  [ %o1 ] (45), %o0
     e58:	81 c3 e0 08 	retl 
     e5c:	01 00 00 00 	nop 

00000e60 <__ajit_load_word_mmu_reg__>:
     e60:	d0 82 00 80 	lda  [ %o0 ] #ASI_N, %o0
     e64:	81 c3 e0 08 	retl 
     e68:	01 00 00 00 	nop 

00000e6c <__ajit_load_word_mmu_bypass__>:
     e6c:	d0 82 04 00 	lda  [ %o0 ] #ASI_SCRATCHPAD, %o0
     e70:	81 c3 e0 08 	retl 
     e74:	01 00 00 00 	nop 

00000e78 <__ajit_flush_icache__>:
     e78:	81 d8 20 00 	flush  %g0
     e7c:	81 c3 e0 08 	retl 
     e80:	01 00 00 00 	nop 

00000e84 <__ajit_flush_dcache__>:
     e84:	c0 a0 02 60 	sta  %g0, [ %g0 ] (19)
     e88:	81 c3 e0 08 	retl 
     e8c:	01 00 00 00 	nop 

00000e90 <__ajit_write_timer_control_register_via_bypass__>:
     e90:	03 20 00 00 	sethi  %hi(0x80000000), %g1
     e94:	82 10 63 00 	or  %g1, 0x300, %g1	! 80000300 <_custom_printf_handler+0x7ffe902c>
     e98:	d0 a0 44 00 	sta  %o0, [ %g1 ] #ASI_SCRATCHPAD
     e9c:	81 c3 e0 08 	retl 
     ea0:	01 00 00 00 	nop 

00000ea4 <__ajit_read_timer_control_register_via_bypass__>:
     ea4:	11 20 00 00 	sethi  %hi(0x80000000), %o0
     ea8:	90 12 23 00 	or  %o0, 0x300, %o0	! 80000300 <_custom_printf_handler+0x7ffe902c>
     eac:	d0 82 04 00 	lda  [ %o0 ] #ASI_SCRATCHPAD, %o0
     eb0:	81 c3 e0 08 	retl 
     eb4:	01 00 00 00 	nop 

00000eb8 <__ajit_write_timer_control_register_via_vmap__>:
     eb8:	03 20 00 00 	sethi  %hi(0x80000000), %g1
     ebc:	82 10 63 00 	or  %g1, 0x300, %g1	! 80000300 <_custom_printf_handler+0x7ffe902c>
     ec0:	81 c3 e0 08 	retl 
     ec4:	d0 20 40 00 	st  %o0, [ %g1 ]

00000ec8 <__ajit_read_timer_control_register_via_vmap__>:
     ec8:	03 20 00 00 	sethi  %hi(0x80000000), %g1
     ecc:	82 10 63 00 	or  %g1, 0x300, %g1	! 80000300 <_custom_printf_handler+0x7ffe902c>
     ed0:	81 c3 e0 08 	retl 
     ed4:	d0 00 40 00 	ld  [ %g1 ], %o0

00000ed8 <__ajit_write_serial_control_register_via_bypass__>:
     ed8:	03 20 00 00 	sethi  %hi(0x80000000), %g1
     edc:	82 10 61 00 	or  %g1, 0x100, %g1	! 80000100 <_custom_printf_handler+0x7ffe8e2c>
     ee0:	d0 a0 44 00 	sta  %o0, [ %g1 ] #ASI_SCRATCHPAD
     ee4:	81 c3 e0 08 	retl 
     ee8:	01 00 00 00 	nop 

00000eec <__ajit_read_serial_control_register_via_bypass__>:
     eec:	11 20 00 00 	sethi  %hi(0x80000000), %o0
     ef0:	90 12 21 00 	or  %o0, 0x100, %o0	! 80000100 <_custom_printf_handler+0x7ffe8e2c>
     ef4:	d0 82 04 00 	lda  [ %o0 ] #ASI_SCRATCHPAD, %o0
     ef8:	81 c3 e0 08 	retl 
     efc:	01 00 00 00 	nop 

00000f00 <__ajit_write_serial_tx_register_via_bypass__>:
     f00:	03 20 00 00 	sethi  %hi(0x80000000), %g1
     f04:	82 10 61 04 	or  %g1, 0x104, %g1	! 80000104 <_custom_printf_handler+0x7ffe8e30>
     f08:	d0 a8 44 00 	stba  %o0, [ %g1 ] #ASI_SCRATCHPAD
     f0c:	81 c3 e0 08 	retl 
     f10:	01 00 00 00 	nop 

00000f14 <__ajit_read_serial_tx_register_via_bypass__>:
     f14:	11 20 00 00 	sethi  %hi(0x80000000), %o0
     f18:	90 12 21 04 	or  %o0, 0x104, %o0	! 80000104 <_custom_printf_handler+0x7ffe8e30>
     f1c:	d0 8a 04 00 	lduba  [ %o0 ] #ASI_SCRATCHPAD, %o0
     f20:	81 c3 e0 08 	retl 
     f24:	90 0a 20 ff 	and  %o0, 0xff, %o0

00000f28 <__ajit_read_serial_rx_register_via_bypass__>:
     f28:	11 20 00 00 	sethi  %hi(0x80000000), %o0
     f2c:	90 12 21 08 	or  %o0, 0x108, %o0	! 80000108 <_custom_printf_handler+0x7ffe8e34>
     f30:	d0 8a 04 00 	lduba  [ %o0 ] #ASI_SCRATCHPAD, %o0
     f34:	81 c3 e0 08 	retl 
     f38:	90 0a 20 ff 	and  %o0, 0xff, %o0

00000f3c <__ajit_write_serial_baud_limit_register_via_bypass__>:
     f3c:	03 20 00 00 	sethi  %hi(0x80000000), %g1
     f40:	82 10 61 0c 	or  %g1, 0x10c, %g1	! 8000010c <_custom_printf_handler+0x7ffe8e38>
     f44:	d0 a0 44 00 	sta  %o0, [ %g1 ] #ASI_SCRATCHPAD
     f48:	81 c3 e0 08 	retl 
     f4c:	01 00 00 00 	nop 

00000f50 <__ajit_read_serial_baud_limit_register_via_bypass__>:
     f50:	11 20 00 00 	sethi  %hi(0x80000000), %o0
     f54:	90 12 21 0c 	or  %o0, 0x10c, %o0	! 8000010c <_custom_printf_handler+0x7ffe8e38>
     f58:	d0 82 04 00 	lda  [ %o0 ] #ASI_SCRATCHPAD, %o0
     f5c:	81 c3 e0 08 	retl 
     f60:	01 00 00 00 	nop 

00000f64 <__ajit_write_serial_baud_frequency_register_via_bypass__>:
     f64:	03 20 00 00 	sethi  %hi(0x80000000), %g1
     f68:	82 10 61 10 	or  %g1, 0x110, %g1	! 80000110 <_custom_printf_handler+0x7ffe8e3c>
     f6c:	d0 a0 44 00 	sta  %o0, [ %g1 ] #ASI_SCRATCHPAD
     f70:	81 c3 e0 08 	retl 
     f74:	01 00 00 00 	nop 

00000f78 <__ajit_read_serial_baud_frequency_register_via_bypass__>:
     f78:	11 20 00 00 	sethi  %hi(0x80000000), %o0
     f7c:	90 12 21 10 	or  %o0, 0x110, %o0	! 80000110 <_custom_printf_handler+0x7ffe8e3c>
     f80:	d0 82 04 00 	lda  [ %o0 ] #ASI_SCRATCHPAD, %o0
     f84:	81 c3 e0 08 	retl 
     f88:	01 00 00 00 	nop 

00000f8c <__ajit_serial_set_baudrate_via_bypass__>:
     f8c:	91 2a 20 04 	sll  %o0, 4, %o0
     f90:	80 a2 00 09 	cmp  %o0, %o1
     f94:	1a 80 00 25 	bcc  1028 <__ajit_serial_set_baudrate_via_bypass__+0x9c>
     f98:	03 20 00 00 	sethi  %hi(0x80000000), %g1
     f9c:	80 a2 20 00 	cmp  %o0, 0
     fa0:	22 80 00 23 	be,a   102c <__ajit_serial_set_baudrate_via_bypass__+0xa0>
     fa4:	84 10 20 00 	clr  %g2
     fa8:	84 10 00 09 	mov  %o1, %g2
     fac:	10 80 00 03 	b  fb8 <__ajit_serial_set_baudrate_via_bypass__+0x2c>
     fb0:	82 10 00 08 	mov  %o0, %g1
     fb4:	82 10 00 03 	mov  %g3, %g1
     fb8:	81 80 20 00 	mov  %g0, %y
     fbc:	01 00 00 00 	nop 
     fc0:	01 00 00 00 	nop 
     fc4:	01 00 00 00 	nop 
     fc8:	86 70 80 01 	udiv  %g2, %g1, %g3
     fcc:	86 58 c0 01 	smul  %g3, %g1, %g3
     fd0:	86 20 80 03 	sub  %g2, %g3, %g3
     fd4:	80 a0 e0 00 	cmp  %g3, 0
     fd8:	12 bf ff f7 	bne  fb4 <__ajit_serial_set_baudrate_via_bypass__+0x28>
     fdc:	84 10 00 01 	mov  %g1, %g2
     fe0:	81 80 20 00 	mov  %g0, %y
     fe4:	01 00 00 00 	nop 
     fe8:	01 00 00 00 	nop 
     fec:	01 00 00 00 	nop 
     ff0:	84 72 00 01 	udiv  %o0, %g1, %g2
     ff4:	81 80 20 00 	mov  %g0, %y
     ff8:	01 00 00 00 	nop 
     ffc:	01 00 00 00 	nop 
    1000:	01 00 00 00 	nop 
    1004:	86 72 40 01 	udiv  %o1, %g1, %g3
    1008:	03 20 00 00 	sethi  %hi(0x80000000), %g1
    100c:	86 20 c0 02 	sub  %g3, %g2, %g3
    1010:	88 10 61 0c 	or  %g1, 0x10c, %g4
    1014:	c6 a1 04 00 	sta  %g3, [ %g4 ] #ASI_SCRATCHPAD
    1018:	82 10 61 10 	or  %g1, 0x110, %g1
    101c:	c4 a0 44 00 	sta  %g2, [ %g1 ] #ASI_SCRATCHPAD
    1020:	81 c3 e0 08 	retl 
    1024:	01 00 00 00 	nop 
    1028:	84 10 20 00 	clr  %g2	! 0 <_start>
    102c:	86 10 20 00 	clr  %g3
    1030:	88 10 61 0c 	or  %g1, 0x10c, %g4
    1034:	c6 a1 04 00 	sta  %g3, [ %g4 ] #ASI_SCRATCHPAD
    1038:	82 10 61 10 	or  %g1, 0x110, %g1
    103c:	c4 a0 44 00 	sta  %g2, [ %g1 ] #ASI_SCRATCHPAD
    1040:	81 c3 e0 08 	retl 
    1044:	01 00 00 00 	nop 

00001048 <__ajit_write_serial_control_register_via_vmap__>:
    1048:	03 20 00 00 	sethi  %hi(0x80000000), %g1
    104c:	82 10 61 00 	or  %g1, 0x100, %g1	! 80000100 <_custom_printf_handler+0x7ffe8e2c>
    1050:	81 c3 e0 08 	retl 
    1054:	d0 20 40 00 	st  %o0, [ %g1 ]

00001058 <__ajit_read_serial_control_register_via_vmap__>:
    1058:	03 20 00 00 	sethi  %hi(0x80000000), %g1
    105c:	82 10 61 00 	or  %g1, 0x100, %g1	! 80000100 <_custom_printf_handler+0x7ffe8e2c>
    1060:	81 c3 e0 08 	retl 
    1064:	d0 08 40 00 	ldub  [ %g1 ], %o0

00001068 <__ajit_write_serial_tx_register_via_vmap__>:
    1068:	03 20 00 00 	sethi  %hi(0x80000000), %g1
    106c:	82 10 61 04 	or  %g1, 0x104, %g1	! 80000104 <_custom_printf_handler+0x7ffe8e30>
    1070:	81 c3 e0 08 	retl 
    1074:	d0 28 40 00 	stb  %o0, [ %g1 ]

00001078 <__ajit_read_serial_tx_register_via_vmap__>:
    1078:	03 20 00 00 	sethi  %hi(0x80000000), %g1
    107c:	82 10 61 04 	or  %g1, 0x104, %g1	! 80000104 <_custom_printf_handler+0x7ffe8e30>
    1080:	81 c3 e0 08 	retl 
    1084:	d0 08 40 00 	ldub  [ %g1 ], %o0

00001088 <__ajit_read_serial_rx_register_via_vmap__>:
    1088:	03 20 00 00 	sethi  %hi(0x80000000), %g1
    108c:	82 10 61 08 	or  %g1, 0x108, %g1	! 80000108 <_custom_printf_handler+0x7ffe8e34>
    1090:	81 c3 e0 08 	retl 
    1094:	d0 08 40 00 	ldub  [ %g1 ], %o0

00001098 <__ajit_serial_set_baudrate_via_vmap__>:
    1098:	91 2a 20 04 	sll  %o0, 4, %o0
    109c:	80 a2 00 09 	cmp  %o0, %o1
    10a0:	1a 80 00 24 	bcc  1130 <__ajit_serial_set_baudrate_via_vmap__+0x98>
    10a4:	03 20 00 00 	sethi  %hi(0x80000000), %g1
    10a8:	80 a2 20 00 	cmp  %o0, 0
    10ac:	02 80 00 22 	be  1134 <__ajit_serial_set_baudrate_via_vmap__+0x9c>
    10b0:	88 10 20 00 	clr  %g4
    10b4:	84 10 00 09 	mov  %o1, %g2
    10b8:	10 80 00 03 	b  10c4 <__ajit_serial_set_baudrate_via_vmap__+0x2c>
    10bc:	82 10 00 08 	mov  %o0, %g1
    10c0:	82 10 00 03 	mov  %g3, %g1
    10c4:	81 80 20 00 	mov  %g0, %y
    10c8:	01 00 00 00 	nop 
    10cc:	01 00 00 00 	nop 
    10d0:	01 00 00 00 	nop 
    10d4:	86 70 80 01 	udiv  %g2, %g1, %g3
    10d8:	86 58 c0 01 	smul  %g3, %g1, %g3
    10dc:	86 20 80 03 	sub  %g2, %g3, %g3
    10e0:	80 a0 e0 00 	cmp  %g3, 0
    10e4:	12 bf ff f7 	bne  10c0 <__ajit_serial_set_baudrate_via_vmap__+0x28>
    10e8:	84 10 00 01 	mov  %g1, %g2
    10ec:	81 80 20 00 	mov  %g0, %y
    10f0:	01 00 00 00 	nop 
    10f4:	01 00 00 00 	nop 
    10f8:	01 00 00 00 	nop 
    10fc:	84 72 00 01 	udiv  %o0, %g1, %g2
    1100:	81 80 20 00 	mov  %g0, %y
    1104:	01 00 00 00 	nop 
    1108:	01 00 00 00 	nop 
    110c:	01 00 00 00 	nop 
    1110:	88 72 40 01 	udiv  %o1, %g1, %g4
    1114:	03 20 00 00 	sethi  %hi(0x80000000), %g1
    1118:	88 21 00 02 	sub  %g4, %g2, %g4
    111c:	86 10 61 0c 	or  %g1, 0x10c, %g3
    1120:	c8 20 c0 00 	st  %g4, [ %g3 ]
    1124:	82 10 61 10 	or  %g1, 0x110, %g1
    1128:	81 c3 e0 08 	retl 
    112c:	c4 20 40 00 	st  %g2, [ %g1 ]
    1130:	88 10 20 00 	clr  %g4
    1134:	86 10 61 0c 	or  %g1, 0x10c, %g3
    1138:	c8 20 c0 00 	st  %g4, [ %g3 ]
    113c:	84 10 20 00 	clr  %g2
    1140:	82 10 61 10 	or  %g1, 0x110, %g1
    1144:	81 c3 e0 08 	retl 
    1148:	c4 20 40 00 	st  %g2, [ %g1 ]

0000114c <__ajit_read_serial_baud_limit_register_via_vmap__>:
    114c:	03 20 00 00 	sethi  %hi(0x80000000), %g1
    1150:	82 10 61 0c 	or  %g1, 0x10c, %g1	! 8000010c <_custom_printf_handler+0x7ffe8e38>
    1154:	81 c3 e0 08 	retl 
    1158:	d0 00 40 00 	ld  [ %g1 ], %o0

0000115c <__ajit_write_serial_baud_limit_register_via_vmap__>:
    115c:	03 20 00 00 	sethi  %hi(0x80000000), %g1
    1160:	82 10 61 0c 	or  %g1, 0x10c, %g1	! 8000010c <_custom_printf_handler+0x7ffe8e38>
    1164:	81 c3 e0 08 	retl 
    1168:	d0 20 40 00 	st  %o0, [ %g1 ]

0000116c <__ajit_read_serial_baud_frequency_register_via_vmap__>:
    116c:	03 20 00 00 	sethi  %hi(0x80000000), %g1
    1170:	82 10 61 10 	or  %g1, 0x110, %g1	! 80000110 <_custom_printf_handler+0x7ffe8e3c>
    1174:	81 c3 e0 08 	retl 
    1178:	d0 00 40 00 	ld  [ %g1 ], %o0

0000117c <__ajit_write_serial_baud_frequency_register_via_vmap__>:
    117c:	03 20 00 00 	sethi  %hi(0x80000000), %g1
    1180:	82 10 61 10 	or  %g1, 0x110, %g1	! 80000110 <_custom_printf_handler+0x7ffe8e3c>
    1184:	81 c3 e0 08 	retl 
    1188:	d0 20 40 00 	st  %o0, [ %g1 ]

0000118c <calculate_baud_control_values_for_uart>:
    118c:	91 2a 20 04 	sll  %o0, 4, %o0
    1190:	80 a2 00 09 	cmp  %o0, %o1
    1194:	1a 80 00 05 	bcc  11a8 <calculate_baud_control_values_for_uart+0x1c>
    1198:	c0 22 80 00 	clr  [ %o2 ]
    119c:	82 92 20 00 	orcc  %o0, 0, %g1
    11a0:	12 80 00 05 	bne  11b4 <calculate_baud_control_values_for_uart+0x28>
    11a4:	84 10 00 09 	mov  %o1, %g2
    11a8:	81 c3 e0 08 	retl 
    11ac:	c0 22 c0 00 	clr  [ %o3 ]
    11b0:	82 10 00 03 	mov  %g3, %g1
    11b4:	81 80 20 00 	mov  %g0, %y
    11b8:	01 00 00 00 	nop 
    11bc:	01 00 00 00 	nop 
    11c0:	01 00 00 00 	nop 
    11c4:	86 70 80 01 	udiv  %g2, %g1, %g3
    11c8:	86 58 c0 01 	smul  %g3, %g1, %g3
    11cc:	86 20 80 03 	sub  %g2, %g3, %g3
    11d0:	80 a0 e0 00 	cmp  %g3, 0
    11d4:	12 bf ff f7 	bne  11b0 <calculate_baud_control_values_for_uart+0x24>
    11d8:	84 10 00 01 	mov  %g1, %g2
    11dc:	81 80 20 00 	mov  %g0, %y
    11e0:	01 00 00 00 	nop 
    11e4:	01 00 00 00 	nop 
    11e8:	01 00 00 00 	nop 
    11ec:	84 72 00 01 	udiv  %o0, %g1, %g2
    11f0:	c4 22 c0 00 	st  %g2, [ %o3 ]
    11f4:	81 80 20 00 	mov  %g0, %y
    11f8:	01 00 00 00 	nop 
    11fc:	01 00 00 00 	nop 
    1200:	01 00 00 00 	nop 
    1204:	86 72 40 01 	udiv  %o1, %g1, %g3
    1208:	84 20 c0 02 	sub  %g3, %g2, %g2
    120c:	81 c3 e0 08 	retl 
    1210:	c4 22 80 00 	st  %g2, [ %o2 ]

00001214 <__ajit_serial_configure_inner__>:
    1214:	03 20 00 02 	sethi  %hi(0x80000800), %g1
    1218:	80 a2 60 00 	cmp  %o1, 0
    121c:	12 80 00 04 	bne  122c <__ajit_serial_configure_inner__+0x18>
    1220:	82 10 61 00 	or  %g1, 0x100, %g1
    1224:	03 20 00 00 	sethi  %hi(0x80000000), %g1
    1228:	82 10 61 00 	or  %g1, 0x100, %g1	! 80000100 <_custom_printf_handler+0x7ffe8e2c>
    122c:	80 a2 20 00 	cmp  %o0, 0
    1230:	02 80 00 15 	be  1284 <__ajit_serial_configure_inner__+0x70>
    1234:	01 00 00 00 	nop 
    1238:	c4 00 40 00 	ld  [ %g1 ], %g2
    123c:	80 a2 a0 00 	cmp  %o2, 0
    1240:	02 80 00 03 	be  124c <__ajit_serial_configure_inner__+0x38>
    1244:	86 08 bf fe 	and  %g2, -2, %g3
    1248:	86 10 a0 01 	or  %g2, 1, %g3
    124c:	80 a2 e0 00 	cmp  %o3, 0
    1250:	02 80 00 03 	be  125c <__ajit_serial_configure_inner__+0x48>
    1254:	84 08 ff fd 	and  %g3, -3, %g2
    1258:	84 10 e0 02 	or  %g3, 2, %g2
    125c:	80 a3 20 00 	cmp  %o4, 0
    1260:	02 80 00 03 	be  126c <__ajit_serial_configure_inner__+0x58>
    1264:	86 08 bf fb 	and  %g2, -5, %g3
    1268:	86 10 a0 04 	or  %g2, 4, %g3
    126c:	80 a2 20 00 	cmp  %o0, 0
    1270:	12 80 00 08 	bne  1290 <__ajit_serial_configure_inner__+0x7c>
    1274:	01 00 00 00 	nop 
    1278:	c6 a0 44 00 	sta  %g3, [ %g1 ] #ASI_SCRATCHPAD
    127c:	81 c3 e0 08 	retl 
    1280:	01 00 00 00 	nop 
    1284:	c4 80 44 00 	lda  [ %g1 ] #ASI_SCRATCHPAD, %g2
    1288:	10 bf ff ee 	b  1240 <__ajit_serial_configure_inner__+0x2c>
    128c:	80 a2 a0 00 	cmp  %o2, 0
    1290:	81 c3 e0 08 	retl 
    1294:	c6 20 40 00 	st  %g3, [ %g1 ]

00001298 <__ajit_serial_configure_via_vmap__>:
    1298:	82 10 00 08 	mov  %o0, %g1
    129c:	96 10 00 09 	mov  %o1, %o3
    12a0:	98 10 00 0a 	mov  %o2, %o4
    12a4:	90 10 20 01 	mov  1, %o0
    12a8:	92 10 20 00 	clr  %o1
    12ac:	94 10 00 01 	mov  %g1, %o2
    12b0:	82 13 c0 00 	mov  %o7, %g1
    12b4:	7f ff ff d8 	call  1214 <__ajit_serial_configure_inner__>
    12b8:	9e 10 40 00 	mov  %g1, %o7

000012bc <__ajit_serial_configure_via_bypass__>:
    12bc:	82 10 00 08 	mov  %o0, %g1
    12c0:	96 10 00 09 	mov  %o1, %o3
    12c4:	98 10 00 0a 	mov  %o2, %o4
    12c8:	90 10 20 00 	clr  %o0
    12cc:	92 10 20 00 	clr  %o1
    12d0:	94 10 00 01 	mov  %g1, %o2
    12d4:	82 13 c0 00 	mov  %o7, %g1
    12d8:	7f ff ff cf 	call  1214 <__ajit_serial_configure_inner__>
    12dc:	9e 10 40 00 	mov  %g1, %o7

000012e0 <__ajit_serial_set_baudrate_inner__>:
    12e0:	95 2a a0 04 	sll  %o2, 4, %o2
    12e4:	80 a2 80 0b 	cmp  %o2, %o3
    12e8:	1a 80 00 06 	bcc  1300 <__ajit_serial_set_baudrate_inner__+0x20>
    12ec:	84 10 20 00 	clr  %g2
    12f0:	80 a2 a0 00 	cmp  %o2, 0
    12f4:	12 80 00 0f 	bne  1330 <__ajit_serial_set_baudrate_inner__+0x50>
    12f8:	84 10 00 0b 	mov  %o3, %g2
    12fc:	84 10 20 00 	clr  %g2
    1300:	80 a2 60 00 	cmp  %o1, 0
    1304:	02 80 00 25 	be  1398 <__ajit_serial_set_baudrate_inner__+0xb8>
    1308:	86 10 20 00 	clr  %g3
    130c:	03 20 00 02 	sethi  %hi(0x80000800), %g1
    1310:	80 a2 20 00 	cmp  %o0, 0
    1314:	88 10 61 0c 	or  %g1, 0x10c, %g4
    1318:	12 80 00 25 	bne  13ac <__ajit_serial_set_baudrate_inner__+0xcc>
    131c:	82 10 61 10 	or  %g1, 0x110, %g1
    1320:	c6 a1 04 00 	sta  %g3, [ %g4 ] #ASI_SCRATCHPAD
    1324:	c4 a0 44 00 	sta  %g2, [ %g1 ] #ASI_SCRATCHPAD
    1328:	81 c3 e0 08 	retl 
    132c:	01 00 00 00 	nop 
    1330:	10 80 00 03 	b  133c <__ajit_serial_set_baudrate_inner__+0x5c>
    1334:	82 10 00 0a 	mov  %o2, %g1
    1338:	82 10 00 03 	mov  %g3, %g1
    133c:	81 80 20 00 	mov  %g0, %y
    1340:	01 00 00 00 	nop 
    1344:	01 00 00 00 	nop 
    1348:	01 00 00 00 	nop 
    134c:	86 70 80 01 	udiv  %g2, %g1, %g3
    1350:	86 58 c0 01 	smul  %g3, %g1, %g3
    1354:	86 20 80 03 	sub  %g2, %g3, %g3
    1358:	80 a0 e0 00 	cmp  %g3, 0
    135c:	12 bf ff f7 	bne  1338 <__ajit_serial_set_baudrate_inner__+0x58>
    1360:	84 10 00 01 	mov  %g1, %g2
    1364:	81 80 20 00 	mov  %g0, %y
    1368:	01 00 00 00 	nop 
    136c:	01 00 00 00 	nop 
    1370:	01 00 00 00 	nop 
    1374:	84 72 80 01 	udiv  %o2, %g1, %g2
    1378:	81 80 20 00 	mov  %g0, %y
    137c:	01 00 00 00 	nop 
    1380:	01 00 00 00 	nop 
    1384:	01 00 00 00 	nop 
    1388:	86 72 c0 01 	udiv  %o3, %g1, %g3
    138c:	80 a2 60 00 	cmp  %o1, 0
    1390:	12 bf ff df 	bne  130c <__ajit_serial_set_baudrate_inner__+0x2c>
    1394:	86 20 c0 02 	sub  %g3, %g2, %g3
    1398:	03 20 00 00 	sethi  %hi(0x80000000), %g1
    139c:	80 a2 20 00 	cmp  %o0, 0
    13a0:	88 10 61 0c 	or  %g1, 0x10c, %g4
    13a4:	02 bf ff df 	be  1320 <__ajit_serial_set_baudrate_inner__+0x40>
    13a8:	82 10 61 10 	or  %g1, 0x110, %g1
    13ac:	c6 21 00 00 	st  %g3, [ %g4 ]
    13b0:	81 c3 e0 08 	retl 
    13b4:	c4 20 40 00 	st  %g2, [ %g1 ]

000013b8 <__ajit_serial_putchar_inner__>:
    13b8:	80 a2 60 00 	cmp  %o1, 0
    13bc:	02 80 00 18 	be  141c <__ajit_serial_putchar_inner__+0x64>
    13c0:	84 10 00 08 	mov  %o0, %g2
    13c4:	07 20 00 02 	sethi  %hi(0x80000800), %g3
    13c8:	82 10 e1 00 	or  %g3, 0x100, %g1	! 80000900 <_custom_printf_handler+0x7ffe962c>
    13cc:	86 10 e1 04 	or  %g3, 0x104, %g3
    13d0:	80 a0 a0 00 	cmp  %g2, 0
    13d4:	02 80 00 0f 	be  1410 <__ajit_serial_putchar_inner__+0x58>
    13d8:	01 00 00 00 	nop 
    13dc:	c2 00 40 00 	ld  [ %g1 ], %g1
    13e0:	80 88 60 01 	btst  1, %g1
    13e4:	02 80 00 09 	be  1408 <__ajit_serial_putchar_inner__+0x50>
    13e8:	90 10 20 00 	clr  %o0
    13ec:	80 88 60 08 	btst  8, %g1
    13f0:	12 80 00 06 	bne  1408 <__ajit_serial_putchar_inner__+0x50>
    13f4:	80 a0 a0 00 	cmp  %g2, 0
    13f8:	32 80 00 0d 	bne,a   142c <__ajit_serial_putchar_inner__+0x74>
    13fc:	d4 28 c0 00 	stb  %o2, [ %g3 ]
    1400:	d4 a8 c4 00 	stba  %o2, [ %g3 ] #ASI_SCRATCHPAD
    1404:	90 10 20 01 	mov  1, %o0
    1408:	81 c3 e0 08 	retl 
    140c:	01 00 00 00 	nop 
    1410:	c2 80 44 00 	lda  [ %g1 ] #ASI_SCRATCHPAD, %g1
    1414:	10 bf ff f4 	b  13e4 <__ajit_serial_putchar_inner__+0x2c>
    1418:	80 88 60 01 	btst  1, %g1
    141c:	07 20 00 00 	sethi  %hi(0x80000000), %g3
    1420:	82 10 e1 00 	or  %g3, 0x100, %g1	! 80000100 <_custom_printf_handler+0x7ffe8e2c>
    1424:	10 bf ff eb 	b  13d0 <__ajit_serial_putchar_inner__+0x18>
    1428:	86 10 e1 04 	or  %g3, 0x104, %g3
    142c:	81 c3 e0 08 	retl 
    1430:	90 10 20 01 	mov  1, %o0

00001434 <__ajit_serial_putchar_via_vmap__>:
    1434:	94 10 00 08 	mov  %o0, %o2
    1438:	92 10 20 00 	clr  %o1
    143c:	90 10 20 01 	mov  1, %o0
    1440:	82 13 c0 00 	mov  %o7, %g1
    1444:	7f ff ff dd 	call  13b8 <__ajit_serial_putchar_inner__>
    1448:	9e 10 40 00 	mov  %g1, %o7

0000144c <__ajit_serial_putchar_via_bypass__>:
    144c:	94 10 00 08 	mov  %o0, %o2
    1450:	92 10 20 00 	clr  %o1
    1454:	90 10 20 00 	clr  %o0
    1458:	82 13 c0 00 	mov  %o7, %g1
    145c:	7f ff ff d7 	call  13b8 <__ajit_serial_putchar_inner__>
    1460:	9e 10 40 00 	mov  %g1, %o7

00001464 <__ajit_serial_getchar_inner__>:
    1464:	80 a2 60 00 	cmp  %o1, 0
    1468:	22 80 00 10 	be,a   14a8 <__ajit_serial_getchar_inner__+0x44>
    146c:	05 20 00 00 	sethi  %hi(0x80000000), %g2
    1470:	05 20 00 02 	sethi  %hi(0x80000800), %g2
    1474:	80 a2 20 00 	cmp  %o0, 0
    1478:	82 10 a1 00 	or  %g2, 0x100, %g1
    147c:	02 80 00 0f 	be  14b8 <__ajit_serial_getchar_inner__+0x54>
    1480:	84 10 a1 08 	or  %g2, 0x108, %g2
    1484:	c2 00 40 00 	ld  [ %g1 ], %g1
    1488:	82 08 60 12 	and  %g1, 0x12, %g1
    148c:	80 a0 60 12 	cmp  %g1, 0x12
    1490:	12 80 00 13 	bne  14dc <__ajit_serial_getchar_inner__+0x78>
    1494:	01 00 00 00 	nop 
    1498:	c2 08 80 00 	ldub  [ %g2 ], %g1
    149c:	90 10 20 01 	mov  1, %o0
    14a0:	81 c3 e0 08 	retl 
    14a4:	c2 2a 80 00 	stb  %g1, [ %o2 ]
    14a8:	80 a2 20 00 	cmp  %o0, 0
    14ac:	82 10 a1 00 	or  %g2, 0x100, %g1
    14b0:	12 bf ff f5 	bne  1484 <__ajit_serial_getchar_inner__+0x20>
    14b4:	84 10 a1 08 	or  %g2, 0x108, %g2
    14b8:	c2 80 44 00 	lda  [ %g1 ] #ASI_SCRATCHPAD, %g1
    14bc:	82 08 60 12 	and  %g1, 0x12, %g1
    14c0:	80 a0 60 12 	cmp  %g1, 0x12
    14c4:	12 80 00 06 	bne  14dc <__ajit_serial_getchar_inner__+0x78>
    14c8:	01 00 00 00 	nop 
    14cc:	c4 88 84 00 	lduba  [ %g2 ] #ASI_SCRATCHPAD, %g2
    14d0:	90 10 20 01 	mov  1, %o0
    14d4:	81 c3 e0 08 	retl 
    14d8:	c4 2a 80 00 	stb  %g2, [ %o2 ]
    14dc:	81 c3 e0 08 	retl 
    14e0:	90 10 20 00 	clr  %o0

000014e4 <__ajit_serial_getchar_via_vmap__>:
    14e4:	9d e3 bf 98 	save  %sp, -104, %sp
    14e8:	90 10 20 01 	mov  1, %o0
    14ec:	92 10 20 00 	clr  %o1
    14f0:	7f ff ff dd 	call  1464 <__ajit_serial_getchar_inner__>
    14f4:	94 07 bf ff 	add  %fp, -1, %o2
    14f8:	80 a2 20 00 	cmp  %o0, 0
    14fc:	22 bf ff fc 	be,a   14ec <__ajit_serial_getchar_via_vmap__+0x8>
    1500:	90 10 20 01 	mov  1, %o0
    1504:	f0 4f bf ff 	ldsb  [ %fp + -1 ], %i0
    1508:	81 c7 e0 08 	ret 
    150c:	81 e8 00 00 	restore 

00001510 <__ajit_serial_getchar_via_bypass__>:
    1510:	9d e3 bf 98 	save  %sp, -104, %sp
    1514:	90 10 20 00 	clr  %o0
    1518:	92 10 20 00 	clr  %o1
    151c:	7f ff ff d2 	call  1464 <__ajit_serial_getchar_inner__>
    1520:	94 07 bf ff 	add  %fp, -1, %o2
    1524:	80 a2 20 00 	cmp  %o0, 0
    1528:	22 bf ff fc 	be,a   1518 <__ajit_serial_getchar_via_bypass__+0x8>
    152c:	90 10 20 00 	clr  %o0
    1530:	f0 4f bf ff 	ldsb  [ %fp + -1 ], %i0
    1534:	81 c7 e0 08 	ret 
    1538:	81 e8 00 00 	restore 

0000153c <__ajit_serial_puts_inner__>:
    153c:	9d e3 bf a0 	save  %sp, -96, %sp
    1540:	80 a6 e0 00 	cmp  %i3, 0
    1544:	02 80 00 1a 	be  15ac <__ajit_serial_puts_inner__+0x70>
    1548:	01 00 00 00 	nop 
    154c:	d4 0e 80 00 	ldub  [ %i2 ], %o2
    1550:	95 2a a0 18 	sll  %o2, 0x18, %o2
    1554:	80 a2 a0 00 	cmp  %o2, 0
    1558:	02 80 00 15 	be  15ac <__ajit_serial_puts_inner__+0x70>
    155c:	ba 06 a0 01 	add  %i2, 1, %i5
    1560:	10 80 00 03 	b  156c <__ajit_serial_puts_inner__+0x30>
    1564:	b8 06 80 1b 	add  %i2, %i3, %i4
    1568:	95 2a a0 18 	sll  %o2, 0x18, %o2
    156c:	95 3a a0 18 	sra  %o2, 0x18, %o2
    1570:	90 10 00 18 	mov  %i0, %o0
    1574:	7f ff ff 91 	call  13b8 <__ajit_serial_putchar_inner__>
    1578:	92 10 00 19 	mov  %i1, %o1
    157c:	80 a2 20 00 	cmp  %o0, 0
    1580:	22 bf ff fa 	be,a   1568 <__ajit_serial_puts_inner__+0x2c>
    1584:	d4 0e 80 00 	ldub  [ %i2 ], %o2
    1588:	80 a7 40 1c 	cmp  %i5, %i4
    158c:	02 80 00 08 	be  15ac <__ajit_serial_puts_inner__+0x70>
    1590:	b4 10 00 1d 	mov  %i5, %i2
    1594:	ba 07 60 01 	inc  %i5
    1598:	d4 0f 7f ff 	ldub  [ %i5 + -1 ], %o2
    159c:	95 2a a0 18 	sll  %o2, 0x18, %o2
    15a0:	80 a2 a0 00 	cmp  %o2, 0
    15a4:	12 bf ff f3 	bne  1570 <__ajit_serial_puts_inner__+0x34>
    15a8:	95 3a a0 18 	sra  %o2, 0x18, %o2
    15ac:	81 c7 e0 08 	ret 
    15b0:	81 e8 00 00 	restore 

000015b4 <__ajit_serial_puts_via_vmap__>:
    15b4:	94 10 00 08 	mov  %o0, %o2
    15b8:	96 10 00 09 	mov  %o1, %o3
    15bc:	90 10 20 01 	mov  1, %o0
    15c0:	92 10 20 00 	clr  %o1
    15c4:	82 13 c0 00 	mov  %o7, %g1
    15c8:	7f ff ff dd 	call  153c <__ajit_serial_puts_inner__>
    15cc:	9e 10 40 00 	mov  %g1, %o7

000015d0 <__ajit_serial_puts_via_bypass__>:
    15d0:	94 10 00 08 	mov  %o0, %o2
    15d4:	96 10 00 09 	mov  %o1, %o3
    15d8:	90 10 20 00 	clr  %o0
    15dc:	92 10 20 00 	clr  %o1
    15e0:	82 13 c0 00 	mov  %o7, %g1
    15e4:	7f ff ff d6 	call  153c <__ajit_serial_puts_inner__>
    15e8:	9e 10 40 00 	mov  %g1, %o7

000015ec <__ajit_serial_gets_inner__>:
    15ec:	9d e3 bf 98 	save  %sp, -104, %sp
    15f0:	80 a6 e0 01 	cmp  %i3, 1
    15f4:	22 80 00 18 	be,a   1654 <__ajit_serial_gets_inner__+0x68>
    15f8:	b6 06 80 1b 	add  %i2, %i3, %i3
    15fc:	a0 06 ff ff 	add  %i3, -1, %l0
    1600:	b8 10 20 00 	clr  %i4
    1604:	ba 10 20 00 	clr  %i5
    1608:	c0 2f bf ff 	clrb  [ %fp + -1 ]
    160c:	90 10 00 18 	mov  %i0, %o0
    1610:	92 10 00 19 	mov  %i1, %o1
    1614:	7f ff ff 94 	call  1464 <__ajit_serial_getchar_inner__>
    1618:	94 07 bf ff 	add  %fp, -1, %o2
    161c:	80 a2 20 00 	cmp  %o0, 0
    1620:	22 bf ff fc 	be,a   1610 <__ajit_serial_gets_inner__+0x24>
    1624:	90 10 00 18 	mov  %i0, %o0
    1628:	c2 0f bf ff 	ldub  [ %fp + -1 ], %g1
    162c:	c2 2e 80 1c 	stb  %g1, [ %i2 + %i4 ]
    1630:	83 28 60 18 	sll  %g1, 0x18, %g1
    1634:	80 a0 60 00 	cmp  %g1, 0
    1638:	22 80 00 07 	be,a   1654 <__ajit_serial_gets_inner__+0x68>
    163c:	b6 06 80 1b 	add  %i2, %i3, %i3
    1640:	ba 07 60 01 	inc  %i5
    1644:	80 a7 40 10 	cmp  %i5, %l0
    1648:	12 bf ff f0 	bne  1608 <__ajit_serial_gets_inner__+0x1c>
    164c:	b8 10 00 1d 	mov  %i5, %i4
    1650:	b6 06 80 1b 	add  %i2, %i3, %i3
    1654:	c0 2e ff ff 	clrb  [ %i3 + -1 ]
    1658:	81 c7 e0 08 	ret 
    165c:	81 e8 00 00 	restore 

00001660 <__ajit_serial_gets_via_vmap__>:
    1660:	94 10 00 08 	mov  %o0, %o2
    1664:	96 10 00 09 	mov  %o1, %o3
    1668:	90 10 20 01 	mov  1, %o0
    166c:	92 10 20 00 	clr  %o1
    1670:	82 13 c0 00 	mov  %o7, %g1
    1674:	7f ff ff de 	call  15ec <__ajit_serial_gets_inner__>
    1678:	9e 10 40 00 	mov  %g1, %o7

0000167c <__ajit_serial_gets_via_bypass__>:
    167c:	94 10 00 08 	mov  %o0, %o2
    1680:	96 10 00 09 	mov  %o1, %o3
    1684:	90 10 20 00 	clr  %o0
    1688:	92 10 20 00 	clr  %o1
    168c:	82 13 c0 00 	mov  %o7, %g1
    1690:	7f ff ff d7 	call  15ec <__ajit_serial_gets_inner__>
    1694:	9e 10 40 00 	mov  %g1, %o7

00001698 <__ajit_serial_set_uart_reset_inner__>:
    1698:	03 20 00 02 	sethi  %hi(0x80000800), %g1
    169c:	80 a2 60 00 	cmp  %o1, 0
    16a0:	12 80 00 04 	bne  16b0 <__ajit_serial_set_uart_reset_inner__+0x18>
    16a4:	82 10 61 00 	or  %g1, 0x100, %g1
    16a8:	03 20 00 00 	sethi  %hi(0x80000000), %g1
    16ac:	82 10 61 00 	or  %g1, 0x100, %g1	! 80000100 <_custom_printf_handler+0x7ffe8e2c>
    16b0:	80 a2 20 00 	cmp  %o0, 0
    16b4:	02 80 00 0d 	be  16e8 <__ajit_serial_set_uart_reset_inner__+0x50>
    16b8:	01 00 00 00 	nop 
    16bc:	c6 00 40 00 	ld  [ %g1 ], %g3
    16c0:	80 a2 a0 00 	cmp  %o2, 0
    16c4:	12 80 00 03 	bne  16d0 <__ajit_serial_set_uart_reset_inner__+0x38>
    16c8:	84 10 e0 20 	or  %g3, 0x20, %g2
    16cc:	84 08 ff df 	and  %g3, -33, %g2
    16d0:	80 a2 20 00 	cmp  %o0, 0
    16d4:	12 80 00 08 	bne  16f4 <__ajit_serial_set_uart_reset_inner__+0x5c>
    16d8:	01 00 00 00 	nop 
    16dc:	c4 a0 44 00 	sta  %g2, [ %g1 ] #ASI_SCRATCHPAD
    16e0:	81 c3 e0 08 	retl 
    16e4:	01 00 00 00 	nop 
    16e8:	c6 80 44 00 	lda  [ %g1 ] #ASI_SCRATCHPAD, %g3
    16ec:	10 bf ff f6 	b  16c4 <__ajit_serial_set_uart_reset_inner__+0x2c>
    16f0:	80 a2 a0 00 	cmp  %o2, 0
    16f4:	81 c3 e0 08 	retl 
    16f8:	c4 20 40 00 	st  %g2, [ %g1 ]

000016fc <__ajit_serial_set_uart_reset_via_vmap__>:
    16fc:	94 10 00 08 	mov  %o0, %o2
    1700:	92 10 20 00 	clr  %o1
    1704:	90 10 20 01 	mov  1, %o0
    1708:	82 13 c0 00 	mov  %o7, %g1
    170c:	7f ff ff e3 	call  1698 <__ajit_serial_set_uart_reset_inner__>
    1710:	9e 10 40 00 	mov  %g1, %o7

00001714 <__ajit_serial_set_uart_reset_via_bypass__>:
    1714:	94 10 00 08 	mov  %o0, %o2
    1718:	92 10 20 00 	clr  %o1
    171c:	90 10 20 00 	clr  %o0
    1720:	82 13 c0 00 	mov  %o7, %g1
    1724:	7f ff ff dd 	call  1698 <__ajit_serial_set_uart_reset_inner__>
    1728:	9e 10 40 00 	mov  %g1, %o7

0000172c <__ajit_write_irc_control_register_via_bypass__>:
    172c:	03 20 00 00 	sethi  %hi(0x80000000), %g1
    1730:	82 10 62 00 	or  %g1, 0x200, %g1	! 80000200 <_custom_printf_handler+0x7ffe8f2c>
    1734:	d0 a0 44 00 	sta  %o0, [ %g1 ] #ASI_SCRATCHPAD
    1738:	81 c3 e0 08 	retl 
    173c:	01 00 00 00 	nop 

00001740 <__ajit_read_irc_control_register_via_bypass__>:
    1740:	11 20 00 00 	sethi  %hi(0x80000000), %o0
    1744:	90 12 22 00 	or  %o0, 0x200, %o0	! 80000200 <_custom_printf_handler+0x7ffe8f2c>
    1748:	d0 82 04 00 	lda  [ %o0 ] #ASI_SCRATCHPAD, %o0
    174c:	81 c3 e0 08 	retl 
    1750:	01 00 00 00 	nop 

00001754 <__ajit_write_irc_control_register_via_vmap__>:
    1754:	03 20 00 00 	sethi  %hi(0x80000000), %g1
    1758:	82 10 62 00 	or  %g1, 0x200, %g1	! 80000200 <_custom_printf_handler+0x7ffe8f2c>
    175c:	81 c3 e0 08 	retl 
    1760:	d0 20 40 00 	st  %o0, [ %g1 ]

00001764 <__ajit_read_irc_control_register_via_vmap__>:
    1764:	03 20 00 00 	sethi  %hi(0x80000000), %g1
    1768:	82 10 62 00 	or  %g1, 0x200, %g1	! 80000200 <_custom_printf_handler+0x7ffe8f2c>
    176c:	81 c3 e0 08 	retl 
    1770:	d0 00 40 00 	ld  [ %g1 ], %o0

00001774 <__ajit_write_spi_master_register_via_bypass__>:
    1774:	93 2a 60 02 	sll  %o1, 2, %o1
    1778:	90 02 40 08 	add  %o1, %o0, %o0
    177c:	d4 a2 04 00 	sta  %o2, [ %o0 ] #ASI_SCRATCHPAD
    1780:	81 c3 e0 08 	retl 
    1784:	01 00 00 00 	nop 

00001788 <__ajit_write_spi_master_register_via_vmap__>:
    1788:	93 2a 60 02 	sll  %o1, 2, %o1
    178c:	81 c3 e0 08 	retl 
    1790:	d4 2a 00 09 	stb  %o2, [ %o0 + %o1 ]

00001794 <__ajit_read_spi_master_register_via_bypass__>:
    1794:	93 2a 60 02 	sll  %o1, 2, %o1
    1798:	90 02 40 08 	add  %o1, %o0, %o0
    179c:	d0 82 04 00 	lda  [ %o0 ] #ASI_SCRATCHPAD, %o0
    17a0:	81 c3 e0 08 	retl 
    17a4:	90 0a 20 ff 	and  %o0, 0xff, %o0

000017a8 <__ajit_read_spi_master_register_via_vmap__>:
    17a8:	93 2a 60 02 	sll  %o1, 2, %o1
    17ac:	81 c3 e0 08 	retl 
    17b0:	d0 0a 00 09 	ldub  [ %o0 + %o1 ], %o0

000017b4 <__ajit_do_spi_transfer_via_bypass__>:
    17b4:	9d e3 bf a0 	save  %sp, -96, %sp
    17b8:	f4 a6 04 00 	sta  %i2, [ %i0 ] #ASI_SCRATCHPAD
    17bc:	82 0e e0 01 	and  %i3, 1, %g1
    17c0:	ba 0e 60 07 	and  %i1, 7, %i5
    17c4:	82 00 40 01 	add  %g1, %g1, %g1
    17c8:	bb 2f 60 04 	sll  %i5, 4, %i5
    17cc:	88 06 20 08 	add  %i0, 8, %g4
    17d0:	ba 17 60 01 	or  %i5, 1, %i5
    17d4:	82 10 40 1d 	or  %g1, %i5, %g1
    17d8:	c2 a1 04 00 	sta  %g1, [ %g4 ] #ASI_SCRATCHPAD
    17dc:	88 06 20 0c 	add  %i0, 0xc, %g4
    17e0:	c2 81 04 00 	lda  [ %g4 ] #ASI_SCRATCHPAD, %g1
    17e4:	80 88 60 01 	btst  1, %g1
    17e8:	02 80 00 20 	be  1868 <__ajit_do_spi_transfer_via_bypass__+0xb4>
    17ec:	01 00 00 00 	nop 
    17f0:	b9 47 c0 00 	rd  %asr31, %i4
    17f4:	83 47 80 00 	rd  %asr30, %g1
    17f8:	9a 10 20 00 	clr  %o5
    17fc:	ba 10 00 1c 	mov  %i4, %i5
    1800:	ba 13 40 1d 	or  %o5, %i5, %i5
    1804:	b6 87 60 40 	addcc  %i5, 0x40, %i3
    1808:	b8 10 20 00 	clr  %i4
    180c:	b8 10 40 1c 	or  %g1, %i4, %i4
    1810:	b4 47 20 00 	addx  %i4, 0, %i2
    1814:	80 a6 80 1c 	cmp  %i2, %i4
    1818:	08 80 00 0c 	bleu  1848 <__ajit_do_spi_transfer_via_bypass__+0x94>
    181c:	01 00 00 00 	nop 
    1820:	b9 47 c0 00 	rd  %asr31, %i4
    1824:	83 47 80 00 	rd  %asr30, %g1
    1828:	86 10 20 00 	clr  %g3
    182c:	ba 10 00 1c 	mov  %i4, %i5
    1830:	b8 10 20 00 	clr  %i4
    1834:	b8 10 40 1c 	or  %g1, %i4, %i4
    1838:	80 a6 80 1c 	cmp  %i2, %i4
    183c:	18 bf ff f9 	bgu  1820 <__ajit_do_spi_transfer_via_bypass__+0x6c>
    1840:	ba 10 c0 1d 	or  %g3, %i5, %i5
    1844:	80 a6 80 1c 	cmp  %i2, %i4
    1848:	12 bf ff e6 	bne  17e0 <__ajit_do_spi_transfer_via_bypass__+0x2c>
    184c:	80 a6 c0 1d 	cmp  %i3, %i5
    1850:	18 bf ff f4 	bgu  1820 <__ajit_do_spi_transfer_via_bypass__+0x6c>
    1854:	01 00 00 00 	nop 
    1858:	c2 81 04 00 	lda  [ %g4 ] #ASI_SCRATCHPAD, %g1
    185c:	80 88 60 01 	btst  1, %g1
    1860:	12 bf ff e4 	bne  17f0 <__ajit_do_spi_transfer_via_bypass__+0x3c>
    1864:	01 00 00 00 	nop 
    1868:	f0 86 04 00 	lda  [ %i0 ] #ASI_SCRATCHPAD, %i0
    186c:	b0 0e 20 ff 	and  %i0, 0xff, %i0
    1870:	81 c7 e0 08 	ret 
    1874:	81 e8 00 00 	restore 

00001878 <__ajit_do_spi_transfer_via_vmap__>:
    1878:	9d e3 bf a0 	save  %sp, -96, %sp
    187c:	b6 0e e0 01 	and  %i3, 1, %i3
    1880:	b2 0e 60 07 	and  %i1, 7, %i1
    1884:	b6 06 c0 1b 	add  %i3, %i3, %i3
    1888:	83 2e 60 04 	sll  %i1, 4, %g1
    188c:	c8 06 20 0c 	ld  [ %i0 + 0xc ], %g4
    1890:	82 10 60 01 	or  %g1, 1, %g1
    1894:	f4 26 00 00 	st  %i2, [ %i0 ]
    1898:	82 16 c0 01 	or  %i3, %g1, %g1
    189c:	88 09 20 01 	and  %g4, 1, %g4
    18a0:	c2 26 20 08 	st  %g1, [ %i0 + 8 ]
    18a4:	80 a1 20 00 	cmp  %g4, 0
    18a8:	22 80 00 1f 	be,a   1924 <__ajit_do_spi_transfer_via_vmap__+0xac>
    18ac:	f0 0e 20 03 	ldub  [ %i0 + 3 ], %i0
    18b0:	b9 47 c0 00 	rd  %asr31, %i4
    18b4:	83 47 80 00 	rd  %asr30, %g1
    18b8:	9a 10 20 00 	clr  %o5
    18bc:	ba 10 00 1c 	mov  %i4, %i5
    18c0:	ba 13 40 1d 	or  %o5, %i5, %i5
    18c4:	b6 87 60 40 	addcc  %i5, 0x40, %i3
    18c8:	b8 10 20 00 	clr  %i4
    18cc:	b8 10 40 1c 	or  %g1, %i4, %i4
    18d0:	b4 47 20 00 	addx  %i4, 0, %i2
    18d4:	80 a6 80 1c 	cmp  %i2, %i4
    18d8:	08 80 00 15 	bleu  192c <__ajit_do_spi_transfer_via_vmap__+0xb4>
    18dc:	01 00 00 00 	nop 
    18e0:	b9 47 c0 00 	rd  %asr31, %i4
    18e4:	83 47 80 00 	rd  %asr30, %g1
    18e8:	86 10 20 00 	clr  %g3
    18ec:	ba 10 00 1c 	mov  %i4, %i5
    18f0:	b8 10 20 00 	clr  %i4
    18f4:	b8 10 40 1c 	or  %g1, %i4, %i4
    18f8:	80 a6 80 1c 	cmp  %i2, %i4
    18fc:	18 bf ff f9 	bgu  18e0 <__ajit_do_spi_transfer_via_vmap__+0x68>
    1900:	ba 10 c0 1d 	or  %g3, %i5, %i5
    1904:	80 a6 80 1c 	cmp  %i2, %i4
    1908:	12 bf ff e7 	bne  18a4 <__ajit_do_spi_transfer_via_vmap__+0x2c>
    190c:	80 a6 c0 1d 	cmp  %i3, %i5
    1910:	18 bf ff f4 	bgu  18e0 <__ajit_do_spi_transfer_via_vmap__+0x68>
    1914:	80 a1 20 00 	cmp  %g4, 0
    1918:	12 bf ff e6 	bne  18b0 <__ajit_do_spi_transfer_via_vmap__+0x38>
    191c:	01 00 00 00 	nop 
    1920:	f0 0e 20 03 	ldub  [ %i0 + 3 ], %i0
    1924:	81 c7 e0 08 	ret 
    1928:	81 e8 00 00 	restore 
    192c:	12 bf ff e1 	bne  18b0 <__ajit_do_spi_transfer_via_vmap__+0x38>
    1930:	80 a6 c0 1d 	cmp  %i3, %i5
    1934:	18 bf ff eb 	bgu  18e0 <__ajit_do_spi_transfer_via_vmap__+0x68>
    1938:	01 00 00 00 	nop 
    193c:	30 bf ff dd 	b,a   18b0 <__ajit_do_spi_transfer_via_vmap__+0x38>

00001940 <__ajit_configure_spi_master_via_bypass___>:
    1940:	92 0a 60 0f 	and  %o1, 0xf, %o1
    1944:	03 20 00 03 	sethi  %hi(0x80000c00), %g1
    1948:	92 12 60 10 	or  %o1, 0x10, %o1
    194c:	82 10 62 0c 	or  %g1, 0x20c, %g1
    1950:	d2 a0 44 00 	sta  %o1, [ %g1 ] #ASI_SCRATCHPAD
    1954:	81 c3 e0 08 	retl 
    1958:	90 10 20 00 	clr  %o0

0000195c <__ajit_configure_spi_master_via_vmap___>:
    195c:	92 0a 60 0f 	and  %o1, 0xf, %o1
    1960:	92 12 60 10 	or  %o1, 0x10, %o1
    1964:	d2 22 20 0c 	st  %o1, [ %o0 + 0xc ]
    1968:	81 c3 e0 08 	retl 
    196c:	90 10 20 00 	clr  %o0

00001970 <__ajit_do_spi_transfer_inner__>:
    1970:	9d e3 bf a0 	save  %sp, -96, %sp
    1974:	b8 0f 20 01 	and  %i4, 1, %i4
    1978:	b4 0e a0 07 	and  %i2, 7, %i2
    197c:	b8 07 00 1c 	add  %i4, %i4, %i4
    1980:	83 2e a0 04 	sll  %i2, 4, %g1
    1984:	80 a6 20 00 	cmp  %i0, 0
    1988:	82 10 60 01 	or  %g1, 1, %g1
    198c:	02 80 00 31 	be  1a50 <__ajit_do_spi_transfer_inner__+0xe0>
    1990:	82 17 00 01 	or  %i4, %g1, %g1
    1994:	82 08 60 ff 	and  %g1, 0xff, %g1
    1998:	f6 26 40 00 	st  %i3, [ %i1 ]
    199c:	c2 26 60 08 	st  %g1, [ %i1 + 8 ]
    19a0:	88 06 60 0c 	add  %i1, 0xc, %g4
    19a4:	80 a6 20 00 	cmp  %i0, 0
    19a8:	02 80 00 22 	be  1a30 <__ajit_do_spi_transfer_inner__+0xc0>
    19ac:	01 00 00 00 	nop 
    19b0:	c2 01 00 00 	ld  [ %g4 ], %g1
    19b4:	80 88 60 01 	btst  1, %g1
    19b8:	22 80 00 2b 	be,a   1a64 <__ajit_do_spi_transfer_inner__+0xf4>
    19bc:	f0 06 40 00 	ld  [ %i1 ], %i0
    19c0:	b9 47 c0 00 	rd  %asr31, %i4
    19c4:	83 47 80 00 	rd  %asr30, %g1
    19c8:	9a 10 20 00 	clr  %o5
    19cc:	ba 10 00 1c 	mov  %i4, %i5
    19d0:	ba 13 40 1d 	or  %o5, %i5, %i5
    19d4:	b6 87 60 40 	addcc  %i5, 0x40, %i3
    19d8:	b8 10 20 00 	clr  %i4
    19dc:	b8 10 40 1c 	or  %g1, %i4, %i4
    19e0:	b4 47 20 00 	addx  %i4, 0, %i2
    19e4:	80 a6 80 1c 	cmp  %i2, %i4
    19e8:	08 80 00 0c 	bleu  1a18 <__ajit_do_spi_transfer_inner__+0xa8>
    19ec:	01 00 00 00 	nop 
    19f0:	b9 47 c0 00 	rd  %asr31, %i4
    19f4:	83 47 80 00 	rd  %asr30, %g1
    19f8:	86 10 20 00 	clr  %g3
    19fc:	ba 10 00 1c 	mov  %i4, %i5
    1a00:	b8 10 20 00 	clr  %i4
    1a04:	b8 10 40 1c 	or  %g1, %i4, %i4
    1a08:	80 a6 80 1c 	cmp  %i2, %i4
    1a0c:	18 bf ff f9 	bgu  19f0 <__ajit_do_spi_transfer_inner__+0x80>
    1a10:	ba 10 c0 1d 	or  %g3, %i5, %i5
    1a14:	80 a6 80 1c 	cmp  %i2, %i4
    1a18:	12 bf ff e3 	bne  19a4 <__ajit_do_spi_transfer_inner__+0x34>
    1a1c:	80 a6 c0 1d 	cmp  %i3, %i5
    1a20:	18 bf ff f4 	bgu  19f0 <__ajit_do_spi_transfer_inner__+0x80>
    1a24:	80 a6 20 00 	cmp  %i0, 0
    1a28:	32 bf ff e3 	bne,a   19b4 <__ajit_do_spi_transfer_inner__+0x44>
    1a2c:	c2 01 00 00 	ld  [ %g4 ], %g1
    1a30:	c2 81 04 00 	lda  [ %g4 ] #ASI_SCRATCHPAD, %g1
    1a34:	80 88 60 01 	btst  1, %g1
    1a38:	12 bf ff e2 	bne  19c0 <__ajit_do_spi_transfer_inner__+0x50>
    1a3c:	01 00 00 00 	nop 
    1a40:	f0 86 44 00 	lda  [ %i1 ] #ASI_SCRATCHPAD, %i0
    1a44:	b0 0e 20 ff 	and  %i0, 0xff, %i0
    1a48:	81 c7 e0 08 	ret 
    1a4c:	81 e8 00 00 	restore 
    1a50:	f6 a6 44 00 	sta  %i3, [ %i1 ] #ASI_SCRATCHPAD
    1a54:	88 06 60 08 	add  %i1, 8, %g4
    1a58:	c2 a1 04 00 	sta  %g1, [ %g4 ] #ASI_SCRATCHPAD
    1a5c:	10 bf ff d2 	b  19a4 <__ajit_do_spi_transfer_inner__+0x34>
    1a60:	88 06 60 0c 	add  %i1, 0xc, %g4
    1a64:	b0 0e 20 ff 	and  %i0, 0xff, %i0
    1a68:	81 c7 e0 08 	ret 
    1a6c:	81 e8 00 00 	restore 

00001a70 <__ajit_gpio_xfer__>:
    1a70:	d4 a2 04 00 	sta  %o2, [ %o0 ] #ASI_SCRATCHPAD
    1a74:	92 0a 60 07 	and  %o1, 7, %o1
    1a78:	88 02 20 08 	add  %o0, 8, %g4
    1a7c:	93 2a 60 04 	sll  %o1, 4, %o1
    1a80:	92 12 60 03 	or  %o1, 3, %o1
    1a84:	d2 a1 04 00 	sta  %o1, [ %g4 ] #ASI_SCRATCHPAD
    1a88:	82 10 21 00 	mov  0x100, %g1
    1a8c:	c4 81 04 00 	lda  [ %g4 ] #ASI_SCRATCHPAD, %g2
    1a90:	82 00 7f ff 	add  %g1, -1, %g1
    1a94:	87 38 60 1f 	sra  %g1, 0x1f, %g3
    1a98:	86 20 c0 01 	sub  %g3, %g1, %g3
    1a9c:	87 30 e0 1f 	srl  %g3, 0x1f, %g3
    1aa0:	80 88 c0 02 	btst  %g3, %g2
    1aa4:	12 bf ff fa 	bne  1a8c <__ajit_gpio_xfer__+0x1c>
    1aa8:	01 00 00 00 	nop 
    1aac:	d0 82 04 00 	lda  [ %o0 ] #ASI_SCRATCHPAD, %o0
    1ab0:	81 c3 e0 08 	retl 
    1ab4:	90 0a 20 ff 	and  %o0, 0xff, %o0

00001ab8 <__ajit_read_gpio_32_via_vmap__>:
    1ab8:	03 20 00 02 	sethi  %hi(0x80000800), %g1
    1abc:	82 10 62 04 	or  %g1, 0x204, %g1	! 80000a04 <_custom_printf_handler+0x7ffe9730>
    1ac0:	81 c3 e0 08 	retl 
    1ac4:	d0 00 40 00 	ld  [ %g1 ], %o0

00001ac8 <__ajit_write_gpio_32_via_vmap__>:
    1ac8:	03 20 00 02 	sethi  %hi(0x80000800), %g1
    1acc:	82 10 62 00 	or  %g1, 0x200, %g1	! 80000a00 <_custom_printf_handler+0x7ffe972c>
    1ad0:	81 c3 e0 08 	retl 
    1ad4:	d0 20 40 00 	st  %o0, [ %g1 ]

00001ad8 <__ajit_read_gpio_32_via_bypass__>:
    1ad8:	11 20 00 02 	sethi  %hi(0x80000800), %o0
    1adc:	90 12 22 04 	or  %o0, 0x204, %o0	! 80000a04 <_custom_printf_handler+0x7ffe9730>
    1ae0:	d0 82 04 00 	lda  [ %o0 ] #ASI_SCRATCHPAD, %o0
    1ae4:	81 c3 e0 08 	retl 
    1ae8:	01 00 00 00 	nop 

00001aec <__ajit_write_gpio_32_via_bypass__>:
    1aec:	03 20 00 02 	sethi  %hi(0x80000800), %g1
    1af0:	82 10 62 00 	or  %g1, 0x200, %g1	! 80000a00 <_custom_printf_handler+0x7ffe972c>
    1af4:	d0 a0 44 00 	sta  %o0, [ %g1 ] #ASI_SCRATCHPAD
    1af8:	81 c3 e0 08 	retl 
    1afc:	01 00 00 00 	nop 

00001b00 <__ajit_clear_thread_performance_counters>:
    1b00:	c0 22 c0 00 	clr  [ %o3 ]
    1b04:	c0 22 e0 04 	clr  [ %o3 + 4 ]
    1b08:	c0 22 e0 08 	clr  [ %o3 + 8 ]
    1b0c:	c0 22 e0 0c 	clr  [ %o3 + 0xc ]
    1b10:	c0 22 e0 10 	clr  [ %o3 + 0x10 ]
    1b14:	c0 22 e0 14 	clr  [ %o3 + 0x14 ]
    1b18:	c0 22 e0 18 	clr  [ %o3 + 0x18 ]
    1b1c:	c0 22 e0 1c 	clr  [ %o3 + 0x1c ]
    1b20:	c0 22 e0 20 	clr  [ %o3 + 0x20 ]
    1b24:	c0 22 e0 24 	clr  [ %o3 + 0x24 ]
    1b28:	c0 22 e0 28 	clr  [ %o3 + 0x28 ]
    1b2c:	c0 22 e0 2c 	clr  [ %o3 + 0x2c ]
    1b30:	c0 22 e0 30 	clr  [ %o3 + 0x30 ]
    1b34:	c0 22 e0 34 	clr  [ %o3 + 0x34 ]
    1b38:	c0 22 e0 38 	clr  [ %o3 + 0x38 ]
    1b3c:	c0 22 e0 3c 	clr  [ %o3 + 0x3c ]
    1b40:	c0 22 e0 40 	clr  [ %o3 + 0x40 ]
    1b44:	c0 22 e0 44 	clr  [ %o3 + 0x44 ]
    1b48:	c0 22 e0 48 	clr  [ %o3 + 0x48 ]
    1b4c:	c0 22 e0 4c 	clr  [ %o3 + 0x4c ]
    1b50:	c0 22 80 00 	clr  [ %o2 ]
    1b54:	c0 22 a0 04 	clr  [ %o2 + 4 ]
    1b58:	c0 22 a0 08 	clr  [ %o2 + 8 ]
    1b5c:	c0 22 a0 0c 	clr  [ %o2 + 0xc ]
    1b60:	c0 22 a0 10 	clr  [ %o2 + 0x10 ]
    1b64:	c0 22 a0 14 	clr  [ %o2 + 0x14 ]
    1b68:	c0 22 a0 18 	clr  [ %o2 + 0x18 ]
    1b6c:	c0 22 a0 1c 	clr  [ %o2 + 0x1c ]
    1b70:	c0 22 a0 20 	clr  [ %o2 + 0x20 ]
    1b74:	81 c3 e0 08 	retl 
    1b78:	c0 22 a0 24 	clr  [ %o2 + 0x24 ]

00001b7c <__ajit_sample_thread_performance_counters>:
    1b7c:	9d e3 bf a0 	save  %sp, -96, %sp
    1b80:	b0 06 00 18 	add  %i0, %i0, %i0
    1b84:	b2 06 00 19 	add  %i0, %i1, %i1
    1b88:	b3 2e 60 08 	sll  %i1, 8, %i1
    1b8c:	88 06 40 1a 	add  %i1, %i2, %g4
    1b90:	f8 06 40 1a 	ld  [ %i1 + %i2 ], %i4
    1b94:	d0 01 20 04 	ld  [ %g4 + 4 ], %o0
    1b98:	e8 01 20 10 	ld  [ %g4 + 0x10 ], %l4
    1b9c:	d8 01 20 14 	ld  [ %g4 + 0x14 ], %o4
    1ba0:	f0 01 20 1c 	ld  [ %g4 + 0x1c ], %i0
    1ba4:	c4 01 20 34 	ld  [ %g4 + 0x34 ], %g2
    1ba8:	92 10 00 08 	mov  %o0, %o1
    1bac:	ba 10 20 00 	clr  %i5
    1bb0:	aa 10 20 00 	clr  %l5
    1bb4:	90 10 20 00 	clr  %o0
    1bb8:	90 12 00 1c 	or  %o0, %i4, %o0
    1bbc:	f8 01 20 18 	ld  [ %g4 + 0x18 ], %i4
    1bc0:	ec 01 20 08 	ld  [ %g4 + 8 ], %l6
    1bc4:	d4 01 20 0c 	ld  [ %g4 + 0xc ], %o2
    1bc8:	e4 01 20 24 	ld  [ %g4 + 0x24 ], %l2
    1bcc:	e0 01 20 2c 	ld  [ %g4 + 0x2c ], %l0
    1bd0:	f4 01 20 28 	ld  [ %g4 + 0x28 ], %i2
    1bd4:	82 10 00 1b 	mov  %i3, %g1
    1bd8:	86 10 00 02 	mov  %g2, %g3
    1bdc:	ae 10 20 00 	clr  %l7
    1be0:	92 12 40 1d 	or  %o1, %i5, %o1
    1be4:	9a 10 00 0c 	mov  %o4, %o5
    1be8:	b2 10 00 18 	mov  %i0, %i1
    1bec:	9a 15 40 0d 	or  %l5, %o5, %o5
    1bf0:	ba 10 20 00 	clr  %i5
    1bf4:	aa 10 20 00 	clr  %l5
    1bf8:	b6 10 20 00 	clr  %i3
    1bfc:	84 10 20 00 	clr  %g2
    1c00:	98 10 20 00 	clr  %o4
    1c04:	b0 10 20 00 	clr  %i0
    1c08:	98 15 00 0c 	or  %l4, %o4, %o4
    1c0c:	b0 17 00 18 	or  %i4, %i0, %i0
    1c10:	e8 01 20 20 	ld  [ %g4 + 0x20 ], %l4
    1c14:	f8 01 20 30 	ld  [ %g4 + 0x30 ], %i4
    1c18:	a2 10 00 10 	mov  %l0, %l1
    1c1c:	96 10 00 0a 	mov  %o2, %o3
    1c20:	b2 17 40 19 	or  %i5, %i1, %i1
    1c24:	96 15 c0 0b 	or  %l7, %o3, %o3
    1c28:	a6 10 00 12 	mov  %l2, %l3
    1c2c:	a0 10 20 00 	clr  %l0
    1c30:	a6 15 40 13 	or  %l5, %l3, %l3
    1c34:	ba 10 20 00 	clr  %i5
    1c38:	aa 16 c0 11 	or  %i3, %l1, %l5
    1c3c:	ae 17 40 03 	or  %i5, %g3, %l7
    1c40:	b6 10 20 00 	clr  %i3
    1c44:	c6 01 20 44 	ld  [ %g4 + 0x44 ], %g3
    1c48:	94 10 20 00 	clr  %o2
    1c4c:	a4 10 20 00 	clr  %l2
    1c50:	94 15 80 0a 	or  %l6, %o2, %o2
    1c54:	a4 15 00 12 	or  %l4, %l2, %l2
    1c58:	ac 17 00 02 	or  %i4, %g2, %l6
    1c5c:	a8 16 80 10 	or  %i2, %l0, %l4
    1c60:	c4 01 20 3c 	ld  [ %g4 + 0x3c ], %g2
    1c64:	f4 01 20 38 	ld  [ %g4 + 0x38 ], %i2
    1c68:	f8 01 20 40 	ld  [ %g4 + 0x40 ], %i4
    1c6c:	de 01 20 4c 	ld  [ %g4 + 0x4c ], %o7
    1c70:	a2 16 c0 02 	or  %i3, %g2, %l1
    1c74:	a0 10 20 00 	clr  %l0
    1c78:	c4 01 20 48 	ld  [ %g4 + 0x48 ], %g2
    1c7c:	a0 16 80 10 	or  %i2, %l0, %l0
    1c80:	b6 10 00 03 	mov  %g3, %i3
    1c84:	b4 10 20 00 	clr  %i2
    1c88:	ba 10 20 00 	clr  %i5
    1c8c:	b4 17 00 1a 	or  %i4, %i2, %i2
    1c90:	b6 17 40 1b 	or  %i5, %i3, %i3
    1c94:	b8 10 20 00 	clr  %i4
    1c98:	86 10 20 00 	clr  %g3
    1c9c:	84 10 80 1c 	or  %g2, %i4, %g2
    1ca0:	86 10 c0 0f 	or  %g3, %o7, %g3
    1ca4:	d0 38 40 00 	std  %o0, [ %g1 ]
    1ca8:	d4 38 60 08 	std  %o2, [ %g1 + 8 ]
    1cac:	d8 38 60 10 	std  %o4, [ %g1 + 0x10 ]
    1cb0:	f0 38 60 18 	std  %i0, [ %g1 + 0x18 ]
    1cb4:	e4 38 60 20 	std  %l2, [ %g1 + 0x20 ]
    1cb8:	e8 38 60 28 	std  %l4, [ %g1 + 0x28 ]
    1cbc:	ec 38 60 30 	std  %l6, [ %g1 + 0x30 ]
    1cc0:	e0 38 60 38 	std  %l0, [ %g1 + 0x38 ]
    1cc4:	f4 38 60 40 	std  %i2, [ %g1 + 0x40 ]
    1cc8:	c4 38 60 48 	std  %g2, [ %g1 + 0x48 ]
    1ccc:	81 c7 e0 08 	ret 
    1cd0:	81 e8 00 00 	restore 

00001cd4 <__ajit_ta_0__>:
    1cd4:	91 d0 20 00 	ta  0
    1cd8:	01 00 00 00 	nop 
    1cdc:	01 00 00 00 	nop 
    1ce0:	81 c3 e0 08 	retl 
    1ce4:	01 00 00 00 	nop 

00001ce8 <__ajit_fsqrtd__>:
    1ce8:	c1 1a 00 00 	ldd  [ %o0 ], %f0
    1cec:	85 a0 05 40 	fsqrtd  %f0, %f2
    1cf0:	c5 3a 40 00 	std  %f2, [ %o1 ]
    1cf4:	81 c3 e0 08 	retl 
    1cf8:	01 00 00 00 	nop 

00001cfc <__ajit_fsqrts__>:
    1cfc:	c1 02 00 00 	ld  [ %o0 ], %f0
    1d00:	83 a0 05 20 	fsqrts  %f0, %f1
    1d04:	c3 22 40 00 	st  %f1, [ %o1 ]
    1d08:	81 c3 e0 08 	retl 
    1d0c:	01 00 00 00 	nop 

00001d10 <__ajit_fitod__>:
    1d10:	c1 02 00 00 	ld  [ %o0 ], %f0
    1d14:	85 a0 19 00 	fitod  %f0, %f2
    1d18:	c5 3a 40 00 	std  %f2, [ %o1 ]
    1d1c:	81 c3 e0 08 	retl 
    1d20:	01 00 00 00 	nop 

00001d24 <__ajit_fitos__>:
    1d24:	c1 02 00 00 	ld  [ %o0 ], %f0
    1d28:	83 a0 18 80 	fitos  %f0, %f1
    1d2c:	c3 22 40 00 	st  %f1, [ %o1 ]
    1d30:	81 c3 e0 08 	retl 
    1d34:	01 00 00 00 	nop 

00001d38 <__ajit_fdtoi__>:
    1d38:	c1 1a 00 00 	ldd  [ %o0 ], %f0
    1d3c:	85 a0 1a 40 	fdtoi  %f0, %f2
    1d40:	c5 22 40 00 	st  %f2, [ %o1 ]
    1d44:	81 c3 e0 08 	retl 
    1d48:	01 00 00 00 	nop 

00001d4c <__ajit_fstoi__>:
    1d4c:	c1 02 00 00 	ld  [ %o0 ], %f0
    1d50:	83 a0 1a 20 	fstoi  %f0, %f1
    1d54:	c3 22 40 00 	st  %f1, [ %o1 ]
    1d58:	81 c3 e0 08 	retl 
    1d5c:	01 00 00 00 	nop 
    1d60:	00 00 36 e4 	unimp  0x36e4
    1d64:	00 00 35 2c 	unimp  0x352c
    1d68:	00 00 35 2c 	unimp  0x352c
    1d6c:	00 00 35 2c 	unimp  0x352c
    1d70:	00 00 35 2c 	unimp  0x352c
    1d74:	00 00 35 2c 	unimp  0x352c
    1d78:	00 00 35 2c 	unimp  0x352c
    1d7c:	00 00 35 2c 	unimp  0x352c
    1d80:	00 00 35 2c 	unimp  0x352c
    1d84:	00 00 35 2c 	unimp  0x352c
    1d88:	00 00 35 2c 	unimp  0x352c
    1d8c:	00 00 35 2c 	unimp  0x352c
    1d90:	00 00 35 2c 	unimp  0x352c
    1d94:	00 00 35 2c 	unimp  0x352c
    1d98:	00 00 35 2c 	unimp  0x352c
    1d9c:	00 00 35 2c 	unimp  0x352c
    1da0:	00 00 35 2c 	unimp  0x352c
    1da4:	00 00 35 2c 	unimp  0x352c
    1da8:	00 00 35 2c 	unimp  0x352c
    1dac:	00 00 35 2c 	unimp  0x352c
    1db0:	00 00 35 2c 	unimp  0x352c
    1db4:	00 00 35 2c 	unimp  0x352c
    1db8:	00 00 35 2c 	unimp  0x352c
    1dbc:	00 00 35 2c 	unimp  0x352c
    1dc0:	00 00 35 2c 	unimp  0x352c
    1dc4:	00 00 35 2c 	unimp  0x352c
    1dc8:	00 00 35 2c 	unimp  0x352c
    1dcc:	00 00 35 2c 	unimp  0x352c
    1dd0:	00 00 35 2c 	unimp  0x352c
    1dd4:	00 00 35 2c 	unimp  0x352c
    1dd8:	00 00 35 2c 	unimp  0x352c
    1ddc:	00 00 35 2c 	unimp  0x352c
    1de0:	00 00 3a 98 	unimp  0x3a98
    1de4:	00 00 3a 48 	unimp  0x3a48
    1de8:	00 00 3a 98 	unimp  0x3a98
    1dec:	00 00 35 2c 	unimp  0x352c
    1df0:	00 00 35 2c 	unimp  0x352c
    1df4:	00 00 35 2c 	unimp  0x352c
    1df8:	00 00 35 2c 	unimp  0x352c
    1dfc:	00 00 35 2c 	unimp  0x352c
    1e00:	00 00 35 2c 	unimp  0x352c
    1e04:	00 00 35 2c 	unimp  0x352c
    1e08:	00 00 35 2c 	unimp  0x352c
    1e0c:	00 00 35 2c 	unimp  0x352c
    1e10:	00 00 35 2c 	unimp  0x352c
    1e14:	00 00 35 2c 	unimp  0x352c
    1e18:	00 00 35 2c 	unimp  0x352c
    1e1c:	00 00 35 2c 	unimp  0x352c
    1e20:	00 00 35 2c 	unimp  0x352c
    1e24:	00 00 35 2c 	unimp  0x352c
    1e28:	00 00 35 2c 	unimp  0x352c
    1e2c:	00 00 38 28 	unimp  0x3828
    1e30:	00 00 35 2c 	unimp  0x352c
    1e34:	00 00 35 2c 	unimp  0x352c
    1e38:	00 00 35 2c 	unimp  0x352c
    1e3c:	00 00 35 2c 	unimp  0x352c
    1e40:	00 00 35 2c 	unimp  0x352c
    1e44:	00 00 35 2c 	unimp  0x352c
    1e48:	00 00 35 2c 	unimp  0x352c
    1e4c:	00 00 35 2c 	unimp  0x352c
    1e50:	00 00 35 2c 	unimp  0x352c
    1e54:	00 00 38 28 	unimp  0x3828
    1e58:	00 00 37 80 	unimp  0x3780
    1e5c:	00 00 38 28 	unimp  0x3828
    1e60:	00 00 3a 98 	unimp  0x3a98
    1e64:	00 00 3a 48 	unimp  0x3a48
    1e68:	00 00 3a 98 	unimp  0x3a98
    1e6c:	00 00 35 2c 	unimp  0x352c
    1e70:	00 00 38 28 	unimp  0x3828
    1e74:	00 00 35 2c 	unimp  0x352c
    1e78:	00 00 35 2c 	unimp  0x352c
    1e7c:	00 00 35 2c 	unimp  0x352c
    1e80:	00 00 35 2c 	unimp  0x352c
    1e84:	00 00 37 54 	unimp  0x3754
    1e88:	00 00 38 28 	unimp  0x3828
    1e8c:	00 00 37 20 	unimp  0x3720
    1e90:	00 00 35 2c 	unimp  0x352c
    1e94:	00 00 35 2c 	unimp  0x352c
    1e98:	00 00 39 08 	unimp  0x3908
    1e9c:	00 00 35 2c 	unimp  0x352c
    1ea0:	00 00 38 28 	unimp  0x3828
    1ea4:	00 00 35 2c 	unimp  0x352c
    1ea8:	00 00 35 2c 	unimp  0x352c
    1eac:	00 00 38 28 	unimp  0x3828
    1eb0:	00 00 35 b0 	unimp  0x35b0
    1eb4:	00 00 34 80 	unimp  0x3480
    1eb8:	00 00 34 80 	unimp  0x3480
    1ebc:	00 00 35 a4 	unimp  0x35a4
    1ec0:	00 00 34 80 	unimp  0x3480
    1ec4:	00 00 34 80 	unimp  0x3480
    1ec8:	00 00 34 80 	unimp  0x3480
    1ecc:	00 00 34 80 	unimp  0x3480
    1ed0:	00 00 34 80 	unimp  0x3480
    1ed4:	00 00 34 80 	unimp  0x3480
    1ed8:	00 00 34 80 	unimp  0x3480
    1edc:	00 00 35 98 	unimp  0x3598
    1ee0:	00 00 34 80 	unimp  0x3480
    1ee4:	00 00 35 8c 	unimp  0x358c
    1ee8:	00 00 34 80 	unimp  0x3480
    1eec:	00 00 34 80 	unimp  0x3480
    1ef0:	00 00 35 80 	unimp  0x3580
    1ef4:	00 00 36 c8 	unimp  0x36c8
    1ef8:	00 00 35 18 	unimp  0x3518
    1efc:	00 00 36 b8 	unimp  0x36b8
    1f00:	00 00 35 18 	unimp  0x3518
    1f04:	00 00 36 98 	unimp  0x3698
    1f08:	00 00 35 18 	unimp  0x3518
    1f0c:	00 00 35 18 	unimp  0x3518
    1f10:	00 00 35 18 	unimp  0x3518
    1f14:	00 00 35 18 	unimp  0x3518
    1f18:	00 00 35 18 	unimp  0x3518
    1f1c:	00 00 35 18 	unimp  0x3518
    1f20:	00 00 35 18 	unimp  0x3518
    1f24:	00 00 35 0c 	unimp  0x350c
    1f28:	00 00 35 18 	unimp  0x3518
    1f2c:	00 00 35 18 	unimp  0x3518
    1f30:	00 00 35 18 	unimp  0x3518
    1f34:	00 00 35 18 	unimp  0x3518
    1f38:	00 00 35 18 	unimp  0x3518
    1f3c:	00 00 35 0c 	unimp  0x350c

00001f40 <get_components>:
    1f40:	9d e3 bf 80 	save  %sp, -128, %sp
    1f44:	84 10 00 18 	mov  %i0, %g2
    1f48:	86 10 00 19 	mov  %i1, %g3
    1f4c:	c4 3f bf f8 	std  %g2, [ %fp + -8 ]
    1f50:	a5 36 20 1f 	srl  %i0, 0x1f, %l2
    1f54:	80 8c a0 ff 	btst  0xff, %l2
    1f58:	02 80 00 05 	be  1f6c <get_components+0x2c>
    1f5c:	f6 07 a0 40 	ld  [ %fp + 0x40 ], %i3
    1f60:	d1 1f bf f8 	ldd  [ %fp + -8 ], %f8
    1f64:	91 a0 00 a8 	fnegs  %f8, %f8
    1f68:	d1 3f bf f8 	std  %f8, [ %fp + -8 ]
    1f6c:	40 00 2d 73 	call  d538 <__fixdfdi>
    1f70:	d0 1f bf f8 	ldd  [ %fp + -8 ], %o0
    1f74:	83 2e a0 03 	sll  %i2, 3, %g1
    1f78:	05 00 00 54 	sethi  %hi(0x15000), %g2
    1f7c:	84 10 a0 00 	mov  %g2, %g2	! 15000 <powers_of_10>
    1f80:	d5 18 80 01 	ldd  [ %g2 + %g1 ], %f10
    1f84:	a0 10 00 08 	mov  %o0, %l0
    1f88:	a2 10 00 09 	mov  %o1, %l1
    1f8c:	40 00 2d c9 	call  d6b0 <__floatdidf>
    1f90:	d5 3f bf f0 	std  %f10, [ %fp + -16 ]
    1f94:	d1 1f bf f8 	ldd  [ %fp + -8 ], %f8
    1f98:	d5 1f bf f0 	ldd  [ %fp + -16 ], %f10
    1f9c:	81 a2 08 c0 	fsubd  %f8, %f0, %f0
    1fa0:	91 a0 09 4a 	fmuld  %f0, %f10, %f8
    1fa4:	d1 3f bf e0 	std  %f8, [ %fp + -32 ]
    1fa8:	d1 3f bf e8 	std  %f8, [ %fp + -24 ]
    1fac:	40 00 2d 63 	call  d538 <__fixdfdi>
    1fb0:	d0 1f bf e0 	ldd  [ %fp + -32 ], %o0
    1fb4:	b8 10 00 08 	mov  %o0, %i4
    1fb8:	40 00 2d be 	call  d6b0 <__floatdidf>
    1fbc:	ba 10 00 09 	mov  %o1, %i5
    1fc0:	33 00 00 58 	sethi  %hi(0x16000), %i1
    1fc4:	d1 1f bf e8 	ldd  [ %fp + -24 ], %f8
    1fc8:	d5 1e 63 68 	ldd  [ %i1 + 0x368 ], %f10
    1fcc:	81 a2 08 c0 	fsubd  %f8, %f0, %f0
    1fd0:	81 a8 0a ca 	fcmped  %f0, %f10
    1fd4:	01 00 00 00 	nop 
    1fd8:	1d 80 00 29 	fbule  207c <get_components+0x13c>
    1fdc:	01 00 00 00 	nop 
    1fe0:	86 87 60 01 	addcc  %i5, 1, %g3
    1fe4:	84 47 20 00 	addx  %i4, 0, %g2
    1fe8:	ba 10 00 03 	mov  %g3, %i5
    1fec:	b8 10 00 02 	mov  %g2, %i4
    1ff0:	90 10 00 02 	mov  %g2, %o0
    1ff4:	40 00 2d af 	call  d6b0 <__floatdidf>
    1ff8:	92 10 00 03 	mov  %g3, %o1
    1ffc:	d1 1f bf f0 	ldd  [ %fp + -16 ], %f8
    2000:	81 aa 0a c0 	fcmped  %f8, %f0
    2004:	01 00 00 00 	nop 
    2008:	1b 80 00 29 	fble  20ac <get_components+0x16c>
    200c:	86 84 60 01 	addcc  %l1, 1, %g3
    2010:	80 a6 a0 00 	cmp  %i2, 0
    2014:	12 80 00 15 	bne  2068 <get_components+0x128>
    2018:	90 10 00 10 	mov  %l0, %o0
    201c:	40 00 2d a5 	call  d6b0 <__floatdidf>
    2020:	92 10 00 11 	mov  %l1, %o1
    2024:	d1 1e 63 68 	ldd  [ %i1 + 0x368 ], %f8
    2028:	d5 1f bf f8 	ldd  [ %fp + -8 ], %f10
    202c:	81 a2 88 c0 	fsubd  %f10, %f0, %f0
    2030:	81 a8 0a c8 	fcmped  %f0, %f8
    2034:	01 00 00 00 	nop 
    2038:	19 80 00 05 	fbuge  204c <get_components+0x10c>
    203c:	01 00 00 00 	nop 
    2040:	01 00 00 00 	nop 
    2044:	1d 80 00 09 	fbule  2068 <get_components+0x128>
    2048:	01 00 00 00 	nop 
    204c:	84 0c 20 00 	and  %l0, 0, %g2
    2050:	86 0c 60 01 	and  %l1, 1, %g3
    2054:	84 10 80 03 	or  %g2, %g3, %g2
    2058:	80 a0 00 02 	cmp  %g0, %g2
    205c:	82 40 20 00 	addx  %g0, 0, %g1
    2060:	a2 84 40 01 	addcc  %l1, %g1, %l1
    2064:	a0 44 20 00 	addx  %l0, 0, %l0
    2068:	e0 3e c0 00 	std  %l0, [ %i3 ]
    206c:	f8 3e e0 08 	std  %i4, [ %i3 + 8 ]
    2070:	e4 2e e0 10 	stb  %l2, [ %i3 + 0x10 ]
    2074:	81 c7 e0 0c 	jmp  %i7 + 0xc
    2078:	91 e8 00 1b 	restore  %g0, %i3, %o0
    207c:	81 a8 0a 4a 	fcmpd  %f0, %f10
    2080:	01 00 00 00 	nop 
    2084:	03 bf ff e4 	fbne  2014 <get_components+0xd4>
    2088:	80 a6 a0 00 	cmp  %i2, 0
    208c:	80 97 00 1d 	orcc  %i4, %i5, %g0
    2090:	12 80 00 0d 	bne  20c4 <get_components+0x184>
    2094:	84 0f 20 00 	and  %i4, 0, %g2
    2098:	86 87 60 01 	addcc  %i5, 1, %g3
    209c:	84 47 20 00 	addx  %i4, 0, %g2
    20a0:	ba 10 00 03 	mov  %g3, %i5
    20a4:	10 bf ff db 	b  2010 <get_components+0xd0>
    20a8:	b8 10 00 02 	mov  %g2, %i4
    20ac:	b8 10 20 00 	clr  %i4
    20b0:	84 44 20 00 	addx  %l0, 0, %g2
    20b4:	a2 10 00 03 	mov  %g3, %l1
    20b8:	a0 10 00 02 	mov  %g2, %l0
    20bc:	10 bf ff d5 	b  2010 <get_components+0xd0>
    20c0:	ba 10 20 00 	clr  %i5
    20c4:	86 0f 60 01 	and  %i5, 1, %g3
    20c8:	80 90 80 03 	orcc  %g2, %g3, %g0
    20cc:	22 bf ff d2 	be,a   2014 <get_components+0xd4>
    20d0:	80 a6 a0 00 	cmp  %i2, 0
    20d4:	10 bf ff f2 	b  209c <get_components+0x15c>
    20d8:	86 87 60 01 	addcc  %i5, 1, %g3

000020dc <putchar_wrapper>:
    20dc:	9d e3 bf a0 	save  %sp, -96, %sp
    20e0:	7f ff fc db 	call  144c <__ajit_serial_putchar_via_bypass__>
    20e4:	90 10 00 18 	mov  %i0, %o0
    20e8:	80 a2 20 00 	cmp  %o0, 0
    20ec:	02 bf ff fd 	be  20e0 <putchar_wrapper+0x4>
    20f0:	01 00 00 00 	nop 
    20f4:	7f ff fb 7e 	call  eec <__ajit_read_serial_control_register_via_bypass__>
    20f8:	01 00 00 00 	nop 
    20fc:	90 0a 20 09 	and  %o0, 9, %o0
    2100:	80 a2 20 09 	cmp  %o0, 9
    2104:	02 bf ff fc 	be  20f4 <putchar_wrapper+0x18>
    2108:	01 00 00 00 	nop 
    210c:	81 c7 e0 08 	ret 
    2110:	81 e8 00 00 	restore 

00002114 <out_rev_>:
    2114:	9d e3 bf a0 	save  %sp, -96, %sp
    2118:	80 8f 20 03 	btst  3, %i4
    211c:	12 80 00 1e 	bne  2194 <out_rev_+0x80>
    2120:	e0 06 20 0c 	ld  [ %i0 + 0xc ], %l0
    2124:	80 a6 80 1b 	cmp  %i2, %i3
    2128:	1a 80 00 1c 	bcc  2198 <out_rev_+0x84>
    212c:	80 a6 a0 00 	cmp  %i2, 0
    2130:	ba 06 a0 01 	add  %i2, 1, %i5
    2134:	82 10 00 10 	mov  %l0, %g1
    2138:	10 80 00 09 	b  215c <out_rev_+0x48>
    213c:	a2 10 20 20 	mov  0x20, %l1
    2140:	9f c0 80 00 	call  %g2
    2144:	d2 06 20 04 	ld  [ %i0 + 4 ], %o1
    2148:	80 a7 40 1b 	cmp  %i5, %i3
    214c:	02 80 00 13 	be  2198 <out_rev_+0x84>
    2150:	80 a6 a0 00 	cmp  %i2, 0
    2154:	c2 06 20 0c 	ld  [ %i0 + 0xc ], %g1
    2158:	ba 07 60 01 	inc  %i5
    215c:	84 00 60 01 	add  %g1, 1, %g2
    2160:	c4 26 20 0c 	st  %g2, [ %i0 + 0xc ]
    2164:	c4 06 20 10 	ld  [ %i0 + 0x10 ], %g2
    2168:	80 a0 80 01 	cmp  %g2, %g1
    216c:	08 bf ff f8 	bleu  214c <out_rev_+0x38>
    2170:	80 a7 40 1b 	cmp  %i5, %i3
    2174:	c4 06 00 00 	ld  [ %i0 ], %g2
    2178:	80 a0 a0 00 	cmp  %g2, 0
    217c:	12 bf ff f1 	bne  2140 <out_rev_+0x2c>
    2180:	90 10 20 20 	mov  0x20, %o0
    2184:	c4 06 20 08 	ld  [ %i0 + 8 ], %g2
    2188:	80 a7 40 1b 	cmp  %i5, %i3
    218c:	12 bf ff f2 	bne  2154 <out_rev_+0x40>
    2190:	e2 28 80 01 	stb  %l1, [ %g2 + %g1 ]
    2194:	80 a6 a0 00 	cmp  %i2, 0
    2198:	02 80 00 17 	be  21f4 <out_rev_+0xe0>
    219c:	80 8f 20 02 	btst  2, %i4
    21a0:	c2 06 20 0c 	ld  [ %i0 + 0xc ], %g1
    21a4:	b4 06 bf ff 	add  %i2, -1, %i2
    21a8:	84 00 60 01 	add  %g1, 1, %g2
    21ac:	d0 0e 40 1a 	ldub  [ %i1 + %i2 ], %o0
    21b0:	c4 26 20 0c 	st  %g2, [ %i0 + 0xc ]
    21b4:	c4 06 20 10 	ld  [ %i0 + 0x10 ], %g2
    21b8:	80 a0 40 02 	cmp  %g1, %g2
    21bc:	1a bf ff f7 	bcc  2198 <out_rev_+0x84>
    21c0:	80 a6 a0 00 	cmp  %i2, 0
    21c4:	c4 06 00 00 	ld  [ %i0 ], %g2
    21c8:	80 a0 a0 00 	cmp  %g2, 0
    21cc:	22 80 00 1f 	be,a   2248 <out_rev_+0x134>
    21d0:	c4 06 20 08 	ld  [ %i0 + 8 ], %g2
    21d4:	91 2a 20 18 	sll  %o0, 0x18, %o0
    21d8:	d2 06 20 04 	ld  [ %i0 + 4 ], %o1
    21dc:	9f c0 80 00 	call  %g2
    21e0:	91 3a 20 18 	sra  %o0, 0x18, %o0
    21e4:	80 a6 a0 00 	cmp  %i2, 0
    21e8:	32 bf ff ef 	bne,a   21a4 <out_rev_+0x90>
    21ec:	c2 06 20 0c 	ld  [ %i0 + 0xc ], %g1
    21f0:	80 8f 20 02 	btst  2, %i4
    21f4:	02 80 00 1b 	be  2260 <out_rev_+0x14c>
    21f8:	ba 10 20 20 	mov  0x20, %i5
    21fc:	c2 06 20 0c 	ld  [ %i0 + 0xc ], %g1
    2200:	86 20 40 10 	sub  %g1, %l0, %g3
    2204:	80 a6 c0 03 	cmp  %i3, %g3
    2208:	08 80 00 16 	bleu  2260 <out_rev_+0x14c>
    220c:	84 00 60 01 	add  %g1, 1, %g2
    2210:	c4 26 20 0c 	st  %g2, [ %i0 + 0xc ]
    2214:	c6 06 20 10 	ld  [ %i0 + 0x10 ], %g3
    2218:	80 a0 c0 01 	cmp  %g3, %g1
    221c:	28 80 00 0d 	bleu,a   2250 <out_rev_+0x13c>
    2220:	82 10 00 02 	mov  %g2, %g1
    2224:	c4 06 00 00 	ld  [ %i0 ], %g2
    2228:	80 a0 a0 00 	cmp  %g2, 0
    222c:	22 80 00 0f 	be,a   2268 <out_rev_+0x154>
    2230:	c4 06 20 08 	ld  [ %i0 + 8 ], %g2
    2234:	90 10 20 20 	mov  0x20, %o0
    2238:	9f c0 80 00 	call  %g2
    223c:	d2 06 20 04 	ld  [ %i0 + 4 ], %o1
    2240:	10 bf ff f0 	b  2200 <out_rev_+0xec>
    2244:	c2 06 20 0c 	ld  [ %i0 + 0xc ], %g1
    2248:	10 bf ff d3 	b  2194 <out_rev_+0x80>
    224c:	d0 28 80 01 	stb  %o0, [ %g2 + %g1 ]
    2250:	86 20 40 10 	sub  %g1, %l0, %g3
    2254:	80 a6 c0 03 	cmp  %i3, %g3
    2258:	18 bf ff ee 	bgu  2210 <out_rev_+0xfc>
    225c:	84 00 60 01 	add  %g1, 1, %g2
    2260:	81 c7 e0 08 	ret 
    2264:	81 e8 00 00 	restore 
    2268:	10 bf ff e5 	b  21fc <out_rev_+0xe8>
    226c:	fa 28 80 01 	stb  %i5, [ %g2 + %g1 ]

00002270 <print_integer>:
    2270:	9d e3 bf 80 	save  %sp, -128, %sp
    2274:	e6 07 a0 5c 	ld  [ %fp + 0x5c ], %l3
    2278:	80 96 40 1a 	orcc  %i1, %i2, %g0
    227c:	12 80 00 4f 	bne  23b8 <print_integer+0x148>
    2280:	e4 07 a0 60 	ld  [ %fp + 0x60 ], %l2
    2284:	80 8c a8 00 	btst  0x800, %l2
    2288:	02 80 00 a8 	be  2528 <print_integer+0x2b8>
    228c:	80 a7 20 10 	cmp  %i4, 0x10
    2290:	22 80 00 c2 	be,a   2598 <print_integer+0x328>
    2294:	a4 0c bf ef 	and  %l2, -17, %l2
    2298:	82 10 20 01 	mov  1, %g1
    229c:	a0 10 20 00 	clr  %l0
    22a0:	a2 07 bf e0 	add  %fp, -32, %l1
    22a4:	80 8c a0 02 	btst  2, %l2
    22a8:	12 80 00 05 	bne  22bc <print_integer+0x4c>
    22ac:	94 10 00 10 	mov  %l0, %o2
    22b0:	80 a4 e0 00 	cmp  %l3, 0
    22b4:	12 80 00 76 	bne  248c <print_integer+0x21c>
    22b8:	80 8c a0 01 	btst  1, %l2
    22bc:	80 a2 80 1d 	cmp  %o2, %i5
    22c0:	1a 80 00 0d 	bcc  22f4 <print_integer+0x84>
    22c4:	80 88 60 ff 	btst  0xff, %g1
    22c8:	12 80 00 06 	bne  22e0 <print_integer+0x70>
    22cc:	84 10 20 30 	mov  0x30, %g2
    22d0:	10 80 00 0a 	b  22f8 <print_integer+0x88>
    22d4:	80 a4 00 0a 	cmp  %l0, %o2
    22d8:	1a 80 00 08 	bcc  22f8 <print_integer+0x88>
    22dc:	80 a4 00 0a 	cmp  %l0, %o2
    22e0:	c4 2c 40 0a 	stb  %g2, [ %l1 + %o2 ]
    22e4:	94 02 a0 01 	inc  %o2
    22e8:	80 a2 a0 1f 	cmp  %o2, 0x1f
    22ec:	08 bf ff fb 	bleu  22d8 <print_integer+0x68>
    22f0:	80 a2 80 1d 	cmp  %o2, %i5
    22f4:	80 a4 00 0a 	cmp  %l0, %o2
    22f8:	1a 80 00 05 	bcc  230c <print_integer+0x9c>
    22fc:	84 40 20 00 	addx  %g0, 0, %g2
    2300:	80 a7 20 08 	cmp  %i4, 8
    2304:	22 80 00 02 	be,a   230c <print_integer+0x9c>
    2308:	a4 0c bf ef 	and  %l2, -17, %l2
    230c:	03 00 00 08 	sethi  %hi(0x2000), %g1
    2310:	82 10 60 10 	or  %g1, 0x10, %g1	! 2010 <get_components+0xd0>
    2314:	80 8c 80 01 	btst  %l2, %g1
    2318:	02 80 00 16 	be  2370 <print_integer+0x100>
    231c:	80 a2 a0 1f 	cmp  %o2, 0x1f
    2320:	80 8c a8 00 	btst  0x800, %l2
    2324:	02 80 00 4a 	be  244c <print_integer+0x1dc>
    2328:	80 a2 a0 00 	cmp  %o2, 0
    232c:	80 a7 20 10 	cmp  %i4, 0x10
    2330:	02 80 00 90 	be  2570 <print_integer+0x300>
    2334:	80 a2 a0 1f 	cmp  %o2, 0x1f
    2338:	18 80 00 07 	bgu  2354 <print_integer+0xe4>
    233c:	80 a7 20 02 	cmp  %i4, 2
    2340:	12 80 00 05 	bne  2354 <print_integer+0xe4>
    2344:	82 07 80 0a 	add  %fp, %o2, %g1
    2348:	84 10 20 62 	mov  0x62, %g2
    234c:	94 02 a0 01 	inc  %o2
    2350:	c4 28 7f e0 	stb  %g2, [ %g1 + -32 ]
    2354:	80 a2 a0 1f 	cmp  %o2, 0x1f
    2358:	18 80 00 11 	bgu  239c <print_integer+0x12c>
    235c:	82 07 80 0a 	add  %fp, %o2, %g1
    2360:	84 10 20 30 	mov  0x30, %g2
    2364:	94 02 a0 01 	inc  %o2
    2368:	c4 28 7f e0 	stb  %g2, [ %g1 + -32 ]
    236c:	80 a2 a0 1f 	cmp  %o2, 0x1f
    2370:	18 80 00 0b 	bgu  239c <print_integer+0x12c>
    2374:	80 a6 e0 00 	cmp  %i3, 0
    2378:	12 80 00 61 	bne  24fc <print_integer+0x28c>
    237c:	80 8c a0 04 	btst  4, %l2
    2380:	12 80 00 71 	bne  2544 <print_integer+0x2d4>
    2384:	80 8c a0 08 	btst  8, %l2
    2388:	02 80 00 05 	be  239c <print_integer+0x12c>
    238c:	82 07 80 0a 	add  %fp, %o2, %g1
    2390:	84 10 20 20 	mov  0x20, %g2
    2394:	94 02 a0 01 	inc  %o2
    2398:	c4 28 7f e0 	stb  %g2, [ %g1 + -32 ]
    239c:	90 10 00 18 	mov  %i0, %o0
    23a0:	92 10 00 11 	mov  %l1, %o1
    23a4:	96 10 00 13 	mov  %l3, %o3
    23a8:	7f ff ff 5b 	call  2114 <out_rev_>
    23ac:	98 10 00 12 	mov  %l2, %o4
    23b0:	81 c7 e0 08 	ret 
    23b4:	81 e8 00 00 	restore 
    23b8:	82 0c a0 20 	and  %l2, 0x20, %g1
    23bc:	a0 10 20 00 	clr  %l0
    23c0:	80 a0 00 01 	cmp  %g0, %g1
    23c4:	a2 07 bf e0 	add  %fp, -32, %l1
    23c8:	a8 40 3f ff 	addx  %g0, -1, %l4
    23cc:	a8 0d 20 20 	and  %l4, 0x20, %l4
    23d0:	10 80 00 12 	b  2418 <print_integer+0x1a8>
    23d4:	a8 05 20 41 	add  %l4, 0x41, %l4
    23d8:	d2 2c 40 10 	stb  %o1, [ %l1 + %l0 ]
    23dc:	90 10 00 19 	mov  %i1, %o0
    23e0:	92 10 00 1a 	mov  %i2, %o1
    23e4:	94 10 20 00 	clr  %o2
    23e8:	40 00 2e a0 	call  de68 <__udivdi3>
    23ec:	96 10 00 1c 	mov  %i4, %o3
    23f0:	a0 04 20 01 	inc  %l0
    23f4:	80 a4 20 20 	cmp  %l0, 0x20
    23f8:	b2 10 00 08 	mov  %o0, %i1
    23fc:	82 40 20 00 	addx  %g0, 0, %g1
    2400:	80 88 60 ff 	btst  0xff, %g1
    2404:	02 bf ff a8 	be  22a4 <print_integer+0x34>
    2408:	b4 10 00 09 	mov  %o1, %i2
    240c:	80 96 40 09 	orcc  %i1, %o1, %g0
    2410:	02 bf ff a6 	be  22a8 <print_integer+0x38>
    2414:	80 8c a0 02 	btst  2, %l2
    2418:	90 10 00 19 	mov  %i1, %o0
    241c:	92 10 00 1a 	mov  %i2, %o1
    2420:	94 10 20 00 	clr  %o2
    2424:	40 00 2f 5e 	call  e19c <__umoddi3>
    2428:	96 10 00 1c 	mov  %i4, %o3
    242c:	83 2a 60 18 	sll  %o1, 0x18, %g1
    2430:	83 38 60 18 	sra  %g1, 0x18, %g1
    2434:	80 a0 60 09 	cmp  %g1, 9
    2438:	24 bf ff e8 	ble,a   23d8 <print_integer+0x168>
    243c:	92 02 60 30 	add  %o1, 0x30, %o1
    2440:	92 02 7f f6 	add  %o1, -10, %o1
    2444:	10 bf ff e5 	b  23d8 <print_integer+0x168>
    2448:	92 02 40 14 	add  %o1, %l4, %o1
    244c:	02 bf ff b9 	be  2330 <print_integer+0xc0>
    2450:	80 a7 20 10 	cmp  %i4, 0x10
    2454:	80 a2 80 13 	cmp  %o2, %l3
    2458:	02 80 00 06 	be  2470 <print_integer+0x200>
    245c:	80 a0 a0 00 	cmp  %g2, 0
    2460:	80 a7 40 0a 	cmp  %i5, %o2
    2464:	12 bf ff b3 	bne  2330 <print_integer+0xc0>
    2468:	80 a7 20 10 	cmp  %i4, 0x10
    246c:	80 a0 a0 00 	cmp  %g2, 0
    2470:	02 80 00 55 	be  25c4 <print_integer+0x354>
    2474:	80 a7 20 02 	cmp  %i4, 2
    2478:	82 82 bf ff 	addcc  %o2, -1, %g1
    247c:	12 80 00 58 	bne  25dc <print_integer+0x36c>
    2480:	80 a7 20 02 	cmp  %i4, 2
    2484:	10 bf ff aa 	b  232c <print_integer+0xbc>
    2488:	94 10 20 00 	clr  %o2
    248c:	02 bf ff 8d 	be  22c0 <print_integer+0x50>
    2490:	80 a2 80 1d 	cmp  %o2, %i5
    2494:	80 a6 e0 00 	cmp  %i3, 0
    2498:	32 80 00 05 	bne,a   24ac <print_integer+0x23c>
    249c:	a6 04 ff ff 	add  %l3, -1, %l3
    24a0:	80 8c a0 0c 	btst  0xc, %l2
    24a4:	32 80 00 02 	bne,a   24ac <print_integer+0x23c>
    24a8:	a6 04 ff ff 	add  %l3, -1, %l3
    24ac:	80 a4 00 13 	cmp  %l0, %l3
    24b0:	1a 80 00 55 	bcc  2604 <print_integer+0x394>
    24b4:	80 88 60 ff 	btst  0xff, %g1
    24b8:	02 80 00 53 	be  2604 <print_integer+0x394>
    24bc:	84 10 20 30 	mov  0x30, %g2
    24c0:	82 07 80 10 	add  %fp, %l0, %g1
    24c4:	94 04 20 01 	add  %l0, 1, %o2
    24c8:	10 80 00 06 	b  24e0 <print_integer+0x270>
    24cc:	c4 28 7f e0 	stb  %g2, [ %g1 + -32 ]
    24d0:	1a bf ff 7c 	bcc  22c0 <print_integer+0x50>
    24d4:	80 a2 80 1d 	cmp  %o2, %i5
    24d8:	c4 2c 40 0a 	stb  %g2, [ %l1 + %o2 ]
    24dc:	94 02 a0 01 	inc  %o2
    24e0:	80 a2 a0 20 	cmp  %o2, 0x20
    24e4:	82 40 20 00 	addx  %g0, 0, %g1
    24e8:	80 88 60 ff 	btst  0xff, %g1
    24ec:	32 bf ff f9 	bne,a   24d0 <print_integer+0x260>
    24f0:	80 a2 80 13 	cmp  %o2, %l3
    24f4:	10 bf ff 73 	b  22c0 <print_integer+0x50>
    24f8:	80 a2 80 1d 	cmp  %o2, %i5
    24fc:	82 07 80 0a 	add  %fp, %o2, %g1
    2500:	84 10 20 2d 	mov  0x2d, %g2
    2504:	94 02 a0 01 	inc  %o2
    2508:	c4 28 7f e0 	stb  %g2, [ %g1 + -32 ]
    250c:	90 10 00 18 	mov  %i0, %o0
    2510:	92 10 00 11 	mov  %l1, %o1
    2514:	96 10 00 13 	mov  %l3, %o3
    2518:	7f ff fe ff 	call  2114 <out_rev_>
    251c:	98 10 00 12 	mov  %l2, %o4
    2520:	81 c7 e0 08 	ret 
    2524:	81 e8 00 00 	restore 
    2528:	82 10 20 30 	mov  0x30, %g1
    252c:	a4 0c bf ef 	and  %l2, -17, %l2
    2530:	c2 2f bf e0 	stb  %g1, [ %fp + -32 ]
    2534:	a0 10 20 01 	mov  1, %l0
    2538:	82 10 20 01 	mov  1, %g1
    253c:	10 bf ff 5a 	b  22a4 <print_integer+0x34>
    2540:	a2 07 bf e0 	add  %fp, -32, %l1
    2544:	82 07 80 0a 	add  %fp, %o2, %g1
    2548:	84 10 20 2b 	mov  0x2b, %g2
    254c:	94 02 a0 01 	inc  %o2
    2550:	c4 28 7f e0 	stb  %g2, [ %g1 + -32 ]
    2554:	90 10 00 18 	mov  %i0, %o0
    2558:	92 10 00 11 	mov  %l1, %o1
    255c:	96 10 00 13 	mov  %l3, %o3
    2560:	7f ff fe ed 	call  2114 <out_rev_>
    2564:	98 10 00 12 	mov  %l2, %o4
    2568:	81 c7 e0 08 	ret 
    256c:	81 e8 00 00 	restore 
    2570:	80 8c a0 20 	btst  0x20, %l2
    2574:	12 80 00 0d 	bne  25a8 <print_integer+0x338>
    2578:	80 a2 a0 1f 	cmp  %o2, 0x1f
    257c:	18 bf ff 89 	bgu  23a0 <print_integer+0x130>
    2580:	90 10 00 18 	mov  %i0, %o0
    2584:	82 07 80 0a 	add  %fp, %o2, %g1
    2588:	84 10 20 78 	mov  0x78, %g2
    258c:	94 02 a0 01 	inc  %o2
    2590:	10 bf ff 71 	b  2354 <print_integer+0xe4>
    2594:	c4 28 7f e0 	stb  %g2, [ %g1 + -32 ]
    2598:	82 10 20 01 	mov  1, %g1
    259c:	a0 10 20 00 	clr  %l0
    25a0:	10 bf ff 41 	b  22a4 <print_integer+0x34>
    25a4:	a2 07 bf e0 	add  %fp, -32, %l1
    25a8:	18 bf ff 7e 	bgu  23a0 <print_integer+0x130>
    25ac:	90 10 00 18 	mov  %i0, %o0
    25b0:	82 07 80 0a 	add  %fp, %o2, %g1
    25b4:	84 10 20 58 	mov  0x58, %g2
    25b8:	94 02 a0 01 	inc  %o2
    25bc:	10 bf ff 66 	b  2354 <print_integer+0xe4>
    25c0:	c4 28 7f e0 	stb  %g2, [ %g1 + -32 ]
    25c4:	02 bf ff 5b 	be  2330 <print_integer+0xc0>
    25c8:	80 a7 20 10 	cmp  %i4, 0x10
    25cc:	02 bf ff 59 	be  2330 <print_integer+0xc0>
    25d0:	82 10 00 0a 	mov  %o2, %g1
    25d4:	10 bf ff 60 	b  2354 <print_integer+0xe4>
    25d8:	94 10 00 01 	mov  %g1, %o2
    25dc:	02 80 00 06 	be  25f4 <print_integer+0x384>
    25e0:	80 a4 00 01 	cmp  %l0, %g1
    25e4:	80 a7 20 10 	cmp  %i4, 0x10
    25e8:	32 bf ff 5b 	bne,a   2354 <print_integer+0xe4>
    25ec:	94 10 00 01 	mov  %g1, %o2
    25f0:	80 a4 00 01 	cmp  %l0, %g1
    25f4:	0a bf ff 4e 	bcs  232c <print_integer+0xbc>
    25f8:	94 02 bf fe 	add  %o2, -2, %o2
    25fc:	10 bf ff 4c 	b  232c <print_integer+0xbc>
    2600:	94 10 00 01 	mov  %g1, %o2
    2604:	10 bf ff 2e 	b  22bc <print_integer+0x4c>
    2608:	94 10 00 10 	mov  %l0, %o2

0000260c <print_broken_up_decimal.isra.4>:
    260c:	9d e3 bf a0 	save  %sp, -96, %sp
    2610:	e0 07 a0 5c 	ld  [ %fp + 0x5c ], %l0
    2614:	a2 10 00 1a 	mov  %i2, %l1
    2618:	a6 10 00 1b 	mov  %i3, %l3
    261c:	a8 10 00 1c 	mov  %i4, %l4
    2620:	f6 07 a0 60 	ld  [ %fp + 0x60 ], %i3
    2624:	f8 07 a0 64 	ld  [ %fp + 0x64 ], %i4
    2628:	e4 07 a0 68 	ld  [ %fp + 0x68 ], %l2
    262c:	80 a4 20 00 	cmp  %l0, 0
    2630:	02 80 00 73 	be  27fc <print_broken_up_decimal.isra.4+0x1f0>
    2634:	f4 07 a0 6c 	ld  [ %fp + 0x6c ], %i2
    2638:	03 00 00 04 	sethi  %hi(0x1000), %g1
    263c:	84 10 60 10 	or  %g1, 0x10, %g2	! 1010 <__ajit_serial_set_baudrate_via_bypass__+0x84>
    2640:	84 0f 00 02 	and  %i4, %g2, %g2
    2644:	80 a0 80 01 	cmp  %g2, %g1
    2648:	02 80 00 90 	be  2888 <print_broken_up_decimal.isra.4+0x27c>
    264c:	80 a4 60 00 	cmp  %l1, 0
    2650:	80 a6 a0 1f 	cmp  %i2, 0x1f
    2654:	18 80 00 57 	bgu  27b0 <print_broken_up_decimal.isra.4+0x1a4>
    2658:	94 10 20 00 	clr  %o2
    265c:	96 10 20 0a 	mov  0xa, %o3
    2660:	90 10 00 11 	mov  %l1, %o0
    2664:	40 00 2d 11 	call  daa8 <__moddi3>
    2668:	92 10 00 13 	mov  %l3, %o1
    266c:	92 02 60 30 	add  %o1, 0x30, %o1
    2670:	90 10 00 11 	mov  %l1, %o0
    2674:	d2 2c 80 1a 	stb  %o1, [ %l2 + %i2 ]
    2678:	94 10 20 00 	clr  %o2
    267c:	96 10 20 0a 	mov  0xa, %o3
    2680:	10 80 00 0f 	b  26bc <print_broken_up_decimal.isra.4+0xb0>
    2684:	92 10 00 13 	mov  %l3, %o1
    2688:	90 10 00 13 	mov  %l3, %o0
    268c:	94 10 20 00 	clr  %o2
    2690:	80 a6 a0 20 	cmp  %i2, 0x20
    2694:	02 80 00 47 	be  27b0 <print_broken_up_decimal.isra.4+0x1a4>
    2698:	96 10 20 0a 	mov  0xa, %o3
    269c:	40 00 2d 03 	call  daa8 <__moddi3>
    26a0:	01 00 00 00 	nop 
    26a4:	92 02 60 30 	add  %o1, 0x30, %o1
    26a8:	90 10 00 13 	mov  %l3, %o0
    26ac:	d2 2c 80 1a 	stb  %o1, [ %l2 + %i2 ]
    26b0:	94 10 20 00 	clr  %o2
    26b4:	96 10 20 0a 	mov  0xa, %o3
    26b8:	92 10 00 11 	mov  %l1, %o1
    26bc:	40 00 2c 12 	call  d704 <__divdi3>
    26c0:	a0 04 3f ff 	add  %l0, -1, %l0
    26c4:	a6 10 00 08 	mov  %o0, %l3
    26c8:	a2 10 00 09 	mov  %o1, %l1
    26cc:	80 94 c0 09 	orcc  %l3, %o1, %g0
    26d0:	12 bf ff ee 	bne  2688 <print_broken_up_decimal.isra.4+0x7c>
    26d4:	b4 06 a0 01 	inc  %i2
    26d8:	80 a6 a0 1f 	cmp  %i2, 0x1f
    26dc:	18 80 00 0e 	bgu  2714 <print_broken_up_decimal.isra.4+0x108>
    26e0:	80 a4 20 00 	cmp  %l0, 0
    26e4:	02 80 00 0c 	be  2714 <print_broken_up_decimal.isra.4+0x108>
    26e8:	82 10 20 30 	mov  0x30, %g1
    26ec:	10 80 00 06 	b  2704 <print_broken_up_decimal.isra.4+0xf8>
    26f0:	c2 2c 80 1a 	stb  %g1, [ %l2 + %i2 ]
    26f4:	80 a4 20 00 	cmp  %l0, 0
    26f8:	02 80 00 08 	be  2718 <print_broken_up_decimal.isra.4+0x10c>
    26fc:	80 a6 a0 1f 	cmp  %i2, 0x1f
    2700:	c2 2c 80 1a 	stb  %g1, [ %l2 + %i2 ]
    2704:	b4 06 a0 01 	inc  %i2
    2708:	80 a6 a0 1f 	cmp  %i2, 0x1f
    270c:	08 bf ff fa 	bleu  26f4 <print_broken_up_decimal.isra.4+0xe8>
    2710:	a0 04 3f ff 	add  %l0, -1, %l0
    2714:	80 a6 a0 1f 	cmp  %i2, 0x1f
    2718:	18 80 00 27 	bgu  27b4 <print_broken_up_decimal.isra.4+0x1a8>
    271c:	82 0f 20 03 	and  %i4, 3, %g1
    2720:	82 10 20 2e 	mov  0x2e, %g1
    2724:	c2 2c 80 1a 	stb  %g1, [ %l2 + %i2 ]
    2728:	b4 06 a0 01 	inc  %i2
    272c:	80 a6 a0 1f 	cmp  %i2, 0x1f
    2730:	18 80 00 20 	bgu  27b0 <print_broken_up_decimal.isra.4+0x1a4>
    2734:	94 10 20 00 	clr  %o2
    2738:	96 10 20 0a 	mov  0xa, %o3
    273c:	90 10 00 18 	mov  %i0, %o0
    2740:	40 00 2c da 	call  daa8 <__moddi3>
    2744:	92 10 00 19 	mov  %i1, %o1
    2748:	94 10 20 00 	clr  %o2
    274c:	82 02 60 30 	add  %o1, 0x30, %g1
    2750:	96 10 20 0a 	mov  0xa, %o3
    2754:	90 10 00 18 	mov  %i0, %o0
    2758:	92 10 00 19 	mov  %i1, %o1
    275c:	10 80 00 0f 	b  2798 <print_broken_up_decimal.isra.4+0x18c>
    2760:	c2 2c 80 1a 	stb  %g1, [ %l2 + %i2 ]
    2764:	90 10 00 11 	mov  %l1, %o0
    2768:	94 10 20 00 	clr  %o2
    276c:	80 a6 a0 20 	cmp  %i2, 0x20
    2770:	02 80 00 10 	be  27b0 <print_broken_up_decimal.isra.4+0x1a4>
    2774:	96 10 20 0a 	mov  0xa, %o3
    2778:	40 00 2c cc 	call  daa8 <__moddi3>
    277c:	01 00 00 00 	nop 
    2780:	92 02 60 30 	add  %o1, 0x30, %o1
    2784:	90 10 00 11 	mov  %l1, %o0
    2788:	d2 2c 80 1a 	stb  %o1, [ %l2 + %i2 ]
    278c:	94 10 20 00 	clr  %o2
    2790:	96 10 20 0a 	mov  0xa, %o3
    2794:	92 10 00 10 	mov  %l0, %o1
    2798:	40 00 2b db 	call  d704 <__divdi3>
    279c:	b4 06 a0 01 	inc  %i2
    27a0:	a2 10 00 08 	mov  %o0, %l1
    27a4:	80 94 40 09 	orcc  %l1, %o1, %g0
    27a8:	12 bf ff ef 	bne  2764 <print_broken_up_decimal.isra.4+0x158>
    27ac:	a0 10 00 09 	mov  %o1, %l0
    27b0:	82 0f 20 03 	and  %i4, 3, %g1
    27b4:	80 a0 60 01 	cmp  %g1, 1
    27b8:	02 80 00 1d 	be  282c <print_broken_up_decimal.isra.4+0x220>
    27bc:	80 a6 e0 00 	cmp  %i3, 0
    27c0:	80 a6 a0 1f 	cmp  %i2, 0x1f
    27c4:	18 80 00 0b 	bgu  27f0 <print_broken_up_decimal.isra.4+0x1e4>
    27c8:	80 a5 20 00 	cmp  %l4, 0
    27cc:	12 80 00 13 	bne  2818 <print_broken_up_decimal.isra.4+0x20c>
    27d0:	82 10 20 2d 	mov  0x2d, %g1
    27d4:	80 8f 20 04 	btst  4, %i4
    27d8:	12 80 00 4d 	bne  290c <print_broken_up_decimal.isra.4+0x300>
    27dc:	80 8f 20 08 	btst  8, %i4
    27e0:	02 80 00 04 	be  27f0 <print_broken_up_decimal.isra.4+0x1e4>
    27e4:	82 10 20 20 	mov  0x20, %g1
    27e8:	c2 2c 80 1a 	stb  %g1, [ %l2 + %i2 ]
    27ec:	b4 06 a0 01 	inc  %i2
    27f0:	b0 10 00 1d 	mov  %i5, %i0
    27f4:	7f ff fe 48 	call  2114 <out_rev_>
    27f8:	93 e8 00 12 	restore  %g0, %l2, %o1
    27fc:	80 8f 20 10 	btst  0x10, %i4
    2800:	02 bf ff cc 	be  2730 <print_broken_up_decimal.isra.4+0x124>
    2804:	80 a6 a0 1f 	cmp  %i2, 0x1f
    2808:	28 bf ff c7 	bleu,a   2724 <print_broken_up_decimal.isra.4+0x118>
    280c:	82 10 20 2e 	mov  0x2e, %g1
    2810:	10 bf ff e9 	b  27b4 <print_broken_up_decimal.isra.4+0x1a8>
    2814:	82 0f 20 03 	and  %i4, 3, %g1
    2818:	b0 10 00 1d 	mov  %i5, %i0
    281c:	c2 2c 80 1a 	stb  %g1, [ %l2 + %i2 ]
    2820:	b2 10 00 12 	mov  %l2, %i1
    2824:	7f ff fe 3c 	call  2114 <out_rev_>
    2828:	95 ee a0 01 	restore  %i2, 1, %o2
    282c:	02 bf ff e6 	be  27c4 <print_broken_up_decimal.isra.4+0x1b8>
    2830:	80 a6 a0 1f 	cmp  %i2, 0x1f
    2834:	80 a5 20 00 	cmp  %l4, 0
    2838:	32 80 00 05 	bne,a   284c <print_broken_up_decimal.isra.4+0x240>
    283c:	b6 06 ff ff 	add  %i3, -1, %i3
    2840:	80 8f 20 0c 	btst  0xc, %i4
    2844:	32 80 00 02 	bne,a   284c <print_broken_up_decimal.isra.4+0x240>
    2848:	b6 06 ff ff 	add  %i3, -1, %i3
    284c:	80 a6 80 1b 	cmp  %i2, %i3
    2850:	1a bf ff dc 	bcc  27c0 <print_broken_up_decimal.isra.4+0x1b4>
    2854:	80 a6 a0 1f 	cmp  %i2, 0x1f
    2858:	18 bf ff db 	bgu  27c4 <print_broken_up_decimal.isra.4+0x1b8>
    285c:	82 10 20 30 	mov  0x30, %g1
    2860:	10 80 00 05 	b  2874 <print_broken_up_decimal.isra.4+0x268>
    2864:	c2 2c 80 1a 	stb  %g1, [ %l2 + %i2 ]
    2868:	1a bf ff d7 	bcc  27c4 <print_broken_up_decimal.isra.4+0x1b8>
    286c:	80 a6 a0 1f 	cmp  %i2, 0x1f
    2870:	c2 2c 80 1a 	stb  %g1, [ %l2 + %i2 ]
    2874:	b4 06 a0 01 	inc  %i2
    2878:	80 a6 a0 1f 	cmp  %i2, 0x1f
    287c:	28 bf ff fb 	bleu,a   2868 <print_broken_up_decimal.isra.4+0x25c>
    2880:	80 a6 80 1b 	cmp  %i2, %i3
    2884:	30 bf ff d0 	b,a   27c4 <print_broken_up_decimal.isra.4+0x1b8>
    2888:	04 80 00 27 	ble  2924 <print_broken_up_decimal.isra.4+0x318>
    288c:	80 a4 60 00 	cmp  %l1, 0
    2890:	90 10 00 11 	mov  %l1, %o0
    2894:	92 10 00 13 	mov  %l3, %o1
    2898:	94 10 20 00 	clr  %o2
    289c:	40 00 2c 83 	call  daa8 <__moddi3>
    28a0:	96 10 20 0a 	mov  0xa, %o3
    28a4:	80 92 00 09 	orcc  %o0, %o1, %g0
    28a8:	12 bf ff 6b 	bne  2654 <print_broken_up_decimal.isra.4+0x48>
    28ac:	80 a6 a0 1f 	cmp  %i2, 0x1f
    28b0:	94 10 20 00 	clr  %o2
    28b4:	96 10 20 0a 	mov  0xa, %o3
    28b8:	90 10 00 11 	mov  %l1, %o0
    28bc:	40 00 2b 92 	call  d704 <__divdi3>
    28c0:	92 10 00 13 	mov  %l3, %o1
    28c4:	94 10 20 00 	clr  %o2
    28c8:	a2 10 00 08 	mov  %o0, %l1
    28cc:	a6 10 00 09 	mov  %o1, %l3
    28d0:	96 10 20 0a 	mov  0xa, %o3
    28d4:	40 00 2c 75 	call  daa8 <__moddi3>
    28d8:	a0 04 3f ff 	add  %l0, -1, %l0
    28dc:	80 92 00 09 	orcc  %o0, %o1, %g0
    28e0:	02 bf ff f5 	be  28b4 <print_broken_up_decimal.isra.4+0x2a8>
    28e4:	94 10 20 00 	clr  %o2
    28e8:	80 a4 60 00 	cmp  %l1, 0
    28ec:	14 bf ff 5a 	bg  2654 <print_broken_up_decimal.isra.4+0x48>
    28f0:	80 a6 a0 1f 	cmp  %i2, 0x1f
    28f4:	80 a4 60 00 	cmp  %l1, 0
    28f8:	12 bf ff 8d 	bne  272c <print_broken_up_decimal.isra.4+0x120>
    28fc:	80 a4 e0 00 	cmp  %l3, 0
    2900:	12 bf ff 55 	bne  2654 <print_broken_up_decimal.isra.4+0x48>
    2904:	80 a6 a0 1f 	cmp  %i2, 0x1f
    2908:	30 bf ff 8a 	b,a   2730 <print_broken_up_decimal.isra.4+0x124>
    290c:	82 10 20 2b 	mov  0x2b, %g1
    2910:	b0 10 00 1d 	mov  %i5, %i0
    2914:	c2 2c 80 1a 	stb  %g1, [ %l2 + %i2 ]
    2918:	b2 10 00 12 	mov  %l2, %i1
    291c:	7f ff fd fe 	call  2114 <out_rev_>
    2920:	95 ee a0 01 	restore  %i2, 1, %o2
    2924:	12 bf ff 82 	bne  272c <print_broken_up_decimal.isra.4+0x120>
    2928:	80 a4 e0 00 	cmp  %l3, 0
    292c:	12 bf ff da 	bne  2894 <print_broken_up_decimal.isra.4+0x288>
    2930:	90 10 00 11 	mov  %l1, %o0
    2934:	10 bf ff 7f 	b  2730 <print_broken_up_decimal.isra.4+0x124>
    2938:	80 a6 a0 1f 	cmp  %i2, 0x1f

0000293c <print_exponential_number>:
    293c:	9d e3 bf 40 	save  %sp, -192, %sp
    2940:	84 10 00 19 	mov  %i1, %g2
    2944:	86 10 00 1a 	mov  %i2, %g3
    2948:	c4 3f bf c8 	std  %g2, [ %fp + -56 ]
    294c:	ad 36 60 1f 	srl  %i1, 0x1f, %l6
    2950:	a8 10 00 1b 	mov  %i3, %l4
    2954:	82 8d a0 ff 	andcc  %l6, 0xff, %g1
    2958:	02 80 00 03 	be  2964 <print_exponential_number+0x28>
    295c:	d1 1f bf c8 	ldd  [ %fp + -56 ], %f8
    2960:	91 a0 00 a8 	fnegs  %f8, %f8
    2964:	09 00 00 58 	sethi  %hi(0x16000), %g4
    2968:	d5 19 23 78 	ldd  [ %g4 + 0x378 ], %f10	! 16378 <__clz_tab+0x140>
    296c:	81 aa 0a 4a 	fcmpd  %f8, %f10
    2970:	01 00 00 00 	nop 
    2974:	33 80 00 e8 	fbe,a   2d14 <print_exponential_number+0x3d8>
    2978:	88 10 20 01 	mov  1, %g4	! 1 <_start+0x1>
    297c:	d1 3f bf c0 	std  %f8, [ %fp + -64 ]
    2980:	19 00 03 ff 	sethi  %hi(0xffc00), %o4
    2984:	f4 1f bf c0 	ldd  [ %fp + -64 ], %i2
    2988:	98 13 23 ff 	or  %o4, 0x3ff, %o4
    298c:	05 0f fc 00 	sethi  %hi(0x3ff00000), %g2
    2990:	98 0e 80 0c 	and  %i2, %o4, %o4
    2994:	84 13 00 02 	or  %o4, %g2, %g2
    2998:	1b 3f ff ff 	sethi  %hi(0xfffffc00), %o5
    299c:	86 10 20 00 	clr  %g3
    29a0:	9a 13 63 ff 	or  %o5, 0x3ff, %o5
    29a4:	9a 0e c0 0d 	and  %i3, %o5, %o5
    29a8:	86 13 40 03 	or  %o5, %g3, %g3
    29ac:	c4 3f bf c8 	std  %g2, [ %fp + -56 ]
    29b0:	05 00 00 58 	sethi  %hi(0x16000), %g2
    29b4:	e1 1f bf c8 	ldd  [ %fp + -56 ], %f16
    29b8:	37 00 00 58 	sethi  %hi(0x16000), %i3
    29bc:	dd 1e e3 80 	ldd  [ %i3 + 0x380 ], %f14	! 16380 <__clz_tab+0x148>
    29c0:	99 a4 08 ce 	fsubd  %f16, %f14, %f12
    29c4:	e1 18 a3 88 	ldd  [ %g2 + 0x388 ], %f16
    29c8:	05 00 00 58 	sethi  %hi(0x16000), %g2
    29cc:	e5 18 a3 90 	ldd  [ %g2 + 0x390 ], %f18	! 16390 <__clz_tab+0x158>
    29d0:	9d a3 09 4c 	fmuld  %f12, %f12, %f14
    29d4:	a1 a3 09 50 	fmuld  %f12, %f16, %f16
    29d8:	05 00 00 58 	sethi  %hi(0x16000), %g2
    29dc:	a1 a4 08 52 	faddd  %f16, %f18, %f16
    29e0:	37 00 00 58 	sethi  %hi(0x16000), %i3
    29e4:	e5 18 a3 98 	ldd  [ %g2 + 0x398 ], %f18
    29e8:	a5 a3 89 52 	fmuld  %f14, %f18, %f18
    29ec:	87 36 a0 14 	srl  %i2, 0x14, %g3
    29f0:	a1 a4 08 d2 	fsubd  %f16, %f18, %f16
    29f4:	86 08 e7 ff 	and  %g3, 0x7ff, %g3
    29f8:	e5 1e e3 a0 	ldd  [ %i3 + 0x3a0 ], %f18
    29fc:	b6 00 fc 01 	add  %g3, -1023, %i3
    2a00:	f6 27 bf bc 	st  %i3, [ %fp + -68 ]
    2a04:	99 a3 09 4e 	fmuld  %f12, %f14, %f12
    2a08:	05 00 00 58 	sethi  %hi(0x16000), %g2
    2a0c:	99 a3 09 52 	fmuld  %f12, %f18, %f12
    2a10:	dd 18 a3 a8 	ldd  [ %g2 + 0x3a8 ], %f14
    2a14:	99 a4 08 4c 	faddd  %f16, %f12, %f12
    2a18:	e1 07 bf bc 	ld  [ %fp + -68 ], %f16
    2a1c:	a1 a0 19 10 	fitod  %f16, %f16
    2a20:	a1 a4 09 4e 	fmuld  %f16, %f14, %f16
    2a24:	99 a3 08 50 	faddd  %f12, %f16, %f12
    2a28:	81 ab 0a ca 	fcmped  %f12, %f10
    2a2c:	01 00 00 00 	nop 
    2a30:	07 80 01 49 	fbul  2f54 <print_exponential_number+0x618>
    2a34:	01 00 00 00 	nop 
    2a38:	95 a0 1a 4c 	fdtoi  %f12, %f10
    2a3c:	d5 27 bf bc 	st  %f10, [ %fp + -68 ]
    2a40:	ea 07 bf bc 	ld  [ %fp + -68 ], %l5
    2a44:	80 a5 7e cc 	cmp  %l5, -308
    2a48:	02 80 01 b6 	be  3120 <print_exponential_number+0x7e4>
    2a4c:	05 00 00 58 	sethi  %hi(0x16000), %g2
    2a50:	ea 27 bf bc 	st  %l5, [ %fp + -68 ]
    2a54:	e1 07 bf bc 	ld  [ %fp + -68 ], %f16
    2a58:	d9 18 a3 b0 	ldd  [ %g2 + 0x3b0 ], %f12
    2a5c:	9d a0 19 10 	fitod  %f16, %f14
    2a60:	d5 19 23 78 	ldd  [ %g4 + 0x378 ], %f10
    2a64:	99 a3 89 4c 	fmuld  %f14, %f12, %f12
    2a68:	05 00 00 58 	sethi  %hi(0x16000), %g2
    2a6c:	e1 18 a3 68 	ldd  [ %g2 + 0x368 ], %f16	! 16368 <__clz_tab+0x130>
    2a70:	99 a3 08 50 	faddd  %f12, %f16, %f12
    2a74:	81 ab 0a ca 	fcmped  %f12, %f10
    2a78:	01 00 00 00 	nop 
    2a7c:	07 80 01 9d 	fbul  30f0 <print_exponential_number+0x7b4>
    2a80:	01 00 00 00 	nop 
    2a84:	a3 a0 1a 4c 	fdtoi  %f12, %f17
    2a88:	e3 27 bf bc 	st  %f17, [ %fp + -68 ]
    2a8c:	a1 a0 19 11 	fitod  %f17, %f16
    2a90:	c4 07 bf bc 	ld  [ %fp + -68 ], %g2
    2a94:	07 00 00 58 	sethi  %hi(0x16000), %g3
    2a98:	d5 18 e3 b8 	ldd  [ %g3 + 0x3b8 ], %f10	! 163b8 <__clz_tab+0x180>
    2a9c:	09 00 00 58 	sethi  %hi(0x16000), %g4
    2aa0:	9d a3 89 4a 	fmuld  %f14, %f10, %f14
    2aa4:	07 00 00 58 	sethi  %hi(0x16000), %g3
    2aa8:	d5 18 e3 c0 	ldd  [ %g3 + 0x3c0 ], %f10	! 163c0 <__clz_tab+0x188>
    2aac:	a1 a4 09 4a 	fmuld  %f16, %f10, %f16
    2ab0:	95 a3 88 d0 	fsubd  %f14, %f16, %f10
    2ab4:	e1 19 23 c8 	ldd  [ %g4 + 0x3c8 ], %f16
    2ab8:	09 00 00 58 	sethi  %hi(0x16000), %g4
    2abc:	99 a2 89 4a 	fmuld  %f10, %f10, %f12
    2ac0:	9d a2 88 4a 	faddd  %f10, %f10, %f14
    2ac4:	95 a4 08 ca 	fsubd  %f16, %f10, %f10
    2ac8:	e1 19 23 d0 	ldd  [ %g4 + 0x3d0 ], %f16
    2acc:	09 00 00 58 	sethi  %hi(0x16000), %g4
    2ad0:	e5 19 23 d8 	ldd  [ %g4 + 0x3d8 ], %f18	! 163d8 <__clz_tab+0x1a0>
    2ad4:	a1 a3 09 d0 	fdivd  %f12, %f16, %f16
    2ad8:	09 00 00 58 	sethi  %hi(0x16000), %g4
    2adc:	a1 a4 08 52 	faddd  %f16, %f18, %f16
    2ae0:	e5 19 23 e0 	ldd  [ %g4 + 0x3e0 ], %f18
    2ae4:	a1 a3 09 d0 	fdivd  %f12, %f16, %f16
    2ae8:	a1 a4 08 52 	faddd  %f16, %f18, %f16
    2aec:	9a 80 a3 ff 	addcc  %g2, 0x3ff, %o5
    2af0:	99 a3 09 d0 	fdivd  %f12, %f16, %f12
    2af4:	85 2b 60 14 	sll  %o5, 0x14, %g2
    2af8:	86 10 20 00 	clr  %g3
    2afc:	95 a2 88 4c 	faddd  %f10, %f12, %f10
    2b00:	09 00 00 58 	sethi  %hi(0x16000), %g4
    2b04:	95 a3 89 ca 	fdivd  %f14, %f10, %f10
    2b08:	c4 3f bf c8 	std  %g2, [ %fp + -56 ]
    2b0c:	dd 19 23 e8 	ldd  [ %g4 + 0x3e8 ], %f14
    2b10:	e1 1f bf c8 	ldd  [ %fp + -56 ], %f16
    2b14:	95 a2 88 4e 	faddd  %f10, %f14, %f10
    2b18:	95 a2 89 50 	fmuld  %f10, %f16, %f10
    2b1c:	81 aa 0a ca 	fcmped  %f8, %f10
    2b20:	01 00 00 00 	nop 
    2b24:	19 80 00 06 	fbuge  2b3c <print_exponential_number+0x200>
    2b28:	01 00 00 00 	nop 
    2b2c:	05 00 00 58 	sethi  %hi(0x16000), %g2
    2b30:	aa 05 7f ff 	add  %l5, -1, %l5
    2b34:	d9 18 a3 d8 	ldd  [ %g2 + 0x3d8 ], %f12
    2b38:	95 a2 89 cc 	fdivd  %f10, %f12, %f10
    2b3c:	84 05 60 11 	add  %l5, 0x11, %g2
    2b40:	80 a0 a0 22 	cmp  %g2, 0x22
    2b44:	18 80 01 00 	bgu  2f44 <print_exponential_number+0x608>
    2b48:	99 a0 00 2a 	fmovs  %f10, %f12
    2b4c:	85 3d 60 1f 	sra  %l5, 0x1f, %g2
    2b50:	80 a0 00 15 	cmp  %g0, %l5
    2b54:	86 18 80 15 	xor  %g2, %l5, %g3
    2b58:	84 20 c0 02 	sub  %g3, %g2, %g2
    2b5c:	85 28 a0 03 	sll  %g2, 3, %g2
    2b60:	88 60 3f ff 	subx  %g0, -1, %g4
    2b64:	37 00 00 54 	sethi  %hi(0x15000), %i3
    2b68:	b6 16 e0 00 	mov  %i3, %i3	! 15000 <powers_of_10>
    2b6c:	d9 1e c0 02 	ldd  [ %i3 + %g2 ], %f12
    2b70:	05 00 00 04 	sethi  %hi(0x1000), %g2
    2b74:	80 8f 40 02 	btst  %i5, %g2
    2b78:	12 80 00 6d 	bne  2d2c <print_exponential_number+0x3f0>
    2b7c:	87 35 60 1f 	srl  %l5, 0x1f, %g3
    2b80:	b2 10 20 00 	clr  %i1
    2b84:	80 89 20 ff 	btst  0xff, %g4
    2b88:	02 80 00 cf 	be  2ec4 <print_exponential_number+0x588>
    2b8c:	80 a0 60 00 	cmp  %g1, 0
    2b90:	32 80 00 8d 	bne,a   2dc4 <print_exponential_number+0x488>
    2b94:	91 a0 00 a8 	fnegs  %f8, %f8
    2b98:	82 07 bf e8 	add  %fp, -24, %g1
    2b9c:	d1 3f bf c8 	std  %f8, [ %fp + -56 ]
    2ba0:	c2 23 a0 40 	st  %g1, [ %sp + 0x40 ]
    2ba4:	d0 1f bf c8 	ldd  [ %fp + -56 ], %o0
    2ba8:	94 10 00 14 	mov  %l4, %o2
    2bac:	7f ff fc e5 	call  1f40 <get_components>
    2bb0:	01 00 00 00 	nop 
    2bb4:	00 00 00 18 	unimp  0x18
    2bb8:	80 a6 60 00 	cmp  %i1, 0
    2bbc:	f4 1f bf e8 	ldd  [ %fp + -24 ], %i2
    2bc0:	e2 07 bf f0 	ld  [ %fp + -16 ], %l1
    2bc4:	e0 07 bf f4 	ld  [ %fp + -12 ], %l0
    2bc8:	02 80 00 8d 	be  2dfc <print_exponential_number+0x4c0>
    2bcc:	ec 0f bf f8 	ldub  [ %fp + -8 ], %l6
    2bd0:	03 00 00 04 	sethi  %hi(0x1000), %g1
    2bd4:	80 8f 40 01 	btst  %i5, %g1
    2bd8:	12 80 00 a2 	bne  2e60 <print_exponential_number+0x524>
    2bdc:	80 a5 7f ff 	cmp  %l5, -1
    2be0:	90 10 00 1a 	mov  %i2, %o0
    2be4:	96 10 00 10 	mov  %l0, %o3
    2be8:	94 10 00 11 	mov  %l1, %o2
    2bec:	b4 0f 60 02 	and  %i5, 2, %i2
    2bf0:	92 10 00 1b 	mov  %i3, %o1
    2bf4:	a0 10 20 00 	clr  %l0
    2bf8:	80 a7 00 10 	cmp  %i4, %l0
    2bfc:	18 80 00 70 	bgu  2dbc <print_exponential_number+0x480>
    2c00:	82 10 20 00 	clr  %g1
    2c04:	c2 23 a0 60 	st  %g1, [ %sp + 0x60 ]
    2c08:	c2 07 a0 5c 	ld  [ %fp + 0x5c ], %g1
    2c0c:	c2 23 a0 68 	st  %g1, [ %sp + 0x68 ]
    2c10:	c2 07 a0 60 	ld  [ %fp + 0x60 ], %g1
    2c14:	f6 06 20 0c 	ld  [ %i0 + 0xc ], %i3
    2c18:	e8 23 a0 5c 	st  %l4, [ %sp + 0x5c ]
    2c1c:	fa 23 a0 64 	st  %i5, [ %sp + 0x64 ]
    2c20:	c2 23 a0 6c 	st  %g1, [ %sp + 0x6c ]
    2c24:	98 0d a0 ff 	and  %l6, 0xff, %o4
    2c28:	7f ff fe 79 	call  260c <print_broken_up_decimal.isra.4>
    2c2c:	9a 10 00 18 	mov  %i0, %o5
    2c30:	80 a6 60 00 	cmp  %i1, 0
    2c34:	12 80 00 5d 	bne  2da8 <print_exponential_number+0x46c>
    2c38:	ba 0f 60 20 	and  %i5, 0x20, %i5
    2c3c:	c4 06 20 0c 	ld  [ %i0 + 0xc ], %g2
    2c40:	82 00 a0 01 	add  %g2, 1, %g1
    2c44:	c6 06 20 10 	ld  [ %i0 + 0x10 ], %g3
    2c48:	c2 26 20 0c 	st  %g1, [ %i0 + 0xc ]
    2c4c:	80 a0 00 1d 	cmp  %g0, %i5
    2c50:	82 40 3f ff 	addx  %g0, -1, %g1
    2c54:	82 08 60 20 	and  %g1, 0x20, %g1
    2c58:	80 a0 80 03 	cmp  %g2, %g3
    2c5c:	86 00 60 45 	add  %g1, 0x45, %g3
    2c60:	1a 80 00 09 	bcc  2c84 <print_exponential_number+0x348>
    2c64:	82 10 00 03 	mov  %g3, %g1
    2c68:	c8 06 00 00 	ld  [ %i0 ], %g4
    2c6c:	80 a1 20 00 	cmp  %g4, 0
    2c70:	02 80 01 18 	be  30d0 <print_exponential_number+0x794>
    2c74:	91 28 60 18 	sll  %g1, 0x18, %o0
    2c78:	d2 06 20 04 	ld  [ %i0 + 4 ], %o1
    2c7c:	9f c1 00 00 	call  %g4
    2c80:	91 3a 20 18 	sra  %o0, 0x18, %o0
    2c84:	86 10 00 15 	mov  %l5, %g3
    2c88:	80 a5 60 00 	cmp  %l5, 0
    2c8c:	04 80 00 bb 	ble  2f78 <print_exponential_number+0x63c>
    2c90:	85 3d 60 1f 	sra  %l5, 0x1f, %g2
    2c94:	82 10 20 05 	mov  5, %g1
    2c98:	a0 04 3f ff 	add  %l0, -1, %l0
    2c9c:	c2 23 a0 60 	st  %g1, [ %sp + 0x60 ]
    2ca0:	e0 23 a0 5c 	st  %l0, [ %sp + 0x5c ]
    2ca4:	90 10 00 18 	mov  %i0, %o0
    2ca8:	92 10 00 02 	mov  %g2, %o1
    2cac:	94 10 00 03 	mov  %g3, %o2
    2cb0:	97 35 60 1f 	srl  %l5, 0x1f, %o3
    2cb4:	98 10 20 0a 	mov  0xa, %o4
    2cb8:	7f ff fd 6e 	call  2270 <print_integer>
    2cbc:	9a 10 20 00 	clr  %o5
    2cc0:	80 a6 a0 00 	cmp  %i2, 0
    2cc4:	02 80 00 39 	be  2da8 <print_exponential_number+0x46c>
    2cc8:	ba 10 20 20 	mov  0x20, %i5
    2ccc:	c2 06 20 0c 	ld  [ %i0 + 0xc ], %g1
    2cd0:	86 20 40 1b 	sub  %g1, %i3, %g3
    2cd4:	80 a7 00 03 	cmp  %i4, %g3
    2cd8:	08 80 00 34 	bleu  2da8 <print_exponential_number+0x46c>
    2cdc:	84 00 60 01 	add  %g1, 1, %g2
    2ce0:	c4 26 20 0c 	st  %g2, [ %i0 + 0xc ]
    2ce4:	c6 06 20 10 	ld  [ %i0 + 0x10 ], %g3
    2ce8:	80 a0 c0 01 	cmp  %g3, %g1
    2cec:	28 80 00 2b 	bleu,a   2d98 <print_exponential_number+0x45c>
    2cf0:	82 10 00 02 	mov  %g2, %g1
    2cf4:	c4 06 00 00 	ld  [ %i0 ], %g2
    2cf8:	80 a0 a0 00 	cmp  %g2, 0
    2cfc:	02 80 00 2d 	be  2db0 <print_exponential_number+0x474>
    2d00:	90 10 20 20 	mov  0x20, %o0
    2d04:	9f c0 80 00 	call  %g2
    2d08:	d2 06 20 04 	ld  [ %i0 + 4 ], %o1
    2d0c:	10 bf ff f1 	b  2cd0 <print_exponential_number+0x394>
    2d10:	c2 06 20 0c 	ld  [ %i0 + 0xc ], %g1
    2d14:	86 10 20 00 	clr  %g3
    2d18:	aa 10 20 00 	clr  %l5
    2d1c:	05 00 00 04 	sethi  %hi(0x1000), %g2
    2d20:	80 8f 40 02 	btst  %i5, %g2
    2d24:	02 bf ff 98 	be  2b84 <print_exponential_number+0x248>
    2d28:	b2 10 20 00 	clr  %i1
    2d2c:	80 a5 20 00 	cmp  %l4, 0
    2d30:	12 80 00 04 	bne  2d40 <print_exponential_number+0x404>
    2d34:	84 10 00 14 	mov  %l4, %g2
    2d38:	84 10 20 00 	clr  %g2
    2d3c:	a8 10 20 01 	mov  1, %l4
    2d40:	80 a5 40 14 	cmp  %l5, %l4
    2d44:	16 80 00 41 	bge  2e48 <print_exponential_number+0x50c>
    2d48:	b2 10 20 01 	mov  1, %i1
    2d4c:	80 a5 7f fc 	cmp  %l5, -4
    2d50:	06 80 00 54 	bl  2ea0 <print_exponential_number+0x564>
    2d54:	b6 10 20 01 	mov  1, %i3
    2d58:	b2 0e 40 1b 	and  %i1, %i3, %i1
    2d5c:	b2 8e 60 ff 	andcc  %i1, 0xff, %i1
    2d60:	02 80 00 03 	be  2d6c <print_exponential_number+0x430>
    2d64:	84 00 bf ff 	add  %g2, -1, %g2
    2d68:	84 20 80 15 	sub  %g2, %l5, %g2
    2d6c:	a8 38 00 02 	xnor  %g0, %g2, %l4
    2d70:	ba 17 68 00 	or  %i5, 0x800, %i5
    2d74:	a9 3d 20 1f 	sra  %l4, 0x1f, %l4
    2d78:	80 a6 60 00 	cmp  %i1, 0
    2d7c:	02 bf ff 82 	be  2b84 <print_exponential_number+0x248>
    2d80:	a8 08 80 14 	and  %g2, %l4, %l4
    2d84:	80 a0 60 00 	cmp  %g1, 0
    2d88:	02 bf ff 85 	be  2b9c <print_exponential_number+0x260>
    2d8c:	82 07 bf e8 	add  %fp, -24, %g1
    2d90:	10 80 00 0e 	b  2dc8 <print_exponential_number+0x48c>
    2d94:	91 a0 00 a8 	fnegs  %f8, %f8
    2d98:	86 20 40 1b 	sub  %g1, %i3, %g3
    2d9c:	80 a7 00 03 	cmp  %i4, %g3
    2da0:	18 bf ff d0 	bgu  2ce0 <print_exponential_number+0x3a4>
    2da4:	84 00 60 01 	add  %g1, 1, %g2
    2da8:	81 c7 e0 08 	ret 
    2dac:	81 e8 00 00 	restore 
    2db0:	c4 06 20 08 	ld  [ %i0 + 8 ], %g2
    2db4:	10 bf ff c6 	b  2ccc <print_exponential_number+0x390>
    2db8:	fa 28 80 01 	stb  %i5, [ %g2 + %g1 ]
    2dbc:	10 bf ff 92 	b  2c04 <print_exponential_number+0x2c8>
    2dc0:	82 27 00 10 	sub  %i4, %l0, %g1
    2dc4:	82 07 bf e8 	add  %fp, -24, %g1
    2dc8:	d1 3f bf c8 	std  %f8, [ %fp + -56 ]
    2dcc:	c2 23 a0 40 	st  %g1, [ %sp + 0x40 ]
    2dd0:	d0 1f bf c8 	ldd  [ %fp + -56 ], %o0
    2dd4:	94 10 00 14 	mov  %l4, %o2
    2dd8:	7f ff fc 5a 	call  1f40 <get_components>
    2ddc:	01 00 00 00 	nop 
    2de0:	00 00 00 18 	unimp  0x18
    2de4:	80 a6 60 00 	cmp  %i1, 0
    2de8:	f4 1f bf e8 	ldd  [ %fp + -24 ], %i2
    2dec:	e2 07 bf f0 	ld  [ %fp + -16 ], %l1
    2df0:	e0 07 bf f4 	ld  [ %fp + -12 ], %l0
    2df4:	12 bf ff 77 	bne  2bd0 <print_exponential_number+0x294>
    2df8:	ec 0f bf f8 	ldub  [ %fp + -8 ], %l6
    2dfc:	90 10 00 1a 	mov  %i2, %o0
    2e00:	94 10 00 11 	mov  %l1, %o2
    2e04:	92 10 00 1b 	mov  %i3, %o1
    2e08:	80 a2 20 00 	cmp  %o0, 0
    2e0c:	14 80 00 48 	bg  2f2c <print_exponential_number+0x5f0>
    2e10:	96 10 00 10 	mov  %l0, %o3
    2e14:	80 a2 20 00 	cmp  %o0, 0
    2e18:	02 80 00 aa 	be  30c0 <print_exponential_number+0x784>
    2e1c:	80 a2 60 09 	cmp  %o1, 9
    2e20:	82 05 60 63 	add  %l5, 0x63, %g1
    2e24:	80 a0 60 c6 	cmp  %g1, 0xc6
    2e28:	18 80 00 03 	bgu  2e34 <print_exponential_number+0x4f8>
    2e2c:	a0 10 20 05 	mov  5, %l0
    2e30:	a0 10 20 04 	mov  4, %l0
    2e34:	b4 8f 60 02 	andcc  %i5, 2, %i2
    2e38:	12 bf ff 73 	bne  2c04 <print_exponential_number+0x2c8>
    2e3c:	82 10 20 00 	clr  %g1
    2e40:	10 bf ff 6f 	b  2bfc <print_exponential_number+0x2c0>
    2e44:	80 a7 00 10 	cmp  %i4, %l0
    2e48:	b2 10 20 00 	clr  %i1
    2e4c:	80 a5 7f fc 	cmp  %l5, -4
    2e50:	16 bf ff c2 	bge  2d58 <print_exponential_number+0x41c>
    2e54:	b6 10 20 01 	mov  1, %i3
    2e58:	10 80 00 13 	b  2ea4 <print_exponential_number+0x568>
    2e5c:	b6 10 20 00 	clr  %i3
    2e60:	06 bf ff 60 	bl  2be0 <print_exponential_number+0x2a4>
    2e64:	90 10 00 1a 	mov  %i2, %o0
    2e68:	40 00 2a 12 	call  d6b0 <__floatdidf>
    2e6c:	92 10 00 1b 	mov  %i3, %o1
    2e70:	a4 05 60 01 	add  %l5, 1, %l2
    2e74:	05 00 00 54 	sethi  %hi(0x15000), %g2
    2e78:	83 2c a0 03 	sll  %l2, 3, %g1
    2e7c:	84 10 a0 00 	mov  %g2, %g2
    2e80:	d1 18 80 01 	ldd  [ %g2 + %g1 ], %f8
    2e84:	81 a8 0a 48 	fcmpd  %f0, %f8
    2e88:	01 00 00 00 	nop 
    2e8c:	03 bf ff 56 	fbne  2be4 <print_exponential_number+0x2a8>
    2e90:	90 10 00 1a 	mov  %i2, %o0
    2e94:	a8 05 3f ff 	add  %l4, -1, %l4
    2e98:	10 bf ff 53 	b  2be4 <print_exponential_number+0x2a8>
    2e9c:	aa 10 00 12 	mov  %l2, %l5
    2ea0:	b6 10 20 00 	clr  %i3
    2ea4:	b2 0e 40 1b 	and  %i1, %i3, %i1
    2ea8:	b2 8e 60 ff 	andcc  %i1, 0xff, %i1
    2eac:	02 bf ff b0 	be  2d6c <print_exponential_number+0x430>
    2eb0:	84 00 bf ff 	add  %g2, -1, %g2
    2eb4:	10 bf ff ae 	b  2d6c <print_exponential_number+0x430>
    2eb8:	84 20 80 15 	sub  %g2, %l5, %g2
    2ebc:	81 c7 e0 08 	ret 
    2ec0:	81 e8 00 00 	restore 
    2ec4:	b6 88 e0 ff 	andcc  %g3, 0xff, %i3
    2ec8:	02 80 00 3d 	be  2fbc <print_exponential_number+0x680>
    2ecc:	84 25 00 15 	sub  %l4, %l5, %g2
    2ed0:	80 a0 a1 32 	cmp  %g2, 0x132
    2ed4:	04 80 00 3d 	ble  2fc8 <print_exponential_number+0x68c>
    2ed8:	95 a2 09 4c 	fmuld  %f8, %f12, %f10
    2edc:	80 a0 60 00 	cmp  %g1, 0
    2ee0:	32 80 00 02 	bne,a   2ee8 <print_exponential_number+0x5ac>
    2ee4:	95 a0 00 aa 	fnegs  %f10, %f10
    2ee8:	82 07 bf e8 	add  %fp, -24, %g1
    2eec:	d5 3f bf c8 	std  %f10, [ %fp + -56 ]
    2ef0:	c2 23 a0 40 	st  %g1, [ %sp + 0x40 ]
    2ef4:	d0 1f bf c8 	ldd  [ %fp + -56 ], %o0
    2ef8:	94 10 00 14 	mov  %l4, %o2
    2efc:	7f ff fc 11 	call  1f40 <get_components>
    2f00:	01 00 00 00 	nop 
    2f04:	00 00 00 18 	unimp  0x18
    2f08:	e0 1f bf e8 	ldd  [ %fp + -24 ], %l0
    2f0c:	f4 1f bf f0 	ldd  [ %fp + -16 ], %i2
    2f10:	ec 0f bf f8 	ldub  [ %fp + -8 ], %l6
    2f14:	90 10 00 10 	mov  %l0, %o0
    2f18:	92 10 00 11 	mov  %l1, %o1
    2f1c:	94 10 00 1a 	mov  %i2, %o2
    2f20:	80 a2 20 00 	cmp  %o0, 0
    2f24:	04 bf ff bd 	ble  2e18 <print_exponential_number+0x4dc>
    2f28:	96 10 00 1b 	mov  %i3, %o3
    2f2c:	aa 05 60 01 	inc  %l5
    2f30:	94 10 20 00 	clr  %o2
    2f34:	96 10 20 00 	clr  %o3
    2f38:	90 10 20 00 	clr  %o0
    2f3c:	10 bf ff b9 	b  2e20 <print_exponential_number+0x4e4>
    2f40:	92 10 20 01 	mov  1, %o1
    2f44:	9b a0 00 2b 	fmovs  %f11, %f13
    2f48:	88 10 20 00 	clr  %g4
    2f4c:	10 bf ff 74 	b  2d1c <print_exponential_number+0x3e0>
    2f50:	86 10 20 00 	clr  %g3
    2f54:	97 a0 1a 4c 	fdtoi  %f12, %f11
    2f58:	d7 27 bf bc 	st  %f11, [ %fp + -68 ]
    2f5c:	95 a0 19 0b 	fitod  %f11, %f10
    2f60:	81 ab 0a 4a 	fcmpd  %f12, %f10
    2f64:	01 00 00 00 	nop 
    2f68:	13 bf fe b7 	fbe  2a44 <print_exponential_number+0x108>
    2f6c:	ea 07 bf bc 	ld  [ %fp + -68 ], %l5
    2f70:	10 bf fe b5 	b  2a44 <print_exponential_number+0x108>
    2f74:	aa 05 7f ff 	add  %l5, -1, %l5
    2f78:	86 a0 00 15 	subcc  %g0, %l5, %g3
    2f7c:	82 10 20 05 	mov  5, %g1
    2f80:	84 60 00 02 	subx  %g0, %g2, %g2
    2f84:	a0 04 3f ff 	add  %l0, -1, %l0
    2f88:	c2 23 a0 60 	st  %g1, [ %sp + 0x60 ]
    2f8c:	e0 23 a0 5c 	st  %l0, [ %sp + 0x5c ]
    2f90:	90 10 00 18 	mov  %i0, %o0
    2f94:	92 10 00 02 	mov  %g2, %o1
    2f98:	94 10 00 03 	mov  %g3, %o2
    2f9c:	97 35 60 1f 	srl  %l5, 0x1f, %o3
    2fa0:	98 10 20 0a 	mov  0xa, %o4
    2fa4:	7f ff fc b3 	call  2270 <print_integer>
    2fa8:	9a 10 20 00 	clr  %o5
    2fac:	80 a6 a0 00 	cmp  %i2, 0
    2fb0:	12 bf ff 47 	bne  2ccc <print_exponential_number+0x390>
    2fb4:	ba 10 20 20 	mov  0x20, %i5
    2fb8:	30 bf ff c1 	b,a   2ebc <print_exponential_number+0x580>
    2fbc:	80 a0 a1 32 	cmp  %g2, 0x132
    2fc0:	14 bf ff c7 	bg  2edc <print_exponential_number+0x5a0>
    2fc4:	95 a2 09 cc 	fdivd  %f8, %f12, %f10
    2fc8:	d5 3f bf c8 	std  %f10, [ %fp + -56 ]
    2fcc:	d1 3f bf d8 	std  %f8, [ %fp + -40 ]
    2fd0:	d9 3f bf d0 	std  %f12, [ %fp + -48 ]
    2fd4:	40 00 29 59 	call  d538 <__fixdfdi>
    2fd8:	d0 1f bf c8 	ldd  [ %fp + -56 ], %o0
    2fdc:	a0 10 00 08 	mov  %o0, %l0
    2fe0:	40 00 29 b4 	call  d6b0 <__floatdidf>
    2fe4:	a2 10 00 09 	mov  %o1, %l1
    2fe8:	80 a6 e0 00 	cmp  %i3, 0
    2fec:	d1 1f bf d8 	ldd  [ %fp + -40 ], %f8
    2ff0:	02 80 00 4f 	be  312c <print_exponential_number+0x7f0>
    2ff4:	d9 1f bf d0 	ldd  [ %fp + -48 ], %f12
    2ff8:	81 a0 09 cc 	fdivd  %f0, %f12, %f0
    2ffc:	83 2d 20 03 	sll  %l4, 3, %g1
    3000:	05 00 00 54 	sethi  %hi(0x15000), %g2
    3004:	91 a2 08 c0 	fsubd  %f8, %f0, %f8
    3008:	84 10 a0 00 	mov  %g2, %g2
    300c:	d5 18 80 01 	ldd  [ %g2 + %g1 ], %f10
    3010:	d5 3f bf e0 	std  %f10, [ %fp + -32 ]
    3014:	99 a3 09 4a 	fmuld  %f12, %f10, %f12
    3018:	91 a2 09 4c 	fmuld  %f8, %f12, %f8
    301c:	d1 3f bf c8 	std  %f8, [ %fp + -56 ]
    3020:	d1 3f bf d8 	std  %f8, [ %fp + -40 ]
    3024:	40 00 29 45 	call  d538 <__fixdfdi>
    3028:	d0 1f bf c8 	ldd  [ %fp + -56 ], %o0
    302c:	a4 10 00 08 	mov  %o0, %l2
    3030:	40 00 29 a0 	call  d6b0 <__floatdidf>
    3034:	a6 10 00 09 	mov  %o1, %l3
    3038:	d1 1f bf d8 	ldd  [ %fp + -40 ], %f8
    303c:	03 00 00 58 	sethi  %hi(0x16000), %g1
    3040:	81 a2 08 c0 	fsubd  %f8, %f0, %f0
    3044:	84 10 20 00 	clr  %g2
    3048:	d1 18 63 68 	ldd  [ %g1 + 0x368 ], %f8
    304c:	81 a8 0a c8 	fcmped  %f0, %f8
    3050:	01 00 00 00 	nop 
    3054:	17 80 00 05 	fbge  3068 <print_exponential_number+0x72c>
    3058:	86 10 20 01 	mov  1, %g3	! 1 <_start+0x1>
    305c:	84 10 20 00 	clr  %g2
    3060:	86 10 20 00 	clr  %g3
    3064:	d1 18 63 68 	ldd  [ %g1 + 0x368 ], %f8
    3068:	b6 84 c0 03 	addcc  %l3, %g3, %i3
    306c:	81 a8 0a 48 	fcmpd  %f0, %f8
    3070:	01 00 00 00 	nop 
    3074:	03 80 00 04 	fbne  3084 <print_exponential_number+0x748>
    3078:	b4 44 80 02 	addx  %l2, %g2, %i2
    307c:	b4 0e bf ff 	and  %i2, -1, %i2
    3080:	b6 0e ff fe 	and  %i3, -2, %i3
    3084:	90 10 00 1a 	mov  %i2, %o0
    3088:	40 00 29 8a 	call  d6b0 <__floatdidf>
    308c:	92 10 00 1b 	mov  %i3, %o1
    3090:	d9 1f bf e0 	ldd  [ %fp + -32 ], %f12
    3094:	81 a8 0a cc 	fcmped  %f0, %f12
    3098:	01 00 00 00 	nop 
    309c:	07 bf ff 9e 	fbul  2f14 <print_exponential_number+0x5d8>
    30a0:	01 00 00 00 	nop 
    30a4:	86 84 60 01 	addcc  %l1, 1, %g3
    30a8:	b4 10 20 00 	clr  %i2
    30ac:	84 44 20 00 	addx  %l0, 0, %g2
    30b0:	a2 10 00 03 	mov  %g3, %l1
    30b4:	a0 10 00 02 	mov  %g2, %l0
    30b8:	10 bf ff 97 	b  2f14 <print_exponential_number+0x5d8>
    30bc:	b6 10 20 00 	clr  %i3
    30c0:	08 bf ff 59 	bleu  2e24 <print_exponential_number+0x4e8>
    30c4:	82 05 60 63 	add  %l5, 0x63, %g1
    30c8:	10 bf ff 9a 	b  2f30 <print_exponential_number+0x5f4>
    30cc:	aa 05 60 01 	inc  %l5
    30d0:	c2 06 20 08 	ld  [ %i0 + 8 ], %g1
    30d4:	c6 28 40 02 	stb  %g3, [ %g1 + %g2 ]
    30d8:	80 a5 60 00 	cmp  %l5, 0
    30dc:	86 10 00 15 	mov  %l5, %g3
    30e0:	14 bf fe ed 	bg  2c94 <print_exponential_number+0x358>
    30e4:	85 3d 60 1f 	sra  %l5, 0x1f, %g2
    30e8:	10 bf ff a5 	b  2f7c <print_exponential_number+0x640>
    30ec:	86 a0 00 15 	subcc  %g0, %l5, %g3
    30f0:	97 a0 1a 4c 	fdtoi  %f12, %f11
    30f4:	d7 27 bf bc 	st  %f11, [ %fp + -68 ]
    30f8:	a1 a0 19 0b 	fitod  %f11, %f16
    30fc:	81 ab 0a 50 	fcmpd  %f12, %f16
    3100:	01 00 00 00 	nop 
    3104:	13 bf fe 64 	fbe  2a94 <print_exponential_number+0x158>
    3108:	c4 07 bf bc 	ld  [ %fp + -68 ], %g2
    310c:	84 00 bf ff 	add  %g2, -1, %g2
    3110:	c4 27 bf bc 	st  %g2, [ %fp + -68 ]
    3114:	d9 07 bf bc 	ld  [ %fp + -68 ], %f12
    3118:	10 bf fe 5f 	b  2a94 <print_exponential_number+0x158>
    311c:	a1 a0 19 0c 	fitod  %f12, %f16
    3120:	05 00 00 58 	sethi  %hi(0x16000), %g2
    3124:	10 bf fe 7e 	b  2b1c <print_exponential_number+0x1e0>
    3128:	d5 18 a3 70 	ldd  [ %g2 + 0x370 ], %f10	! 16370 <__clz_tab+0x138>
    312c:	83 2d 20 03 	sll  %l4, 3, %g1
    3130:	05 00 00 54 	sethi  %hi(0x15000), %g2
    3134:	d9 27 bf bc 	st  %f12, [ %fp + -68 ]
    3138:	84 10 a0 00 	mov  %g2, %g2
    313c:	e1 18 80 01 	ldd  [ %g2 + %g1 ], %f16
    3140:	c2 07 bf bc 	ld  [ %fp + -68 ], %g1
    3144:	e1 3f bf e0 	std  %f16, [ %fp + -32 ]
    3148:	b7 30 60 14 	srl  %g1, 0x14, %i3
    314c:	c2 07 bf e0 	ld  [ %fp + -32 ], %g1
    3150:	b6 0e e7 ff 	and  %i3, 0x7ff, %i3
    3154:	87 30 60 14 	srl  %g1, 0x14, %g3
    3158:	82 06 fc 01 	add  %i3, -1023, %g1
    315c:	86 08 e7 ff 	and  %g3, 0x7ff, %g3
    3160:	89 38 60 1f 	sra  %g1, 0x1f, %g4
    3164:	84 00 fc 01 	add  %g3, -1023, %g2
    3168:	81 a3 09 40 	fmuld  %f12, %f0, %f0
    316c:	86 19 00 01 	xor  %g4, %g1, %g3
    3170:	83 38 a0 1f 	sra  %g2, 0x1f, %g1
    3174:	88 20 c0 04 	sub  %g3, %g4, %g4
    3178:	84 18 40 02 	xor  %g1, %g2, %g2
    317c:	82 20 80 01 	sub  %g2, %g1, %g1
    3180:	80 a1 00 01 	cmp  %g4, %g1
    3184:	04 80 00 05 	ble  3198 <print_exponential_number+0x85c>
    3188:	91 a2 08 c0 	fsubd  %f8, %f0, %f8
    318c:	99 a3 09 d0 	fdivd  %f12, %f16, %f12
    3190:	10 bf ff a3 	b  301c <print_exponential_number+0x6e0>
    3194:	91 a2 09 cc 	fdivd  %f8, %f12, %f8
    3198:	d5 1f bf e0 	ldd  [ %fp + -32 ], %f10
    319c:	10 bf ff 9f 	b  3018 <print_exponential_number+0x6dc>
    31a0:	99 a2 89 cc 	fdivd  %f10, %f12, %f12

000031a4 <print_floating_point>:
    31a4:	9d e3 bf 48 	save  %sp, -184, %sp
    31a8:	f2 27 bf c0 	st  %i1, [ %fp + -64 ]
    31ac:	f4 27 bf c4 	st  %i2, [ %fp + -60 ]
    31b0:	d1 1f bf c0 	ldd  [ %fp + -64 ], %f8
    31b4:	81 aa 0a 48 	fcmpd  %f8, %f8
    31b8:	01 00 00 00 	nop 
    31bc:	03 80 00 40 	fbne  32bc <print_floating_point+0x118>
    31c0:	c6 0f a0 5f 	ldub  [ %fp + 0x5f ], %g3
    31c4:	03 00 00 58 	sethi  %hi(0x16000), %g1
    31c8:	d5 18 63 f0 	ldd  [ %g1 + 0x3f0 ], %f10	! 163f0 <__clz_tab+0x1b8>
    31cc:	81 aa 0a ca 	fcmped  %f8, %f10
    31d0:	01 00 00 00 	nop 
    31d4:	09 80 00 43 	fbl  32e0 <print_floating_point+0x13c>
    31d8:	03 00 00 58 	sethi  %hi(0x16000), %g1
    31dc:	d5 18 63 f8 	ldd  [ %g1 + 0x3f8 ], %f10	! 163f8 <__clz_tab+0x1c0>
    31e0:	81 aa 0a ca 	fcmped  %f8, %f10
    31e4:	01 00 00 00 	nop 
    31e8:	1d 80 00 0e 	fbule  3220 <print_floating_point+0x7c>
    31ec:	01 00 00 00 	nop 
    31f0:	80 8f 60 04 	btst  4, %i5
    31f4:	12 80 00 52 	bne  333c <print_floating_point+0x198>
    31f8:	94 10 20 04 	mov  4, %o2
    31fc:	94 10 20 03 	mov  3, %o2
    3200:	13 00 00 59 	sethi  %hi(0x16400), %o1
    3204:	90 10 00 18 	mov  %i0, %o0
    3208:	92 12 60 18 	or  %o1, 0x18, %o1
    320c:	96 10 00 1c 	mov  %i4, %o3
    3210:	7f ff fb c1 	call  2114 <out_rev_>
    3214:	98 10 00 1d 	mov  %i5, %o4
    3218:	81 c7 e0 08 	ret 
    321c:	81 e8 00 00 	restore 
    3220:	80 a0 e0 00 	cmp  %g3, 0
    3224:	02 80 00 38 	be  3304 <print_floating_point+0x160>
    3228:	03 00 00 59 	sethi  %hi(0x16400), %g1
    322c:	80 8f 68 00 	btst  0x800, %i5
    3230:	02 80 00 4b 	be  335c <print_floating_point+0x1b8>
    3234:	b4 10 20 00 	clr  %i2
    3238:	80 a6 e0 11 	cmp  %i3, 0x11
    323c:	08 80 00 10 	bleu  327c <print_floating_point+0xd8>
    3240:	b2 07 bf e0 	add  %fp, -32, %i1
    3244:	10 80 00 09 	b  3268 <print_floating_point+0xc4>
    3248:	84 10 20 30 	mov  0x30, %g2
    324c:	80 a6 e0 11 	cmp  %i3, 0x11
    3250:	18 80 00 03 	bgu  325c <print_floating_point+0xb8>
    3254:	82 10 20 01 	mov  1, %g1
    3258:	82 10 20 00 	clr  %g1
    325c:	80 88 60 ff 	btst  0xff, %g1
    3260:	02 80 00 08 	be  3280 <print_floating_point+0xdc>
    3264:	80 a0 e0 00 	cmp  %g3, 0
    3268:	c4 2e 40 1a 	stb  %g2, [ %i1 + %i2 ]
    326c:	b4 06 a0 01 	inc  %i2
    3270:	80 a6 a0 1f 	cmp  %i2, 0x1f
    3274:	08 bf ff f6 	bleu  324c <print_floating_point+0xa8>
    3278:	b6 06 ff ff 	add  %i3, -1, %i3
    327c:	80 a0 e0 00 	cmp  %g3, 0
    3280:	02 80 00 3a 	be  3368 <print_floating_point+0x1c4>
    3284:	82 07 bf c8 	add  %fp, -56, %g1
    3288:	f2 23 a0 5c 	st  %i1, [ %sp + 0x5c ]
    328c:	f4 23 a0 60 	st  %i2, [ %sp + 0x60 ]
    3290:	d1 3f bf c0 	std  %f8, [ %fp + -64 ]
    3294:	c4 1f bf c0 	ldd  [ %fp + -64 ], %g2
    3298:	90 10 00 18 	mov  %i0, %o0
    329c:	92 10 00 02 	mov  %g2, %o1
    32a0:	94 10 00 03 	mov  %g3, %o2
    32a4:	96 10 00 1b 	mov  %i3, %o3
    32a8:	98 10 00 1c 	mov  %i4, %o4
    32ac:	7f ff fd a4 	call  293c <print_exponential_number>
    32b0:	9a 10 00 1d 	mov  %i5, %o5
    32b4:	81 c7 e0 08 	ret 
    32b8:	81 e8 00 00 	restore 
    32bc:	90 10 00 18 	mov  %i0, %o0
    32c0:	13 00 00 59 	sethi  %hi(0x16400), %o1
    32c4:	94 10 20 03 	mov  3, %o2
    32c8:	92 12 60 20 	or  %o1, 0x20, %o1
    32cc:	96 10 00 1c 	mov  %i4, %o3
    32d0:	7f ff fb 91 	call  2114 <out_rev_>
    32d4:	98 10 00 1d 	mov  %i5, %o4
    32d8:	81 c7 e0 08 	ret 
    32dc:	81 e8 00 00 	restore 
    32e0:	90 10 00 18 	mov  %i0, %o0
    32e4:	13 00 00 59 	sethi  %hi(0x16400), %o1
    32e8:	94 10 20 04 	mov  4, %o2
    32ec:	92 12 60 28 	or  %o1, 0x28, %o1
    32f0:	96 10 00 1c 	mov  %i4, %o3
    32f4:	7f ff fb 88 	call  2114 <out_rev_>
    32f8:	98 10 00 1d 	mov  %i5, %o4
    32fc:	81 c7 e0 08 	ret 
    3300:	81 e8 00 00 	restore 
    3304:	d5 18 60 00 	ldd  [ %g1 ], %f10
    3308:	81 aa 0a ca 	fcmped  %f8, %f10
    330c:	01 00 00 00 	nop 
    3310:	0d 80 00 07 	fbg  332c <print_floating_point+0x188>
    3314:	03 00 00 59 	sethi  %hi(0x16400), %g1
    3318:	d5 18 60 08 	ldd  [ %g1 + 8 ], %f10	! 16408 <__clz_tab+0x1d0>
    331c:	81 aa 0a ca 	fcmped  %f8, %f10
    3320:	01 00 00 00 	nop 
    3324:	19 bf ff c2 	fbuge  322c <print_floating_point+0x88>
    3328:	01 00 00 00 	nop 
    332c:	82 07 bf e0 	add  %fp, -32, %g1
    3330:	c0 23 a0 60 	clr  [ %sp + 0x60 ]
    3334:	10 bf ff d7 	b  3290 <print_floating_point+0xec>
    3338:	c2 23 a0 5c 	st  %g1, [ %sp + 0x5c ]
    333c:	13 00 00 59 	sethi  %hi(0x16400), %o1
    3340:	90 10 00 18 	mov  %i0, %o0
    3344:	92 12 60 10 	or  %o1, 0x10, %o1
    3348:	96 10 00 1c 	mov  %i4, %o3
    334c:	7f ff fb 72 	call  2114 <out_rev_>
    3350:	98 10 00 1d 	mov  %i5, %o4
    3354:	81 c7 e0 08 	ret 
    3358:	81 e8 00 00 	restore 
    335c:	b6 10 20 06 	mov  6, %i3
    3360:	10 bf ff c7 	b  327c <print_floating_point+0xd8>
    3364:	b2 07 bf e0 	add  %fp, -32, %i1
    3368:	d1 3f bf c0 	std  %f8, [ %fp + -64 ]
    336c:	94 10 00 1b 	mov  %i3, %o2
    3370:	d0 1f bf c0 	ldd  [ %fp + -64 ], %o0
    3374:	c2 23 a0 40 	st  %g1, [ %sp + 0x40 ]
    3378:	7f ff fa f2 	call  1f40 <get_components>
    337c:	01 00 00 00 	nop 
    3380:	00 00 00 18 	unimp  0x18
    3384:	d0 1f bf c8 	ldd  [ %fp + -56 ], %o0
    3388:	d8 0f bf d8 	ldub  [ %fp + -40 ], %o4
    338c:	f6 23 a0 5c 	st  %i3, [ %sp + 0x5c ]
    3390:	f8 23 a0 60 	st  %i4, [ %sp + 0x60 ]
    3394:	fa 23 a0 64 	st  %i5, [ %sp + 0x64 ]
    3398:	f2 23 a0 68 	st  %i1, [ %sp + 0x68 ]
    339c:	f4 23 a0 6c 	st  %i2, [ %sp + 0x6c ]
    33a0:	d4 1f bf d0 	ldd  [ %fp + -48 ], %o2
    33a4:	7f ff fc 9a 	call  260c <print_broken_up_decimal.isra.4>
    33a8:	9a 10 00 18 	mov  %i0, %o5
    33ac:	81 c7 e0 08 	ret 
    33b0:	81 e8 00 00 	restore 

000033b4 <_vsnprintf>:
    33b4:	9d e3 bf 48 	save  %sp, -184, %sp
    33b8:	25 00 00 08 	sethi  %hi(0x2000), %l2
    33bc:	27 00 00 59 	sethi  %hi(0x16400), %l3
    33c0:	29 1f ff ff 	sethi  %hi(0x7ffffc00), %l4
    33c4:	2d 00 00 59 	sethi  %hi(0x16400), %l6
    33c8:	2b 00 00 3f 	sethi  %hi(0xfc00), %l5
    33cc:	a4 14 a0 01 	or  %l2, 1, %l2
    33d0:	a6 14 e0 38 	or  %l3, 0x38, %l3
    33d4:	a8 15 23 ff 	or  %l4, 0x3ff, %l4
    33d8:	ac 15 a0 30 	or  %l6, 0x30, %l6
    33dc:	aa 15 63 ff 	or  %l5, 0x3ff, %l5
    33e0:	d0 4e 40 00 	ldsb  [ %i1 ], %o0
    33e4:	80 a2 20 00 	cmp  %o0, 0
    33e8:	02 80 00 17 	be  3444 <_vsnprintf+0x90>
    33ec:	c6 0e 40 00 	ldub  [ %i1 ], %g3
    33f0:	80 a2 20 25 	cmp  %o0, 0x25
    33f4:	22 80 00 1b 	be,a   3460 <_vsnprintf+0xac>
    33f8:	b2 06 60 02 	add  %i1, 2, %i1
    33fc:	c2 06 20 0c 	ld  [ %i0 + 0xc ], %g1
    3400:	84 00 60 01 	add  %g1, 1, %g2
    3404:	c4 26 20 0c 	st  %g2, [ %i0 + 0xc ]
    3408:	c4 06 20 10 	ld  [ %i0 + 0x10 ], %g2
    340c:	80 a0 40 02 	cmp  %g1, %g2
    3410:	3a 80 00 09 	bcc,a   3434 <_vsnprintf+0x80>
    3414:	b2 06 60 01 	inc  %i1
    3418:	c4 06 00 00 	ld  [ %i0 ], %g2
    341c:	80 a0 a0 00 	cmp  %g2, 0
    3420:	22 80 00 67 	be,a   35bc <_vsnprintf+0x208>
    3424:	c4 06 20 08 	ld  [ %i0 + 8 ], %g2
    3428:	9f c0 80 00 	call  %g2
    342c:	d2 06 20 04 	ld  [ %i0 + 4 ], %o1
    3430:	b2 06 60 01 	inc  %i1
    3434:	d0 4e 40 00 	ldsb  [ %i1 ], %o0
    3438:	80 a2 20 00 	cmp  %o0, 0
    343c:	12 bf ff ed 	bne  33f0 <_vsnprintf+0x3c>
    3440:	c6 0e 40 00 	ldub  [ %i1 ], %g3
    3444:	c2 06 00 00 	ld  [ %i0 ], %g1
    3448:	80 a0 60 00 	cmp  %g1, 0
    344c:	22 80 01 ca 	be,a   3b74 <_vsnprintf+0x7c0>
    3450:	c2 06 20 10 	ld  [ %i0 + 0x10 ], %g1
    3454:	f0 06 20 0c 	ld  [ %i0 + 0xc ], %i0
    3458:	81 c7 e0 08 	ret 
    345c:	81 e8 00 00 	restore 
    3460:	b6 10 20 00 	clr  %i3
    3464:	09 00 00 07 	sethi  %hi(0x1c00), %g4
    3468:	c2 0e 7f ff 	ldub  [ %i1 + -1 ], %g1
    346c:	84 00 7f e0 	add  %g1, -32, %g2
    3470:	84 08 a0 ff 	and  %g2, 0xff, %g2
    3474:	80 a0 a0 10 	cmp  %g2, 0x10
    3478:	08 80 00 3d 	bleu  356c <_vsnprintf+0x1b8>
    347c:	ba 06 7f ff 	add  %i1, -1, %i5
    3480:	84 00 7f d0 	add  %g1, -48, %g2
    3484:	84 08 a0 ff 	and  %g2, 0xff, %g2
    3488:	80 a0 a0 09 	cmp  %g2, 9
    348c:	18 80 00 4f 	bgu  35c8 <_vsnprintf+0x214>
    3490:	86 10 00 1d 	mov  %i5, %g3
    3494:	b8 10 20 00 	clr  %i4
    3498:	84 07 00 1c 	add  %i4, %i4, %g2
    349c:	83 28 60 18 	sll  %g1, 0x18, %g1
    34a0:	83 38 60 18 	sra  %g1, 0x18, %g1
    34a4:	b9 2f 20 03 	sll  %i4, 3, %i4
    34a8:	ba 07 60 01 	inc  %i5
    34ac:	b8 00 80 1c 	add  %g2, %i4, %i4
    34b0:	b8 07 00 01 	add  %i4, %g1, %i4
    34b4:	c2 0f 40 00 	ldub  [ %i5 ], %g1
    34b8:	84 00 7f d0 	add  %g1, -48, %g2
    34bc:	84 08 a0 ff 	and  %g2, 0xff, %g2
    34c0:	80 a0 a0 09 	cmp  %g2, 9
    34c4:	08 bf ff f5 	bleu  3498 <_vsnprintf+0xe4>
    34c8:	b8 07 3f d0 	add  %i4, -48, %i4
    34cc:	85 28 60 18 	sll  %g1, 0x18, %g2
    34d0:	85 38 a0 18 	sra  %g2, 0x18, %g2
    34d4:	80 a0 a0 2e 	cmp  %g2, 0x2e
    34d8:	02 80 00 4d 	be  360c <_vsnprintf+0x258>
    34dc:	a0 10 20 00 	clr  %l0
    34e0:	84 00 7f 98 	add  %g1, -104, %g2
    34e4:	84 08 a0 ff 	and  %g2, 0xff, %g2
    34e8:	80 a0 a0 12 	cmp  %g2, 0x12
    34ec:	38 80 00 0c 	bgu,a   351c <_vsnprintf+0x168>
    34f0:	84 00 7f db 	add  %g1, -37, %g2
    34f4:	85 28 a0 02 	sll  %g2, 2, %g2
    34f8:	07 00 00 07 	sethi  %hi(0x1c00), %g3
    34fc:	86 10 e2 f4 	or  %g3, 0x2f4, %g3	! 1ef4 <__ajit_fstoi__+0x1a8>
    3500:	c4 00 c0 02 	ld  [ %g3 + %g2 ], %g2
    3504:	81 c0 80 00 	jmp  %g2
    3508:	01 00 00 00 	nop 
    350c:	c2 0f 60 01 	ldub  [ %i5 + 1 ], %g1
    3510:	b6 16 e2 00 	or  %i3, 0x200, %i3
    3514:	ba 07 60 01 	inc  %i5
    3518:	84 00 7f db 	add  %g1, -37, %g2
    351c:	84 08 a0 ff 	and  %g2, 0xff, %g2
    3520:	80 a0 a0 53 	cmp  %g2, 0x53
    3524:	08 80 00 35 	bleu  35f8 <_vsnprintf+0x244>
    3528:	85 28 a0 02 	sll  %g2, 2, %g2
    352c:	c4 06 20 0c 	ld  [ %i0 + 0xc ], %g2
    3530:	86 00 a0 01 	add  %g2, 1, %g3
    3534:	c6 26 20 0c 	st  %g3, [ %i0 + 0xc ]
    3538:	c6 06 20 10 	ld  [ %i0 + 0x10 ], %g3
    353c:	80 a0 80 03 	cmp  %g2, %g3
    3540:	1a bf ff a8 	bcc  33e0 <_vsnprintf+0x2c>
    3544:	b2 07 60 01 	add  %i5, 1, %i1
    3548:	c6 06 00 00 	ld  [ %i0 ], %g3
    354c:	80 a0 e0 00 	cmp  %g3, 0
    3550:	02 80 01 fe 	be  3d48 <_vsnprintf+0x994>
    3554:	91 28 60 18 	sll  %g1, 0x18, %o0
    3558:	d2 06 20 04 	ld  [ %i0 + 4 ], %o1
    355c:	9f c0 c0 00 	call  %g3
    3560:	91 3a 20 18 	sra  %o0, 0x18, %o0
    3564:	10 bf ff 9f 	b  33e0 <_vsnprintf+0x2c>
    3568:	b2 07 60 01 	add  %i5, 1, %i1
    356c:	86 11 22 b0 	or  %g4, 0x2b0, %g3
    3570:	85 28 a0 02 	sll  %g2, 2, %g2
    3574:	c4 00 c0 02 	ld  [ %g3 + %g2 ], %g2
    3578:	81 c0 80 00 	jmp  %g2
    357c:	01 00 00 00 	nop 
    3580:	b6 16 e0 01 	or  %i3, 1, %i3
    3584:	10 bf ff b9 	b  3468 <_vsnprintf+0xb4>
    3588:	b2 06 60 01 	inc  %i1
    358c:	b6 16 e0 02 	or  %i3, 2, %i3
    3590:	10 bf ff b6 	b  3468 <_vsnprintf+0xb4>
    3594:	b2 06 60 01 	inc  %i1
    3598:	b6 16 e0 04 	or  %i3, 4, %i3
    359c:	10 bf ff b3 	b  3468 <_vsnprintf+0xb4>
    35a0:	b2 06 60 01 	inc  %i1
    35a4:	b6 16 e0 10 	or  %i3, 0x10, %i3
    35a8:	10 bf ff b0 	b  3468 <_vsnprintf+0xb4>
    35ac:	b2 06 60 01 	inc  %i1
    35b0:	b6 16 e0 08 	or  %i3, 8, %i3
    35b4:	10 bf ff ad 	b  3468 <_vsnprintf+0xb4>
    35b8:	b2 06 60 01 	inc  %i1
    35bc:	b2 06 60 01 	inc  %i1
    35c0:	10 bf ff 9d 	b  3434 <_vsnprintf+0x80>
    35c4:	c6 28 80 01 	stb  %g3, [ %g2 + %g1 ]
    35c8:	85 28 60 18 	sll  %g1, 0x18, %g2
    35cc:	89 38 a0 18 	sra  %g2, 0x18, %g4
    35d0:	80 a1 20 2a 	cmp  %g4, 0x2a
    35d4:	12 bf ff bf 	bne  34d0 <_vsnprintf+0x11c>
    35d8:	b8 10 20 00 	clr  %i4
    35dc:	f8 06 80 00 	ld  [ %i2 ], %i4
    35e0:	80 a7 20 00 	cmp  %i4, 0
    35e4:	06 80 01 99 	bl  3c48 <_vsnprintf+0x894>
    35e8:	b4 06 a0 04 	add  %i2, 4, %i2
    35ec:	c2 08 e0 01 	ldub  [ %g3 + 1 ], %g1
    35f0:	10 bf ff b7 	b  34cc <_vsnprintf+0x118>
    35f4:	ba 07 60 01 	inc  %i5
    35f8:	07 00 00 07 	sethi  %hi(0x1c00), %g3
    35fc:	86 10 e1 60 	or  %g3, 0x160, %g3	! 1d60 <__ajit_fstoi__+0x14>
    3600:	c4 00 c0 02 	ld  [ %g3 + %g2 ], %g2
    3604:	81 c0 80 00 	jmp  %g2
    3608:	01 00 00 00 	nop 
    360c:	c2 0f 60 01 	ldub  [ %i5 + 1 ], %g1
    3610:	b6 16 e8 00 	or  %i3, 0x800, %i3
    3614:	86 00 7f d0 	add  %g1, -48, %g3
    3618:	86 08 e0 ff 	and  %g3, 0xff, %g3
    361c:	80 a0 e0 09 	cmp  %g3, 9
    3620:	18 80 00 11 	bgu  3664 <_vsnprintf+0x2b0>
    3624:	84 07 60 01 	add  %i5, 1, %g2
    3628:	86 04 00 10 	add  %l0, %l0, %g3
    362c:	83 28 60 18 	sll  %g1, 0x18, %g1
    3630:	83 38 60 18 	sra  %g1, 0x18, %g1
    3634:	a1 2c 20 03 	sll  %l0, 3, %l0
    3638:	84 00 a0 01 	inc  %g2
    363c:	a0 00 c0 10 	add  %g3, %l0, %l0
    3640:	a0 04 00 01 	add  %l0, %g1, %l0
    3644:	c2 08 80 00 	ldub  [ %g2 ], %g1
    3648:	86 00 7f d0 	add  %g1, -48, %g3
    364c:	86 08 e0 ff 	and  %g3, 0xff, %g3
    3650:	80 a0 e0 09 	cmp  %g3, 9
    3654:	08 bf ff f5 	bleu  3628 <_vsnprintf+0x274>
    3658:	a0 04 3f d0 	add  %l0, -48, %l0
    365c:	10 bf ff a1 	b  34e0 <_vsnprintf+0x12c>
    3660:	ba 10 00 02 	mov  %g2, %i5
    3664:	87 28 60 18 	sll  %g1, 0x18, %g3
    3668:	87 38 e0 18 	sra  %g3, 0x18, %g3
    366c:	80 a0 e0 2a 	cmp  %g3, 0x2a
    3670:	32 bf ff 9c 	bne,a   34e0 <_vsnprintf+0x12c>
    3674:	ba 10 00 02 	mov  %g2, %i5
    3678:	c4 06 80 00 	ld  [ %i2 ], %g2
    367c:	c2 0f 60 02 	ldub  [ %i5 + 2 ], %g1
    3680:	a0 38 00 02 	xnor  %g0, %g2, %l0
    3684:	b4 06 a0 04 	add  %i2, 4, %i2
    3688:	a1 3c 20 1f 	sra  %l0, 0x1f, %l0
    368c:	ba 07 60 02 	add  %i5, 2, %i5
    3690:	10 bf ff 94 	b  34e0 <_vsnprintf+0x12c>
    3694:	a0 08 80 10 	and  %g2, %l0, %l0
    3698:	c4 4f 60 01 	ldsb  [ %i5 + 1 ], %g2
    369c:	80 a0 a0 6c 	cmp  %g2, 0x6c
    36a0:	12 bf ff 9c 	bne  3510 <_vsnprintf+0x15c>
    36a4:	c2 0f 60 01 	ldub  [ %i5 + 1 ], %g1
    36a8:	c2 0f 60 02 	ldub  [ %i5 + 2 ], %g1
    36ac:	b6 16 e6 00 	or  %i3, 0x600, %i3
    36b0:	10 bf ff 9a 	b  3518 <_vsnprintf+0x164>
    36b4:	ba 07 60 02 	add  %i5, 2, %i5
    36b8:	c2 0f 60 01 	ldub  [ %i5 + 1 ], %g1
    36bc:	b6 16 e4 00 	or  %i3, 0x400, %i3
    36c0:	10 bf ff 96 	b  3518 <_vsnprintf+0x164>
    36c4:	ba 07 60 01 	inc  %i5
    36c8:	c4 4f 60 01 	ldsb  [ %i5 + 1 ], %g2
    36cc:	80 a0 a0 68 	cmp  %g2, 0x68
    36d0:	02 80 01 88 	be  3cf0 <_vsnprintf+0x93c>
    36d4:	c2 0f 60 01 	ldub  [ %i5 + 1 ], %g1
    36d8:	b6 16 e0 80 	or  %i3, 0x80, %i3
    36dc:	10 bf ff 8f 	b  3518 <_vsnprintf+0x164>
    36e0:	ba 07 60 01 	inc  %i5
    36e4:	c2 06 20 0c 	ld  [ %i0 + 0xc ], %g1
    36e8:	84 00 60 01 	add  %g1, 1, %g2
    36ec:	c4 26 20 0c 	st  %g2, [ %i0 + 0xc ]
    36f0:	c4 06 20 10 	ld  [ %i0 + 0x10 ], %g2
    36f4:	80 a0 40 02 	cmp  %g1, %g2
    36f8:	1a bf ff 3a 	bcc  33e0 <_vsnprintf+0x2c>
    36fc:	b2 07 60 01 	add  %i5, 1, %i1
    3700:	c4 06 00 00 	ld  [ %i0 ], %g2
    3704:	80 a0 a0 00 	cmp  %g2, 0
    3708:	02 80 01 89 	be  3d2c <_vsnprintf+0x978>
    370c:	90 10 20 25 	mov  0x25, %o0
    3710:	9f c0 80 00 	call  %g2
    3714:	d2 06 20 04 	ld  [ %i0 + 4 ], %o1
    3718:	10 bf ff 33 	b  33e4 <_vsnprintf+0x30>
    371c:	d0 4e 40 00 	ldsb  [ %i1 ], %o0
    3720:	d4 06 80 00 	ld  [ %i2 ], %o2
    3724:	98 16 c0 12 	or  %i3, %l2, %o4
    3728:	80 a2 a0 00 	cmp  %o2, 0
    372c:	12 80 01 3b 	bne  3c18 <_vsnprintf+0x864>
    3730:	b4 06 a0 04 	add  %i2, 4, %i2
    3734:	90 10 00 18 	mov  %i0, %o0
    3738:	92 10 00 13 	mov  %l3, %o1
    373c:	94 10 20 05 	mov  5, %o2
    3740:	96 10 20 0a 	mov  0xa, %o3
    3744:	7f ff fa 74 	call  2114 <out_rev_>
    3748:	b2 07 60 01 	add  %i5, 1, %i1
    374c:	10 bf ff 26 	b  33e4 <_vsnprintf+0x30>
    3750:	d0 4e 40 00 	ldsb  [ %i1 ], %o0
    3754:	c2 06 80 00 	ld  [ %i2 ], %g1
    3758:	c4 06 20 0c 	ld  [ %i0 + 0xc ], %g2
    375c:	80 8e e0 40 	btst  0x40, %i3
    3760:	12 80 01 18 	bne  3bc0 <_vsnprintf+0x80c>
    3764:	b4 06 a0 04 	add  %i2, 4, %i2
    3768:	80 8e e0 80 	btst  0x80, %i3
    376c:	02 80 01 65 	be  3d00 <_vsnprintf+0x94c>
    3770:	80 8e e2 00 	btst  0x200, %i3
    3774:	c4 30 40 00 	sth  %g2, [ %g1 ]
    3778:	10 bf ff 1a 	b  33e0 <_vsnprintf+0x2c>
    377c:	b2 07 60 01 	add  %i5, 1, %i1
    3780:	c2 06 20 0c 	ld  [ %i0 + 0xc ], %g1
    3784:	b6 8e e0 02 	andcc  %i3, 2, %i3
    3788:	02 80 01 11 	be  3bcc <_vsnprintf+0x818>
    378c:	c6 06 20 10 	ld  [ %i0 + 0x10 ], %g3
    3790:	b2 10 20 01 	mov  1, %i1
    3794:	c8 06 80 00 	ld  [ %i2 ], %g4
    3798:	84 00 60 01 	add  %g1, 1, %g2
    379c:	c4 26 20 0c 	st  %g2, [ %i0 + 0xc ]
    37a0:	80 a0 40 03 	cmp  %g1, %g3
    37a4:	1a 80 00 0a 	bcc  37cc <_vsnprintf+0x418>
    37a8:	b4 06 a0 04 	add  %i2, 4, %i2
    37ac:	c4 06 00 00 	ld  [ %i0 ], %g2
    37b0:	80 a0 a0 00 	cmp  %g2, 0
    37b4:	22 80 01 63 	be,a   3d40 <_vsnprintf+0x98c>
    37b8:	c4 06 20 08 	ld  [ %i0 + 8 ], %g2
    37bc:	91 29 20 18 	sll  %g4, 0x18, %o0
    37c0:	d2 06 20 04 	ld  [ %i0 + 4 ], %o1
    37c4:	9f c0 80 00 	call  %g2
    37c8:	91 3a 20 18 	sra  %o0, 0x18, %o0
    37cc:	80 a6 e0 00 	cmp  %i3, 0
    37d0:	22 bf ff 04 	be,a   33e0 <_vsnprintf+0x2c>
    37d4:	b2 07 60 01 	add  %i5, 1, %i1
    37d8:	b6 10 20 20 	mov  0x20, %i3
    37dc:	80 a7 00 19 	cmp  %i4, %i1
    37e0:	28 bf ff 00 	bleu,a   33e0 <_vsnprintf+0x2c>
    37e4:	b2 07 60 01 	add  %i5, 1, %i1
    37e8:	c2 06 20 0c 	ld  [ %i0 + 0xc ], %g1
    37ec:	84 00 60 01 	add  %g1, 1, %g2
    37f0:	c4 26 20 0c 	st  %g2, [ %i0 + 0xc ]
    37f4:	c4 06 20 10 	ld  [ %i0 + 0x10 ], %g2
    37f8:	80 a0 40 02 	cmp  %g1, %g2
    37fc:	3a bf ff f8 	bcc,a   37dc <_vsnprintf+0x428>
    3800:	b2 06 60 01 	inc  %i1
    3804:	c4 06 00 00 	ld  [ %i0 ], %g2
    3808:	80 a0 a0 00 	cmp  %g2, 0
    380c:	22 80 01 1d 	be,a   3c80 <_vsnprintf+0x8cc>
    3810:	c4 06 20 08 	ld  [ %i0 + 8 ], %g2
    3814:	90 10 20 20 	mov  0x20, %o0
    3818:	9f c0 80 00 	call  %g2
    381c:	d2 06 20 04 	ld  [ %i0 + 4 ], %o1
    3820:	10 bf ff ef 	b  37dc <_vsnprintf+0x428>
    3824:	b2 06 60 01 	inc  %i1
    3828:	85 28 60 18 	sll  %g1, 0x18, %g2
    382c:	87 38 a0 18 	sra  %g2, 0x18, %g3
    3830:	80 a0 e0 69 	cmp  %g3, 0x69
    3834:	12 80 00 df 	bne  3bb0 <_vsnprintf+0x7fc>
    3838:	80 a0 e0 64 	cmp  %g3, 0x64
    383c:	07 00 00 10 	sethi  %hi(0x4000), %g3
    3840:	b6 16 c0 03 	or  %i3, %g3, %i3
    3844:	82 08 7f df 	and  %g1, -33, %g1
    3848:	83 28 60 18 	sll  %g1, 0x18, %g1
    384c:	83 38 60 18 	sra  %g1, 0x18, %g1
    3850:	80 a0 60 58 	cmp  %g1, 0x58
    3854:	22 80 00 0b 	be,a   3880 <_vsnprintf+0x4cc>
    3858:	a2 10 20 10 	mov  0x10, %l1
    385c:	83 38 a0 18 	sra  %g2, 0x18, %g1
    3860:	80 a0 60 6f 	cmp  %g1, 0x6f
    3864:	02 80 00 0b 	be  3890 <_vsnprintf+0x4dc>
    3868:	a2 10 20 08 	mov  8, %l1
    386c:	80 a0 60 62 	cmp  %g1, 0x62
    3870:	02 80 00 08 	be  3890 <_vsnprintf+0x4dc>
    3874:	a2 10 20 02 	mov  2, %l1
    3878:	b6 0e ff ef 	and  %i3, -17, %i3
    387c:	a2 10 20 0a 	mov  0xa, %l1
    3880:	85 38 a0 18 	sra  %g2, 0x18, %g2
    3884:	80 a0 a0 58 	cmp  %g2, 0x58
    3888:	22 80 00 02 	be,a   3890 <_vsnprintf+0x4dc>
    388c:	b6 16 e0 20 	or  %i3, 0x20, %i3
    3890:	80 8e e8 00 	btst  0x800, %i3
    3894:	02 80 00 03 	be  38a0 <_vsnprintf+0x4ec>
    3898:	b2 07 60 01 	add  %i5, 1, %i1
    389c:	b6 0e ff fe 	and  %i3, -2, %i3
    38a0:	03 00 00 10 	sethi  %hi(0x4000), %g1
    38a4:	80 8e c0 01 	btst  %i3, %g1
    38a8:	02 80 00 fc 	be  3c98 <_vsnprintf+0x8e4>
    38ac:	80 8e e4 00 	btst  0x400, %i3
    38b0:	12 80 01 5d 	bne  3e24 <_vsnprintf+0xa70>
    38b4:	80 8e e2 00 	btst  0x200, %i3
    38b8:	02 80 01 28 	be  3d58 <_vsnprintf+0x9a4>
    38bc:	80 8e e0 40 	btst  0x40, %i3
    38c0:	d6 06 80 00 	ld  [ %i2 ], %o3
    38c4:	80 a2 e0 00 	cmp  %o3, 0
    38c8:	04 80 01 3f 	ble  3dc4 <_vsnprintf+0xa10>
    38cc:	b4 06 a0 04 	add  %i2, 4, %i2
    38d0:	83 3a e0 1f 	sra  %o3, 0x1f, %g1
    38d4:	d6 27 bf cc 	st  %o3, [ %fp + -52 ]
    38d8:	c2 27 bf c8 	st  %g1, [ %fp + -56 ]
    38dc:	f8 23 a0 5c 	st  %i4, [ %sp + 0x5c ]
    38e0:	f6 23 a0 60 	st  %i3, [ %sp + 0x60 ]
    38e4:	90 10 00 18 	mov  %i0, %o0
    38e8:	d2 07 bf c8 	ld  [ %fp + -56 ], %o1
    38ec:	d4 07 bf cc 	ld  [ %fp + -52 ], %o2
    38f0:	97 32 e0 1f 	srl  %o3, 0x1f, %o3
    38f4:	98 0c 60 1a 	and  %l1, 0x1a, %o4
    38f8:	7f ff fa 5e 	call  2270 <print_integer>
    38fc:	9a 10 00 10 	mov  %l0, %o5
    3900:	10 bf fe b9 	b  33e4 <_vsnprintf+0x30>
    3904:	d0 4e 40 00 	ldsb  [ %i1 ], %o0
    3908:	f2 06 80 00 	ld  [ %i2 ], %i1
    390c:	80 a6 60 00 	cmp  %i1, 0
    3910:	02 80 01 62 	be  3e98 <_vsnprintf+0xae4>
    3914:	b4 06 a0 04 	add  %i2, 4, %i2
    3918:	82 94 20 00 	orcc  %l0, 0, %g1
    391c:	22 80 00 02 	be,a   3924 <_vsnprintf+0x570>
    3920:	82 10 00 14 	mov  %l4, %g1
    3924:	c4 0e 40 00 	ldub  [ %i1 ], %g2
    3928:	91 28 a0 18 	sll  %g2, 0x18, %o0
    392c:	80 a2 20 00 	cmp  %o0, 0
    3930:	22 80 00 0c 	be,a   3960 <_vsnprintf+0x5ac>
    3934:	a2 10 20 00 	clr  %l1
    3938:	10 80 00 04 	b  3948 <_vsnprintf+0x594>
    393c:	a2 10 00 19 	mov  %i1, %l1
    3940:	22 80 00 08 	be,a   3960 <_vsnprintf+0x5ac>
    3944:	a2 24 40 19 	sub  %l1, %i1, %l1
    3948:	a2 04 60 01 	inc  %l1
    394c:	c6 4c 40 00 	ldsb  [ %l1 ], %g3
    3950:	80 a0 e0 00 	cmp  %g3, 0
    3954:	32 bf ff fb 	bne,a   3940 <_vsnprintf+0x58c>
    3958:	82 80 7f ff 	addcc  %g1, -1, %g1
    395c:	a2 24 40 19 	sub  %l1, %i1, %l1
    3960:	ae 8e e8 00 	andcc  %i3, 0x800, %l7
    3964:	22 80 00 06 	be,a   397c <_vsnprintf+0x5c8>
    3968:	b6 8e e0 02 	andcc  %i3, 2, %i3
    396c:	80 a4 40 10 	cmp  %l1, %l0
    3970:	38 80 00 02 	bgu,a   3978 <_vsnprintf+0x5c4>
    3974:	a2 10 00 10 	mov  %l0, %l1
    3978:	b6 8e e0 02 	andcc  %i3, 2, %i3
    397c:	12 80 00 63 	bne  3b08 <_vsnprintf+0x754>
    3980:	f6 27 bf dc 	st  %i3, [ %fp + -36 ]
    3984:	80 a7 00 11 	cmp  %i4, %l1
    3988:	08 80 00 13 	bleu  39d4 <_vsnprintf+0x620>
    398c:	b6 04 60 01 	add  %l1, 1, %i3
    3990:	c2 06 20 0c 	ld  [ %i0 + 0xc ], %g1
    3994:	84 00 60 01 	add  %g1, 1, %g2
    3998:	c4 26 20 0c 	st  %g2, [ %i0 + 0xc ]
    399c:	c4 06 20 10 	ld  [ %i0 + 0x10 ], %g2
    39a0:	80 a0 40 02 	cmp  %g1, %g2
    39a4:	1a 80 00 09 	bcc  39c8 <_vsnprintf+0x614>
    39a8:	a2 10 00 1b 	mov  %i3, %l1
    39ac:	c4 06 00 00 	ld  [ %i0 ], %g2
    39b0:	80 a0 a0 00 	cmp  %g2, 0
    39b4:	02 80 00 6b 	be  3b60 <_vsnprintf+0x7ac>
    39b8:	90 10 20 20 	mov  0x20, %o0
    39bc:	9f c0 80 00 	call  %g2
    39c0:	d2 06 20 04 	ld  [ %i0 + 4 ], %o1
    39c4:	a2 10 00 1b 	mov  %i3, %l1
    39c8:	80 a7 00 11 	cmp  %i4, %l1
    39cc:	18 bf ff f1 	bgu  3990 <_vsnprintf+0x5dc>
    39d0:	b6 04 60 01 	add  %l1, 1, %i3
    39d4:	c4 0e 40 00 	ldub  [ %i1 ], %g2
    39d8:	91 28 a0 18 	sll  %g2, 0x18, %o0
    39dc:	80 a2 20 00 	cmp  %o0, 0
    39e0:	12 80 00 4d 	bne  3b14 <_vsnprintf+0x760>
    39e4:	a2 10 00 1b 	mov  %i3, %l1
    39e8:	d8 07 bf dc 	ld  [ %fp + -36 ], %o4
    39ec:	80 a3 20 00 	cmp  %o4, 0
    39f0:	22 bf fe 7c 	be,a   33e0 <_vsnprintf+0x2c>
    39f4:	b2 07 60 01 	add  %i5, 1, %i1
    39f8:	b6 10 20 20 	mov  0x20, %i3
    39fc:	80 a7 00 11 	cmp  %i4, %l1
    3a00:	28 bf fe 78 	bleu,a   33e0 <_vsnprintf+0x2c>
    3a04:	b2 07 60 01 	add  %i5, 1, %i1
    3a08:	c2 06 20 0c 	ld  [ %i0 + 0xc ], %g1
    3a0c:	84 00 60 01 	add  %g1, 1, %g2
    3a10:	c4 26 20 0c 	st  %g2, [ %i0 + 0xc ]
    3a14:	c4 06 20 10 	ld  [ %i0 + 0x10 ], %g2
    3a18:	80 a0 40 02 	cmp  %g1, %g2
    3a1c:	3a bf ff f8 	bcc,a   39fc <_vsnprintf+0x648>
    3a20:	a2 04 60 01 	inc  %l1
    3a24:	c4 06 00 00 	ld  [ %i0 ], %g2
    3a28:	80 a0 a0 00 	cmp  %g2, 0
    3a2c:	22 80 00 98 	be,a   3c8c <_vsnprintf+0x8d8>
    3a30:	c4 06 20 08 	ld  [ %i0 + 8 ], %g2
    3a34:	90 10 20 20 	mov  0x20, %o0
    3a38:	9f c0 80 00 	call  %g2
    3a3c:	d2 06 20 04 	ld  [ %i0 + 4 ], %o1
    3a40:	10 bf ff ef 	b  39fc <_vsnprintf+0x648>
    3a44:	a2 04 60 01 	inc  %l1
    3a48:	83 28 60 18 	sll  %g1, 0x18, %g1
    3a4c:	83 38 60 18 	sra  %g1, 0x18, %g1
    3a50:	80 a0 60 46 	cmp  %g1, 0x46
    3a54:	22 80 00 02 	be,a   3a5c <_vsnprintf+0x6a8>
    3a58:	b6 16 e0 20 	or  %i3, 0x20, %i3
    3a5c:	92 10 00 1a 	mov  %i2, %o1
    3a60:	94 10 20 08 	mov  8, %o2
    3a64:	40 00 09 d4 	call  61b4 <__GI_memcpy>
    3a68:	90 07 bf f0 	add  %fp, -16, %o0
    3a6c:	90 10 00 18 	mov  %i0, %o0
    3a70:	c0 23 a0 5c 	clr  [ %sp + 0x5c ]
    3a74:	d2 07 bf f0 	ld  [ %fp + -16 ], %o1
    3a78:	d4 07 bf f4 	ld  [ %fp + -12 ], %o2
    3a7c:	96 10 00 10 	mov  %l0, %o3
    3a80:	98 10 00 1c 	mov  %i4, %o4
    3a84:	9a 10 00 1b 	mov  %i3, %o5
    3a88:	7f ff fd c7 	call  31a4 <print_floating_point>
    3a8c:	b4 06 a0 08 	add  %i2, 8, %i2
    3a90:	10 bf fe 54 	b  33e0 <_vsnprintf+0x2c>
    3a94:	b2 07 60 01 	add  %i5, 1, %i1
    3a98:	84 08 7f df 	and  %g1, -33, %g2
    3a9c:	85 28 a0 18 	sll  %g2, 0x18, %g2
    3aa0:	85 38 a0 18 	sra  %g2, 0x18, %g2
    3aa4:	80 a0 a0 47 	cmp  %g2, 0x47
    3aa8:	12 80 00 04 	bne  3ab8 <_vsnprintf+0x704>
    3aac:	82 08 7f fd 	and  %g1, -3, %g1
    3ab0:	05 00 00 04 	sethi  %hi(0x1000), %g2
    3ab4:	b6 16 c0 02 	or  %i3, %g2, %i3
    3ab8:	83 28 60 18 	sll  %g1, 0x18, %g1
    3abc:	83 38 60 18 	sra  %g1, 0x18, %g1
    3ac0:	80 a0 60 45 	cmp  %g1, 0x45
    3ac4:	22 80 00 02 	be,a   3acc <_vsnprintf+0x718>
    3ac8:	b6 16 e0 20 	or  %i3, 0x20, %i3
    3acc:	92 10 00 1a 	mov  %i2, %o1
    3ad0:	94 10 20 08 	mov  8, %o2
    3ad4:	40 00 09 b8 	call  61b4 <__GI_memcpy>
    3ad8:	90 07 bf f8 	add  %fp, -8, %o0
    3adc:	82 10 20 01 	mov  1, %g1
    3ae0:	90 10 00 18 	mov  %i0, %o0
    3ae4:	d2 07 bf f8 	ld  [ %fp + -8 ], %o1
    3ae8:	d4 07 bf fc 	ld  [ %fp + -4 ], %o2
    3aec:	10 bf ff e4 	b  3a7c <_vsnprintf+0x6c8>
    3af0:	c2 23 a0 5c 	st  %g1, [ %sp + 0x5c ]
    3af4:	9f c0 c0 00 	call  %g3
    3af8:	d2 06 20 04 	ld  [ %i0 + 4 ], %o1
    3afc:	c4 0e 40 00 	ldub  [ %i1 ], %g2
    3b00:	a0 04 3f ff 	add  %l0, -1, %l0
    3b04:	91 28 a0 18 	sll  %g2, 0x18, %o0
    3b08:	80 a2 20 00 	cmp  %o0, 0
    3b0c:	02 bf ff b8 	be  39ec <_vsnprintf+0x638>
    3b10:	d8 07 bf dc 	ld  [ %fp + -36 ], %o4
    3b14:	80 a5 e0 00 	cmp  %l7, 0
    3b18:	02 80 00 04 	be  3b28 <_vsnprintf+0x774>
    3b1c:	80 a4 20 00 	cmp  %l0, 0
    3b20:	02 bf ff b3 	be  39ec <_vsnprintf+0x638>
    3b24:	d8 07 bf dc 	ld  [ %fp + -36 ], %o4
    3b28:	c2 06 20 0c 	ld  [ %i0 + 0xc ], %g1
    3b2c:	86 00 60 01 	add  %g1, 1, %g3
    3b30:	c6 26 20 0c 	st  %g3, [ %i0 + 0xc ]
    3b34:	c6 06 20 10 	ld  [ %i0 + 0x10 ], %g3
    3b38:	80 a0 40 03 	cmp  %g1, %g3
    3b3c:	1a bf ff f0 	bcc  3afc <_vsnprintf+0x748>
    3b40:	b2 06 60 01 	inc  %i1
    3b44:	c6 06 00 00 	ld  [ %i0 ], %g3
    3b48:	80 a0 e0 00 	cmp  %g3, 0
    3b4c:	12 bf ff ea 	bne  3af4 <_vsnprintf+0x740>
    3b50:	91 3a 20 18 	sra  %o0, 0x18, %o0
    3b54:	c6 06 20 08 	ld  [ %i0 + 8 ], %g3
    3b58:	10 bf ff e9 	b  3afc <_vsnprintf+0x748>
    3b5c:	c4 28 c0 01 	stb  %g2, [ %g3 + %g1 ]
    3b60:	c4 06 20 08 	ld  [ %i0 + 8 ], %g2
    3b64:	86 10 20 20 	mov  0x20, %g3
    3b68:	a2 10 00 1b 	mov  %i3, %l1
    3b6c:	10 bf ff 97 	b  39c8 <_vsnprintf+0x614>
    3b70:	c6 28 80 01 	stb  %g3, [ %g2 + %g1 ]
    3b74:	80 a0 60 00 	cmp  %g1, 0
    3b78:	22 bf fe 38 	be,a   3458 <_vsnprintf+0xa4>
    3b7c:	f0 06 20 0c 	ld  [ %i0 + 0xc ], %i0
    3b80:	c6 06 20 08 	ld  [ %i0 + 8 ], %g3
    3b84:	80 a0 e0 00 	cmp  %g3, 0
    3b88:	22 bf fe 34 	be,a   3458 <_vsnprintf+0xa4>
    3b8c:	f0 06 20 0c 	ld  [ %i0 + 0xc ], %i0
    3b90:	c4 06 20 0c 	ld  [ %i0 + 0xc ], %g2
    3b94:	80 a0 40 02 	cmp  %g1, %g2
    3b98:	28 80 00 02 	bleu,a   3ba0 <_vsnprintf+0x7ec>
    3b9c:	84 00 7f ff 	add  %g1, -1, %g2
    3ba0:	c0 28 c0 02 	clrb  [ %g3 + %g2 ]
    3ba4:	f0 06 20 0c 	ld  [ %i0 + 0xc ], %i0
    3ba8:	81 c7 e0 08 	ret 
    3bac:	81 e8 00 00 	restore 
    3bb0:	32 bf ff 26 	bne,a   3848 <_vsnprintf+0x494>
    3bb4:	82 08 7f df 	and  %g1, -33, %g1
    3bb8:	10 bf ff 22 	b  3840 <_vsnprintf+0x48c>
    3bbc:	07 00 00 10 	sethi  %hi(0x4000), %g3
    3bc0:	c4 28 40 00 	stb  %g2, [ %g1 ]
    3bc4:	10 bf fe 07 	b  33e0 <_vsnprintf+0x2c>
    3bc8:	b2 07 60 01 	add  %i5, 1, %i1
    3bcc:	84 10 20 01 	mov  1, %g2
    3bd0:	a0 10 20 20 	mov  0x20, %l0
    3bd4:	80 a7 00 02 	cmp  %i4, %g2
    3bd8:	08 bf fe ef 	bleu  3794 <_vsnprintf+0x3e0>
    3bdc:	b2 00 a0 01 	add  %g2, 1, %i1
    3be0:	84 00 60 01 	add  %g1, 1, %g2
    3be4:	80 a0 c0 01 	cmp  %g3, %g1
    3be8:	08 80 00 1d 	bleu  3c5c <_vsnprintf+0x8a8>
    3bec:	c4 26 20 0c 	st  %g2, [ %i0 + 0xc ]
    3bf0:	c4 06 00 00 	ld  [ %i0 ], %g2
    3bf4:	80 a0 a0 00 	cmp  %g2, 0
    3bf8:	02 80 00 1c 	be  3c68 <_vsnprintf+0x8b4>
    3bfc:	90 10 20 20 	mov  0x20, %o0
    3c00:	9f c0 80 00 	call  %g2
    3c04:	d2 06 20 04 	ld  [ %i0 + 4 ], %o1
    3c08:	c2 06 20 0c 	ld  [ %i0 + 0xc ], %g1
    3c0c:	c6 06 20 10 	ld  [ %i0 + 0x10 ], %g3
    3c10:	10 bf ff f1 	b  3bd4 <_vsnprintf+0x820>
    3c14:	84 10 00 19 	mov  %i1, %g2
    3c18:	82 10 20 0a 	mov  0xa, %g1
    3c1c:	d8 23 a0 60 	st  %o4, [ %sp + 0x60 ]
    3c20:	c2 23 a0 5c 	st  %g1, [ %sp + 0x5c ]
    3c24:	90 10 00 18 	mov  %i0, %o0
    3c28:	92 10 20 00 	clr  %o1
    3c2c:	96 10 20 00 	clr  %o3
    3c30:	98 10 20 10 	mov  0x10, %o4
    3c34:	9a 10 00 10 	mov  %l0, %o5
    3c38:	7f ff f9 8e 	call  2270 <print_integer>
    3c3c:	b2 07 60 01 	add  %i5, 1, %i1
    3c40:	10 bf fd e9 	b  33e4 <_vsnprintf+0x30>
    3c44:	d0 4e 40 00 	ldsb  [ %i1 ], %o0
    3c48:	b6 16 e0 02 	or  %i3, 2, %i3
    3c4c:	b8 20 00 1c 	neg  %i4
    3c50:	c2 08 e0 01 	ldub  [ %g3 + 1 ], %g1
    3c54:	10 bf fe 1e 	b  34cc <_vsnprintf+0x118>
    3c58:	ba 07 60 01 	inc  %i5
    3c5c:	82 10 00 02 	mov  %g2, %g1
    3c60:	10 bf ff dd 	b  3bd4 <_vsnprintf+0x820>
    3c64:	84 10 00 19 	mov  %i1, %g2
    3c68:	c4 06 20 08 	ld  [ %i0 + 8 ], %g2
    3c6c:	e0 28 80 01 	stb  %l0, [ %g2 + %g1 ]
    3c70:	84 10 00 19 	mov  %i1, %g2
    3c74:	c2 06 20 0c 	ld  [ %i0 + 0xc ], %g1
    3c78:	10 bf ff d7 	b  3bd4 <_vsnprintf+0x820>
    3c7c:	c6 06 20 10 	ld  [ %i0 + 0x10 ], %g3
    3c80:	b2 06 60 01 	inc  %i1
    3c84:	10 bf fe d6 	b  37dc <_vsnprintf+0x428>
    3c88:	f6 28 80 01 	stb  %i3, [ %g2 + %g1 ]
    3c8c:	a2 04 60 01 	inc  %l1
    3c90:	10 bf ff 5b 	b  39fc <_vsnprintf+0x648>
    3c94:	f6 28 80 01 	stb  %i3, [ %g2 + %g1 ]
    3c98:	12 80 00 53 	bne  3de4 <_vsnprintf+0xa30>
    3c9c:	ba 0e ff f3 	and  %i3, -13, %i5
    3ca0:	80 8e e2 00 	btst  0x200, %i3
    3ca4:	12 80 00 79 	bne  3e88 <_vsnprintf+0xad4>
    3ca8:	80 8e e0 40 	btst  0x40, %i3
    3cac:	32 80 00 42 	bne,a   3db4 <_vsnprintf+0xa00>
    3cb0:	d4 0e a0 03 	ldub  [ %i2 + 3 ], %o2
    3cb4:	d4 06 80 00 	ld  [ %i2 ], %o2
    3cb8:	80 8e e0 80 	btst  0x80, %i3
    3cbc:	02 80 00 03 	be  3cc8 <_vsnprintf+0x914>
    3cc0:	b4 06 a0 04 	add  %i2, 4, %i2
    3cc4:	94 0a 80 15 	and  %o2, %l5, %o2
    3cc8:	f8 23 a0 5c 	st  %i4, [ %sp + 0x5c ]
    3ccc:	fa 23 a0 60 	st  %i5, [ %sp + 0x60 ]
    3cd0:	90 10 00 18 	mov  %i0, %o0
    3cd4:	92 10 20 00 	clr  %o1
    3cd8:	96 10 20 00 	clr  %o3
    3cdc:	98 0c 60 1a 	and  %l1, 0x1a, %o4
    3ce0:	7f ff f9 64 	call  2270 <print_integer>
    3ce4:	9a 10 00 10 	mov  %l0, %o5
    3ce8:	10 bf fd bf 	b  33e4 <_vsnprintf+0x30>
    3cec:	d0 4e 40 00 	ldsb  [ %i1 ], %o0
    3cf0:	c2 0f 60 02 	ldub  [ %i5 + 2 ], %g1
    3cf4:	b6 16 e0 c0 	or  %i3, 0xc0, %i3
    3cf8:	10 bf fe 08 	b  3518 <_vsnprintf+0x164>
    3cfc:	ba 07 60 02 	add  %i5, 2, %i5
    3d00:	32 80 00 09 	bne,a   3d24 <_vsnprintf+0x970>
    3d04:	c4 20 40 00 	st  %g2, [ %g1 ]
    3d08:	80 8e e4 00 	btst  0x400, %i3
    3d0c:	22 80 00 06 	be,a   3d24 <_vsnprintf+0x970>
    3d10:	c4 20 40 00 	st  %g2, [ %g1 ]
    3d14:	c0 20 40 00 	clr  [ %g1 ]
    3d18:	c4 20 60 04 	st  %g2, [ %g1 + 4 ]
    3d1c:	10 bf fd b1 	b  33e0 <_vsnprintf+0x2c>
    3d20:	b2 07 60 01 	add  %i5, 1, %i1
    3d24:	10 bf fd af 	b  33e0 <_vsnprintf+0x2c>
    3d28:	b2 07 60 01 	add  %i5, 1, %i1
    3d2c:	c4 06 20 08 	ld  [ %i0 + 8 ], %g2
    3d30:	86 10 20 25 	mov  0x25, %g3
    3d34:	b2 07 60 01 	add  %i5, 1, %i1
    3d38:	10 bf fd aa 	b  33e0 <_vsnprintf+0x2c>
    3d3c:	c6 28 80 01 	stb  %g3, [ %g2 + %g1 ]
    3d40:	10 bf fe a3 	b  37cc <_vsnprintf+0x418>
    3d44:	c8 28 80 01 	stb  %g4, [ %g2 + %g1 ]
    3d48:	c6 06 20 08 	ld  [ %i0 + 8 ], %g3
    3d4c:	b2 07 60 01 	add  %i5, 1, %i1
    3d50:	10 bf fd a4 	b  33e0 <_vsnprintf+0x2c>
    3d54:	c2 28 c0 02 	stb  %g1, [ %g3 + %g2 ]
    3d58:	32 80 00 19 	bne,a   3dbc <_vsnprintf+0xa08>
    3d5c:	d6 4e a0 03 	ldsb  [ %i2 + 3 ], %o3
    3d60:	80 8e e0 80 	btst  0x80, %i3
    3d64:	22 80 00 5e 	be,a   3edc <_vsnprintf+0xb28>
    3d68:	d6 06 80 00 	ld  [ %i2 ], %o3
    3d6c:	d6 56 a0 02 	ldsh  [ %i2 + 2 ], %o3
    3d70:	b4 06 a0 04 	add  %i2, 4, %i2
    3d74:	80 a2 e0 00 	cmp  %o3, 0
    3d78:	04 80 00 51 	ble  3ebc <_vsnprintf+0xb08>
    3d7c:	99 3a e0 1f 	sra  %o3, 0x1f, %o4
    3d80:	d6 27 bf c4 	st  %o3, [ %fp + -60 ]
    3d84:	d8 27 bf c0 	st  %o4, [ %fp + -64 ]
    3d88:	f8 23 a0 5c 	st  %i4, [ %sp + 0x5c ]
    3d8c:	f6 23 a0 60 	st  %i3, [ %sp + 0x60 ]
    3d90:	90 10 00 18 	mov  %i0, %o0
    3d94:	d2 07 bf c0 	ld  [ %fp + -64 ], %o1
    3d98:	d4 07 bf c4 	ld  [ %fp + -60 ], %o2
    3d9c:	97 32 e0 1f 	srl  %o3, 0x1f, %o3
    3da0:	98 0c 60 1a 	and  %l1, 0x1a, %o4
    3da4:	7f ff f9 33 	call  2270 <print_integer>
    3da8:	9a 10 00 10 	mov  %l0, %o5
    3dac:	10 bf fd 8e 	b  33e4 <_vsnprintf+0x30>
    3db0:	d0 4e 40 00 	ldsb  [ %i1 ], %o0
    3db4:	10 bf ff c5 	b  3cc8 <_vsnprintf+0x914>
    3db8:	b4 06 a0 04 	add  %i2, 4, %i2
    3dbc:	10 bf ff ee 	b  3d74 <_vsnprintf+0x9c0>
    3dc0:	b4 06 a0 04 	add  %i2, 4, %i2
    3dc4:	87 3a e0 1f 	sra  %o3, 0x1f, %g3
    3dc8:	d6 27 bf bc 	st  %o3, [ %fp + -68 ]
    3dcc:	c6 27 bf b8 	st  %g3, [ %fp + -72 ]
    3dd0:	c4 1f bf b8 	ldd  [ %fp + -72 ], %g2
    3dd4:	86 a0 00 03 	subcc  %g0, %g3, %g3
    3dd8:	84 60 00 02 	subx  %g0, %g2, %g2
    3ddc:	10 bf fe c0 	b  38dc <_vsnprintf+0x528>
    3de0:	c4 3f bf c8 	std  %g2, [ %fp + -56 ]
    3de4:	92 10 00 1a 	mov  %i2, %o1
    3de8:	90 07 bf e8 	add  %fp, -24, %o0
    3dec:	40 00 08 f2 	call  61b4 <__GI_memcpy>
    3df0:	94 10 20 08 	mov  8, %o2
    3df4:	b4 06 a0 08 	add  %i2, 8, %i2
    3df8:	f8 23 a0 5c 	st  %i4, [ %sp + 0x5c ]
    3dfc:	fa 23 a0 60 	st  %i5, [ %sp + 0x60 ]
    3e00:	90 10 00 18 	mov  %i0, %o0
    3e04:	d2 07 bf e8 	ld  [ %fp + -24 ], %o1
    3e08:	d4 07 bf ec 	ld  [ %fp + -20 ], %o2
    3e0c:	96 10 20 00 	clr  %o3
    3e10:	98 0c 60 1a 	and  %l1, 0x1a, %o4
    3e14:	7f ff f9 17 	call  2270 <print_integer>
    3e18:	9a 10 00 10 	mov  %l0, %o5
    3e1c:	10 bf fd 72 	b  33e4 <_vsnprintf+0x30>
    3e20:	d0 4e 40 00 	ldsb  [ %i1 ], %o0
    3e24:	92 10 00 1a 	mov  %i2, %o1
    3e28:	90 07 bf e0 	add  %fp, -32, %o0
    3e2c:	40 00 08 e2 	call  61b4 <__GI_memcpy>
    3e30:	94 10 20 08 	mov  8, %o2
    3e34:	c4 1f bf e0 	ldd  [ %fp + -32 ], %g2
    3e38:	f8 23 a0 5c 	st  %i4, [ %sp + 0x5c ]
    3e3c:	83 38 a0 1f 	sra  %g2, 0x1f, %g1
    3e40:	97 30 a0 1f 	srl  %g2, 0x1f, %o3
    3e44:	c2 27 bf d4 	st  %g1, [ %fp + -44 ]
    3e48:	c2 27 bf d0 	st  %g1, [ %fp + -48 ]
    3e4c:	d8 1f bf d0 	ldd  [ %fp + -48 ], %o4
    3e50:	b8 1b 00 02 	xor  %o4, %g2, %i4
    3e54:	ba 1b 40 03 	xor  %o5, %g3, %i5
    3e58:	86 a7 40 0d 	subcc  %i5, %o5, %g3
    3e5c:	84 67 00 0c 	subx  %i4, %o4, %g2
    3e60:	b4 06 a0 08 	add  %i2, 8, %i2
    3e64:	f6 23 a0 60 	st  %i3, [ %sp + 0x60 ]
    3e68:	90 10 00 18 	mov  %i0, %o0
    3e6c:	98 0c 60 1a 	and  %l1, 0x1a, %o4
    3e70:	92 10 00 02 	mov  %g2, %o1
    3e74:	94 10 00 03 	mov  %g3, %o2
    3e78:	7f ff f8 fe 	call  2270 <print_integer>
    3e7c:	9a 10 00 10 	mov  %l0, %o5
    3e80:	10 bf fd 59 	b  33e4 <_vsnprintf+0x30>
    3e84:	d0 4e 40 00 	ldsb  [ %i1 ], %o0
    3e88:	d4 06 80 00 	ld  [ %i2 ], %o2
    3e8c:	f8 23 a0 5c 	st  %i4, [ %sp + 0x5c ]
    3e90:	10 bf ff 8f 	b  3ccc <_vsnprintf+0x918>
    3e94:	b4 06 a0 04 	add  %i2, 4, %i2
    3e98:	90 10 00 18 	mov  %i0, %o0
    3e9c:	92 10 00 16 	mov  %l6, %o1
    3ea0:	94 10 20 06 	mov  6, %o2
    3ea4:	96 10 00 1c 	mov  %i4, %o3
    3ea8:	98 10 00 1b 	mov  %i3, %o4
    3eac:	7f ff f8 9a 	call  2114 <out_rev_>
    3eb0:	b2 07 60 01 	add  %i5, 1, %i1
    3eb4:	10 bf fd 4c 	b  33e4 <_vsnprintf+0x30>
    3eb8:	d0 4e 40 00 	ldsb  [ %i1 ], %o0
    3ebc:	d6 27 bf b4 	st  %o3, [ %fp + -76 ]
    3ec0:	83 3a e0 1f 	sra  %o3, 0x1f, %g1
    3ec4:	c2 27 bf b0 	st  %g1, [ %fp + -80 ]
    3ec8:	c4 1f bf b0 	ldd  [ %fp + -80 ], %g2
    3ecc:	86 a0 00 03 	subcc  %g0, %g3, %g3
    3ed0:	84 60 00 02 	subx  %g0, %g2, %g2
    3ed4:	10 bf ff ad 	b  3d88 <_vsnprintf+0x9d4>
    3ed8:	c4 3f bf c0 	std  %g2, [ %fp + -64 ]
    3edc:	10 bf ff a6 	b  3d74 <_vsnprintf+0x9c0>
    3ee0:	b4 06 a0 04 	add  %i2, 4, %i2

00003ee4 <uart_send_char>:
    3ee4:	9d e3 bf a0 	save  %sp, -96, %sp
    3ee8:	7f ff f5 59 	call  144c <__ajit_serial_putchar_via_bypass__>
    3eec:	90 10 00 18 	mov  %i0, %o0
    3ef0:	80 a2 20 00 	cmp  %o0, 0
    3ef4:	02 bf ff fd 	be  3ee8 <uart_send_char+0x4>
    3ef8:	01 00 00 00 	nop 
    3efc:	7f ff f3 fc 	call  eec <__ajit_read_serial_control_register_via_bypass__>
    3f00:	01 00 00 00 	nop 
    3f04:	90 0a 20 09 	and  %o0, 9, %o0
    3f08:	80 a2 20 09 	cmp  %o0, 9
    3f0c:	02 bf ff fc 	be  3efc <uart_send_char+0x18>
    3f10:	01 00 00 00 	nop 
    3f14:	81 c7 e0 08 	ret 
    3f18:	81 e8 00 00 	restore 

00003f1c <vprintf_>:
    3f1c:	9d e3 bf 88 	save  %sp, -120, %sp
    3f20:	03 00 00 08 	sethi  %hi(0x2000), %g1
    3f24:	82 10 60 dc 	or  %g1, 0xdc, %g1	! 20dc <putchar_wrapper>
    3f28:	c2 27 bf ec 	st  %g1, [ %fp + -20 ]
    3f2c:	03 1f ff ff 	sethi  %hi(0x7ffffc00), %g1
    3f30:	82 10 63 ff 	or  %g1, 0x3ff, %g1	! 7fffffff <_custom_printf_handler+0x7ffe8d2b>
    3f34:	92 10 00 18 	mov  %i0, %o1
    3f38:	c0 27 bf f0 	clr  [ %fp + -16 ]
    3f3c:	c0 27 bf f4 	clr  [ %fp + -12 ]
    3f40:	c0 27 bf f8 	clr  [ %fp + -8 ]
    3f44:	90 07 bf ec 	add  %fp, -20, %o0
    3f48:	c2 27 bf fc 	st  %g1, [ %fp + -4 ]
    3f4c:	7f ff fd 1a 	call  33b4 <_vsnprintf>
    3f50:	94 10 00 19 	mov  %i1, %o2
    3f54:	81 c7 e0 08 	ret 
    3f58:	91 e8 00 08 	restore  %g0, %o0, %o0

00003f5c <vsnprintf_>:
    3f5c:	9d e3 bf 88 	save  %sp, -120, %sp
    3f60:	80 a6 60 00 	cmp  %i1, 0
    3f64:	06 80 00 0f 	bl  3fa0 <vsnprintf_+0x44>
    3f68:	80 a0 00 18 	cmp  %g0, %i0
    3f6c:	82 60 20 00 	subx  %g0, 0, %g1
    3f70:	f0 27 bf f4 	st  %i0, [ %fp + -12 ]
    3f74:	b2 0e 40 01 	and  %i1, %g1, %i1
    3f78:	c0 27 bf ec 	clr  [ %fp + -20 ]
    3f7c:	c0 27 bf f0 	clr  [ %fp + -16 ]
    3f80:	c0 27 bf f8 	clr  [ %fp + -8 ]
    3f84:	f2 27 bf fc 	st  %i1, [ %fp + -4 ]
    3f88:	90 07 bf ec 	add  %fp, -20, %o0
    3f8c:	92 10 00 1a 	mov  %i2, %o1
    3f90:	7f ff fd 09 	call  33b4 <_vsnprintf>
    3f94:	94 10 00 1b 	mov  %i3, %o2
    3f98:	81 c7 e0 08 	ret 
    3f9c:	91 e8 00 08 	restore  %g0, %o0, %o0
    3fa0:	82 60 20 00 	subx  %g0, 0, %g1
    3fa4:	f0 27 bf f4 	st  %i0, [ %fp + -12 ]
    3fa8:	c0 27 bf ec 	clr  [ %fp + -20 ]
    3fac:	c0 27 bf f0 	clr  [ %fp + -16 ]
    3fb0:	c0 27 bf f8 	clr  [ %fp + -8 ]
    3fb4:	90 07 bf ec 	add  %fp, -20, %o0
    3fb8:	92 10 00 1a 	mov  %i2, %o1
    3fbc:	94 10 00 1b 	mov  %i3, %o2
    3fc0:	33 1f ff ff 	sethi  %hi(0x7ffffc00), %i1
    3fc4:	b2 16 63 ff 	or  %i1, 0x3ff, %i1	! 7fffffff <_custom_printf_handler+0x7ffe8d2b>
    3fc8:	b2 0e 40 01 	and  %i1, %g1, %i1
    3fcc:	7f ff fc fa 	call  33b4 <_vsnprintf>
    3fd0:	f2 27 bf fc 	st  %i1, [ %fp + -4 ]
    3fd4:	81 c7 e0 08 	ret 
    3fd8:	91 e8 00 08 	restore  %g0, %o0, %o0

00003fdc <vsprintf_>:
    3fdc:	96 10 00 0a 	mov  %o2, %o3
    3fe0:	94 10 00 09 	mov  %o1, %o2
    3fe4:	13 1f ff ff 	sethi  %hi(0x7ffffc00), %o1
    3fe8:	92 12 63 ff 	or  %o1, 0x3ff, %o1	! 7fffffff <_custom_printf_handler+0x7ffe8d2b>
    3fec:	82 13 c0 00 	mov  %o7, %g1
    3ff0:	7f ff ff db 	call  3f5c <vsnprintf_>
    3ff4:	9e 10 40 00 	mov  %g1, %o7

00003ff8 <vfctprintf>:
    3ff8:	9d e3 bf 88 	save  %sp, -120, %sp
    3ffc:	03 1f ff ff 	sethi  %hi(0x7ffffc00), %g1
    4000:	82 10 63 ff 	or  %g1, 0x3ff, %g1	! 7fffffff <_custom_printf_handler+0x7ffe8d2b>
    4004:	f0 27 bf ec 	st  %i0, [ %fp + -20 ]
    4008:	f2 27 bf f0 	st  %i1, [ %fp + -16 ]
    400c:	c0 27 bf f4 	clr  [ %fp + -12 ]
    4010:	c0 27 bf f8 	clr  [ %fp + -8 ]
    4014:	90 07 bf ec 	add  %fp, -20, %o0
    4018:	92 10 00 1a 	mov  %i2, %o1
    401c:	c2 27 bf fc 	st  %g1, [ %fp + -4 ]
    4020:	7f ff fc e5 	call  33b4 <_vsnprintf>
    4024:	94 10 00 1b 	mov  %i3, %o2
    4028:	81 c7 e0 08 	ret 
    402c:	91 e8 00 08 	restore  %g0, %o0, %o0

00004030 <printf_>:
    4030:	9d e3 bf 98 	save  %sp, -104, %sp
    4034:	92 07 a0 48 	add  %fp, 0x48, %o1
    4038:	f2 27 a0 48 	st  %i1, [ %fp + 0x48 ]
    403c:	f4 27 a0 4c 	st  %i2, [ %fp + 0x4c ]
    4040:	f6 27 a0 50 	st  %i3, [ %fp + 0x50 ]
    4044:	f8 27 a0 54 	st  %i4, [ %fp + 0x54 ]
    4048:	fa 27 a0 58 	st  %i5, [ %fp + 0x58 ]
    404c:	d2 27 bf fc 	st  %o1, [ %fp + -4 ]
    4050:	7f ff ff b3 	call  3f1c <vprintf_>
    4054:	90 10 00 18 	mov  %i0, %o0
    4058:	81 c7 e0 08 	ret 
    405c:	91 e8 00 08 	restore  %g0, %o0, %o0

00004060 <sprintf_>:
    4060:	9d e3 bf 98 	save  %sp, -104, %sp
    4064:	94 07 a0 4c 	add  %fp, 0x4c, %o2
    4068:	f4 27 a0 4c 	st  %i2, [ %fp + 0x4c ]
    406c:	f6 27 a0 50 	st  %i3, [ %fp + 0x50 ]
    4070:	f8 27 a0 54 	st  %i4, [ %fp + 0x54 ]
    4074:	fa 27 a0 58 	st  %i5, [ %fp + 0x58 ]
    4078:	d4 27 bf fc 	st  %o2, [ %fp + -4 ]
    407c:	90 10 00 18 	mov  %i0, %o0
    4080:	7f ff ff d7 	call  3fdc <vsprintf_>
    4084:	92 10 00 19 	mov  %i1, %o1
    4088:	81 c7 e0 08 	ret 
    408c:	91 e8 00 08 	restore  %g0, %o0, %o0

00004090 <snprintf_>:
    4090:	9d e3 bf 98 	save  %sp, -104, %sp
    4094:	96 07 a0 50 	add  %fp, 0x50, %o3
    4098:	f6 27 a0 50 	st  %i3, [ %fp + 0x50 ]
    409c:	f8 27 a0 54 	st  %i4, [ %fp + 0x54 ]
    40a0:	fa 27 a0 58 	st  %i5, [ %fp + 0x58 ]
    40a4:	d6 27 bf fc 	st  %o3, [ %fp + -4 ]
    40a8:	90 10 00 18 	mov  %i0, %o0
    40ac:	92 10 00 19 	mov  %i1, %o1
    40b0:	7f ff ff ab 	call  3f5c <vsnprintf_>
    40b4:	94 10 00 1a 	mov  %i2, %o2
    40b8:	81 c7 e0 08 	ret 
    40bc:	91 e8 00 08 	restore  %g0, %o0, %o0

000040c0 <fctprintf>:
    40c0:	9d e3 bf 98 	save  %sp, -104, %sp
    40c4:	96 07 a0 50 	add  %fp, 0x50, %o3
    40c8:	f6 27 a0 50 	st  %i3, [ %fp + 0x50 ]
    40cc:	f8 27 a0 54 	st  %i4, [ %fp + 0x54 ]
    40d0:	fa 27 a0 58 	st  %i5, [ %fp + 0x58 ]
    40d4:	d6 27 bf fc 	st  %o3, [ %fp + -4 ]
    40d8:	90 10 00 18 	mov  %i0, %o0
    40dc:	92 10 00 19 	mov  %i1, %o1
    40e0:	7f ff ff c6 	call  3ff8 <vfctprintf>
    40e4:	94 10 00 1a 	mov  %i2, %o2
    40e8:	81 c7 e0 08 	ret 
    40ec:	91 e8 00 08 	restore  %g0, %o0, %o0

000040f0 <cortos_init_logging>:
    40f0:	84 10 20 01 	mov  1, %g2
    40f4:	03 00 00 5c 	sethi  %hi(0x17000), %g1
    40f8:	82 10 60 28 	or  %g1, 0x28, %g1	! 17028 <allocatedLocksNc>
    40fc:	c4 28 60 04 	stb  %g2, [ %g1 + 4 ]
    4100:	05 00 00 64 	sethi  %hi(0x19000), %g2
    4104:	03 00 00 5c 	sethi  %hi(0x17000), %g1
    4108:	84 10 a0 04 	or  %g2, 4, %g2
    410c:	81 c3 e0 08 	retl 
    4110:	c4 20 60 04 	st  %g2, [ %g1 + 4 ]

00004114 <__cortos_log_printf>:
    4114:	9d e3 bb 80 	save  %sp, -1152, %sp
    4118:	21 00 00 5c 	sethi  %hi(0x17000), %l0
    411c:	fa 27 a0 58 	st  %i5, [ %fp + 0x58 ]
    4120:	7f ff f0 68 	call  2c0 <cortos_lock_acquire_buzy>
    4124:	d0 04 20 04 	ld  [ %l0 + 4 ], %o0
    4128:	7f ff f0 8f 	call  364 <cortos_get_clock_time>
    412c:	01 00 00 00 	nop 
    4130:	a3 47 40 00 	rd  %asr29, %l1
    4134:	82 10 00 11 	mov  %l1, %g1
    4138:	d0 3f bb f0 	std  %o0, [ %fp + -1040 ]
    413c:	96 08 60 ff 	and  %g1, 0xff, %o3
    4140:	95 30 60 08 	srl  %g1, 8, %o2
    4144:	c2 07 bb f0 	ld  [ %fp + -1040 ], %g1
    4148:	c2 23 a0 60 	st  %g1, [ %sp + 0x60 ]
    414c:	c2 07 bb f4 	ld  [ %fp + -1036 ], %g1
    4150:	92 10 00 18 	mov  %i0, %o1
    4154:	c2 23 a0 64 	st  %g1, [ %sp + 0x64 ]
    4158:	98 10 00 19 	mov  %i1, %o4
    415c:	9a 10 00 1b 	mov  %i3, %o5
    4160:	94 0a a0 ff 	and  %o2, 0xff, %o2
    4164:	f4 23 a0 5c 	st  %i2, [ %sp + 0x5c ]
    4168:	11 00 00 59 	sethi  %hi(0x16400), %o0
    416c:	7f ff ff b1 	call  4030 <printf_>
    4170:	90 12 20 40 	or  %o0, 0x40, %o0	! 16440 <__clz_tab+0x208>
    4174:	94 07 a0 58 	add  %fp, 0x58, %o2
    4178:	b0 10 00 08 	mov  %o0, %i0
    417c:	d4 27 bb fc 	st  %o2, [ %fp + -1028 ]
    4180:	ba 07 bc 00 	add  %fp, -1024, %i5
    4184:	92 10 00 1c 	mov  %i4, %o1
    4188:	7f ff ff 95 	call  3fdc <vsprintf_>
    418c:	90 10 00 1d 	mov  %i5, %o0
    4190:	c2 0f bc 00 	ldub  [ %fp + -1024 ], %g1
    4194:	91 28 60 18 	sll  %g1, 0x18, %o0
    4198:	80 a2 20 00 	cmp  %o0, 0
    419c:	22 80 00 0c 	be,a   41cc <__cortos_log_printf+0xb8>
    41a0:	11 00 00 58 	sethi  %hi(0x16000), %o0
    41a4:	ba 27 40 18 	sub  %i5, %i0, %i5
    41a8:	7f ff ff 4f 	call  3ee4 <uart_send_char>
    41ac:	91 3a 20 18 	sra  %o0, 0x18, %o0
    41b0:	b0 06 20 01 	inc  %i0
    41b4:	c2 0f 40 18 	ldub  [ %i5 + %i0 ], %g1
    41b8:	91 28 60 18 	sll  %g1, 0x18, %o0
    41bc:	80 a2 20 00 	cmp  %o0, 0
    41c0:	12 bf ff fa 	bne  41a8 <__cortos_log_printf+0x94>
    41c4:	01 00 00 00 	nop 
    41c8:	11 00 00 58 	sethi  %hi(0x16000), %o0
    41cc:	7f ff ff 99 	call  4030 <printf_>
    41d0:	90 12 23 40 	or  %o0, 0x340, %o0	! 16340 <__clz_tab+0x108>
    41d4:	b0 02 00 18 	add  %o0, %i0, %i0
    41d8:	7f ff f0 54 	call  328 <cortos_lock_release>
    41dc:	d0 04 20 04 	ld  [ %l0 + 4 ], %o0
    41e0:	81 c7 e0 08 	ret 
    41e4:	81 e8 00 00 	restore 

000041e8 <__cortos_bpool>:
    41e8:	9d e3 bf a0 	save  %sp, -96, %sp
    41ec:	3b 00 00 5c 	sethi  %hi(0x17000), %i5
    41f0:	c2 07 60 0c 	ld  [ %i5 + 0xc ], %g1	! 1700c <bgetLockAddr>
    41f4:	80 a0 60 00 	cmp  %g1, 0
    41f8:	12 80 00 0b 	bne  4224 <__cortos_bpool+0x3c>
    41fc:	11 00 00 68 	sethi  %hi(0x1a000), %o0
    4200:	40 00 01 06 	call  4618 <bpool>
    4204:	13 00 00 04 	sethi  %hi(0x1000), %o1
    4208:	03 00 00 5c 	sethi  %hi(0x17000), %g1
    420c:	82 10 60 28 	or  %g1, 0x28, %g1	! 17028 <allocatedLocksNc>
    4210:	84 10 20 01 	mov  1, %g2
    4214:	c4 28 60 02 	stb  %g2, [ %g1 + 2 ]
    4218:	03 00 00 64 	sethi  %hi(0x19000), %g1
    421c:	82 10 60 02 	or  %g1, 2, %g1	! 19002 <_custom_printf_handler+0x1d2e>
    4220:	c2 27 60 0c 	st  %g1, [ %i5 + 0xc ]
    4224:	81 c7 e0 08 	ret 
    4228:	81 e8 00 00 	restore 

0000422c <cortos_bget>:
    422c:	9d e3 bf a0 	save  %sp, -96, %sp
    4230:	3b 00 00 5c 	sethi  %hi(0x17000), %i5
    4234:	7f ff f0 23 	call  2c0 <cortos_lock_acquire_buzy>
    4238:	d0 07 60 0c 	ld  [ %i5 + 0xc ], %o0	! 1700c <bgetLockAddr>
    423c:	40 00 00 c7 	call  4558 <bget>
    4240:	90 10 00 18 	mov  %i0, %o0
    4244:	b0 10 00 08 	mov  %o0, %i0
    4248:	7f ff f0 38 	call  328 <cortos_lock_release>
    424c:	d0 07 60 0c 	ld  [ %i5 + 0xc ], %o0
    4250:	81 c7 e0 08 	ret 
    4254:	81 e8 00 00 	restore 

00004258 <cortos_brel>:
    4258:	9d e3 bf a0 	save  %sp, -96, %sp
    425c:	3b 00 00 5c 	sethi  %hi(0x17000), %i5
    4260:	7f ff f0 18 	call  2c0 <cortos_lock_acquire_buzy>
    4264:	d0 07 60 0c 	ld  [ %i5 + 0xc ], %o0	! 1700c <bgetLockAddr>
    4268:	40 00 00 fd 	call  465c <brel>
    426c:	90 10 00 18 	mov  %i0, %o0
    4270:	f0 07 60 0c 	ld  [ %i5 + 0xc ], %i0
    4274:	7f ff f0 2d 	call  328 <cortos_lock_release>
    4278:	81 e8 00 00 	restore 

0000427c <__cortos_bpool_ncram>:
    427c:	9d e3 bf a0 	save  %sp, -96, %sp
    4280:	3b 00 00 5c 	sethi  %hi(0x17000), %i5
    4284:	c2 07 60 08 	ld  [ %i5 + 8 ], %g1	! 17008 <bgetNcramLockAddr>
    4288:	80 a0 60 00 	cmp  %g1, 0
    428c:	12 80 00 0b 	bne  42b8 <__cortos_bpool_ncram+0x3c>
    4290:	90 10 20 00 	clr  %o0
    4294:	40 00 00 55 	call  43e8 <bpool_ncram>
    4298:	92 10 3f ff 	mov  -1, %o1
    429c:	03 00 00 5c 	sethi  %hi(0x17000), %g1
    42a0:	82 10 60 28 	or  %g1, 0x28, %g1	! 17028 <allocatedLocksNc>
    42a4:	84 10 20 01 	mov  1, %g2
    42a8:	c4 28 60 03 	stb  %g2, [ %g1 + 3 ]
    42ac:	03 00 00 64 	sethi  %hi(0x19000), %g1
    42b0:	82 10 60 03 	or  %g1, 3, %g1	! 19003 <_custom_printf_handler+0x1d2f>
    42b4:	c2 27 60 08 	st  %g1, [ %i5 + 8 ]
    42b8:	81 c7 e0 08 	ret 
    42bc:	81 e8 00 00 	restore 

000042c0 <cortos_bget_ncram>:
    42c0:	9d e3 bf a0 	save  %sp, -96, %sp
    42c4:	3b 00 00 5c 	sethi  %hi(0x17000), %i5
    42c8:	7f ff ef fe 	call  2c0 <cortos_lock_acquire_buzy>
    42cc:	d0 07 60 08 	ld  [ %i5 + 8 ], %o0	! 17008 <bgetNcramLockAddr>
    42d0:	40 00 00 10 	call  4310 <bget_ncram>
    42d4:	90 10 00 18 	mov  %i0, %o0
    42d8:	b0 10 00 08 	mov  %o0, %i0
    42dc:	7f ff f0 13 	call  328 <cortos_lock_release>
    42e0:	d0 07 60 08 	ld  [ %i5 + 8 ], %o0
    42e4:	81 c7 e0 08 	ret 
    42e8:	81 e8 00 00 	restore 

000042ec <cortos_brel_ncram>:
    42ec:	9d e3 bf a0 	save  %sp, -96, %sp
    42f0:	3b 00 00 5c 	sethi  %hi(0x17000), %i5
    42f4:	7f ff ef f3 	call  2c0 <cortos_lock_acquire_buzy>
    42f8:	d0 07 60 08 	ld  [ %i5 + 8 ], %o0	! 17008 <bgetNcramLockAddr>
    42fc:	40 00 00 4c 	call  442c <brel_ncram>
    4300:	90 10 00 18 	mov  %i0, %o0
    4304:	f0 07 60 08 	ld  [ %i5 + 8 ], %i0
    4308:	7f ff f0 08 	call  328 <cortos_lock_release>
    430c:	81 e8 00 00 	restore 

00004310 <bget_ncram>:
    4310:	83 3a 20 1f 	sra  %o0, 0x1f, %g1
    4314:	83 30 60 1c 	srl  %g1, 0x1c, %g1
    4318:	84 02 00 01 	add  %o0, %g1, %g2
    431c:	84 08 a0 0f 	and  %g2, 0xf, %g2
    4320:	82 20 80 01 	sub  %g2, %g1, %g1
    4324:	90 00 40 08 	add  %g1, %o0, %o0
    4328:	80 a2 20 0f 	cmp  %o0, 0xf
    432c:	08 80 00 23 	bleu  43b8 <bget_ncram+0xa8>
    4330:	86 10 20 18 	mov  0x18, %g3
    4334:	88 02 20 0f 	add  %o0, 0xf, %g4
    4338:	88 09 3f f0 	and  %g4, -16, %g4
    433c:	88 01 20 08 	add  %g4, 8, %g4
    4340:	86 10 00 04 	mov  %g4, %g3
    4344:	05 00 00 59 	sethi  %hi(0x16400), %g2
    4348:	84 10 a0 d0 	or  %g2, 0xd0, %g2	! 164d0 <freelist_ncram>
    434c:	d0 00 a0 08 	ld  [ %g2 + 8 ], %o0
    4350:	80 a2 00 02 	cmp  %o0, %g2
    4354:	32 80 00 08 	bne,a   4374 <bget_ncram+0x64>
    4358:	c2 02 20 04 	ld  [ %o0 + 4 ], %g1
    435c:	81 c3 e0 08 	retl 
    4360:	90 10 20 00 	clr  %o0
    4364:	80 a2 00 02 	cmp  %o0, %g2
    4368:	02 80 00 12 	be  43b0 <bget_ncram+0xa0>
    436c:	01 00 00 00 	nop 
    4370:	c2 02 20 04 	ld  [ %o0 + 4 ], %g1
    4374:	80 a0 40 03 	cmp  %g1, %g3
    4378:	26 bf ff fb 	bl,a   4364 <bget_ncram+0x54>
    437c:	d0 02 20 08 	ld  [ %o0 + 8 ], %o0
    4380:	84 20 40 03 	sub  %g1, %g3, %g2
    4384:	80 a0 a0 18 	cmp  %g2, 0x18
    4388:	28 80 00 0e 	bleu,a   43c0 <bget_ncram+0xb0>
    438c:	c6 02 20 08 	ld  [ %o0 + 8 ], %g3
    4390:	c4 22 20 04 	st  %g2, [ %o0 + 4 ]
    4394:	c4 22 00 02 	st  %g2, [ %o0 + %g2 ]
    4398:	86 20 00 03 	neg  %g3
    439c:	90 02 00 02 	add  %o0, %g2, %o0
    43a0:	c0 22 00 04 	clr  [ %o0 + %g4 ]
    43a4:	c6 22 20 04 	st  %g3, [ %o0 + 4 ]
    43a8:	81 c3 e0 08 	retl 
    43ac:	90 02 20 08 	add  %o0, 8, %o0
    43b0:	81 c3 e0 08 	retl 
    43b4:	90 10 20 00 	clr  %o0
    43b8:	10 bf ff e3 	b  4344 <bget_ncram+0x34>
    43bc:	88 10 20 18 	mov  0x18, %g4
    43c0:	c4 02 20 0c 	ld  [ %o0 + 0xc ], %g2
    43c4:	c6 20 a0 08 	st  %g3, [ %g2 + 8 ]
    43c8:	c6 02 20 08 	ld  [ %o0 + 8 ], %g3
    43cc:	c4 20 e0 0c 	st  %g2, [ %g3 + 0xc ]
    43d0:	c0 22 00 01 	clr  [ %o0 + %g1 ]
    43d4:	84 20 00 01 	neg  %g1, %g2
    43d8:	c4 22 20 04 	st  %g2, [ %o0 + 4 ]
    43dc:	90 02 20 08 	add  %o0, 8, %o0
    43e0:	81 c3 e0 08 	retl 
    43e4:	01 00 00 00 	nop 

000043e8 <bpool_ncram>:
    43e8:	03 00 00 59 	sethi  %hi(0x16400), %g1
    43ec:	82 10 60 d0 	or  %g1, 0xd0, %g1	! 164d0 <freelist_ncram>
    43f0:	c4 00 60 0c 	ld  [ %g1 + 0xc ], %g2
    43f4:	c2 22 20 08 	st  %g1, [ %o0 + 8 ]
    43f8:	c4 22 20 0c 	st  %g2, [ %o0 + 0xc ]
    43fc:	d0 20 60 0c 	st  %o0, [ %g1 + 0xc ]
    4400:	c0 22 00 00 	clr  [ %o0 ]
    4404:	c2 02 20 0c 	ld  [ %o0 + 0xc ], %g1
    4408:	92 0a 7f f0 	and  %o1, -16, %o1
    440c:	d0 20 60 08 	st  %o0, [ %g1 + 8 ]
    4410:	92 02 7f f8 	add  %o1, -8, %o1
    4414:	d2 22 20 04 	st  %o1, [ %o0 + 4 ]
    4418:	82 02 00 09 	add  %o0, %o1, %g1
    441c:	05 20 00 00 	sethi  %hi(0x80000000), %g2
    4420:	d2 22 00 09 	st  %o1, [ %o0 + %o1 ]
    4424:	81 c3 e0 08 	retl 
    4428:	c4 20 60 04 	st  %g2, [ %g1 + 4 ]

0000442c <brel_ncram>:
    442c:	c2 02 3f f8 	ld  [ %o0 + -8 ], %g1
    4430:	80 a0 60 00 	cmp  %g1, 0
    4434:	02 80 00 16 	be  448c <brel_ncram+0x60>
    4438:	84 02 3f f8 	add  %o0, -8, %g2
    443c:	84 20 80 01 	sub  %g2, %g1, %g2
    4440:	c2 02 3f fc 	ld  [ %o0 + -4 ], %g1
    4444:	c6 00 a0 04 	ld  [ %g2 + 4 ], %g3
    4448:	82 20 c0 01 	sub  %g3, %g1, %g1
    444c:	c2 20 a0 04 	st  %g1, [ %g2 + 4 ]
    4450:	86 00 80 01 	add  %g2, %g1, %g3
    4454:	c8 00 e0 04 	ld  [ %g3 + 4 ], %g4
    4458:	80 a1 20 00 	cmp  %g4, 0
    445c:	04 80 00 0a 	ble  4484 <brel_ncram+0x58>
    4460:	01 00 00 00 	nop 
    4464:	da 00 e0 0c 	ld  [ %g3 + 0xc ], %o5
    4468:	82 00 40 04 	add  %g1, %g4, %g1
    446c:	d8 00 e0 08 	ld  [ %g3 + 8 ], %o4
    4470:	c2 20 a0 04 	st  %g1, [ %g2 + 4 ]
    4474:	d8 23 60 08 	st  %o4, [ %o5 + 8 ]
    4478:	c8 00 e0 08 	ld  [ %g3 + 8 ], %g4
    447c:	86 00 80 01 	add  %g2, %g1, %g3
    4480:	da 21 20 0c 	st  %o5, [ %g4 + 0xc ]
    4484:	81 c3 e0 08 	retl 
    4488:	c2 20 c0 00 	st  %g1, [ %g3 ]
    448c:	07 00 00 59 	sethi  %hi(0x16400), %g3
    4490:	86 10 e0 d0 	or  %g3, 0xd0, %g3	! 164d0 <freelist_ncram>
    4494:	c2 00 e0 0c 	ld  [ %g3 + 0xc ], %g1
    4498:	c6 22 00 00 	st  %g3, [ %o0 ]
    449c:	c2 22 20 04 	st  %g1, [ %o0 + 4 ]
    44a0:	c4 20 e0 0c 	st  %g2, [ %g3 + 0xc ]
    44a4:	c2 02 3f fc 	ld  [ %o0 + -4 ], %g1
    44a8:	c6 02 20 04 	ld  [ %o0 + 4 ], %g3
    44ac:	82 20 00 01 	neg  %g1
    44b0:	c4 20 e0 08 	st  %g2, [ %g3 + 8 ]
    44b4:	10 bf ff e7 	b  4450 <brel_ncram+0x24>
    44b8:	c2 22 3f fc 	st  %g1, [ %o0 + -4 ]

000044bc <ajit_initialize_sw_trap_handlers_to_null>:
    44bc:	03 00 00 5c 	sethi  %hi(0x17000), %g1
    44c0:	82 10 62 68 	or  %g1, 0x268, %g1	! 17268 <ajit_global_sw_trap_handlers>
    44c4:	84 00 60 44 	add  %g1, 0x44, %g2
    44c8:	c0 20 40 00 	clr  [ %g1 ]
    44cc:	82 00 60 04 	add  %g1, 4, %g1
    44d0:	80 a0 40 02 	cmp  %g1, %g2
    44d4:	32 bf ff fe 	bne,a   44cc <ajit_initialize_sw_trap_handlers_to_null+0x10>
    44d8:	c0 20 40 00 	clr  [ %g1 ]
    44dc:	81 c3 e0 08 	retl 
    44e0:	01 00 00 00 	nop 

000044e4 <ajit_set_sw_trap_handler>:
    44e4:	80 a2 20 10 	cmp  %o0, 0x10
    44e8:	18 80 00 05 	bgu  44fc <ajit_set_sw_trap_handler+0x18>
    44ec:	91 2a 20 02 	sll  %o0, 2, %o0
    44f0:	03 00 00 5c 	sethi  %hi(0x17000), %g1
    44f4:	82 10 62 68 	or  %g1, 0x268, %g1	! 17268 <ajit_global_sw_trap_handlers>
    44f8:	d2 20 40 08 	st  %o1, [ %g1 + %o0 ]
    44fc:	81 c3 e0 08 	retl 
    4500:	01 00 00 00 	nop 

00004504 <ajit_generic_sw_trap_handler>:
    4504:	9d e3 bf a0 	save  %sp, -96, %sp
    4508:	b1 36 20 04 	srl  %i0, 4, %i0
    450c:	82 0e 20 ff 	and  %i0, 0xff, %g1
    4510:	82 00 7f 80 	add  %g1, -128, %g1
    4514:	80 a0 60 10 	cmp  %g1, 0x10
    4518:	18 80 00 0d 	bgu  454c <ajit_generic_sw_trap_handler+0x48>
    451c:	83 28 60 02 	sll  %g1, 2, %g1
    4520:	05 00 00 5c 	sethi  %hi(0x17000), %g2
    4524:	84 10 a2 68 	or  %g2, 0x268, %g2	! 17268 <ajit_global_sw_trap_handlers>
    4528:	c2 00 80 01 	ld  [ %g2 + %g1 ], %g1
    452c:	80 a0 60 00 	cmp  %g1, 0
    4530:	02 80 00 07 	be  454c <ajit_generic_sw_trap_handler+0x48>
    4534:	90 10 00 19 	mov  %i1, %o0
    4538:	92 10 00 1a 	mov  %i2, %o1
    453c:	9f c0 40 00 	call  %g1
    4540:	94 10 00 1b 	mov  %i3, %o2
    4544:	81 c7 e0 08 	ret 
    4548:	81 e8 00 00 	restore 
    454c:	91 d0 20 00 	ta  0
    4550:	81 c7 e0 08 	ret 
    4554:	81 e8 00 00 	restore 

00004558 <bget>:
    4558:	80 a2 20 07 	cmp  %o0, 7
    455c:	08 80 00 23 	bleu  45e8 <bget+0x90>
    4560:	86 10 20 10 	mov  0x10, %g3
    4564:	88 02 20 07 	add  %o0, 7, %g4
    4568:	88 09 3f f8 	and  %g4, -8, %g4
    456c:	88 01 20 08 	add  %g4, 8, %g4
    4570:	86 10 00 04 	mov  %g4, %g3
    4574:	05 00 00 59 	sethi  %hi(0x16400), %g2
    4578:	84 10 a0 e0 	or  %g2, 0xe0, %g2	! 164e0 <freelist>
    457c:	d0 00 a0 08 	ld  [ %g2 + 8 ], %o0
    4580:	80 a2 00 02 	cmp  %o0, %g2
    4584:	32 80 00 08 	bne,a   45a4 <bget+0x4c>
    4588:	c2 02 20 04 	ld  [ %o0 + 4 ], %g1
    458c:	81 c3 e0 08 	retl 
    4590:	90 10 20 00 	clr  %o0
    4594:	80 a2 00 02 	cmp  %o0, %g2
    4598:	02 80 00 12 	be  45e0 <bget+0x88>
    459c:	01 00 00 00 	nop 
    45a0:	c2 02 20 04 	ld  [ %o0 + 4 ], %g1
    45a4:	80 a0 40 03 	cmp  %g1, %g3
    45a8:	26 bf ff fb 	bl,a   4594 <bget+0x3c>
    45ac:	d0 02 20 08 	ld  [ %o0 + 8 ], %o0
    45b0:	84 20 40 03 	sub  %g1, %g3, %g2
    45b4:	80 a0 a0 10 	cmp  %g2, 0x10
    45b8:	28 80 00 0e 	bleu,a   45f0 <bget+0x98>
    45bc:	c6 02 20 08 	ld  [ %o0 + 8 ], %g3
    45c0:	c4 22 20 04 	st  %g2, [ %o0 + 4 ]
    45c4:	c4 22 00 02 	st  %g2, [ %o0 + %g2 ]
    45c8:	86 20 00 03 	neg  %g3
    45cc:	90 02 00 02 	add  %o0, %g2, %o0
    45d0:	c0 22 00 04 	clr  [ %o0 + %g4 ]
    45d4:	c6 22 20 04 	st  %g3, [ %o0 + 4 ]
    45d8:	81 c3 e0 08 	retl 
    45dc:	90 02 20 08 	add  %o0, 8, %o0
    45e0:	81 c3 e0 08 	retl 
    45e4:	90 10 20 00 	clr  %o0
    45e8:	10 bf ff e3 	b  4574 <bget+0x1c>
    45ec:	88 10 20 10 	mov  0x10, %g4
    45f0:	c4 02 20 0c 	ld  [ %o0 + 0xc ], %g2
    45f4:	c6 20 a0 08 	st  %g3, [ %g2 + 8 ]
    45f8:	c6 02 20 08 	ld  [ %o0 + 8 ], %g3
    45fc:	c4 20 e0 0c 	st  %g2, [ %g3 + 0xc ]
    4600:	c0 22 00 01 	clr  [ %o0 + %g1 ]
    4604:	84 20 00 01 	neg  %g1, %g2
    4608:	c4 22 20 04 	st  %g2, [ %o0 + 4 ]
    460c:	90 02 20 08 	add  %o0, 8, %o0
    4610:	81 c3 e0 08 	retl 
    4614:	01 00 00 00 	nop 

00004618 <bpool>:
    4618:	03 00 00 59 	sethi  %hi(0x16400), %g1
    461c:	82 10 60 e0 	or  %g1, 0xe0, %g1	! 164e0 <freelist>
    4620:	c4 00 60 0c 	ld  [ %g1 + 0xc ], %g2
    4624:	c2 22 20 08 	st  %g1, [ %o0 + 8 ]
    4628:	c4 22 20 0c 	st  %g2, [ %o0 + 0xc ]
    462c:	d0 20 60 0c 	st  %o0, [ %g1 + 0xc ]
    4630:	c0 22 00 00 	clr  [ %o0 ]
    4634:	c2 02 20 0c 	ld  [ %o0 + 0xc ], %g1
    4638:	92 0a 7f f8 	and  %o1, -8, %o1
    463c:	d0 20 60 08 	st  %o0, [ %g1 + 8 ]
    4640:	92 02 7f f8 	add  %o1, -8, %o1
    4644:	d2 22 20 04 	st  %o1, [ %o0 + 4 ]
    4648:	82 02 00 09 	add  %o0, %o1, %g1
    464c:	05 20 00 00 	sethi  %hi(0x80000000), %g2
    4650:	d2 22 00 09 	st  %o1, [ %o0 + %o1 ]
    4654:	81 c3 e0 08 	retl 
    4658:	c4 20 60 04 	st  %g2, [ %g1 + 4 ]

0000465c <brel>:
    465c:	c2 02 3f f8 	ld  [ %o0 + -8 ], %g1
    4660:	80 a0 60 00 	cmp  %g1, 0
    4664:	02 80 00 16 	be  46bc <brel+0x60>
    4668:	84 02 3f f8 	add  %o0, -8, %g2
    466c:	84 20 80 01 	sub  %g2, %g1, %g2
    4670:	c2 02 3f fc 	ld  [ %o0 + -4 ], %g1
    4674:	c6 00 a0 04 	ld  [ %g2 + 4 ], %g3
    4678:	82 20 c0 01 	sub  %g3, %g1, %g1
    467c:	c2 20 a0 04 	st  %g1, [ %g2 + 4 ]
    4680:	86 00 80 01 	add  %g2, %g1, %g3
    4684:	c8 00 e0 04 	ld  [ %g3 + 4 ], %g4
    4688:	80 a1 20 00 	cmp  %g4, 0
    468c:	04 80 00 0a 	ble  46b4 <brel+0x58>
    4690:	01 00 00 00 	nop 
    4694:	da 00 e0 0c 	ld  [ %g3 + 0xc ], %o5
    4698:	82 00 40 04 	add  %g1, %g4, %g1
    469c:	d8 00 e0 08 	ld  [ %g3 + 8 ], %o4
    46a0:	c2 20 a0 04 	st  %g1, [ %g2 + 4 ]
    46a4:	d8 23 60 08 	st  %o4, [ %o5 + 8 ]
    46a8:	c8 00 e0 08 	ld  [ %g3 + 8 ], %g4
    46ac:	86 00 80 01 	add  %g2, %g1, %g3
    46b0:	da 21 20 0c 	st  %o5, [ %g4 + 0xc ]
    46b4:	81 c3 e0 08 	retl 
    46b8:	c2 20 c0 00 	st  %g1, [ %g3 ]
    46bc:	07 00 00 59 	sethi  %hi(0x16400), %g3
    46c0:	86 10 e0 e0 	or  %g3, 0xe0, %g3	! 164e0 <freelist>
    46c4:	c2 00 e0 0c 	ld  [ %g3 + 0xc ], %g1
    46c8:	c6 22 00 00 	st  %g3, [ %o0 ]
    46cc:	c2 22 20 04 	st  %g1, [ %o0 + 4 ]
    46d0:	c4 20 e0 0c 	st  %g2, [ %g3 + 0xc ]
    46d4:	c2 02 3f fc 	ld  [ %o0 + -4 ], %g1
    46d8:	c6 02 20 04 	ld  [ %o0 + 4 ], %g3
    46dc:	82 20 00 01 	neg  %g1
    46e0:	c4 20 e0 08 	st  %g2, [ %g3 + 8 ]
    46e4:	10 bf ff e7 	b  4680 <brel+0x24>
    46e8:	c2 22 3f fc 	st  %g1, [ %o0 + -4 ]

000046ec <__GI_sprintf>:
    46ec:	9d e3 bf 98 	save  %sp, -104, %sp
    46f0:	92 10 3f ff 	mov  -1, %o1
    46f4:	96 07 a0 4c 	add  %fp, 0x4c, %o3
    46f8:	f4 27 a0 4c 	st  %i2, [ %fp + 0x4c ]
    46fc:	f6 27 a0 50 	st  %i3, [ %fp + 0x50 ]
    4700:	f8 27 a0 54 	st  %i4, [ %fp + 0x54 ]
    4704:	fa 27 a0 58 	st  %i5, [ %fp + 0x58 ]
    4708:	d6 27 bf fc 	st  %o3, [ %fp + -4 ]
    470c:	90 10 00 18 	mov  %i0, %o0
    4710:	40 00 00 04 	call  4720 <__GI_vsnprintf>
    4714:	94 10 00 19 	mov  %i1, %o2
    4718:	81 c7 e0 08 	ret 
    471c:	91 e8 00 08 	restore  %g0, %o0, %o0

00004720 <__GI_vsnprintf>:
    4720:	9d e3 bf 60 	save  %sp, -160, %sp
    4724:	82 07 bf c4 	add  %fp, -60, %g1
    4728:	c2 27 bf dc 	st  %g1, [ %fp + -36 ]
    472c:	82 10 3f fe 	mov  -2, %g1
    4730:	c2 27 bf c4 	st  %g1, [ %fp + -60 ]
    4734:	82 10 20 d0 	mov  0xd0, %g1
    4738:	c0 27 bf e0 	clr  [ %fp + -32 ]
    473c:	c2 37 bf c0 	sth  %g1, [ %fp + -64 ]
    4740:	c0 27 bf e4 	clr  [ %fp + -28 ]
    4744:	82 10 20 01 	mov  1, %g1
    4748:	c0 27 bf e8 	clr  [ %fp + -24 ]
    474c:	c0 27 bf ec 	clr  [ %fp + -20 ]
    4750:	c2 27 bf f0 	st  %g1, [ %fp + -16 ]
    4754:	c0 27 bf f4 	clr  [ %fp + -12 ]
    4758:	c0 27 bf f8 	clr  [ %fp + -8 ]
    475c:	c0 27 bf fc 	clr  [ %fp + -4 ]
    4760:	ba 38 00 18 	xnor  %g0, %i0, %i5
    4764:	80 a7 40 19 	cmp  %i5, %i1
    4768:	08 80 00 03 	bleu  4774 <__GI_vsnprintf+0x54>
    476c:	c0 27 bf d8 	clr  [ %fp + -40 ]
    4770:	ba 10 00 19 	mov  %i1, %i5
    4774:	82 06 00 1d 	add  %i0, %i5, %g1
    4778:	f0 27 bf c8 	st  %i0, [ %fp + -56 ]
    477c:	f0 27 bf d0 	st  %i0, [ %fp + -48 ]
    4780:	f0 27 bf d4 	st  %i0, [ %fp + -44 ]
    4784:	c2 27 bf cc 	st  %g1, [ %fp + -52 ]
    4788:	90 07 bf c0 	add  %fp, -64, %o0
    478c:	92 10 00 1a 	mov  %i2, %o1
    4790:	40 00 00 3e 	call  4888 <_vfprintf_internal>
    4794:	94 10 00 1b 	mov  %i3, %o2
    4798:	80 a7 60 00 	cmp  %i5, 0
    479c:	02 80 00 0b 	be  47c8 <__GI_vsnprintf+0xa8>
    47a0:	b0 10 00 08 	mov  %o0, %i0
    47a4:	c2 07 bf d0 	ld  [ %fp + -48 ], %g1
    47a8:	c4 07 bf cc 	ld  [ %fp + -52 ], %g2
    47ac:	80 a0 40 02 	cmp  %g1, %g2
    47b0:	32 80 00 06 	bne,a   47c8 <__GI_vsnprintf+0xa8>
    47b4:	c0 28 40 00 	clrb  [ %g1 ]
    47b8:	82 00 7f ff 	add  %g1, -1, %g1
    47bc:	c2 27 bf d0 	st  %g1, [ %fp + -48 ]
    47c0:	c2 07 bf d0 	ld  [ %fp + -48 ], %g1
    47c4:	c0 28 40 00 	clrb  [ %g1 ]
    47c8:	81 c7 e0 08 	ret 
    47cc:	81 e8 00 00 	restore 
    47d0:	9d e3 bf 98 	save  %sp, -104, %sp
    47d4:	f2 2f bf f8 	stb  %i1, [ %fp + -8 ]
    47d8:	ba 10 00 1a 	mov  %i2, %i5
    47dc:	80 a7 60 00 	cmp  %i5, 0
    47e0:	02 80 00 08 	be  4800 <__GI_vsnprintf+0xe0>
    47e4:	90 07 bf f8 	add  %fp, -8, %o0
    47e8:	92 10 20 01 	mov  1, %o1
    47ec:	40 00 0b 84 	call  75fc <__stdio_fwrite>
    47f0:	94 10 00 18 	mov  %i0, %o2
    47f4:	80 a2 20 01 	cmp  %o0, 1
    47f8:	22 bf ff f9 	be,a   47dc <__GI_vsnprintf+0xbc>
    47fc:	ba 07 7f ff 	add  %i5, -1, %i5
    4800:	b0 26 80 1d 	sub  %i2, %i5, %i0
    4804:	81 c7 e0 08 	ret 
    4808:	81 e8 00 00 	restore 

0000480c <_fp_out_narrow>:
    480c:	9d e3 bf a0 	save  %sp, -96, %sp
    4810:	80 8e 60 80 	btst  0x80, %i1
    4814:	02 80 00 13 	be  4860 <_fp_out_narrow+0x54>
    4818:	ba 10 20 00 	clr  %i5
    481c:	40 00 04 bd 	call  5b10 <__GI_strlen>
    4820:	90 10 00 1b 	mov  %i3, %o0
    4824:	b4 26 80 08 	sub  %i2, %o0, %i2
    4828:	80 a6 a0 00 	cmp  %i2, 0
    482c:	04 80 00 0b 	ble  4858 <_fp_out_narrow+0x4c>
    4830:	b8 10 00 08 	mov  %o0, %i4
    4834:	90 10 00 18 	mov  %i0, %o0
    4838:	92 0e 60 7f 	and  %i1, 0x7f, %o1
    483c:	7f ff ff e5 	call  47d0 <__GI_vsnprintf+0xb0>
    4840:	94 10 00 1a 	mov  %i2, %o2
    4844:	80 a2 00 1a 	cmp  %o0, %i2
    4848:	12 80 00 0e 	bne  4880 <_fp_out_narrow+0x74>
    484c:	ba 10 00 08 	mov  %o0, %i5
    4850:	10 80 00 04 	b  4860 <_fp_out_narrow+0x54>
    4854:	b4 10 00 1c 	mov  %i4, %i2
    4858:	b4 10 00 08 	mov  %o0, %i2
    485c:	ba 10 20 00 	clr  %i5
    4860:	80 a6 a0 00 	cmp  %i2, 0
    4864:	04 80 00 06 	ble  487c <_fp_out_narrow+0x70>
    4868:	90 10 20 00 	clr  %o0
    486c:	90 10 00 1b 	mov  %i3, %o0
    4870:	92 10 00 1a 	mov  %i2, %o1
    4874:	40 00 0b 62 	call  75fc <__stdio_fwrite>
    4878:	94 10 00 18 	mov  %i0, %o2
    487c:	ba 07 40 08 	add  %i5, %o0, %i5
    4880:	81 c7 e0 08 	ret 
    4884:	91 e8 00 1d 	restore  %g0, %i5, %o0

00004888 <_vfprintf_internal>:
    4888:	9d e3 be 18 	save  %sp, -488, %sp
    488c:	2f 00 00 47 	sethi  %hi(0x11c00), %l7
    4890:	40 00 2d dc 	call  10000 <__sparc_get_pc_thunk.l7>
    4894:	ae 05 e0 8c 	add  %l7, 0x8c, %l7	! 11c8c <__sparc_get_pc_thunk.l7+0x1c8c>
    4898:	90 07 bf 20 	add  %fp, -224, %o0
    489c:	40 00 01 99 	call  4f00 <_ppfs_init>
    48a0:	92 10 00 19 	mov  %i1, %o1
    48a4:	80 a2 20 00 	cmp  %o0, 0
    48a8:	16 80 00 0e 	bge  48e0 <_vfprintf_internal+0x58>
    48ac:	90 07 bf 20 	add  %fp, -224, %o0
    48b0:	fa 07 bf 20 	ld  [ %fp + -224 ], %i5
    48b4:	b6 10 3f ff 	mov  -1, %i3
    48b8:	40 00 04 96 	call  5b10 <__GI_strlen>
    48bc:	90 10 00 1d 	mov  %i5, %o0
    48c0:	80 a2 20 00 	cmp  %o0, 0
    48c4:	02 80 01 8c 	be  4ef4 <_vfprintf_internal+0x66c>
    48c8:	92 10 00 08 	mov  %o0, %o1
    48cc:	90 10 00 1d 	mov  %i5, %o0
    48d0:	40 00 0b 4b 	call  75fc <__stdio_fwrite>
    48d4:	94 10 00 18 	mov  %i0, %o2
    48d8:	81 c7 e0 08 	ret 
    48dc:	91 e8 00 1b 	restore  %g0, %i3, %o0
    48e0:	40 00 01 b3 	call  4fac <_ppfs_prepargs>
    48e4:	92 10 00 1a 	mov  %i2, %o1
    48e8:	35 00 00 05 	sethi  %hi(0x1400), %i2
    48ec:	29 00 00 00 	sethi  %hi(0), %l4
    48f0:	b4 1e bf 7c 	xor  %i2, -132, %i2
    48f4:	a8 1d 3f f4 	xor  %l4, -12, %l4
    48f8:	2b 00 00 03 	sethi  %hi(0xc00), %l5
    48fc:	90 10 00 19 	mov  %i1, %o0
    4900:	aa 1d 61 b8 	xor  %l5, 0x1b8, %l5
    4904:	b6 10 20 00 	clr  %i3
    4908:	b4 05 c0 1a 	add  %l7, %i2, %i2
    490c:	a8 05 c0 14 	add  %l7, %l4, %l4
    4910:	aa 05 c0 15 	add  %l7, %l5, %l5
    4914:	c2 0e 40 00 	ldub  [ %i1 ], %g1
    4918:	80 a0 60 25 	cmp  %g1, 0x25
    491c:	02 80 00 06 	be  4934 <_vfprintf_internal+0xac>
    4920:	80 a6 40 08 	cmp  %i1, %o0
    4924:	80 a0 60 00 	cmp  %g1, 0
    4928:	32 bf ff fb 	bne,a   4914 <_vfprintf_internal+0x8c>
    492c:	b2 06 60 01 	inc  %i1
    4930:	80 a6 40 08 	cmp  %i1, %o0
    4934:	02 80 00 0d 	be  4968 <_vfprintf_internal+0xe0>
    4938:	ba 26 40 08 	sub  %i1, %o0, %i5
    493c:	80 a7 60 00 	cmp  %i5, 0
    4940:	04 80 00 06 	ble  4958 <_vfprintf_internal+0xd0>
    4944:	82 10 20 00 	clr  %g1
    4948:	92 10 00 1d 	mov  %i5, %o1
    494c:	40 00 0b 2c 	call  75fc <__stdio_fwrite>
    4950:	94 10 00 18 	mov  %i0, %o2
    4954:	82 10 00 08 	mov  %o0, %g1
    4958:	80 a0 40 1d 	cmp  %g1, %i5
    495c:	32 80 01 66 	bne,a   4ef4 <_vfprintf_internal+0x66c>
    4960:	b6 10 3f ff 	mov  -1, %i3
    4964:	b6 06 c0 01 	add  %i3, %g1, %i3
    4968:	c2 0e 40 00 	ldub  [ %i1 ], %g1
    496c:	80 a0 60 00 	cmp  %g1, 0
    4970:	22 80 01 62 	be,a   4ef8 <_vfprintf_internal+0x670>
    4974:	b0 10 00 1b 	mov  %i3, %i0
    4978:	c2 0e 60 01 	ldub  [ %i1 + 1 ], %g1
    497c:	80 a0 60 25 	cmp  %g1, 0x25
    4980:	02 80 01 59 	be  4ee4 <_vfprintf_internal+0x65c>
    4984:	90 06 60 01 	add  %i1, 1, %o0
    4988:	d0 27 bf 20 	st  %o0, [ %fp + -224 ]
    498c:	40 00 02 13 	call  51d8 <_ppfs_parsespec>
    4990:	90 07 bf 20 	add  %fp, -224, %o0
    4994:	40 00 01 95 	call  4fe8 <_ppfs_setargs>
    4998:	90 07 bf 20 	add  %fp, -224, %o0
    499c:	c2 0f bf 46 	ldub  [ %fp + -186 ], %g1
    49a0:	c8 07 bf 38 	ld  [ %fp + -200 ], %g4
    49a4:	86 00 7f ff 	add  %g1, -1, %g3
    49a8:	80 a1 20 00 	cmp  %g4, 0
    49ac:	04 80 00 06 	ble  49c4 <_vfprintf_internal+0x13c>
    49b0:	84 07 bf 70 	add  %fp, -144, %g2
    49b4:	84 00 60 04 	add  %g1, 4, %g2
    49b8:	82 07 bf 20 	add  %fp, -224, %g1
    49bc:	85 28 a0 04 	sll  %g2, 4, %g2
    49c0:	84 00 40 02 	add  %g1, %g2, %g2
    49c4:	10 80 00 06 	b  49dc <_vfprintf_internal+0x154>
    49c8:	82 10 20 00 	clr  %g1
    49cc:	82 00 60 01 	inc  %g1
    49d0:	88 07 80 04 	add  %fp, %g4, %g4
    49d4:	c4 21 3e 8c 	st  %g2, [ %g4 + -372 ]
    49d8:	84 00 a0 10 	add  %g2, 0x10, %g2
    49dc:	c8 07 bf 3c 	ld  [ %fp + -196 ], %g4
    49e0:	80 a0 40 04 	cmp  %g1, %g4
    49e4:	06 bf ff fa 	bl  49cc <_vfprintf_internal+0x144>
    49e8:	89 28 60 02 	sll  %g1, 2, %g4
    49ec:	c2 07 bf 40 	ld  [ %fp + -192 ], %g1
    49f0:	80 a0 60 00 	cmp  %g1, 0
    49f4:	12 80 00 0b 	bne  4a20 <_vfprintf_internal+0x198>
    49f8:	80 a0 60 07 	cmp  %g1, 7
    49fc:	c2 07 be 8c 	ld  [ %fp + -372 ], %g1
    4a00:	d2 07 bf 30 	ld  [ %fp + -208 ], %o1
    4a04:	d0 00 40 00 	ld  [ %g1 ], %o0
    4a08:	92 0a 6f 00 	and  %o1, 0xf00, %o1
    4a0c:	95 3e e0 1f 	sra  %i3, 0x1f, %o2
    4a10:	40 00 0b b1 	call  78d4 <_store_inttype>
    4a14:	96 10 00 1b 	mov  %i3, %o3
    4a18:	10 80 01 31 	b  4edc <_vfprintf_internal+0x654>
    4a1c:	f2 07 bf 20 	ld  [ %fp + -224 ], %i1
    4a20:	18 80 00 7d 	bgu  4c14 <_vfprintf_internal+0x38c>
    4a24:	80 a0 60 0f 	cmp  %g1, 0xf
    4a28:	05 00 00 05 	sethi  %hi(0x1400), %g2
    4a2c:	84 18 bf 74 	xor  %g2, -140, %g2
    4a30:	84 05 c0 02 	add  %l7, %g2, %g2
    4a34:	84 00 80 01 	add  %g2, %g1, %g2
    4a38:	f2 08 bf ff 	ldub  [ %g2 + -1 ], %i1
    4a3c:	80 a6 60 0a 	cmp  %i1, 0xa
    4a40:	12 80 00 0b 	bne  4a6c <_vfprintf_internal+0x1e4>
    4a44:	b8 10 20 57 	mov  0x57, %i4
    4a48:	c4 07 bf 30 	ld  [ %fp + -208 ], %g2
    4a4c:	88 08 a0 20 	and  %g2, 0x20, %g4
    4a50:	80 a0 00 04 	cmp  %g0, %g4
    4a54:	b8 40 3f ff 	addx  %g0, -1, %i4
    4a58:	80 88 a0 40 	btst  0x40, %g2
    4a5c:	b8 0f 20 2b 	and  %i4, 0x2b, %i4
    4a60:	02 80 00 03 	be  4a6c <_vfprintf_internal+0x1e4>
    4a64:	b8 07 20 2c 	add  %i4, 0x2c, %i4
    4a68:	b8 17 20 80 	or  %i4, 0x80, %i4
    4a6c:	80 a0 60 05 	cmp  %g1, 5
    4a70:	38 80 00 0a 	bgu,a   4a98 <_vfprintf_internal+0x210>
    4a74:	b2 20 00 19 	neg  %i1
    4a78:	80 a0 60 03 	cmp  %g1, 3
    4a7c:	02 80 00 06 	be  4a94 <_vfprintf_internal+0x20c>
    4a80:	80 a0 60 01 	cmp  %g1, 1
    4a84:	12 80 00 05 	bne  4a98 <_vfprintf_internal+0x210>
    4a88:	ba 10 20 06 	mov  6, %i5
    4a8c:	10 80 00 05 	b  4aa0 <_vfprintf_internal+0x218>
    4a90:	c4 07 bf 24 	ld  [ %fp + -220 ], %g2
    4a94:	b8 10 20 37 	mov  0x37, %i4
    4a98:	ba 10 20 0b 	mov  0xb, %i5
    4a9c:	c4 07 bf 24 	ld  [ %fp + -220 ], %g2
    4aa0:	80 a0 a0 00 	cmp  %g2, 0
    4aa4:	16 80 00 03 	bge  4ab0 <_vfprintf_internal+0x228>
    4aa8:	a4 10 20 20 	mov  0x20, %l2
    4aac:	e4 0f bf 37 	ldub  [ %fp + -201 ], %l2
    4ab0:	80 a0 60 01 	cmp  %g1, 1
    4ab4:	02 80 00 07 	be  4ad0 <_vfprintf_internal+0x248>
    4ab8:	90 10 24 00 	mov  0x400, %o0
    4abc:	82 00 e0 0a 	add  %g3, 0xa, %g1
    4ac0:	83 28 60 02 	sll  %g1, 2, %g1
    4ac4:	82 07 80 01 	add  %fp, %g1, %g1
    4ac8:	d0 00 7f 20 	ld  [ %g1 + -224 ], %o0
    4acc:	90 0a 2f 00 	and  %o0, 0xf00, %o0
    4ad0:	94 10 00 19 	mov  %i1, %o2
    4ad4:	40 00 0b 5e 	call  784c <_load_inttype>
    4ad8:	d2 07 be 8c 	ld  [ %fp + -372 ], %o1
    4adc:	84 10 00 08 	mov  %o0, %g2
    4ae0:	86 10 00 09 	mov  %o1, %g3
    4ae4:	98 10 00 1c 	mov  %i4, %o4
    4ae8:	90 07 bf 1f 	add  %fp, -225, %o0
    4aec:	92 10 00 02 	mov  %g2, %o1
    4af0:	94 10 00 03 	mov  %g3, %o2
    4af4:	40 00 0b 87 	call  7910 <_uintmaxtostr>
    4af8:	96 10 00 19 	mov  %i1, %o3
    4afc:	c2 07 bf 40 	ld  [ %fp + -192 ], %g1
    4b00:	80 a0 60 05 	cmp  %g1, 5
    4b04:	08 80 00 13 	bleu  4b50 <_vfprintf_internal+0x2c8>
    4b08:	b8 10 00 08 	mov  %o0, %i4
    4b0c:	c4 0a 00 00 	ldub  [ %o0 ], %g2
    4b10:	80 a0 a0 2d 	cmp  %g2, 0x2d
    4b14:	12 80 00 07 	bne  4b30 <_vfprintf_internal+0x2a8>
    4b18:	c4 07 bf 30 	ld  [ %fp + -208 ], %g2
    4b1c:	84 10 a0 02 	or  %g2, 2, %g2
    4b20:	b8 02 20 01 	add  %o0, 1, %i4
    4b24:	c4 27 bf 30 	st  %g2, [ %fp + -208 ]
    4b28:	10 80 00 0a 	b  4b50 <_vfprintf_internal+0x2c8>
    4b2c:	ba 10 20 02 	mov  2, %i5
    4b30:	80 88 a0 02 	btst  2, %g2
    4b34:	32 80 00 07 	bne,a   4b50 <_vfprintf_internal+0x2c8>
    4b38:	ba 10 20 00 	clr  %i5
    4b3c:	80 88 a0 01 	btst  1, %g2
    4b40:	32 80 00 04 	bne,a   4b50 <_vfprintf_internal+0x2c8>
    4b44:	ba 10 20 04 	mov  4, %i5
    4b48:	10 80 00 03 	b  4b54 <_vfprintf_internal+0x2cc>
    4b4c:	b2 07 bf 1f 	add  %fp, -225, %i1
    4b50:	b2 07 bf 1f 	add  %fp, -225, %i1
    4b54:	e0 07 bf 24 	ld  [ %fp + -220 ], %l0
    4b58:	80 a4 20 00 	cmp  %l0, 0
    4b5c:	16 80 00 03 	bge  4b68 <_vfprintf_internal+0x2e0>
    4b60:	b2 26 40 1c 	sub  %i1, %i4, %i1
    4b64:	a0 10 20 01 	mov  1, %l0
    4b68:	c4 07 bf 30 	ld  [ %fp + -208 ], %g2
    4b6c:	80 88 a0 10 	btst  0x10, %g2
    4b70:	22 80 00 13 	be,a   4bbc <_vfprintf_internal+0x334>
    4b74:	c4 0f 00 00 	ldub  [ %i4 ], %g2
    4b78:	80 a0 60 02 	cmp  %g1, 2
    4b7c:	28 80 00 0f 	bleu,a   4bb8 <_vfprintf_internal+0x330>
    4b80:	ba 10 20 06 	mov  6, %i5
    4b84:	80 a0 60 03 	cmp  %g1, 3
    4b88:	22 80 00 0c 	be,a   4bb8 <_vfprintf_internal+0x330>
    4b8c:	ba 10 20 09 	mov  9, %i5
    4b90:	80 a0 60 04 	cmp  %g1, 4
    4b94:	12 80 00 09 	bne  4bb8 <_vfprintf_internal+0x330>
    4b98:	80 a4 00 19 	cmp  %l0, %i1
    4b9c:	18 80 00 08 	bgu  4bbc <_vfprintf_internal+0x334>
    4ba0:	c4 0f 00 00 	ldub  [ %i4 ], %g2
    4ba4:	80 a0 a0 30 	cmp  %g2, 0x30
    4ba8:	02 80 00 05 	be  4bbc <_vfprintf_internal+0x334>
    4bac:	a0 10 20 01 	mov  1, %l0
    4bb0:	10 80 00 03 	b  4bbc <_vfprintf_internal+0x334>
    4bb4:	a0 06 60 01 	add  %i1, 1, %l0
    4bb8:	c4 0f 00 00 	ldub  [ %i4 ], %g2
    4bbc:	80 a0 a0 30 	cmp  %g2, 0x30
    4bc0:	12 80 00 11 	bne  4c04 <_vfprintf_internal+0x37c>
    4bc4:	80 a4 00 19 	cmp  %l0, %i1
    4bc8:	80 a7 60 05 	cmp  %i5, 5
    4bcc:	34 80 00 02 	bg,a   4bd4 <_vfprintf_internal+0x34c>
    4bd0:	ba 10 20 0b 	mov  0xb, %i5
    4bd4:	80 a0 60 01 	cmp  %g1, 1
    4bd8:	02 80 00 06 	be  4bf0 <_vfprintf_internal+0x368>
    4bdc:	80 a4 20 00 	cmp  %l0, 0
    4be0:	22 80 00 78 	be,a   4dc0 <_vfprintf_internal+0x538>
    4be4:	b2 10 20 00 	clr  %i1
    4be8:	10 80 00 07 	b  4c04 <_vfprintf_internal+0x37c>
    4bec:	80 a4 00 19 	cmp  %l0, %i1
    4bf0:	39 00 00 00 	sethi  %hi(0), %i4
    4bf4:	b2 10 20 05 	mov  5, %i1
    4bf8:	b8 1f 3f 54 	xor  %i4, -172, %i4
    4bfc:	10 80 00 71 	b  4dc0 <_vfprintf_internal+0x538>
    4c00:	b8 05 c0 1c 	add  %l7, %i4, %i4
    4c04:	28 80 00 79 	bleu,a   4de8 <_vfprintf_internal+0x560>
    4c08:	a0 10 20 00 	clr  %l0
    4c0c:	10 80 00 77 	b  4de8 <_vfprintf_internal+0x560>
    4c10:	a0 24 00 19 	sub  %l0, %i1, %l0
    4c14:	18 80 00 1c 	bgu  4c84 <_vfprintf_internal+0x3fc>
    4c18:	80 a0 60 11 	cmp  %g1, 0x11
    4c1c:	c2 07 bf 30 	ld  [ %fp + -208 ], %g1
    4c20:	80 88 68 00 	btst  0x800, %g1
    4c24:	02 80 00 05 	be  4c38 <_vfprintf_internal+0x3b0>
    4c28:	c2 07 be 8c 	ld  [ %fp + -372 ], %g1
    4c2c:	e0 18 40 00 	ldd  [ %g1 ], %l0
    4c30:	10 80 00 0a 	b  4c58 <_vfprintf_internal+0x3d0>
    4c34:	e4 18 60 08 	ldd  [ %g1 + 8 ], %l2
    4c38:	d0 18 40 00 	ldd  [ %g1 ], %o0
    4c3c:	82 07 be 78 	add  %fp, -392, %g1
    4c40:	c2 23 a0 40 	st  %g1, [ %sp + 0x40 ]
    4c44:	40 00 09 8d 	call  7278 <_Q_dtoq>
    4c48:	01 00 00 00 	nop 
    4c4c:	00 00 00 10 	unimp  0x10
    4c50:	e0 1f be 78 	ldd  [ %fp + -392 ], %l0
    4c54:	e4 1f be 80 	ldd  [ %fp + -384 ], %l2
    4c58:	e0 3f be 78 	std  %l0, [ %fp + -392 ]
    4c5c:	e4 3f be 80 	std  %l2, [ %fp + -384 ]
    4c60:	90 10 00 18 	mov  %i0, %o0
    4c64:	92 07 be 78 	add  %fp, -392, %o1
    4c68:	94 07 bf 24 	add  %fp, -220, %o2
    4c6c:	17 00 00 47 	sethi  %hi(0x11c00), %o3
    4c70:	96 1a fe f0 	xor  %o3, -272, %o3
    4c74:	40 00 0b 71 	call  7a38 <_fpmaxtostr>
    4c78:	96 05 c0 0b 	add  %l7, %o3, %o3
    4c7c:	10 80 00 48 	b  4d9c <_vfprintf_internal+0x514>
    4c80:	80 a2 20 00 	cmp  %o0, 0
    4c84:	08 80 00 9a 	bleu  4eec <_vfprintf_internal+0x664>
    4c88:	80 a0 60 13 	cmp  %g1, 0x13
    4c8c:	18 80 00 2a 	bgu  4d34 <_vfprintf_internal+0x4ac>
    4c90:	80 a0 60 14 	cmp  %g1, 0x14
    4c94:	80 a0 60 13 	cmp  %g1, 0x13
    4c98:	12 80 00 1e 	bne  4d10 <_vfprintf_internal+0x488>
    4c9c:	c2 07 be 8c 	ld  [ %fp + -372 ], %g1
    4ca0:	f8 00 40 00 	ld  [ %g1 ], %i4
    4ca4:	80 a7 20 00 	cmp  %i4, 0
    4ca8:	02 80 00 0d 	be  4cdc <_vfprintf_internal+0x454>
    4cac:	c2 07 bf 24 	ld  [ %fp + -220 ], %g1
    4cb0:	c2 07 bf 24 	ld  [ %fp + -220 ], %g1
    4cb4:	80 a0 60 00 	cmp  %g1, 0
    4cb8:	06 80 00 03 	bl  4cc4 <_vfprintf_internal+0x43c>
    4cbc:	92 10 3f ff 	mov  -1, %o1
    4cc0:	92 10 00 01 	mov  %g1, %o1
    4cc4:	90 10 00 1c 	mov  %i4, %o0
    4cc8:	40 00 09 58 	call  7228 <__GI_strnlen>
    4ccc:	a4 10 20 20 	mov  0x20, %l2
    4cd0:	ba 10 20 0b 	mov  0xb, %i5
    4cd4:	10 80 00 3b 	b  4dc0 <_vfprintf_internal+0x538>
    4cd8:	b2 10 00 08 	mov  %o0, %i1
    4cdc:	80 a0 60 00 	cmp  %g1, 0
    4ce0:	06 80 00 3a 	bl  4dc8 <_vfprintf_internal+0x540>
    4ce4:	80 a0 60 05 	cmp  %g1, 5
    4ce8:	39 00 00 00 	sethi  %hi(0), %i4
    4cec:	a4 10 20 20 	mov  0x20, %l2
    4cf0:	b8 1f 3f 5c 	xor  %i4, -164, %i4
    4cf4:	ba 10 20 0b 	mov  0xb, %i5
    4cf8:	a0 10 20 00 	clr  %l0
    4cfc:	b2 10 20 00 	clr  %i1
    4d00:	08 80 00 3a 	bleu  4de8 <_vfprintf_internal+0x560>
    4d04:	b8 05 c0 1c 	add  %l7, %i4, %i4
    4d08:	10 80 00 38 	b  4de8 <_vfprintf_internal+0x560>
    4d0c:	b2 10 20 06 	mov  6, %i1
    4d10:	c2 00 40 00 	ld  [ %g1 ], %g1
    4d14:	b8 07 be a0 	add  %fp, -352, %i4
    4d18:	c2 2f be a0 	stb  %g1, [ %fp + -352 ]
    4d1c:	c0 2f be a1 	clrb  [ %fp + -351 ]
    4d20:	a4 10 20 20 	mov  0x20, %l2
    4d24:	ba 10 20 0b 	mov  0xb, %i5
    4d28:	a0 10 20 00 	clr  %l0
    4d2c:	10 80 00 2f 	b  4de8 <_vfprintf_internal+0x560>
    4d30:	b2 10 20 01 	mov  1, %i1
    4d34:	32 80 00 0b 	bne,a   4d60 <_vfprintf_internal+0x4d8>
    4d38:	c4 05 00 00 	ld  [ %l4 ], %g2
    4d3c:	03 00 00 00 	sethi  %hi(0), %g1
    4d40:	82 18 7f fc 	xor  %g1, -4, %g1
    4d44:	01 00 00 00 	nop 
    4d48:	92 07 be a0 	add  %fp, -352, %o1
    4d4c:	d0 01 c0 01 	ld  [ %g7 + %g1 ], %o0
    4d50:	40 00 09 42 	call  7258 <__GI___glibc_strerror_r>
    4d54:	94 10 20 80 	mov  0x80, %o2
    4d58:	10 bf ff d6 	b  4cb0 <_vfprintf_internal+0x428>
    4d5c:	b8 10 00 08 	mov  %o0, %i4
    4d60:	82 10 00 02 	mov  %g2, %g1
    4d64:	86 00 a0 0a 	add  %g2, 0xa, %g3
    4d68:	fa 08 40 00 	ldub  [ %g1 ], %i5
    4d6c:	c8 07 bf 2c 	ld  [ %fp + -212 ], %g4
    4d70:	80 a7 40 04 	cmp  %i5, %g4
    4d74:	32 80 00 0e 	bne,a   4dac <_vfprintf_internal+0x524>
    4d78:	82 00 60 01 	inc  %g1
    4d7c:	82 20 40 02 	sub  %g1, %g2, %g1
    4d80:	90 10 00 18 	mov  %i0, %o0
    4d84:	83 28 60 02 	sll  %g1, 2, %g1
    4d88:	92 07 bf 24 	add  %fp, -220, %o1
    4d8c:	c2 05 40 01 	ld  [ %l5 + %g1 ], %g1
    4d90:	9f c0 40 00 	call  %g1
    4d94:	94 07 be 8c 	add  %fp, -372, %o2
    4d98:	80 a2 20 00 	cmp  %o0, 0
    4d9c:	26 80 00 56 	bl,a   4ef4 <_vfprintf_internal+0x66c>
    4da0:	b6 10 3f ff 	mov  -1, %i3
    4da4:	10 80 00 4d 	b  4ed8 <_vfprintf_internal+0x650>
    4da8:	b6 06 c0 08 	add  %i3, %o0, %i3
    4dac:	80 a0 40 03 	cmp  %g1, %g3
    4db0:	2a bf ff ef 	bcs,a   4d6c <_vfprintf_internal+0x4e4>
    4db4:	fa 08 40 00 	ldub  [ %g1 ], %i5
    4db8:	10 80 00 4f 	b  4ef4 <_vfprintf_internal+0x66c>
    4dbc:	b6 10 3f ff 	mov  -1, %i3
    4dc0:	10 80 00 0a 	b  4de8 <_vfprintf_internal+0x560>
    4dc4:	a0 10 20 00 	clr  %l0
    4dc8:	39 00 00 00 	sethi  %hi(0), %i4
    4dcc:	a4 10 20 20 	mov  0x20, %l2
    4dd0:	b8 1f 3f 5c 	xor  %i4, -164, %i4
    4dd4:	ba 10 20 0b 	mov  0xb, %i5
    4dd8:	b8 05 c0 1c 	add  %l7, %i4, %i4
    4ddc:	a0 10 20 00 	clr  %l0
    4de0:	10 80 00 02 	b  4de8 <_vfprintf_internal+0x560>
    4de4:	b2 10 20 06 	mov  6, %i1
    4de8:	80 a7 60 0b 	cmp  %i5, 0xb
    4dec:	02 80 00 07 	be  4e08 <_vfprintf_internal+0x580>
    4df0:	82 04 00 19 	add  %l0, %i1, %g1
    4df4:	80 a7 60 05 	cmp  %i5, 5
    4df8:	14 80 00 03 	bg  4e04 <_vfprintf_internal+0x57c>
    4dfc:	84 10 20 02 	mov  2, %g2
    4e00:	84 10 20 01 	mov  1, %g2
    4e04:	82 00 40 02 	add  %g1, %g2, %g1
    4e08:	c4 07 bf 28 	ld  [ %fp + -216 ], %g2
    4e0c:	80 a0 80 01 	cmp  %g2, %g1
    4e10:	08 80 00 03 	bleu  4e1c <_vfprintf_internal+0x594>
    4e14:	a2 10 20 00 	clr  %l1
    4e18:	a2 20 80 01 	sub  %g2, %g1, %l1
    4e1c:	b6 00 40 1b 	add  %g1, %i3, %i3
    4e20:	a4 0c a0 ff 	and  %l2, 0xff, %l2
    4e24:	80 a4 a0 30 	cmp  %l2, 0x30
    4e28:	12 80 00 04 	bne  4e38 <_vfprintf_internal+0x5b0>
    4e2c:	b6 06 c0 11 	add  %i3, %l1, %i3
    4e30:	a0 04 00 11 	add  %l0, %l1, %l0
    4e34:	a2 10 20 00 	clr  %l1
    4e38:	c2 07 bf 30 	ld  [ %fp + -208 ], %g1
    4e3c:	80 88 60 08 	btst  8, %g1
    4e40:	12 80 00 0a 	bne  4e68 <_vfprintf_internal+0x5e0>
    4e44:	92 10 00 18 	mov  %i0, %o1
    4e48:	90 10 00 18 	mov  %i0, %o0
    4e4c:	92 10 20 20 	mov  0x20, %o1
    4e50:	7f ff fe 60 	call  47d0 <__GI_vsnprintf+0xb0>
    4e54:	94 10 00 11 	mov  %l1, %o2
    4e58:	80 a2 00 11 	cmp  %o0, %l1
    4e5c:	12 80 00 24 	bne  4eec <_vfprintf_internal+0x664>
    4e60:	a2 10 20 00 	clr  %l1
    4e64:	92 10 00 18 	mov  %i0, %o1
    4e68:	40 00 02 59 	call  57cc <__GI_fputs_unlocked>
    4e6c:	90 06 80 1d 	add  %i2, %i5, %o0
    4e70:	90 10 00 18 	mov  %i0, %o0
    4e74:	92 10 20 30 	mov  0x30, %o1
    4e78:	7f ff fe 56 	call  47d0 <__GI_vsnprintf+0xb0>
    4e7c:	94 10 00 10 	mov  %l0, %o2
    4e80:	80 a2 00 10 	cmp  %o0, %l0
    4e84:	12 80 00 1a 	bne  4eec <_vfprintf_internal+0x664>
    4e88:	80 a6 60 00 	cmp  %i1, 0
    4e8c:	12 80 00 0a 	bne  4eb4 <_vfprintf_internal+0x62c>
    4e90:	90 10 00 18 	mov  %i0, %o0
    4e94:	92 10 20 20 	mov  0x20, %o1
    4e98:	7f ff fe 4e 	call  47d0 <__GI_vsnprintf+0xb0>
    4e9c:	94 10 00 11 	mov  %l1, %o2
    4ea0:	80 a2 00 11 	cmp  %o0, %l1
    4ea4:	22 80 00 0e 	be,a   4edc <_vfprintf_internal+0x654>
    4ea8:	f2 07 bf 20 	ld  [ %fp + -224 ], %i1
    4eac:	10 80 00 12 	b  4ef4 <_vfprintf_internal+0x66c>
    4eb0:	b6 10 3f ff 	mov  -1, %i3
    4eb4:	90 10 00 1c 	mov  %i4, %o0
    4eb8:	92 10 00 19 	mov  %i1, %o1
    4ebc:	40 00 09 d0 	call  75fc <__stdio_fwrite>
    4ec0:	94 10 00 18 	mov  %i0, %o2
    4ec4:	80 a2 00 19 	cmp  %o0, %i1
    4ec8:	32 80 00 0b 	bne,a   4ef4 <_vfprintf_internal+0x66c>
    4ecc:	b6 10 3f ff 	mov  -1, %i3
    4ed0:	10 bf ff f1 	b  4e94 <_vfprintf_internal+0x60c>
    4ed4:	90 10 00 18 	mov  %i0, %o0
    4ed8:	f2 07 bf 20 	ld  [ %fp + -224 ], %i1
    4edc:	10 bf fe 8e 	b  4914 <_vfprintf_internal+0x8c>
    4ee0:	90 10 00 19 	mov  %i1, %o0
    4ee4:	10 bf fe 8c 	b  4914 <_vfprintf_internal+0x8c>
    4ee8:	b2 06 60 02 	add  %i1, 2, %i1
    4eec:	10 80 00 02 	b  4ef4 <_vfprintf_internal+0x66c>
    4ef0:	b6 10 3f ff 	mov  -1, %i3
    4ef4:	b0 10 00 1b 	mov  %i3, %i0
    4ef8:	81 c7 e0 08 	ret 
    4efc:	81 e8 00 00 	restore 

00004f00 <_ppfs_init>:
    4f00:	9d e3 bf a0 	save  %sp, -96, %sp
    4f04:	92 10 20 00 	clr  %o1
    4f08:	90 10 00 18 	mov  %i0, %o0
    4f0c:	40 00 02 7f 	call  5908 <__GI_memset>
    4f10:	94 10 20 e0 	mov  0xe0, %o2
    4f14:	c2 06 20 18 	ld  [ %i0 + 0x18 ], %g1
    4f18:	82 00 7f ff 	add  %g1, -1, %g1
    4f1c:	f2 26 00 00 	st  %i1, [ %i0 ]
    4f20:	c2 26 20 18 	st  %g1, [ %i0 + 0x18 ]
    4f24:	84 06 20 28 	add  %i0, 0x28, %g2
    4f28:	82 10 20 09 	mov  9, %g1
    4f2c:	86 10 20 08 	mov  8, %g3
    4f30:	c6 20 80 00 	st  %g3, [ %g2 ]
    4f34:	82 80 7f ff 	addcc  %g1, -1, %g1
    4f38:	12 bf ff fe 	bne  4f30 <_ppfs_init+0x30>
    4f3c:	84 00 a0 04 	add  %g2, 4, %g2
    4f40:	10 80 00 12 	b  4f88 <_ppfs_init+0x88>
    4f44:	82 10 00 19 	mov  %i1, %g1
    4f48:	32 80 00 10 	bne,a   4f88 <_ppfs_init+0x88>
    4f4c:	82 00 60 01 	inc  %g1
    4f50:	84 00 60 01 	add  %g1, 1, %g2
    4f54:	c2 08 60 01 	ldub  [ %g1 + 1 ], %g1
    4f58:	80 a0 60 25 	cmp  %g1, 0x25
    4f5c:	02 80 00 0a 	be  4f84 <_ppfs_init+0x84>
    4f60:	82 10 00 02 	mov  %g2, %g1
    4f64:	c4 26 00 00 	st  %g2, [ %i0 ]
    4f68:	40 00 00 9c 	call  51d8 <_ppfs_parsespec>
    4f6c:	90 10 00 18 	mov  %i0, %o0
    4f70:	80 a2 20 00 	cmp  %o0, 0
    4f74:	06 80 00 0c 	bl  4fa4 <_ppfs_init+0xa4>
    4f78:	01 00 00 00 	nop 
    4f7c:	10 80 00 03 	b  4f88 <_ppfs_init+0x88>
    4f80:	c2 06 00 00 	ld  [ %i0 ], %g1
    4f84:	82 00 60 01 	inc  %g1
    4f88:	c4 08 40 00 	ldub  [ %g1 ], %g2
    4f8c:	80 a0 a0 00 	cmp  %g2, 0
    4f90:	32 bf ff ee 	bne,a   4f48 <_ppfs_init+0x48>
    4f94:	80 a0 a0 25 	cmp  %g2, 0x25
    4f98:	f2 26 00 00 	st  %i1, [ %i0 ]
    4f9c:	81 c7 e0 08 	ret 
    4fa0:	91 e8 20 00 	restore  %g0, 0, %o0
    4fa4:	81 c7 e0 08 	ret 
    4fa8:	91 e8 3f ff 	restore  %g0, -1, %o0

00004fac <_ppfs_prepargs>:
    4fac:	9d e3 bf a0 	save  %sp, -96, %sp
    4fb0:	f2 26 20 4c 	st  %i1, [ %i0 + 0x4c ]
    4fb4:	fa 06 20 18 	ld  [ %i0 + 0x18 ], %i5
    4fb8:	80 a7 60 00 	cmp  %i5, 0
    4fbc:	04 80 00 09 	ble  4fe0 <_ppfs_prepargs+0x34>
    4fc0:	01 00 00 00 	nop 
    4fc4:	fa 26 20 1c 	st  %i5, [ %i0 + 0x1c ]
    4fc8:	c0 26 20 18 	clr  [ %i0 + 0x18 ]
    4fcc:	c0 26 20 04 	clr  [ %i0 + 4 ]
    4fd0:	c0 26 20 08 	clr  [ %i0 + 8 ]
    4fd4:	40 00 00 05 	call  4fe8 <_ppfs_setargs>
    4fd8:	90 10 00 18 	mov  %i0, %o0
    4fdc:	fa 26 20 18 	st  %i5, [ %i0 + 0x18 ]
    4fe0:	81 c7 e0 08 	ret 
    4fe4:	81 e8 00 00 	restore 

00004fe8 <_ppfs_setargs>:
    4fe8:	9d e3 bf 90 	save  %sp, -112, %sp
    4fec:	c2 06 20 18 	ld  [ %i0 + 0x18 ], %g1
    4ff0:	c4 06 20 08 	ld  [ %i0 + 8 ], %g2
    4ff4:	80 a0 60 00 	cmp  %g1, 0
    4ff8:	12 80 00 59 	bne  515c <_ppfs_setargs+0x174>
    4ffc:	03 20 00 00 	sethi  %hi(0x80000000), %g1
    5000:	80 a0 80 01 	cmp  %g2, %g1
    5004:	32 80 00 0a 	bne,a   502c <_ppfs_setargs+0x44>
    5008:	c4 06 20 04 	ld  [ %i0 + 4 ], %g2
    500c:	c2 06 20 4c 	ld  [ %i0 + 0x4c ], %g1
    5010:	c4 00 40 00 	ld  [ %g1 ], %g2
    5014:	82 00 60 04 	add  %g1, 4, %g1
    5018:	c4 26 20 50 	st  %g2, [ %i0 + 0x50 ]
    501c:	c4 26 20 08 	st  %g2, [ %i0 + 8 ]
    5020:	c2 26 20 4c 	st  %g1, [ %i0 + 0x4c ]
    5024:	c4 06 20 04 	ld  [ %i0 + 4 ], %g2
    5028:	03 20 00 00 	sethi  %hi(0x80000000), %g1
    502c:	80 a0 80 01 	cmp  %g2, %g1
    5030:	12 80 00 08 	bne  5050 <_ppfs_setargs+0x68>
    5034:	ba 06 20 50 	add  %i0, 0x50, %i5
    5038:	c2 06 20 4c 	ld  [ %i0 + 0x4c ], %g1
    503c:	c4 00 40 00 	ld  [ %g1 ], %g2
    5040:	82 00 60 04 	add  %g1, 4, %g1
    5044:	c4 26 20 50 	st  %g2, [ %i0 + 0x50 ]
    5048:	c4 26 20 04 	st  %g2, [ %i0 + 4 ]
    504c:	c2 26 20 4c 	st  %g1, [ %i0 + 0x4c ]
    5050:	10 80 00 3d 	b  5144 <_ppfs_setargs+0x15c>
    5054:	b8 10 20 00 	clr  %i4
    5058:	83 28 60 02 	sll  %g1, 2, %g1
    505c:	c2 06 00 01 	ld  [ %i0 + %g1 ], %g1
    5060:	80 a0 60 08 	cmp  %g1, 8
    5064:	02 80 00 38 	be  5144 <_ppfs_setargs+0x15c>
    5068:	b8 07 20 01 	inc  %i4
    506c:	80 a0 60 08 	cmp  %g1, 8
    5070:	14 80 00 0d 	bg  50a4 <_ppfs_setargs+0xbc>
    5074:	80 a0 64 00 	cmp  %g1, 0x400
    5078:	80 a0 60 02 	cmp  %g1, 2
    507c:	22 80 00 2d 	be,a   5130 <_ppfs_setargs+0x148>
    5080:	c2 06 20 4c 	ld  [ %i0 + 0x4c ], %g1
    5084:	14 80 00 04 	bg  5094 <_ppfs_setargs+0xac>
    5088:	80 a0 60 07 	cmp  %g1, 7
    508c:	10 80 00 29 	b  5130 <_ppfs_setargs+0x148>
    5090:	c2 06 20 4c 	ld  [ %i0 + 0x4c ], %g1
    5094:	32 80 00 27 	bne,a   5130 <_ppfs_setargs+0x148>
    5098:	c2 06 20 4c 	ld  [ %i0 + 0x4c ], %g1
    509c:	10 80 00 15 	b  50f0 <_ppfs_setargs+0x108>
    50a0:	f6 06 20 4c 	ld  [ %i0 + 0x4c ], %i3
    50a4:	02 80 00 22 	be  512c <_ppfs_setargs+0x144>
    50a8:	80 a0 64 00 	cmp  %g1, 0x400
    50ac:	24 80 00 21 	ble,a   5130 <_ppfs_setargs+0x148>
    50b0:	c2 06 20 4c 	ld  [ %i0 + 0x4c ], %g1
    50b4:	80 a0 68 00 	cmp  %g1, 0x800
    50b8:	02 80 00 07 	be  50d4 <_ppfs_setargs+0xec>
    50bc:	f6 06 20 4c 	ld  [ %i0 + 0x4c ], %i3
    50c0:	80 a0 68 07 	cmp  %g1, 0x807
    50c4:	32 80 00 1b 	bne,a   5130 <_ppfs_setargs+0x148>
    50c8:	c2 06 20 4c 	ld  [ %i0 + 0x4c ], %g1
    50cc:	10 80 00 12 	b  5114 <_ppfs_setargs+0x12c>
    50d0:	c2 06 c0 00 	ld  [ %i3 ], %g1
    50d4:	90 07 bf f0 	add  %fp, -16, %o0
    50d8:	92 10 00 1b 	mov  %i3, %o1
    50dc:	40 00 04 36 	call  61b4 <__GI_memcpy>
    50e0:	94 10 20 08 	mov  8, %o2
    50e4:	c4 1f bf f0 	ldd  [ %fp + -16 ], %g2
    50e8:	10 80 00 08 	b  5108 <_ppfs_setargs+0x120>
    50ec:	c4 3f 40 00 	std  %g2, [ %i5 ]
    50f0:	90 07 bf f8 	add  %fp, -8, %o0
    50f4:	92 10 00 1b 	mov  %i3, %o1
    50f8:	40 00 04 2f 	call  61b4 <__GI_memcpy>
    50fc:	94 10 20 08 	mov  8, %o2
    5100:	d1 1f bf f8 	ldd  [ %fp + -8 ], %f8
    5104:	d1 3f 40 00 	std  %f8, [ %i5 ]
    5108:	b6 06 e0 08 	add  %i3, 8, %i3
    510c:	10 80 00 0d 	b  5140 <_ppfs_setargs+0x158>
    5110:	f6 26 20 4c 	st  %i3, [ %i0 + 0x4c ]
    5114:	b6 06 e0 04 	add  %i3, 4, %i3
    5118:	d0 18 40 00 	ldd  [ %g1 ], %o0
    511c:	d4 18 60 08 	ldd  [ %g1 + 8 ], %o2
    5120:	d0 3f 40 00 	std  %o0, [ %i5 ]
    5124:	10 bf ff fa 	b  510c <_ppfs_setargs+0x124>
    5128:	d4 3f 60 08 	std  %o2, [ %i5 + 8 ]
    512c:	c2 06 20 4c 	ld  [ %i0 + 0x4c ], %g1
    5130:	c4 00 40 00 	ld  [ %g1 ], %g2
    5134:	c4 27 40 00 	st  %g2, [ %i5 ]
    5138:	82 00 60 04 	add  %g1, 4, %g1
    513c:	c2 26 20 4c 	st  %g1, [ %i0 + 0x4c ]
    5140:	ba 07 60 10 	add  %i5, 0x10, %i5
    5144:	c2 06 20 1c 	ld  [ %i0 + 0x1c ], %g1
    5148:	80 a7 00 01 	cmp  %i4, %g1
    514c:	26 bf ff c3 	bl,a   5058 <_ppfs_setargs+0x70>
    5150:	82 07 20 0a 	add  %i4, 0xa, %g1
    5154:	10 80 00 15 	b  51a8 <_ppfs_setargs+0x1c0>
    5158:	c2 06 20 08 	ld  [ %i0 + 8 ], %g1
    515c:	80 a0 80 01 	cmp  %g2, %g1
    5160:	32 80 00 08 	bne,a   5180 <_ppfs_setargs+0x198>
    5164:	c4 06 20 04 	ld  [ %i0 + 4 ], %g2
    5168:	c2 0e 20 24 	ldub  [ %i0 + 0x24 ], %g1
    516c:	82 00 60 04 	add  %g1, 4, %g1
    5170:	83 28 60 04 	sll  %g1, 4, %g1
    5174:	c2 06 00 01 	ld  [ %i0 + %g1 ], %g1
    5178:	c2 26 20 08 	st  %g1, [ %i0 + 8 ]
    517c:	c4 06 20 04 	ld  [ %i0 + 4 ], %g2
    5180:	03 20 00 00 	sethi  %hi(0x80000000), %g1
    5184:	80 a0 80 01 	cmp  %g2, %g1
    5188:	32 80 00 08 	bne,a   51a8 <_ppfs_setargs+0x1c0>
    518c:	c2 06 20 08 	ld  [ %i0 + 8 ], %g1
    5190:	c2 0e 20 25 	ldub  [ %i0 + 0x25 ], %g1
    5194:	82 00 60 04 	add  %g1, 4, %g1
    5198:	83 28 60 04 	sll  %g1, 4, %g1
    519c:	c2 06 00 01 	ld  [ %i0 + %g1 ], %g1
    51a0:	c2 26 20 04 	st  %g1, [ %i0 + 4 ]
    51a4:	c2 06 20 08 	ld  [ %i0 + 8 ], %g1
    51a8:	80 a0 60 00 	cmp  %g1, 0
    51ac:	16 80 00 09 	bge  51d0 <_ppfs_setargs+0x1e8>
    51b0:	82 20 00 01 	neg  %g1
    51b4:	c2 26 20 08 	st  %g1, [ %i0 + 8 ]
    51b8:	c2 06 20 10 	ld  [ %i0 + 0x10 ], %g1
    51bc:	82 08 7f fe 	and  %g1, -2, %g1
    51c0:	82 10 60 08 	or  %g1, 8, %g1
    51c4:	c2 26 20 10 	st  %g1, [ %i0 + 0x10 ]
    51c8:	82 10 20 20 	mov  0x20, %g1
    51cc:	c2 26 20 14 	st  %g1, [ %i0 + 0x14 ]
    51d0:	81 c7 e0 08 	ret 
    51d4:	81 e8 00 00 	restore 

000051d8 <_ppfs_parsespec>:
    51d8:	9d e3 bf 78 	save  %sp, -136, %sp
    51dc:	82 10 20 08 	mov  8, %g1
    51e0:	2f 00 00 44 	sethi  %hi(0x11000), %l7
    51e4:	40 00 2b 87 	call  10000 <__sparc_get_pc_thunk.l7>
    51e8:	ae 05 e3 38 	add  %l7, 0x338, %l7	! 11338 <__sparc_get_pc_thunk.l7+0x1338>
    51ec:	c2 27 bf e4 	st  %g1, [ %fp + -28 ]
    51f0:	c2 27 bf e8 	st  %g1, [ %fp + -24 ]
    51f4:	19 00 00 00 	sethi  %hi(0), %o4
    51f8:	03 03 33 33 	sethi  %hi(0xccccc00), %g1
    51fc:	98 1b 3f f8 	xor  %o4, -8, %o4
    5200:	1b 1f ff ff 	sethi  %hi(0x7ffffc00), %o5
    5204:	13 00 00 00 	sethi  %hi(0), %o1
    5208:	92 1a 7f 64 	xor  %o1, -156, %o1
    520c:	c0 27 bf d8 	clr  [ %fp + -40 ]
    5210:	c0 27 bf dc 	clr  [ %fp + -36 ]
    5214:	f8 06 20 18 	ld  [ %i0 + 0x18 ], %i4
    5218:	c4 06 00 00 	ld  [ %i0 ], %g2
    521c:	b6 10 20 00 	clr  %i3
    5220:	88 10 20 00 	clr  %g4
    5224:	b2 10 20 00 	clr  %i1
    5228:	98 05 c0 0c 	add  %l7, %o4, %o4
    522c:	96 10 60 cb 	or  %g1, 0xcb, %o3
    5230:	94 10 60 cc 	or  %g1, 0xcc, %o2
    5234:	9a 13 63 ff 	or  %o5, 0x3ff, %o5
    5238:	10 80 00 03 	b  5244 <_ppfs_parsespec+0x6c>
    523c:	92 05 c0 09 	add  %l7, %o1, %o1
    5240:	84 10 00 1d 	mov  %i5, %g2
    5244:	c2 08 80 00 	ldub  [ %g2 ], %g1
    5248:	80 a0 60 2a 	cmp  %g1, 0x2a
    524c:	12 80 00 06 	bne  5264 <_ppfs_parsespec+0x8c>
    5250:	ba 10 00 02 	mov  %g2, %i5
    5254:	82 0e e0 04 	and  %i3, 4, %g1
    5258:	ba 00 a0 01 	add  %g2, 1, %i5
    525c:	82 07 80 01 	add  %fp, %g1, %g1
    5260:	c0 20 7f e4 	clr  [ %g1 + -28 ]
    5264:	10 80 00 11 	b  52a8 <_ppfs_parsespec+0xd0>
    5268:	82 10 20 00 	clr  %g1
    526c:	04 80 00 09 	ble  5290 <_ppfs_parsespec+0xb8>
    5270:	86 00 40 01 	add  %g1, %g1, %g3
    5274:	80 a0 40 0a 	cmp  %g1, %o2
    5278:	32 80 00 0b 	bne,a   52a4 <_ppfs_parsespec+0xcc>
    527c:	82 10 00 0d 	mov  %o5, %g1
    5280:	80 a6 a0 37 	cmp  %i2, 0x37
    5284:	34 80 00 08 	bg,a   52a4 <_ppfs_parsespec+0xcc>
    5288:	82 10 00 0d 	mov  %o5, %g1
    528c:	86 00 40 01 	add  %g1, %g1, %g3
    5290:	9e 0b e0 ff 	and  %o7, 0xff, %o7
    5294:	83 28 60 03 	sll  %g1, 3, %g1
    5298:	9e 03 ff d0 	add  %o7, -48, %o7
    529c:	82 00 c0 01 	add  %g3, %g1, %g1
    52a0:	82 00 40 0f 	add  %g1, %o7, %g1
    52a4:	ba 07 60 01 	inc  %i5
    52a8:	de 0f 40 00 	ldub  [ %i5 ], %o7
    52ac:	d0 03 00 00 	ld  [ %o4 ], %o0
    52b0:	b4 0b e0 ff 	and  %o7, 0xff, %i2
    52b4:	86 06 80 1a 	add  %i2, %i2, %g3
    52b8:	c6 12 00 03 	lduh  [ %o0 + %g3 ], %g3
    52bc:	80 88 e0 08 	btst  8, %g3
    52c0:	12 bf ff eb 	bne  526c <_ppfs_parsespec+0x94>
    52c4:	80 a0 40 0b 	cmp  %g1, %o3
    52c8:	d0 08 bf ff 	ldub  [ %g2 + -1 ], %o0
    52cc:	80 a2 20 25 	cmp  %o0, 0x25
    52d0:	12 80 00 38 	bne  53b0 <_ppfs_parsespec+0x1d8>
    52d4:	86 10 00 02 	mov  %g2, %g3
    52d8:	80 a6 a0 24 	cmp  %i2, 0x24
    52dc:	12 80 00 0e 	bne  5314 <_ppfs_parsespec+0x13c>
    52e0:	80 a7 20 00 	cmp  %i4, 0
    52e4:	80 a0 60 00 	cmp  %g1, 0
    52e8:	04 80 00 0b 	ble  5314 <_ppfs_parsespec+0x13c>
    52ec:	80 a7 20 00 	cmp  %i4, 0
    52f0:	12 80 00 04 	bne  5300 <_ppfs_parsespec+0x128>
    52f4:	84 07 60 01 	add  %i5, 1, %g2
    52f8:	81 c7 e0 08 	ret 
    52fc:	91 e8 3f ff 	restore  %g0, -1, %o0
    5300:	80 a0 40 1c 	cmp  %g1, %i4
    5304:	14 80 00 13 	bg  5350 <_ppfs_parsespec+0x178>
    5308:	c2 27 bf e0 	st  %g1, [ %fp + -32 ]
    530c:	10 80 00 13 	b  5358 <_ppfs_parsespec+0x180>
    5310:	ba 10 00 02 	mov  %g2, %i5
    5314:	04 80 00 06 	ble  532c <_ppfs_parsespec+0x154>
    5318:	9e 0b e0 ff 	and  %o7, 0xff, %o7
    531c:	80 a3 e0 6d 	cmp  %o7, 0x6d
    5320:	02 80 00 24 	be  53b0 <_ppfs_parsespec+0x1d8>
    5324:	86 10 00 02 	mov  %g2, %g3
    5328:	30 bf ff f4 	b,a   52f8 <_ppfs_parsespec+0x120>
    532c:	80 a7 40 02 	cmp  %i5, %g2
    5330:	08 80 00 09 	bleu  5354 <_ppfs_parsespec+0x17c>
    5334:	b8 10 20 00 	clr  %i4
    5338:	f4 08 80 00 	ldub  [ %g2 ], %i2
    533c:	80 a6 a0 30 	cmp  %i2, 0x30
    5340:	12 80 00 1c 	bne  53b0 <_ppfs_parsespec+0x1d8>
    5344:	86 10 00 02 	mov  %g2, %g3
    5348:	10 80 00 04 	b  5358 <_ppfs_parsespec+0x180>
    534c:	ba 10 00 02 	mov  %g2, %i5
    5350:	b8 10 00 01 	mov  %g1, %i4
    5354:	ba 10 00 02 	mov  %g2, %i5
    5358:	82 10 20 01 	mov  1, %g1
    535c:	86 10 00 09 	mov  %o1, %g3
    5360:	c4 08 c0 00 	ldub  [ %g3 ], %g2
    5364:	f4 0f 40 00 	ldub  [ %i5 ], %i2
    5368:	80 a6 80 02 	cmp  %i2, %g2
    536c:	12 80 00 05 	bne  5380 <_ppfs_parsespec+0x1a8>
    5370:	86 00 e0 01 	inc  %g3
    5374:	ba 07 60 01 	inc  %i5
    5378:	10 bf ff f8 	b  5358 <_ppfs_parsespec+0x180>
    537c:	88 11 00 01 	or  %g4, %g1, %g4
    5380:	c4 08 c0 00 	ldub  [ %g3 ], %g2
    5384:	80 a0 a0 00 	cmp  %g2, 0
    5388:	12 bf ff f7 	bne  5364 <_ppfs_parsespec+0x18c>
    538c:	82 00 40 01 	add  %g1, %g1, %g1
    5390:	82 09 20 0a 	and  %g4, 0xa, %g1
    5394:	83 38 60 01 	sra  %g1, 1, %g1
    5398:	88 29 00 01 	andn  %g4, %g1, %g4
    539c:	c2 0f 7f ff 	ldub  [ %i5 + -1 ], %g1
    53a0:	80 a0 60 25 	cmp  %g1, 0x25
    53a4:	12 bf ff a8 	bne  5244 <_ppfs_parsespec+0x6c>
    53a8:	84 10 00 1d 	mov  %i5, %g2
    53ac:	82 10 20 00 	clr  %g1
    53b0:	c4 08 c0 00 	ldub  [ %g3 ], %g2
    53b4:	80 a0 a0 2a 	cmp  %g2, 0x2a
    53b8:	12 80 00 14 	bne  5408 <_ppfs_parsespec+0x230>
    53bc:	80 a6 e0 00 	cmp  %i3, 0
    53c0:	80 a7 20 00 	cmp  %i4, 0
    53c4:	22 80 00 0c 	be,a   53f4 <_ppfs_parsespec+0x21c>
    53c8:	86 00 e0 01 	inc  %g3
    53cc:	c4 0f 40 00 	ldub  [ %i5 ], %g2
    53d0:	80 a0 a0 24 	cmp  %g2, 0x24
    53d4:	12 bf ff c9 	bne  52f8 <_ppfs_parsespec+0x120>
    53d8:	ba 07 60 01 	inc  %i5
    53dc:	80 a0 60 00 	cmp  %g1, 0
    53e0:	04 bf ff c6 	ble  52f8 <_ppfs_parsespec+0x120>
    53e4:	84 0e e0 04 	and  %i3, 4, %g2
    53e8:	84 07 80 02 	add  %fp, %g2, %g2
    53ec:	10 80 00 05 	b  5400 <_ppfs_parsespec+0x228>
    53f0:	c2 20 bf d8 	st  %g1, [ %g2 + -40 ]
    53f4:	80 a7 40 03 	cmp  %i5, %g3
    53f8:	12 bf ff c0 	bne  52f8 <_ppfs_parsespec+0x120>
    53fc:	01 00 00 00 	nop 
    5400:	03 20 00 00 	sethi  %hi(0x80000000), %g1
    5404:	80 a6 e0 00 	cmp  %i3, 0
    5408:	12 80 00 0b 	bne  5434 <_ppfs_parsespec+0x25c>
    540c:	05 00 00 05 	sethi  %hi(0x1400), %g2
    5410:	c4 0f 40 00 	ldub  [ %i5 ], %g2
    5414:	80 a0 a0 2e 	cmp  %g2, 0x2e
    5418:	12 80 00 05 	bne  542c <_ppfs_parsespec+0x254>
    541c:	b2 10 00 01 	mov  %g1, %i1
    5420:	ba 07 60 01 	inc  %i5
    5424:	10 bf ff 87 	b  5240 <_ppfs_parsespec+0x68>
    5428:	b6 10 3f ff 	mov  -1, %i3
    542c:	82 10 3f ff 	mov  -1, %g1
    5430:	05 00 00 05 	sethi  %hi(0x1400), %g2
    5434:	84 18 bf 8c 	xor  %g2, -116, %g2
    5438:	84 05 c0 02 	add  %l7, %g2, %g2
    543c:	f6 0f 40 00 	ldub  [ %i5 ], %i3
    5440:	c6 08 80 00 	ldub  [ %g2 ], %g3
    5444:	80 a6 c0 03 	cmp  %i3, %g3
    5448:	32 80 00 04 	bne,a   5458 <_ppfs_parsespec+0x280>
    544c:	84 00 a0 01 	inc  %g2
    5450:	10 80 00 06 	b  5468 <_ppfs_parsespec+0x290>
    5454:	ba 07 60 01 	inc  %i5
    5458:	c6 08 80 00 	ldub  [ %g2 ], %g3
    545c:	80 a0 e0 00 	cmp  %g3, 0
    5460:	32 bf ff f9 	bne,a   5444 <_ppfs_parsespec+0x26c>
    5464:	f6 0f 40 00 	ldub  [ %i5 ], %i3
    5468:	07 00 00 05 	sethi  %hi(0x1400), %g3
    546c:	86 18 ff 8c 	xor  %g3, -116, %g3
    5470:	86 05 c0 03 	add  %l7, %g3, %g3
    5474:	86 20 80 03 	sub  %g2, %g3, %g3
    5478:	80 a0 e0 01 	cmp  %g3, 1
    547c:	34 80 00 0a 	bg,a   54a4 <_ppfs_parsespec+0x2cc>
    5480:	f6 08 a0 09 	ldub  [ %g2 + 9 ], %i3
    5484:	f6 0f 40 00 	ldub  [ %i5 ], %i3
    5488:	c6 08 80 00 	ldub  [ %g2 ], %g3
    548c:	80 a6 c0 03 	cmp  %i3, %g3
    5490:	32 80 00 05 	bne,a   54a4 <_ppfs_parsespec+0x2cc>
    5494:	f6 08 a0 09 	ldub  [ %g2 + 9 ], %i3
    5498:	84 00 a0 09 	add  %g2, 9, %g2
    549c:	ba 07 60 01 	inc  %i5
    54a0:	f6 08 a0 09 	ldub  [ %g2 + 9 ], %i3
    54a4:	c6 0f 40 00 	ldub  [ %i5 ], %g3
    54a8:	80 a0 e0 00 	cmp  %g3, 0
    54ac:	02 bf ff 93 	be  52f8 <_ppfs_parsespec+0x120>
    54b0:	b7 2e e0 08 	sll  %i3, 8, %i3
    54b4:	05 00 00 00 	sethi  %hi(0), %g2
    54b8:	84 18 bf 6c 	xor  %g2, -148, %g2
    54bc:	84 05 c0 02 	add  %l7, %g2, %g2
    54c0:	f4 08 80 00 	ldub  [ %g2 ], %i2
    54c4:	80 a0 c0 1a 	cmp  %g3, %i2
    54c8:	32 80 00 2a 	bne,a   5570 <_ppfs_parsespec+0x398>
    54cc:	84 00 a0 01 	inc  %g2
    54d0:	07 00 00 00 	sethi  %hi(0), %g3
    54d4:	86 18 ff 6c 	xor  %g3, -148, %g3
    54d8:	86 05 c0 03 	add  %l7, %g3, %g3
    54dc:	84 20 80 03 	sub  %g2, %g3, %g2
    54e0:	80 a0 a0 11 	cmp  %g2, 0x11
    54e4:	04 80 00 06 	ble  54fc <_ppfs_parsespec+0x324>
    54e8:	07 00 00 05 	sethi  %hi(0x1400), %g3
    54ec:	80 8e e4 00 	btst  0x400, %i3
    54f0:	32 80 00 03 	bne,a   54fc <_ppfs_parsespec+0x324>
    54f4:	84 00 bf fe 	add  %g2, -2, %g2
    54f8:	07 00 00 05 	sethi  %hi(0x1400), %g3
    54fc:	c4 26 20 20 	st  %g2, [ %i0 + 0x20 ]
    5500:	86 18 ff a4 	xor  %g3, -92, %g3
    5504:	86 05 c0 03 	add  %l7, %g3, %g3
    5508:	86 00 ff ff 	add  %g3, -1, %g3
    550c:	86 00 e0 01 	inc  %g3
    5510:	f4 08 c0 00 	ldub  [ %g3 ], %i2
    5514:	80 a0 80 1a 	cmp  %g2, %i2
    5518:	34 bf ff fe 	bg,a   5510 <_ppfs_parsespec+0x338>
    551c:	86 00 e0 01 	inc  %g3
    5520:	05 00 00 05 	sethi  %hi(0x1400), %g2
    5524:	84 18 bf a4 	xor  %g2, -92, %g2
    5528:	84 05 c0 02 	add  %l7, %g2, %g2
    552c:	86 20 c0 02 	sub  %g3, %g2, %g3
    5530:	05 00 00 05 	sethi  %hi(0x1400), %g2
    5534:	84 18 bf ae 	xor  %g2, -82, %g2
    5538:	84 05 c0 02 	add  %l7, %g2, %g2
    553c:	86 00 c0 03 	add  %g3, %g3, %g3
    5540:	f4 50 80 03 	ldsh  [ %g2 + %g3 ], %i2
    5544:	05 00 00 05 	sethi  %hi(0x1400), %g2
    5548:	84 18 bf be 	xor  %g2, -66, %g2
    554c:	84 05 c0 02 	add  %l7, %g2, %g2
    5550:	b4 16 c0 1a 	or  %i3, %i2, %i2
    5554:	c6 50 80 03 	ldsh  [ %g2 + %g3 ], %g3
    5558:	84 0e 80 03 	and  %i2, %g3, %g2
    555c:	c4 27 bf ec 	st  %g2, [ %fp + -20 ]
    5560:	05 00 00 00 	sethi  %hi(0), %g2
    5564:	84 18 bf 6c 	xor  %g2, -148, %g2
    5568:	10 80 00 06 	b  5580 <_ppfs_parsespec+0x3a8>
    556c:	84 05 c0 02 	add  %l7, %g2, %g2
    5570:	f4 08 80 00 	ldub  [ %g2 ], %i2
    5574:	80 a6 a0 00 	cmp  %i2, 0
    5578:	12 bf ff d4 	bne  54c8 <_ppfs_parsespec+0x2f0>
    557c:	80 a0 c0 1a 	cmp  %g3, %i2
    5580:	c6 0f 40 00 	ldub  [ %i5 ], %g3
    5584:	c2 26 20 04 	st  %g1, [ %i0 + 4 ]
    5588:	82 09 20 04 	and  %g4, 4, %g1
    558c:	80 a0 00 01 	cmp  %g0, %g1
    5590:	82 40 3f ff 	addx  %g0, -1, %g1
    5594:	82 08 7f f0 	and  %g1, -16, %g1
    5598:	82 00 60 30 	add  %g1, 0x30, %g1
    559c:	c6 26 20 0c 	st  %g3, [ %i0 + 0xc ]
    55a0:	c2 26 20 14 	st  %g1, [ %i0 + 0x14 ]
    55a4:	f2 26 20 08 	st  %i1, [ %i0 + 8 ]
    55a8:	82 10 20 01 	mov  1, %g1
    55ac:	b6 0e ef 00 	and  %i3, 0xf00, %i3
    55b0:	88 09 3f fb 	and  %g4, -5, %g4
    55b4:	c2 26 20 1c 	st  %g1, [ %i0 + 0x1c ]
    55b8:	88 16 c0 04 	or  %i3, %g4, %g4
    55bc:	c8 26 20 10 	st  %g4, [ %i0 + 0x10 ]
    55c0:	c2 08 80 00 	ldub  [ %g2 ], %g1
    55c4:	80 a0 60 00 	cmp  %g1, 0
    55c8:	12 80 00 29 	bne  566c <_ppfs_parsespec+0x494>
    55cc:	80 a7 20 00 	cmp  %i4, 0
    55d0:	c2 0f 40 00 	ldub  [ %i5 ], %g1
    55d4:	80 a0 60 6d 	cmp  %g1, 0x6d
    55d8:	12 80 00 06 	bne  55f0 <_ppfs_parsespec+0x418>
    55dc:	82 10 20 15 	mov  0x15, %g1
    55e0:	82 10 20 14 	mov  0x14, %g1
    55e4:	c0 26 20 1c 	clr  [ %i0 + 0x1c ]
    55e8:	10 80 00 20 	b  5668 <_ppfs_parsespec+0x490>
    55ec:	c2 26 20 20 	st  %g1, [ %i0 + 0x20 ]
    55f0:	c2 26 20 20 	st  %g1, [ %i0 + 0x20 ]
    55f4:	03 00 00 00 	sethi  %hi(0), %g1
    55f8:	82 18 7f f4 	xor  %g1, -12, %g1
    55fc:	82 05 c0 01 	add  %l7, %g1, %g1
    5600:	c4 00 40 00 	ld  [ %g1 ], %g2
    5604:	82 10 00 02 	mov  %g2, %g1
    5608:	86 00 a0 0a 	add  %g2, 0xa, %g3
    560c:	f6 08 40 00 	ldub  [ %g1 ], %i3
    5610:	c8 0f 40 00 	ldub  [ %i5 ], %g4
    5614:	80 a6 c0 04 	cmp  %i3, %g4
    5618:	32 80 00 10 	bne,a   5658 <_ppfs_parsespec+0x480>
    561c:	82 00 60 01 	inc  %g1
    5620:	07 00 00 03 	sethi  %hi(0xc00), %g3
    5624:	86 18 e1 90 	xor  %g3, 0x190, %g3
    5628:	86 05 c0 03 	add  %l7, %g3, %g3
    562c:	82 20 40 02 	sub  %g1, %g2, %g1
    5630:	90 06 20 04 	add  %i0, 4, %o0
    5634:	83 28 60 02 	sll  %g1, 2, %g1
    5638:	92 10 20 05 	mov  5, %o1
    563c:	c2 00 c0 01 	ld  [ %g3 + %g1 ], %g1
    5640:	9f c0 40 00 	call  %g1
    5644:	94 07 bf ec 	add  %fp, -20, %o2
    5648:	80 a2 20 05 	cmp  %o0, 5
    564c:	04 80 00 07 	ble  5668 <_ppfs_parsespec+0x490>
    5650:	d0 26 20 1c 	st  %o0, [ %i0 + 0x1c ]
    5654:	30 bf ff 29 	b,a   52f8 <_ppfs_parsespec+0x120>
    5658:	80 a0 40 03 	cmp  %g1, %g3
    565c:	2a bf ff ed 	bcs,a   5610 <_ppfs_parsespec+0x438>
    5660:	f6 08 40 00 	ldub  [ %g1 ], %i3
    5664:	30 bf ff 25 	b,a   52f8 <_ppfs_parsespec+0x120>
    5668:	80 a7 20 00 	cmp  %i4, 0
    566c:	04 80 00 4b 	ble  5798 <_ppfs_parsespec+0x5c0>
    5670:	05 00 00 05 	sethi  %hi(0x1400), %g2
    5674:	35 00 00 05 	sethi  %hi(0x1400), %i2
    5678:	84 18 bf ce 	xor  %g2, -50, %g2
    567c:	b4 1e bf ec 	xor  %i2, -20, %i2
    5680:	82 10 20 00 	clr  %g1
    5684:	84 05 c0 02 	add  %l7, %g2, %g2
    5688:	b4 05 c0 1a 	add  %l7, %i2, %i2
    568c:	80 a0 60 02 	cmp  %g1, 2
    5690:	14 80 00 09 	bg  56b4 <_ppfs_parsespec+0x4dc>
    5694:	88 00 7f fe 	add  %g1, -2, %g4
    5698:	87 28 60 02 	sll  %g1, 2, %g3
    569c:	88 06 00 01 	add  %i0, %g1, %g4
    56a0:	86 07 80 03 	add  %fp, %g3, %g3
    56a4:	c6 00 ff d8 	ld  [ %g3 + -40 ], %g3
    56a8:	c6 29 20 24 	stb  %g3, [ %g4 + 0x24 ]
    56ac:	10 80 00 04 	b  56bc <_ppfs_parsespec+0x4e4>
    56b0:	86 08 e0 ff 	and  %g3, 0xff, %g3
    56b4:	c6 07 bf e0 	ld  [ %fp + -32 ], %g3
    56b8:	86 01 00 03 	add  %g4, %g3, %g3
    56bc:	80 a0 c0 1c 	cmp  %g3, %i4
    56c0:	04 80 00 06 	ble  56d8 <_ppfs_parsespec+0x500>
    56c4:	b2 00 ff ff 	add  %g3, -1, %i1
    56c8:	80 a0 e0 09 	cmp  %g3, 9
    56cc:	14 bf ff 0b 	bg  52f8 <_ppfs_parsespec+0x120>
    56d0:	b8 10 00 03 	mov  %g3, %i4
    56d4:	b2 00 ff ff 	add  %g3, -1, %i1
    56d8:	86 00 e0 09 	add  %g3, 9, %g3
    56dc:	87 28 e0 02 	sll  %g3, 2, %g3
    56e0:	f6 06 00 03 	ld  [ %i0 + %g3 ], %i3
    56e4:	87 28 60 02 	sll  %g1, 2, %g3
    56e8:	86 07 80 03 	add  %fp, %g3, %g3
    56ec:	c8 00 ff e4 	ld  [ %g3 + -28 ], %g4
    56f0:	80 a1 20 08 	cmp  %g4, 8
    56f4:	02 80 00 21 	be  5778 <_ppfs_parsespec+0x5a0>
    56f8:	80 a6 c0 04 	cmp  %i3, %g4
    56fc:	02 80 00 1c 	be  576c <_ppfs_parsespec+0x594>
    5700:	80 a6 e0 08 	cmp  %i3, 8
    5704:	02 80 00 1a 	be  576c <_ppfs_parsespec+0x594>
    5708:	86 00 a0 18 	add  %g2, 0x18, %g3
    570c:	86 00 ff fe 	add  %g3, -2, %g3
    5710:	de 50 c0 00 	ldsh  [ %g3 ], %o7
    5714:	80 a3 c0 1b 	cmp  %o7, %i3
    5718:	02 80 00 04 	be  5728 <_ppfs_parsespec+0x550>
    571c:	80 a0 c0 02 	cmp  %g3, %g2
    5720:	38 bf ff fc 	bgu,a   5710 <_ppfs_parsespec+0x538>
    5724:	86 00 ff fe 	add  %g3, -2, %g3
    5728:	86 20 c0 02 	sub  %g3, %g2, %g3
    572c:	87 38 e0 01 	sra  %g3, 1, %g3
    5730:	f6 0e 80 03 	ldub  [ %i2 + %g3 ], %i3
    5734:	86 00 a0 18 	add  %g2, 0x18, %g3
    5738:	86 00 ff fe 	add  %g3, -2, %g3
    573c:	de 50 c0 00 	ldsh  [ %g3 ], %o7
    5740:	80 a3 c0 04 	cmp  %o7, %g4
    5744:	02 80 00 04 	be  5754 <_ppfs_parsespec+0x57c>
    5748:	80 a0 c0 02 	cmp  %g3, %g2
    574c:	38 bf ff fc 	bgu,a   573c <_ppfs_parsespec+0x564>
    5750:	86 00 ff fe 	add  %g3, -2, %g3
    5754:	86 20 c0 02 	sub  %g3, %g2, %g3
    5758:	87 38 e0 01 	sra  %g3, 1, %g3
    575c:	c6 0e 80 03 	ldub  [ %i2 + %g3 ], %g3
    5760:	80 a6 c0 03 	cmp  %i3, %g3
    5764:	34 80 00 06 	bg,a   577c <_ppfs_parsespec+0x5a4>
    5768:	82 00 60 01 	inc  %g1
    576c:	86 06 60 0a 	add  %i1, 0xa, %g3
    5770:	87 28 e0 02 	sll  %g3, 2, %g3
    5774:	c8 26 00 03 	st  %g4, [ %i0 + %g3 ]
    5778:	82 00 60 01 	inc  %g1
    577c:	c6 06 20 1c 	ld  [ %i0 + 0x1c ], %g3
    5780:	86 00 e0 01 	inc  %g3
    5784:	80 a0 c0 01 	cmp  %g3, %g1
    5788:	16 bf ff c2 	bge  5690 <_ppfs_parsespec+0x4b8>
    578c:	80 a0 60 02 	cmp  %g1, 2
    5790:	10 80 00 0a 	b  57b8 <_ppfs_parsespec+0x5e0>
    5794:	f8 26 20 18 	st  %i4, [ %i0 + 0x18 ]
    5798:	82 10 20 01 	mov  1, %g1
    579c:	d4 06 20 1c 	ld  [ %i0 + 0x1c ], %o2
    57a0:	c2 2e 20 26 	stb  %g1, [ %i0 + 0x26 ]
    57a4:	90 06 20 28 	add  %i0, 0x28, %o0
    57a8:	92 07 bf ec 	add  %fp, -20, %o1
    57ac:	40 00 02 82 	call  61b4 <__GI_memcpy>
    57b0:	95 2a a0 02 	sll  %o2, 2, %o2
    57b4:	f8 26 20 18 	st  %i4, [ %i0 + 0x18 ]
    57b8:	ba 07 60 01 	inc  %i5
    57bc:	fa 26 00 00 	st  %i5, [ %i0 ]
    57c0:	f0 06 20 1c 	ld  [ %i0 + 0x1c ], %i0
    57c4:	81 c7 e0 08 	ret 
    57c8:	91 ee 20 02 	restore  %i0, 2, %o0

000057cc <__GI_fputs_unlocked>:
    57cc:	9d e3 bf a0 	save  %sp, -96, %sp
    57d0:	40 00 00 d0 	call  5b10 <__GI_strlen>
    57d4:	90 10 00 18 	mov  %i0, %o0
    57d8:	92 10 20 01 	mov  1, %o1
    57dc:	ba 10 00 08 	mov  %o0, %i5
    57e0:	96 10 00 19 	mov  %i1, %o3
    57e4:	90 10 00 18 	mov  %i0, %o0
    57e8:	40 00 00 09 	call  580c <__GI_fwrite_unlocked>
    57ec:	94 10 00 1d 	mov  %i5, %o2
    57f0:	80 a2 00 1d 	cmp  %o0, %i5
    57f4:	12 80 00 04 	bne  5804 <__GI_fputs_unlocked+0x38>
    57f8:	01 00 00 00 	nop 
    57fc:	81 c7 e0 08 	ret 
    5800:	91 e8 00 08 	restore  %g0, %o0, %o0
    5804:	81 c7 e0 08 	ret 
    5808:	91 e8 3f ff 	restore  %g0, -1, %o0

0000580c <__GI_fwrite_unlocked>:
    580c:	9d e3 bf a0 	save  %sp, -96, %sp
    5810:	2f 00 00 43 	sethi  %hi(0x10c00), %l7
    5814:	40 00 29 fb 	call  10000 <__sparc_get_pc_thunk.l7>
    5818:	ae 05 e1 08 	add  %l7, 0x108, %l7	! 10d08 <__sparc_get_pc_thunk.l7+0xd08>
    581c:	c2 16 c0 00 	lduh  [ %i3 ], %g1
    5820:	80 88 60 40 	btst  0x40, %g1
    5824:	02 80 00 08 	be  5844 <__GI_fwrite_unlocked+0x38>
    5828:	80 a6 a0 00 	cmp  %i2, 0
    582c:	02 80 00 27 	be  58c8 <__GI_fwrite_unlocked+0xbc>
    5830:	80 a6 60 00 	cmp  %i1, 0
    5834:	12 80 00 0b 	bne  5860 <__GI_fwrite_unlocked+0x54>
    5838:	84 10 3f ff 	mov  -1, %g2
    583c:	81 c7 e0 08 	ret 
    5840:	91 e8 20 00 	restore  %g0, 0, %o0
    5844:	40 00 07 be 	call  773c <__stdio_trans2w>
    5848:	90 10 00 1b 	mov  %i3, %o0
    584c:	80 a2 20 00 	cmp  %o0, 0
    5850:	02 bf ff f7 	be  582c <__GI_fwrite_unlocked+0x20>
    5854:	80 a6 a0 00 	cmp  %i2, 0
    5858:	81 c7 e0 08 	ret 
    585c:	91 e8 20 00 	restore  %g0, 0, %o0
    5860:	81 80 20 00 	mov  %g0, %y
    5864:	01 00 00 00 	nop 
    5868:	01 00 00 00 	nop 
    586c:	01 00 00 00 	nop 
    5870:	82 70 80 19 	udiv  %g2, %i1, %g1
    5874:	80 a6 80 01 	cmp  %i2, %g1
    5878:	38 80 00 0d 	bgu,a   58ac <__GI_fwrite_unlocked+0xa0>
    587c:	c2 16 c0 00 	lduh  [ %i3 ], %g1
    5880:	90 10 00 18 	mov  %i0, %o0
    5884:	92 5e 80 19 	smul  %i2, %i1, %o1
    5888:	40 00 07 5d 	call  75fc <__stdio_fwrite>
    588c:	94 10 00 1b 	mov  %i3, %o2
    5890:	81 80 20 00 	mov  %g0, %y
    5894:	01 00 00 00 	nop 
    5898:	01 00 00 00 	nop 
    589c:	01 00 00 00 	nop 
    58a0:	b0 72 00 19 	udiv  %o0, %i1, %i0
    58a4:	81 c7 e0 08 	ret 
    58a8:	81 e8 00 00 	restore 
    58ac:	82 10 60 08 	or  %g1, 8, %g1
    58b0:	84 10 20 16 	mov  0x16, %g2
    58b4:	c2 36 c0 00 	sth  %g1, [ %i3 ]
    58b8:	03 00 00 00 	sethi  %hi(0), %g1
    58bc:	82 18 7f fc 	xor  %g1, -4, %g1
    58c0:	01 00 00 00 	nop 
    58c4:	c4 21 c0 01 	st  %g2, [ %g7 + %g1 ]
    58c8:	b0 10 20 00 	clr  %i0
    58cc:	81 c7 e0 08 	ret 
    58d0:	81 e8 00 00 	restore 

000058d4 <bzero>:
    58d4:	10 80 00 13 	b  5920 <__GI_memset+0x18>
    58d8:	86 10 00 00 	mov  %g0, %g3
    58dc:	80 a2 a0 03 	cmp  %o2, 3
    58e0:	02 80 00 06 	be  58f8 <bzero+0x24>
    58e4:	c6 2a 00 00 	stb  %g3, [ %o0 ]
    58e8:	80 a2 a0 02 	cmp  %o2, 2
    58ec:	02 80 00 03 	be  58f8 <bzero+0x24>
    58f0:	c6 2a 20 01 	stb  %g3, [ %o0 + 1 ]
    58f4:	c6 2a 20 02 	stb  %g3, [ %o0 + 2 ]
    58f8:	94 22 a0 04 	sub  %o2, 4, %o2
    58fc:	92 02 40 0a 	add  %o1, %o2, %o1
    5900:	10 80 00 0d 	b  5934 <__GI_memset+0x2c>
    5904:	90 22 00 0a 	sub  %o0, %o2, %o0

00005908 <__GI_memset>:
    5908:	86 0a 60 ff 	and  %o1, 0xff, %g3
    590c:	85 28 e0 08 	sll  %g3, 8, %g2
    5910:	86 10 c0 02 	or  %g3, %g2, %g3
    5914:	85 28 e0 10 	sll  %g3, 0x10, %g2
    5918:	86 10 c0 02 	or  %g3, %g2, %g3
    591c:	92 92 80 00 	orcc  %o2, %g0, %o1
    5920:	80 a2 60 07 	cmp  %o1, 7
    5924:	08 80 00 49 	bleu  5a48 <__GI_memset+0x140>
    5928:	82 10 00 08 	mov  %o0, %g1
    592c:	94 8a 20 03 	andcc  %o0, 3, %o2
    5930:	12 bf ff eb 	bne  58dc <bzero+0x8>
    5934:	80 8a 20 04 	btst  4, %o0
    5938:	02 80 00 05 	be  594c <__GI_memset+0x44>
    593c:	84 10 00 03 	mov  %g3, %g2
    5940:	c6 22 00 00 	st  %g3, [ %o0 ]
    5944:	92 22 60 04 	sub  %o1, 4, %o1
    5948:	90 02 20 04 	add  %o0, 4, %o0
    594c:	96 8a 7f 80 	andcc  %o1, -128, %o3
    5950:	02 80 00 16 	be  59a8 <__GI_memset+0xa0>
    5954:	94 8a 60 78 	andcc  %o1, 0x78, %o2
    5958:	c4 3a 20 00 	std  %g2, [ %o0 ]
    595c:	c4 3a 20 08 	std  %g2, [ %o0 + 8 ]
    5960:	c4 3a 20 10 	std  %g2, [ %o0 + 0x10 ]
    5964:	c4 3a 20 18 	std  %g2, [ %o0 + 0x18 ]
    5968:	c4 3a 20 20 	std  %g2, [ %o0 + 0x20 ]
    596c:	c4 3a 20 28 	std  %g2, [ %o0 + 0x28 ]
    5970:	c4 3a 20 30 	std  %g2, [ %o0 + 0x30 ]
    5974:	c4 3a 20 38 	std  %g2, [ %o0 + 0x38 ]
    5978:	96 a2 e0 80 	subcc  %o3, 0x80, %o3
    597c:	c4 3a 20 40 	std  %g2, [ %o0 + 0x40 ]
    5980:	c4 3a 20 48 	std  %g2, [ %o0 + 0x48 ]
    5984:	c4 3a 20 50 	std  %g2, [ %o0 + 0x50 ]
    5988:	c4 3a 20 58 	std  %g2, [ %o0 + 0x58 ]
    598c:	c4 3a 20 60 	std  %g2, [ %o0 + 0x60 ]
    5990:	c4 3a 20 68 	std  %g2, [ %o0 + 0x68 ]
    5994:	c4 3a 20 70 	std  %g2, [ %o0 + 0x70 ]
    5998:	c4 3a 20 78 	std  %g2, [ %o0 + 0x78 ]
    599c:	12 bf ff ef 	bne  5958 <__GI_memset+0x50>
    59a0:	90 02 20 80 	add  %o0, 0x80, %o0
    59a4:	80 92 80 00 	tst  %o2
    59a8:	02 80 00 1a 	be  5a10 <__GI_memset+0x108>
    59ac:	92 8a 60 07 	andcc  %o1, 7, %o1
    59b0:	88 10 00 0f 	mov  %o7, %g4
    59b4:	40 00 00 05 	call  59c8 <__GI_memset+0xc0>
    59b8:	97 32 a0 01 	srl  %o2, 1, %o3
    59bc:	9e 10 00 04 	mov  %g4, %o7
    59c0:	81 c3 20 5c 	jmp  %o4 + 0x5c
    59c4:	90 02 00 0a 	add  %o0, %o2, %o0
    59c8:	81 c3 e0 08 	retl 
    59cc:	98 23 c0 0b 	sub  %o7, %o3, %o4
    59d0:	c4 3a 3f 80 	std  %g2, [ %o0 + -128 ]
    59d4:	c4 3a 3f 88 	std  %g2, [ %o0 + -120 ]
    59d8:	c4 3a 3f 90 	std  %g2, [ %o0 + -112 ]
    59dc:	c4 3a 3f 98 	std  %g2, [ %o0 + -104 ]
    59e0:	c4 3a 3f a0 	std  %g2, [ %o0 + -96 ]
    59e4:	c4 3a 3f a8 	std  %g2, [ %o0 + -88 ]
    59e8:	c4 3a 3f b0 	std  %g2, [ %o0 + -80 ]
    59ec:	c4 3a 3f b8 	std  %g2, [ %o0 + -72 ]
    59f0:	c4 3a 3f c0 	std  %g2, [ %o0 + -64 ]
    59f4:	c4 3a 3f c8 	std  %g2, [ %o0 + -56 ]
    59f8:	c4 3a 3f d0 	std  %g2, [ %o0 + -48 ]
    59fc:	c4 3a 3f d8 	std  %g2, [ %o0 + -40 ]
    5a00:	c4 3a 3f e0 	std  %g2, [ %o0 + -32 ]
    5a04:	c4 3a 3f e8 	std  %g2, [ %o0 + -24 ]
    5a08:	c4 3a 3f f0 	std  %g2, [ %o0 + -16 ]
    5a0c:	c4 3a 3f f8 	std  %g2, [ %o0 + -8 ]
    5a10:	02 80 00 0c 	be  5a40 <__GI_memset+0x138>
    5a14:	80 8a 60 04 	btst  4, %o1
    5a18:	02 80 00 04 	be  5a28 <__GI_memset+0x120>
    5a1c:	80 8a 60 02 	btst  2, %o1
    5a20:	c6 22 00 00 	st  %g3, [ %o0 ]
    5a24:	90 02 20 04 	add  %o0, 4, %o0
    5a28:	02 80 00 04 	be  5a38 <__GI_memset+0x130>
    5a2c:	80 8a 60 01 	btst  1, %o1
    5a30:	c6 32 00 00 	sth  %g3, [ %o0 ]
    5a34:	90 02 20 02 	add  %o0, 2, %o0
    5a38:	32 80 00 02 	bne,a   5a40 <__GI_memset+0x138>
    5a3c:	c6 2a 00 00 	stb  %g3, [ %o0 ]
    5a40:	81 c3 e0 08 	retl 
    5a44:	90 10 00 01 	mov  %g1, %o0
    5a48:	80 92 60 00 	tst  %o1
    5a4c:	02 80 00 15 	be  5aa0 <__GI_memset+0x198>
    5a50:	92 a2 60 01 	deccc  %o1
    5a54:	c6 2a 00 00 	stb  %g3, [ %o0 ]
    5a58:	02 80 00 12 	be  5aa0 <__GI_memset+0x198>
    5a5c:	92 a2 60 01 	deccc  %o1
    5a60:	c6 2a 20 01 	stb  %g3, [ %o0 + 1 ]
    5a64:	02 80 00 0f 	be  5aa0 <__GI_memset+0x198>
    5a68:	92 a2 60 01 	deccc  %o1
    5a6c:	c6 2a 20 02 	stb  %g3, [ %o0 + 2 ]
    5a70:	02 80 00 0c 	be  5aa0 <__GI_memset+0x198>
    5a74:	92 a2 60 01 	deccc  %o1
    5a78:	c6 2a 20 03 	stb  %g3, [ %o0 + 3 ]
    5a7c:	02 80 00 09 	be  5aa0 <__GI_memset+0x198>
    5a80:	92 a2 60 01 	deccc  %o1
    5a84:	c6 2a 20 04 	stb  %g3, [ %o0 + 4 ]
    5a88:	02 80 00 06 	be  5aa0 <__GI_memset+0x198>
    5a8c:	92 a2 60 01 	deccc  %o1
    5a90:	c6 2a 20 05 	stb  %g3, [ %o0 + 5 ]
    5a94:	02 80 00 03 	be  5aa0 <__GI_memset+0x198>
    5a98:	92 a2 60 01 	deccc  %o1
    5a9c:	c6 2a 20 06 	stb  %g3, [ %o0 + 6 ]
    5aa0:	81 c3 e0 08 	retl 
    5aa4:	01 00 00 00 	nop 
    5aa8:	da 0a 00 00 	ldub  [ %o0 ], %o5
    5aac:	80 a3 60 00 	cmp  %o5, 0
    5ab0:	02 80 00 12 	be  5af8 <__GI_memset+0x1f0>
    5ab4:	90 02 20 01 	inc  %o0
    5ab8:	80 8a 20 03 	btst  3, %o0
    5abc:	02 80 00 1a 	be  5b24 <__GI_strlen+0x14>
    5ac0:	96 13 20 80 	or  %o4, 0x80, %o3
    5ac4:	da 0a 00 00 	ldub  [ %o0 ], %o5
    5ac8:	80 a3 60 00 	cmp  %o5, 0
    5acc:	02 80 00 0d 	be  5b00 <__GI_memset+0x1f8>
    5ad0:	90 02 20 01 	inc  %o0
    5ad4:	80 8a 20 03 	btst  3, %o0
    5ad8:	02 80 00 14 	be  5b28 <__GI_strlen+0x18>
    5adc:	19 00 40 40 	sethi  %hi(0x1010000), %o4
    5ae0:	da 0a 00 00 	ldub  [ %o0 ], %o5
    5ae4:	80 a3 60 00 	cmp  %o5, 0
    5ae8:	02 80 00 08 	be  5b08 <__GI_memset+0x200>
    5aec:	90 02 20 01 	inc  %o0
    5af0:	10 80 00 0f 	b  5b2c <__GI_strlen+0x1c>
    5af4:	94 13 21 01 	or  %o4, 0x101, %o2
    5af8:	81 c3 e0 08 	retl 
    5afc:	90 10 20 00 	clr  %o0
    5b00:	81 c3 e0 08 	retl 
    5b04:	90 10 20 01 	mov  1, %o0
    5b08:	81 c3 e0 08 	retl 
    5b0c:	90 10 20 02 	mov  2, %o0

00005b10 <__GI_strlen>:
    5b10:	92 10 00 08 	mov  %o0, %o1
    5b14:	80 8a 20 03 	btst  3, %o0
    5b18:	12 bf ff e4 	bne  5aa8 <__GI_memset+0x1a0>
    5b1c:	19 20 20 20 	sethi  %hi(0x80808000), %o4
    5b20:	96 13 20 80 	or  %o4, 0x80, %o3	! 80808080 <_custom_printf_handler+0x807f0dac>
    5b24:	19 00 40 40 	sethi  %hi(0x1010000), %o4
    5b28:	94 13 21 01 	or  %o4, 0x101, %o2	! 1010101 <_custom_printf_handler+0xff8e2d>
    5b2c:	da 02 00 00 	ld  [ %o0 ], %o5
    5b30:	98 23 40 0a 	sub  %o5, %o2, %o4
    5b34:	80 8b 00 0b 	btst  %o4, %o3
    5b38:	02 bf ff fd 	be  5b2c <__GI_strlen+0x1c>
    5b3c:	90 02 20 04 	add  %o0, 4, %o0
    5b40:	8b 33 60 18 	srl  %o5, 0x18, %g5
    5b44:	80 89 60 ff 	btst  0xff, %g5
    5b48:	02 80 00 0e 	be  5b80 <__GI_strlen+0x70>
    5b4c:	98 02 3f fc 	add  %o0, -4, %o4
    5b50:	8b 33 60 10 	srl  %o5, 0x10, %g5
    5b54:	80 89 60 ff 	btst  0xff, %g5
    5b58:	02 80 00 0a 	be  5b80 <__GI_strlen+0x70>
    5b5c:	98 03 20 01 	inc  %o4
    5b60:	8b 33 60 08 	srl  %o5, 8, %g5
    5b64:	80 89 60 ff 	btst  0xff, %g5
    5b68:	02 80 00 06 	be  5b80 <__GI_strlen+0x70>
    5b6c:	98 03 20 01 	inc  %o4
    5b70:	80 8b 60 ff 	btst  0xff, %o5
    5b74:	32 bf ff ef 	bne,a   5b30 <__GI_strlen+0x20>
    5b78:	da 02 00 00 	ld  [ %o0 ], %o5
    5b7c:	98 03 20 01 	inc  %o4
    5b80:	81 c3 e0 08 	retl 
    5b84:	90 23 00 09 	sub  %o4, %o1, %o0
    5b88:	80 8a 60 01 	btst  1, %o1
    5b8c:	02 80 00 08 	be  5bac <__GI_strlen+0x9c>
    5b90:	80 8a 60 02 	btst  2, %o1
    5b94:	c4 0a 7f ff 	ldub  [ %o1 + -1 ], %g2
    5b98:	92 22 60 01 	dec  %o1
    5b9c:	c4 2a 3f ff 	stb  %g2, [ %o0 + -1 ]
    5ba0:	94 22 a0 01 	dec  %o2
    5ba4:	02 80 00 1a 	be  5c0c <__GI_memmove+0x3c>
    5ba8:	90 22 20 01 	dec  %o0
    5bac:	c4 12 7f fe 	lduh  [ %o1 + -2 ], %g2
    5bb0:	92 22 60 02 	sub  %o1, 2, %o1
    5bb4:	c4 32 3f fe 	sth  %g2, [ %o0 + -2 ]
    5bb8:	94 22 a0 02 	sub  %o2, 2, %o2
    5bbc:	10 80 00 14 	b  5c0c <__GI_memmove+0x3c>
    5bc0:	90 22 20 02 	sub  %o0, 2, %o0

00005bc4 <bcopy>:
    5bc4:	96 10 00 08 	mov  %o0, %o3
    5bc8:	90 10 00 09 	mov  %o1, %o0
    5bcc:	92 10 00 0b 	mov  %o3, %o1

00005bd0 <__GI_memmove>:
    5bd0:	80 a2 00 09 	cmp  %o0, %o1
    5bd4:	d0 23 a0 40 	st  %o0, [ %sp + 0x40 ]
    5bd8:	08 80 01 79 	bleu  61bc <__GI_memcpy+0x8>
    5bdc:	98 22 00 09 	sub  %o0, %o1, %o4
    5be0:	96 02 40 0a 	add  %o1, %o2, %o3
    5be4:	80 a2 c0 08 	cmp  %o3, %o0
    5be8:	08 80 01 76 	bleu  61c0 <__GI_memcpy+0xc>
    5bec:	9a 8b 20 03 	andcc  %o4, 3, %o5
    5bf0:	92 02 40 0a 	add  %o1, %o2, %o1
    5bf4:	90 02 00 0a 	add  %o0, %o2, %o0
    5bf8:	12 80 00 f9 	bne  5fdc <__GI_memmove+0x40c>
    5bfc:	80 a2 a0 0f 	cmp  %o2, 0xf
    5c00:	08 80 00 eb 	bleu  5fac <__GI_memmove+0x3dc>
    5c04:	80 8a 60 03 	btst  3, %o1
    5c08:	12 bf ff e0 	bne  5b88 <__GI_strlen+0x78>
    5c0c:	80 8a 60 04 	btst  4, %o1
    5c10:	02 80 00 07 	be  5c2c <__GI_memmove+0x5c>
    5c14:	82 10 00 0a 	mov  %o2, %g1
    5c18:	d8 02 7f fc 	ld  [ %o1 + -4 ], %o4
    5c1c:	82 20 60 04 	sub  %g1, 4, %g1
    5c20:	d8 22 3f fc 	st  %o4, [ %o0 + -4 ]
    5c24:	92 22 60 04 	sub  %o1, 4, %o1
    5c28:	90 22 20 04 	sub  %o0, 4, %o0
    5c2c:	8c 88 7f 80 	andcc  %g1, -128, %g6
    5c30:	02 80 00 37 	be  5d0c <__GI_memmove+0x13c>
    5c34:	80 8a 20 04 	btst  4, %o0
    5c38:	02 80 00 84 	be  5e48 <__GI_memmove+0x278>
    5c3c:	d4 1a 7f e0 	ldd  [ %o1 + -32 ], %o2
    5c40:	d8 1a 7f e8 	ldd  [ %o1 + -24 ], %o4
    5c44:	c4 1a 7f f0 	ldd  [ %o1 + -16 ], %g2
    5c48:	c8 1a 7f f8 	ldd  [ %o1 + -8 ], %g4
    5c4c:	d4 22 3f e0 	st  %o2, [ %o0 + -32 ]
    5c50:	d6 22 3f e4 	st  %o3, [ %o0 + -28 ]
    5c54:	d8 22 3f e8 	st  %o4, [ %o0 + -24 ]
    5c58:	da 22 3f ec 	st  %o5, [ %o0 + -20 ]
    5c5c:	c4 22 3f f0 	st  %g2, [ %o0 + -16 ]
    5c60:	c6 22 3f f4 	st  %g3, [ %o0 + -12 ]
    5c64:	c8 22 3f f8 	st  %g4, [ %o0 + -8 ]
    5c68:	ca 22 3f fc 	st  %g5, [ %o0 + -4 ]
    5c6c:	d4 1a 7f c0 	ldd  [ %o1 + -64 ], %o2
    5c70:	d8 1a 7f c8 	ldd  [ %o1 + -56 ], %o4
    5c74:	c4 1a 7f d0 	ldd  [ %o1 + -48 ], %g2
    5c78:	c8 1a 7f d8 	ldd  [ %o1 + -40 ], %g4
    5c7c:	d4 22 3f c0 	st  %o2, [ %o0 + -64 ]
    5c80:	d6 22 3f c4 	st  %o3, [ %o0 + -60 ]
    5c84:	d8 22 3f c8 	st  %o4, [ %o0 + -56 ]
    5c88:	da 22 3f cc 	st  %o5, [ %o0 + -52 ]
    5c8c:	c4 22 3f d0 	st  %g2, [ %o0 + -48 ]
    5c90:	c6 22 3f d4 	st  %g3, [ %o0 + -44 ]
    5c94:	c8 22 3f d8 	st  %g4, [ %o0 + -40 ]
    5c98:	ca 22 3f dc 	st  %g5, [ %o0 + -36 ]
    5c9c:	d4 1a 7f a0 	ldd  [ %o1 + -96 ], %o2
    5ca0:	d8 1a 7f a8 	ldd  [ %o1 + -88 ], %o4
    5ca4:	c4 1a 7f b0 	ldd  [ %o1 + -80 ], %g2
    5ca8:	c8 1a 7f b8 	ldd  [ %o1 + -72 ], %g4
    5cac:	d4 22 3f a0 	st  %o2, [ %o0 + -96 ]
    5cb0:	d6 22 3f a4 	st  %o3, [ %o0 + -92 ]
    5cb4:	d8 22 3f a8 	st  %o4, [ %o0 + -88 ]
    5cb8:	da 22 3f ac 	st  %o5, [ %o0 + -84 ]
    5cbc:	c4 22 3f b0 	st  %g2, [ %o0 + -80 ]
    5cc0:	c6 22 3f b4 	st  %g3, [ %o0 + -76 ]
    5cc4:	c8 22 3f b8 	st  %g4, [ %o0 + -72 ]
    5cc8:	ca 22 3f bc 	st  %g5, [ %o0 + -68 ]
    5ccc:	d4 1a 7f 80 	ldd  [ %o1 + -128 ], %o2
    5cd0:	d8 1a 7f 88 	ldd  [ %o1 + -120 ], %o4
    5cd4:	c4 1a 7f 90 	ldd  [ %o1 + -112 ], %g2
    5cd8:	c8 1a 7f 98 	ldd  [ %o1 + -104 ], %g4
    5cdc:	d4 22 3f 80 	st  %o2, [ %o0 + -128 ]
    5ce0:	d6 22 3f 84 	st  %o3, [ %o0 + -124 ]
    5ce4:	d8 22 3f 88 	st  %o4, [ %o0 + -120 ]
    5ce8:	da 22 3f 8c 	st  %o5, [ %o0 + -116 ]
    5cec:	c4 22 3f 90 	st  %g2, [ %o0 + -112 ]
    5cf0:	c6 22 3f 94 	st  %g3, [ %o0 + -108 ]
    5cf4:	c8 22 3f 98 	st  %g4, [ %o0 + -104 ]
    5cf8:	ca 22 3f 9c 	st  %g5, [ %o0 + -100 ]
    5cfc:	8c a1 a0 80 	subcc  %g6, 0x80, %g6
    5d00:	92 22 60 80 	sub  %o1, 0x80, %o1
    5d04:	12 bf ff ce 	bne  5c3c <__GI_memmove+0x6c>
    5d08:	90 22 20 80 	sub  %o0, 0x80, %o0
    5d0c:	8c 88 60 70 	andcc  %g1, 0x70, %g6
    5d10:	02 80 00 34 	be  5de0 <__GI_memmove+0x210>
    5d14:	80 88 60 08 	btst  8, %g1
    5d18:	99 31 a0 01 	srl  %g6, 1, %o4
    5d1c:	84 10 00 0f 	mov  %o7, %g2
    5d20:	98 01 80 0c 	add  %g6, %o4, %o4
    5d24:	40 00 05 3d 	call  7218 <__GI_memcpy+0x1064>
    5d28:	92 22 40 06 	sub  %o1, %g6, %o1
    5d2c:	9e 10 00 02 	mov  %g2, %o7
    5d30:	81 c3 60 bc 	jmp  %o5 + 0xbc
    5d34:	90 22 00 06 	sub  %o0, %g6, %o0
    5d38:	c4 1a 60 60 	ldd  [ %o1 + 0x60 ], %g2
    5d3c:	c8 1a 60 68 	ldd  [ %o1 + 0x68 ], %g4
    5d40:	c4 22 20 60 	st  %g2, [ %o0 + 0x60 ]
    5d44:	c6 22 20 64 	st  %g3, [ %o0 + 0x64 ]
    5d48:	c8 22 20 68 	st  %g4, [ %o0 + 0x68 ]
    5d4c:	ca 22 20 6c 	st  %g5, [ %o0 + 0x6c ]
    5d50:	c4 1a 60 50 	ldd  [ %o1 + 0x50 ], %g2
    5d54:	c8 1a 60 58 	ldd  [ %o1 + 0x58 ], %g4
    5d58:	c4 22 20 50 	st  %g2, [ %o0 + 0x50 ]
    5d5c:	c6 22 20 54 	st  %g3, [ %o0 + 0x54 ]
    5d60:	c8 22 20 58 	st  %g4, [ %o0 + 0x58 ]
    5d64:	ca 22 20 5c 	st  %g5, [ %o0 + 0x5c ]
    5d68:	c4 1a 60 40 	ldd  [ %o1 + 0x40 ], %g2
    5d6c:	c8 1a 60 48 	ldd  [ %o1 + 0x48 ], %g4
    5d70:	c4 22 20 40 	st  %g2, [ %o0 + 0x40 ]
    5d74:	c6 22 20 44 	st  %g3, [ %o0 + 0x44 ]
    5d78:	c8 22 20 48 	st  %g4, [ %o0 + 0x48 ]
    5d7c:	ca 22 20 4c 	st  %g5, [ %o0 + 0x4c ]
    5d80:	c4 1a 60 30 	ldd  [ %o1 + 0x30 ], %g2
    5d84:	c8 1a 60 38 	ldd  [ %o1 + 0x38 ], %g4
    5d88:	c4 22 20 30 	st  %g2, [ %o0 + 0x30 ]
    5d8c:	c6 22 20 34 	st  %g3, [ %o0 + 0x34 ]
    5d90:	c8 22 20 38 	st  %g4, [ %o0 + 0x38 ]
    5d94:	ca 22 20 3c 	st  %g5, [ %o0 + 0x3c ]
    5d98:	c4 1a 60 20 	ldd  [ %o1 + 0x20 ], %g2
    5d9c:	c8 1a 60 28 	ldd  [ %o1 + 0x28 ], %g4
    5da0:	c4 22 20 20 	st  %g2, [ %o0 + 0x20 ]
    5da4:	c6 22 20 24 	st  %g3, [ %o0 + 0x24 ]
    5da8:	c8 22 20 28 	st  %g4, [ %o0 + 0x28 ]
    5dac:	ca 22 20 2c 	st  %g5, [ %o0 + 0x2c ]
    5db0:	c4 1a 60 10 	ldd  [ %o1 + 0x10 ], %g2
    5db4:	c8 1a 60 18 	ldd  [ %o1 + 0x18 ], %g4
    5db8:	c4 22 20 10 	st  %g2, [ %o0 + 0x10 ]
    5dbc:	c6 22 20 14 	st  %g3, [ %o0 + 0x14 ]
    5dc0:	c8 22 20 18 	st  %g4, [ %o0 + 0x18 ]
    5dc4:	ca 22 20 1c 	st  %g5, [ %o0 + 0x1c ]
    5dc8:	c4 1a 60 00 	ldd  [ %o1 ], %g2
    5dcc:	c8 1a 60 08 	ldd  [ %o1 + 8 ], %g4
    5dd0:	c4 22 20 00 	st  %g2, [ %o0 ]
    5dd4:	c6 22 20 04 	st  %g3, [ %o0 + 4 ]
    5dd8:	c8 22 20 08 	st  %g4, [ %o0 + 8 ]
    5ddc:	ca 22 20 0c 	st  %g5, [ %o0 + 0xc ]
    5de0:	02 80 00 07 	be  5dfc <__GI_memmove+0x22c>
    5de4:	80 88 60 04 	btst  4, %g1
    5de8:	c4 1a 7f f8 	ldd  [ %o1 + -8 ], %g2
    5dec:	90 22 20 08 	sub  %o0, 8, %o0
    5df0:	92 22 60 08 	sub  %o1, 8, %o1
    5df4:	c4 22 00 00 	st  %g2, [ %o0 ]
    5df8:	c6 22 20 04 	st  %g3, [ %o0 + 4 ]
    5dfc:	02 80 00 06 	be  5e14 <__GI_memmove+0x244>
    5e00:	80 88 60 02 	btst  2, %g1
    5e04:	c4 02 7f fc 	ld  [ %o1 + -4 ], %g2
    5e08:	92 22 60 04 	sub  %o1, 4, %o1
    5e0c:	c4 22 3f fc 	st  %g2, [ %o0 + -4 ]
    5e10:	90 22 20 04 	sub  %o0, 4, %o0
    5e14:	02 80 00 06 	be  5e2c <__GI_memmove+0x25c>
    5e18:	80 88 60 01 	btst  1, %g1
    5e1c:	c4 12 7f fe 	lduh  [ %o1 + -2 ], %g2
    5e20:	92 22 60 02 	sub  %o1, 2, %o1
    5e24:	c4 32 3f fe 	sth  %g2, [ %o0 + -2 ]
    5e28:	90 22 20 02 	sub  %o0, 2, %o0
    5e2c:	02 80 00 04 	be  5e3c <__GI_memmove+0x26c>
    5e30:	01 00 00 00 	nop 
    5e34:	c4 0a 7f ff 	ldub  [ %o1 + -1 ], %g2
    5e38:	c4 2a 3f ff 	stb  %g2, [ %o0 + -1 ]
    5e3c:	81 c3 e0 08 	retl 
    5e40:	d0 03 a0 40 	ld  [ %sp + 0x40 ], %o0
    5e44:	d4 1a 7f e0 	ldd  [ %o1 + -32 ], %o2
    5e48:	d8 1a 7f e8 	ldd  [ %o1 + -24 ], %o4
    5e4c:	c4 1a 7f f0 	ldd  [ %o1 + -16 ], %g2
    5e50:	c8 1a 7f f8 	ldd  [ %o1 + -8 ], %g4
    5e54:	d4 3a 3f e0 	std  %o2, [ %o0 + -32 ]
    5e58:	d8 3a 3f e8 	std  %o4, [ %o0 + -24 ]
    5e5c:	c4 3a 3f f0 	std  %g2, [ %o0 + -16 ]
    5e60:	c8 3a 3f f8 	std  %g4, [ %o0 + -8 ]
    5e64:	d4 1a 7f c0 	ldd  [ %o1 + -64 ], %o2
    5e68:	d8 1a 7f c8 	ldd  [ %o1 + -56 ], %o4
    5e6c:	c4 1a 7f d0 	ldd  [ %o1 + -48 ], %g2
    5e70:	c8 1a 7f d8 	ldd  [ %o1 + -40 ], %g4
    5e74:	d4 3a 3f c0 	std  %o2, [ %o0 + -64 ]
    5e78:	d8 3a 3f c8 	std  %o4, [ %o0 + -56 ]
    5e7c:	c4 3a 3f d0 	std  %g2, [ %o0 + -48 ]
    5e80:	c8 3a 3f d8 	std  %g4, [ %o0 + -40 ]
    5e84:	d4 1a 7f a0 	ldd  [ %o1 + -96 ], %o2
    5e88:	d8 1a 7f a8 	ldd  [ %o1 + -88 ], %o4
    5e8c:	c4 1a 7f b0 	ldd  [ %o1 + -80 ], %g2
    5e90:	c8 1a 7f b8 	ldd  [ %o1 + -72 ], %g4
    5e94:	d4 3a 3f a0 	std  %o2, [ %o0 + -96 ]
    5e98:	d8 3a 3f a8 	std  %o4, [ %o0 + -88 ]
    5e9c:	c4 3a 3f b0 	std  %g2, [ %o0 + -80 ]
    5ea0:	c8 3a 3f b8 	std  %g4, [ %o0 + -72 ]
    5ea4:	d4 1a 7f 80 	ldd  [ %o1 + -128 ], %o2
    5ea8:	d8 1a 7f 88 	ldd  [ %o1 + -120 ], %o4
    5eac:	c4 1a 7f 90 	ldd  [ %o1 + -112 ], %g2
    5eb0:	c8 1a 7f 98 	ldd  [ %o1 + -104 ], %g4
    5eb4:	d4 3a 3f 80 	std  %o2, [ %o0 + -128 ]
    5eb8:	d8 3a 3f 88 	std  %o4, [ %o0 + -120 ]
    5ebc:	c4 3a 3f 90 	std  %g2, [ %o0 + -112 ]
    5ec0:	c8 3a 3f 98 	std  %g4, [ %o0 + -104 ]
    5ec4:	8c a1 a0 80 	subcc  %g6, 0x80, %g6
    5ec8:	92 22 60 80 	sub  %o1, 0x80, %o1
    5ecc:	12 bf ff de 	bne  5e44 <__GI_memmove+0x274>
    5ed0:	90 22 20 80 	sub  %o0, 0x80, %o0
    5ed4:	8c 88 60 70 	andcc  %g1, 0x70, %g6
    5ed8:	02 bf ff c2 	be  5de0 <__GI_memmove+0x210>
    5edc:	80 88 60 08 	btst  8, %g1
    5ee0:	99 31 a0 01 	srl  %g6, 1, %o4
    5ee4:	84 10 00 0f 	mov  %o7, %g2
    5ee8:	98 01 80 0c 	add  %g6, %o4, %o4
    5eec:	40 00 04 cb 	call  7218 <__GI_memcpy+0x1064>
    5ef0:	92 22 40 06 	sub  %o1, %g6, %o1
    5ef4:	9e 10 00 02 	mov  %g2, %o7
    5ef8:	81 c3 7e f4 	jmp  %o5 + -268
    5efc:	90 22 00 06 	sub  %o0, %g6, %o0
    5f00:	96 0a a0 0e 	and  %o2, 0xe, %o3
    5f04:	84 10 00 0f 	mov  %o7, %g2
    5f08:	99 2a e0 03 	sll  %o3, 3, %o4
    5f0c:	90 22 00 0b 	sub  %o0, %o3, %o0
    5f10:	40 00 04 c2 	call  7218 <__GI_memcpy+0x1064>
    5f14:	92 22 40 0b 	sub  %o1, %o3, %o1
    5f18:	9e 10 00 02 	mov  %g2, %o7
    5f1c:	81 c3 60 84 	jmp  %o5 + 0x84
    5f20:	80 8a a0 01 	btst  1, %o2
    5f24:	c4 0a 60 0c 	ldub  [ %o1 + 0xc ], %g2
    5f28:	c6 0a 60 0d 	ldub  [ %o1 + 0xd ], %g3
    5f2c:	c4 2a 20 0c 	stb  %g2, [ %o0 + 0xc ]
    5f30:	c6 2a 20 0d 	stb  %g3, [ %o0 + 0xd ]
    5f34:	c4 0a 60 0a 	ldub  [ %o1 + 0xa ], %g2
    5f38:	c6 0a 60 0b 	ldub  [ %o1 + 0xb ], %g3
    5f3c:	c4 2a 20 0a 	stb  %g2, [ %o0 + 0xa ]
    5f40:	c6 2a 20 0b 	stb  %g3, [ %o0 + 0xb ]
    5f44:	c4 0a 60 08 	ldub  [ %o1 + 8 ], %g2
    5f48:	c6 0a 60 09 	ldub  [ %o1 + 9 ], %g3
    5f4c:	c4 2a 20 08 	stb  %g2, [ %o0 + 8 ]
    5f50:	c6 2a 20 09 	stb  %g3, [ %o0 + 9 ]
    5f54:	c4 0a 60 06 	ldub  [ %o1 + 6 ], %g2
    5f58:	c6 0a 60 07 	ldub  [ %o1 + 7 ], %g3
    5f5c:	c4 2a 20 06 	stb  %g2, [ %o0 + 6 ]
    5f60:	c6 2a 20 07 	stb  %g3, [ %o0 + 7 ]
    5f64:	c4 0a 60 04 	ldub  [ %o1 + 4 ], %g2
    5f68:	c6 0a 60 05 	ldub  [ %o1 + 5 ], %g3
    5f6c:	c4 2a 20 04 	stb  %g2, [ %o0 + 4 ]
    5f70:	c6 2a 20 05 	stb  %g3, [ %o0 + 5 ]
    5f74:	c4 0a 60 02 	ldub  [ %o1 + 2 ], %g2
    5f78:	c6 0a 60 03 	ldub  [ %o1 + 3 ], %g3
    5f7c:	c4 2a 20 02 	stb  %g2, [ %o0 + 2 ]
    5f80:	c6 2a 20 03 	stb  %g3, [ %o0 + 3 ]
    5f84:	c4 0a 60 00 	ldub  [ %o1 ], %g2
    5f88:	c6 0a 60 01 	ldub  [ %o1 + 1 ], %g3
    5f8c:	c4 2a 20 00 	stb  %g2, [ %o0 ]
    5f90:	c6 2a 20 01 	stb  %g3, [ %o0 + 1 ]
    5f94:	02 80 00 04 	be  5fa4 <__GI_memmove+0x3d4>
    5f98:	01 00 00 00 	nop 
    5f9c:	c4 0a 7f ff 	ldub  [ %o1 + -1 ], %g2
    5fa0:	c4 2a 3f ff 	stb  %g2, [ %o0 + -1 ]
    5fa4:	81 c3 e0 08 	retl 
    5fa8:	d0 03 a0 40 	ld  [ %sp + 0x40 ], %o0
    5fac:	12 bf ff d5 	bne  5f00 <__GI_memmove+0x330>
    5fb0:	80 8a a0 08 	btst  8, %o2
    5fb4:	02 80 00 08 	be  5fd4 <__GI_memmove+0x404>
    5fb8:	80 8a a0 04 	btst  4, %o2
    5fbc:	c4 02 7f f8 	ld  [ %o1 + -8 ], %g2
    5fc0:	c6 02 7f fc 	ld  [ %o1 + -4 ], %g3
    5fc4:	92 22 60 08 	sub  %o1, 8, %o1
    5fc8:	c4 22 3f f8 	st  %g2, [ %o0 + -8 ]
    5fcc:	c6 22 3f fc 	st  %g3, [ %o0 + -4 ]
    5fd0:	90 22 20 08 	sub  %o0, 8, %o0
    5fd4:	10 bf ff 8a 	b  5dfc <__GI_memmove+0x22c>
    5fd8:	82 10 00 0a 	mov  %o2, %g1
    5fdc:	80 a2 a0 0f 	cmp  %o2, 0xf
    5fe0:	08 bf ff c8 	bleu  5f00 <__GI_memmove+0x330>
    5fe4:	80 8a 20 03 	btst  3, %o0
    5fe8:	02 80 00 11 	be  602c <__GI_memmove+0x45c>
    5fec:	80 8a 20 01 	btst  1, %o0
    5ff0:	02 80 00 08 	be  6010 <__GI_memmove+0x440>
    5ff4:	80 8a 20 02 	btst  2, %o0
    5ff8:	ca 0a 7f ff 	ldub  [ %o1 + -1 ], %g5
    5ffc:	92 22 60 01 	dec  %o1
    6000:	ca 2a 3f ff 	stb  %g5, [ %o0 + -1 ]
    6004:	90 22 20 01 	dec  %o0
    6008:	02 80 00 09 	be  602c <__GI_memmove+0x45c>
    600c:	94 22 a0 01 	dec  %o2
    6010:	ca 0a 7f ff 	ldub  [ %o1 + -1 ], %g5
    6014:	92 22 60 02 	sub  %o1, 2, %o1
    6018:	ca 2a 3f ff 	stb  %g5, [ %o0 + -1 ]
    601c:	90 22 20 02 	sub  %o0, 2, %o0
    6020:	ca 0a 40 00 	ldub  [ %o1 ], %g5
    6024:	94 22 a0 02 	sub  %o2, 2, %o2
    6028:	ca 2a 00 00 	stb  %g5, [ %o0 ]
    602c:	84 0a 60 03 	and  %o1, 3, %g2
    6030:	92 0a 7f fc 	and  %o1, -4, %o1
    6034:	86 0a a0 0c 	and  %o2, 0xc, %g3
    6038:	92 02 60 04 	add  %o1, 4, %o1
    603c:	80 a0 e0 04 	cmp  %g3, 4
    6040:	89 28 a0 03 	sll  %g2, 3, %g4
    6044:	84 10 20 20 	mov  0x20, %g2
    6048:	02 80 00 18 	be  60a8 <__GI_memmove+0x4d8>
    604c:	8c 20 80 04 	sub  %g2, %g4, %g6
    6050:	0a 80 00 10 	bcs  6090 <__GI_memmove+0x4c0>
    6054:	80 a0 e0 08 	cmp  %g3, 8
    6058:	02 80 00 08 	be  6078 <__GI_memmove+0x4a8>
    605c:	87 32 a0 02 	srl  %o2, 2, %g3
    6060:	d6 02 7f fc 	ld  [ %o1 + -4 ], %o3
    6064:	90 02 3f f8 	add  %o0, -8, %o0
    6068:	d8 02 7f f8 	ld  [ %o1 + -8 ], %o4
    606c:	92 02 7f f0 	add  %o1, -16, %o1
    6070:	10 80 00 1e 	b  60e8 <__GI_memmove+0x518>
    6074:	86 00 e0 01 	inc  %g3
    6078:	d8 02 7f fc 	ld  [ %o1 + -4 ], %o4
    607c:	90 02 3f fc 	add  %o0, -4, %o0
    6080:	c2 02 7f f8 	ld  [ %o1 + -8 ], %g1
    6084:	92 02 7f f4 	add  %o1, -12, %o1
    6088:	10 80 00 1d 	b  60fc <__GI_memmove+0x52c>
    608c:	86 00 e0 02 	add  %g3, 2, %g3
    6090:	da 02 7f fc 	ld  [ %o1 + -4 ], %o5
    6094:	90 02 3f f4 	add  %o0, -12, %o0
    6098:	d6 02 7f f8 	ld  [ %o1 + -8 ], %o3
    609c:	92 02 7f ec 	add  %o1, -20, %o1
    60a0:	10 80 00 0d 	b  60d4 <__GI_memmove+0x504>
    60a4:	87 32 a0 02 	srl  %o2, 2, %g3
    60a8:	c2 02 7f fc 	ld  [ %o1 + -4 ], %g1
    60ac:	87 32 a0 02 	srl  %o2, 2, %g3
    60b0:	da 02 7f f8 	ld  [ %o1 + -8 ], %o5
    60b4:	92 02 7f e8 	add  %o1, -24, %o1
    60b8:	90 02 3f f0 	add  %o0, -16, %o0
    60bc:	86 00 ff ff 	add  %g3, -1, %g3
    60c0:	d6 02 60 0c 	ld  [ %o1 + 0xc ], %o3
    60c4:	85 2b 40 04 	sll  %o5, %g4, %g2
    60c8:	8b 30 40 06 	srl  %g1, %g6, %g5
    60cc:	84 10 80 05 	or  %g2, %g5, %g2
    60d0:	c4 22 20 0c 	st  %g2, [ %o0 + 0xc ]
    60d4:	d8 02 60 08 	ld  [ %o1 + 8 ], %o4
    60d8:	85 2a c0 04 	sll  %o3, %g4, %g2
    60dc:	8b 33 40 06 	srl  %o5, %g6, %g5
    60e0:	84 10 80 05 	or  %g2, %g5, %g2
    60e4:	c4 22 20 08 	st  %g2, [ %o0 + 8 ]
    60e8:	c2 02 60 04 	ld  [ %o1 + 4 ], %g1
    60ec:	85 2b 00 04 	sll  %o4, %g4, %g2
    60f0:	8b 32 c0 06 	srl  %o3, %g6, %g5
    60f4:	84 10 80 05 	or  %g2, %g5, %g2
    60f8:	c4 22 20 04 	st  %g2, [ %o0 + 4 ]
    60fc:	da 02 40 00 	ld  [ %o1 ], %o5
    6100:	85 28 40 04 	sll  %g1, %g4, %g2
    6104:	8b 33 00 06 	srl  %o4, %g6, %g5
    6108:	86 80 ff fc 	addcc  %g3, -4, %g3
    610c:	84 10 80 05 	or  %g2, %g5, %g2
    6110:	92 02 7f f0 	add  %o1, -16, %o1
    6114:	c4 22 00 00 	st  %g2, [ %o0 ]
    6118:	90 02 3f f0 	add  %o0, -16, %o0
    611c:	32 bf ff ea 	bne,a   60c4 <__GI_memmove+0x4f4>
    6120:	d6 02 60 0c 	ld  [ %o1 + 0xc ], %o3
    6124:	85 2b 40 04 	sll  %o5, %g4, %g2
    6128:	8b 30 40 06 	srl  %g1, %g6, %g5
    612c:	87 31 20 03 	srl  %g4, 3, %g3
    6130:	84 10 80 05 	or  %g2, %g5, %g2
    6134:	92 02 40 03 	add  %o1, %g3, %o1
    6138:	80 8a a0 02 	btst  2, %o2
    613c:	c4 22 20 0c 	st  %g2, [ %o0 + 0xc ]
    6140:	02 80 00 08 	be  6160 <__GI_memmove+0x590>
    6144:	80 8a a0 01 	btst  1, %o2
    6148:	ca 0a 60 0f 	ldub  [ %o1 + 0xf ], %g5
    614c:	92 02 7f fe 	add  %o1, -2, %o1
    6150:	ca 2a 20 0b 	stb  %g5, [ %o0 + 0xb ]
    6154:	90 02 3f fe 	add  %o0, -2, %o0
    6158:	ca 0a 60 10 	ldub  [ %o1 + 0x10 ], %g5
    615c:	ca 2a 20 0c 	stb  %g5, [ %o0 + 0xc ]
    6160:	02 80 00 04 	be  6170 <__GI_memmove+0x5a0>
    6164:	01 00 00 00 	nop 
    6168:	ca 0a 60 0f 	ldub  [ %o1 + 0xf ], %g5
    616c:	ca 2a 20 0b 	stb  %g5, [ %o0 + 0xb ]
    6170:	81 c3 e0 08 	retl 
    6174:	d0 03 a0 40 	ld  [ %sp + 0x40 ], %o0
    6178:	80 8a 60 01 	btst  1, %o1
    617c:	02 80 00 08 	be  619c <__GI_memmove+0x5cc>
    6180:	80 8a 60 02 	btst  2, %o1
    6184:	c4 0a 40 00 	ldub  [ %o1 ], %g2
    6188:	92 02 60 01 	inc  %o1
    618c:	c4 2a 00 00 	stb  %g2, [ %o0 ]
    6190:	94 22 a0 01 	dec  %o2
    6194:	12 80 00 10 	bne  61d4 <__GI_memcpy+0x20>
    6198:	90 02 20 01 	inc  %o0
    619c:	c4 12 40 00 	lduh  [ %o1 ], %g2
    61a0:	92 02 60 02 	add  %o1, 2, %o1
    61a4:	c4 32 00 00 	sth  %g2, [ %o0 ]
    61a8:	94 22 a0 02 	sub  %o2, 2, %o2
    61ac:	10 80 00 0a 	b  61d4 <__GI_memcpy+0x20>
    61b0:	90 02 20 02 	add  %o0, 2, %o0

000061b4 <__GI_memcpy>:
    61b4:	98 22 00 09 	sub  %o0, %o1, %o4
    61b8:	d0 23 a0 40 	st  %o0, [ %sp + 0x40 ]
    61bc:	9a 8b 20 03 	andcc  %o4, 3, %o5
    61c0:	12 80 00 f4 	bne  6590 <__GI_memcpy+0x3dc>
    61c4:	80 a2 a0 0f 	cmp  %o2, 0xf
    61c8:	08 80 04 08 	bleu  71e8 <__GI_memcpy+0x1034>
    61cc:	80 8a 60 03 	btst  3, %o1
    61d0:	12 bf ff ea 	bne  6178 <__GI_memmove+0x5a8>
    61d4:	80 8a 60 04 	btst  4, %o1
    61d8:	02 80 00 07 	be  61f4 <__GI_memcpy+0x40>
    61dc:	82 10 00 0a 	mov  %o2, %g1
    61e0:	d8 02 40 00 	ld  [ %o1 ], %o4
    61e4:	82 20 60 04 	sub  %g1, 4, %g1
    61e8:	d8 22 00 00 	st  %o4, [ %o0 ]
    61ec:	92 02 60 04 	add  %o1, 4, %o1
    61f0:	90 02 20 04 	add  %o0, 4, %o0
    61f4:	8c 88 7f 80 	andcc  %g1, -128, %g6
    61f8:	02 80 00 37 	be  62d4 <__GI_memcpy+0x120>
    61fc:	80 8a 20 04 	btst  4, %o0
    6200:	02 80 00 84 	be  6410 <__GI_memcpy+0x25c>
    6204:	d4 1a 60 00 	ldd  [ %o1 ], %o2
    6208:	d8 1a 60 08 	ldd  [ %o1 + 8 ], %o4
    620c:	c4 1a 60 10 	ldd  [ %o1 + 0x10 ], %g2
    6210:	c8 1a 60 18 	ldd  [ %o1 + 0x18 ], %g4
    6214:	d4 22 20 00 	st  %o2, [ %o0 ]
    6218:	d6 22 20 04 	st  %o3, [ %o0 + 4 ]
    621c:	d8 22 20 08 	st  %o4, [ %o0 + 8 ]
    6220:	da 22 20 0c 	st  %o5, [ %o0 + 0xc ]
    6224:	c4 22 20 10 	st  %g2, [ %o0 + 0x10 ]
    6228:	c6 22 20 14 	st  %g3, [ %o0 + 0x14 ]
    622c:	c8 22 20 18 	st  %g4, [ %o0 + 0x18 ]
    6230:	ca 22 20 1c 	st  %g5, [ %o0 + 0x1c ]
    6234:	d4 1a 60 20 	ldd  [ %o1 + 0x20 ], %o2
    6238:	d8 1a 60 28 	ldd  [ %o1 + 0x28 ], %o4
    623c:	c4 1a 60 30 	ldd  [ %o1 + 0x30 ], %g2
    6240:	c8 1a 60 38 	ldd  [ %o1 + 0x38 ], %g4
    6244:	d4 22 20 20 	st  %o2, [ %o0 + 0x20 ]
    6248:	d6 22 20 24 	st  %o3, [ %o0 + 0x24 ]
    624c:	d8 22 20 28 	st  %o4, [ %o0 + 0x28 ]
    6250:	da 22 20 2c 	st  %o5, [ %o0 + 0x2c ]
    6254:	c4 22 20 30 	st  %g2, [ %o0 + 0x30 ]
    6258:	c6 22 20 34 	st  %g3, [ %o0 + 0x34 ]
    625c:	c8 22 20 38 	st  %g4, [ %o0 + 0x38 ]
    6260:	ca 22 20 3c 	st  %g5, [ %o0 + 0x3c ]
    6264:	d4 1a 60 40 	ldd  [ %o1 + 0x40 ], %o2
    6268:	d8 1a 60 48 	ldd  [ %o1 + 0x48 ], %o4
    626c:	c4 1a 60 50 	ldd  [ %o1 + 0x50 ], %g2
    6270:	c8 1a 60 58 	ldd  [ %o1 + 0x58 ], %g4
    6274:	d4 22 20 40 	st  %o2, [ %o0 + 0x40 ]
    6278:	d6 22 20 44 	st  %o3, [ %o0 + 0x44 ]
    627c:	d8 22 20 48 	st  %o4, [ %o0 + 0x48 ]
    6280:	da 22 20 4c 	st  %o5, [ %o0 + 0x4c ]
    6284:	c4 22 20 50 	st  %g2, [ %o0 + 0x50 ]
    6288:	c6 22 20 54 	st  %g3, [ %o0 + 0x54 ]
    628c:	c8 22 20 58 	st  %g4, [ %o0 + 0x58 ]
    6290:	ca 22 20 5c 	st  %g5, [ %o0 + 0x5c ]
    6294:	d4 1a 60 60 	ldd  [ %o1 + 0x60 ], %o2
    6298:	d8 1a 60 68 	ldd  [ %o1 + 0x68 ], %o4
    629c:	c4 1a 60 70 	ldd  [ %o1 + 0x70 ], %g2
    62a0:	c8 1a 60 78 	ldd  [ %o1 + 0x78 ], %g4
    62a4:	d4 22 20 60 	st  %o2, [ %o0 + 0x60 ]
    62a8:	d6 22 20 64 	st  %o3, [ %o0 + 0x64 ]
    62ac:	d8 22 20 68 	st  %o4, [ %o0 + 0x68 ]
    62b0:	da 22 20 6c 	st  %o5, [ %o0 + 0x6c ]
    62b4:	c4 22 20 70 	st  %g2, [ %o0 + 0x70 ]
    62b8:	c6 22 20 74 	st  %g3, [ %o0 + 0x74 ]
    62bc:	c8 22 20 78 	st  %g4, [ %o0 + 0x78 ]
    62c0:	ca 22 20 7c 	st  %g5, [ %o0 + 0x7c ]
    62c4:	8c a1 a0 80 	subcc  %g6, 0x80, %g6
    62c8:	92 02 60 80 	add  %o1, 0x80, %o1
    62cc:	12 bf ff ce 	bne  6204 <__GI_memcpy+0x50>
    62d0:	90 02 20 80 	add  %o0, 0x80, %o0
    62d4:	8c 88 60 70 	andcc  %g1, 0x70, %g6
    62d8:	02 80 00 34 	be  63a8 <__GI_memcpy+0x1f4>
    62dc:	80 88 60 08 	btst  8, %g1
    62e0:	99 31 a0 01 	srl  %g6, 1, %o4
    62e4:	84 10 00 0f 	mov  %o7, %g2
    62e8:	98 01 80 0c 	add  %g6, %o4, %o4
    62ec:	92 02 40 06 	add  %o1, %g6, %o1
    62f0:	40 00 03 ca 	call  7218 <__GI_memcpy+0x1064>
    62f4:	90 02 00 06 	add  %o0, %g6, %o0
    62f8:	81 c3 60 b8 	jmp  %o5 + 0xb8
    62fc:	9e 10 00 02 	mov  %g2, %o7
    6300:	c4 1a 7f 90 	ldd  [ %o1 + -112 ], %g2
    6304:	c8 1a 7f 98 	ldd  [ %o1 + -104 ], %g4
    6308:	c4 22 3f 90 	st  %g2, [ %o0 + -112 ]
    630c:	c6 22 3f 94 	st  %g3, [ %o0 + -108 ]
    6310:	c8 22 3f 98 	st  %g4, [ %o0 + -104 ]
    6314:	ca 22 3f 9c 	st  %g5, [ %o0 + -100 ]
    6318:	c4 1a 7f a0 	ldd  [ %o1 + -96 ], %g2
    631c:	c8 1a 7f a8 	ldd  [ %o1 + -88 ], %g4
    6320:	c4 22 3f a0 	st  %g2, [ %o0 + -96 ]
    6324:	c6 22 3f a4 	st  %g3, [ %o0 + -92 ]
    6328:	c8 22 3f a8 	st  %g4, [ %o0 + -88 ]
    632c:	ca 22 3f ac 	st  %g5, [ %o0 + -84 ]
    6330:	c4 1a 7f b0 	ldd  [ %o1 + -80 ], %g2
    6334:	c8 1a 7f b8 	ldd  [ %o1 + -72 ], %g4
    6338:	c4 22 3f b0 	st  %g2, [ %o0 + -80 ]
    633c:	c6 22 3f b4 	st  %g3, [ %o0 + -76 ]
    6340:	c8 22 3f b8 	st  %g4, [ %o0 + -72 ]
    6344:	ca 22 3f bc 	st  %g5, [ %o0 + -68 ]
    6348:	c4 1a 7f c0 	ldd  [ %o1 + -64 ], %g2
    634c:	c8 1a 7f c8 	ldd  [ %o1 + -56 ], %g4
    6350:	c4 22 3f c0 	st  %g2, [ %o0 + -64 ]
    6354:	c6 22 3f c4 	st  %g3, [ %o0 + -60 ]
    6358:	c8 22 3f c8 	st  %g4, [ %o0 + -56 ]
    635c:	ca 22 3f cc 	st  %g5, [ %o0 + -52 ]
    6360:	c4 1a 7f d0 	ldd  [ %o1 + -48 ], %g2
    6364:	c8 1a 7f d8 	ldd  [ %o1 + -40 ], %g4
    6368:	c4 22 3f d0 	st  %g2, [ %o0 + -48 ]
    636c:	c6 22 3f d4 	st  %g3, [ %o0 + -44 ]
    6370:	c8 22 3f d8 	st  %g4, [ %o0 + -40 ]
    6374:	ca 22 3f dc 	st  %g5, [ %o0 + -36 ]
    6378:	c4 1a 7f e0 	ldd  [ %o1 + -32 ], %g2
    637c:	c8 1a 7f e8 	ldd  [ %o1 + -24 ], %g4
    6380:	c4 22 3f e0 	st  %g2, [ %o0 + -32 ]
    6384:	c6 22 3f e4 	st  %g3, [ %o0 + -28 ]
    6388:	c8 22 3f e8 	st  %g4, [ %o0 + -24 ]
    638c:	ca 22 3f ec 	st  %g5, [ %o0 + -20 ]
    6390:	c4 1a 7f f0 	ldd  [ %o1 + -16 ], %g2
    6394:	c8 1a 7f f8 	ldd  [ %o1 + -8 ], %g4
    6398:	c4 22 3f f0 	st  %g2, [ %o0 + -16 ]
    639c:	c6 22 3f f4 	st  %g3, [ %o0 + -12 ]
    63a0:	c8 22 3f f8 	st  %g4, [ %o0 + -8 ]
    63a4:	ca 22 3f fc 	st  %g5, [ %o0 + -4 ]
    63a8:	02 80 00 07 	be  63c4 <__GI_memcpy+0x210>
    63ac:	80 88 60 04 	btst  4, %g1
    63b0:	c4 1a 40 00 	ldd  [ %o1 ], %g2
    63b4:	90 02 20 08 	add  %o0, 8, %o0
    63b8:	c4 22 3f f8 	st  %g2, [ %o0 + -8 ]
    63bc:	92 02 60 08 	add  %o1, 8, %o1
    63c0:	c6 22 3f fc 	st  %g3, [ %o0 + -4 ]
    63c4:	02 80 00 06 	be  63dc <__GI_memcpy+0x228>
    63c8:	80 88 60 02 	btst  2, %g1
    63cc:	c4 02 40 00 	ld  [ %o1 ], %g2
    63d0:	92 02 60 04 	add  %o1, 4, %o1
    63d4:	c4 22 00 00 	st  %g2, [ %o0 ]
    63d8:	90 02 20 04 	add  %o0, 4, %o0
    63dc:	02 80 00 06 	be  63f4 <__GI_memcpy+0x240>
    63e0:	80 88 60 01 	btst  1, %g1
    63e4:	c4 12 40 00 	lduh  [ %o1 ], %g2
    63e8:	92 02 60 02 	add  %o1, 2, %o1
    63ec:	c4 32 00 00 	sth  %g2, [ %o0 ]
    63f0:	90 02 20 02 	add  %o0, 2, %o0
    63f4:	02 80 00 04 	be  6404 <__GI_memcpy+0x250>
    63f8:	01 00 00 00 	nop 
    63fc:	c4 0a 40 00 	ldub  [ %o1 ], %g2
    6400:	c4 2a 00 00 	stb  %g2, [ %o0 ]
    6404:	81 c3 e0 08 	retl 
    6408:	d0 03 a0 40 	ld  [ %sp + 0x40 ], %o0
    640c:	d4 1a 60 00 	ldd  [ %o1 ], %o2
    6410:	d8 1a 60 08 	ldd  [ %o1 + 8 ], %o4
    6414:	c4 1a 60 10 	ldd  [ %o1 + 0x10 ], %g2
    6418:	c8 1a 60 18 	ldd  [ %o1 + 0x18 ], %g4
    641c:	d4 3a 20 00 	std  %o2, [ %o0 ]
    6420:	d8 3a 20 08 	std  %o4, [ %o0 + 8 ]
    6424:	c4 3a 20 10 	std  %g2, [ %o0 + 0x10 ]
    6428:	c8 3a 20 18 	std  %g4, [ %o0 + 0x18 ]
    642c:	d4 1a 60 20 	ldd  [ %o1 + 0x20 ], %o2
    6430:	d8 1a 60 28 	ldd  [ %o1 + 0x28 ], %o4
    6434:	c4 1a 60 30 	ldd  [ %o1 + 0x30 ], %g2
    6438:	c8 1a 60 38 	ldd  [ %o1 + 0x38 ], %g4
    643c:	d4 3a 20 20 	std  %o2, [ %o0 + 0x20 ]
    6440:	d8 3a 20 28 	std  %o4, [ %o0 + 0x28 ]
    6444:	c4 3a 20 30 	std  %g2, [ %o0 + 0x30 ]
    6448:	c8 3a 20 38 	std  %g4, [ %o0 + 0x38 ]
    644c:	d4 1a 60 40 	ldd  [ %o1 + 0x40 ], %o2
    6450:	d8 1a 60 48 	ldd  [ %o1 + 0x48 ], %o4
    6454:	c4 1a 60 50 	ldd  [ %o1 + 0x50 ], %g2
    6458:	c8 1a 60 58 	ldd  [ %o1 + 0x58 ], %g4
    645c:	d4 3a 20 40 	std  %o2, [ %o0 + 0x40 ]
    6460:	d8 3a 20 48 	std  %o4, [ %o0 + 0x48 ]
    6464:	c4 3a 20 50 	std  %g2, [ %o0 + 0x50 ]
    6468:	c8 3a 20 58 	std  %g4, [ %o0 + 0x58 ]
    646c:	d4 1a 60 60 	ldd  [ %o1 + 0x60 ], %o2
    6470:	d8 1a 60 68 	ldd  [ %o1 + 0x68 ], %o4
    6474:	c4 1a 60 70 	ldd  [ %o1 + 0x70 ], %g2
    6478:	c8 1a 60 78 	ldd  [ %o1 + 0x78 ], %g4
    647c:	d4 3a 20 60 	std  %o2, [ %o0 + 0x60 ]
    6480:	d8 3a 20 68 	std  %o4, [ %o0 + 0x68 ]
    6484:	c4 3a 20 70 	std  %g2, [ %o0 + 0x70 ]
    6488:	c8 3a 20 78 	std  %g4, [ %o0 + 0x78 ]
    648c:	8c a1 a0 80 	subcc  %g6, 0x80, %g6
    6490:	92 02 60 80 	add  %o1, 0x80, %o1
    6494:	12 bf ff de 	bne  640c <__GI_memcpy+0x258>
    6498:	90 02 20 80 	add  %o0, 0x80, %o0
    649c:	8c 88 60 70 	andcc  %g1, 0x70, %g6
    64a0:	02 80 00 24 	be  6530 <__GI_memcpy+0x37c>
    64a4:	80 88 60 08 	btst  8, %g1
    64a8:	84 10 00 0f 	mov  %o7, %g2
    64ac:	40 00 03 5d 	call  7220 <__GI_memcpy+0x106c>
    64b0:	92 02 40 06 	add  %o1, %g6, %o1
    64b4:	9e 10 00 02 	mov  %g2, %o7
    64b8:	81 c3 60 84 	jmp  %o5 + 0x84
    64bc:	90 02 00 06 	add  %o0, %g6, %o0
    64c0:	c4 1a 7f 90 	ldd  [ %o1 + -112 ], %g2
    64c4:	c8 1a 7f 98 	ldd  [ %o1 + -104 ], %g4
    64c8:	c4 3a 3f 90 	std  %g2, [ %o0 + -112 ]
    64cc:	c8 3a 3f 98 	std  %g4, [ %o0 + -104 ]
    64d0:	c4 1a 7f a0 	ldd  [ %o1 + -96 ], %g2
    64d4:	c8 1a 7f a8 	ldd  [ %o1 + -88 ], %g4
    64d8:	c4 3a 3f a0 	std  %g2, [ %o0 + -96 ]
    64dc:	c8 3a 3f a8 	std  %g4, [ %o0 + -88 ]
    64e0:	c4 1a 7f b0 	ldd  [ %o1 + -80 ], %g2
    64e4:	c8 1a 7f b8 	ldd  [ %o1 + -72 ], %g4
    64e8:	c4 3a 3f b0 	std  %g2, [ %o0 + -80 ]
    64ec:	c8 3a 3f b8 	std  %g4, [ %o0 + -72 ]
    64f0:	c4 1a 7f c0 	ldd  [ %o1 + -64 ], %g2
    64f4:	c8 1a 7f c8 	ldd  [ %o1 + -56 ], %g4
    64f8:	c4 3a 3f c0 	std  %g2, [ %o0 + -64 ]
    64fc:	c8 3a 3f c8 	std  %g4, [ %o0 + -56 ]
    6500:	c4 1a 7f d0 	ldd  [ %o1 + -48 ], %g2
    6504:	c8 1a 7f d8 	ldd  [ %o1 + -40 ], %g4
    6508:	c4 3a 3f d0 	std  %g2, [ %o0 + -48 ]
    650c:	c8 3a 3f d8 	std  %g4, [ %o0 + -40 ]
    6510:	c4 1a 7f e0 	ldd  [ %o1 + -32 ], %g2
    6514:	c8 1a 7f e8 	ldd  [ %o1 + -24 ], %g4
    6518:	c4 3a 3f e0 	std  %g2, [ %o0 + -32 ]
    651c:	c8 3a 3f e8 	std  %g4, [ %o0 + -24 ]
    6520:	c4 1a 7f f0 	ldd  [ %o1 + -16 ], %g2
    6524:	c8 1a 7f f8 	ldd  [ %o1 + -8 ], %g4
    6528:	c4 3a 3f f0 	std  %g2, [ %o0 + -16 ]
    652c:	c8 3a 3f f8 	std  %g4, [ %o0 + -8 ]
    6530:	02 80 00 06 	be  6548 <__GI_memcpy+0x394>
    6534:	80 88 60 04 	btst  4, %g1
    6538:	c4 1a 40 00 	ldd  [ %o1 ], %g2
    653c:	90 02 20 08 	add  %o0, 8, %o0
    6540:	c4 3a 3f f8 	std  %g2, [ %o0 + -8 ]
    6544:	92 02 60 08 	add  %o1, 8, %o1
    6548:	02 80 00 06 	be  6560 <__GI_memcpy+0x3ac>
    654c:	80 88 60 02 	btst  2, %g1
    6550:	c4 02 40 00 	ld  [ %o1 ], %g2
    6554:	92 02 60 04 	add  %o1, 4, %o1
    6558:	c4 22 00 00 	st  %g2, [ %o0 ]
    655c:	90 02 20 04 	add  %o0, 4, %o0
    6560:	02 80 00 06 	be  6578 <__GI_memcpy+0x3c4>
    6564:	80 88 60 01 	btst  1, %g1
    6568:	c4 12 40 00 	lduh  [ %o1 ], %g2
    656c:	92 02 60 02 	add  %o1, 2, %o1
    6570:	c4 32 00 00 	sth  %g2, [ %o0 ]
    6574:	90 02 20 02 	add  %o0, 2, %o0
    6578:	02 80 00 04 	be  6588 <__GI_memcpy+0x3d4>
    657c:	01 00 00 00 	nop 
    6580:	c4 0a 40 00 	ldub  [ %o1 ], %g2
    6584:	c4 2a 00 00 	stb  %g2, [ %o0 ]
    6588:	81 c3 e0 08 	retl 
    658c:	d0 03 a0 40 	ld  [ %sp + 0x40 ], %o0
    6590:	80 a2 a0 06 	cmp  %o2, 6
    6594:	08 80 02 ea 	bleu  713c <__GI_memcpy+0xf88>
    6598:	80 a2 a1 00 	cmp  %o2, 0x100
    659c:	1a 80 00 65 	bcc  6730 <__GI_memcpy+0x57c>
    65a0:	80 8a 20 03 	btst  3, %o0
    65a4:	02 80 00 11 	be  65e8 <__GI_memcpy+0x434>
    65a8:	80 8a 20 01 	btst  1, %o0
    65ac:	02 80 00 08 	be  65cc <__GI_memcpy+0x418>
    65b0:	80 8a 20 02 	btst  2, %o0
    65b4:	ca 0a 40 00 	ldub  [ %o1 ], %g5
    65b8:	92 02 60 01 	inc  %o1
    65bc:	ca 2a 00 00 	stb  %g5, [ %o0 ]
    65c0:	94 22 a0 01 	dec  %o2
    65c4:	12 80 00 09 	bne  65e8 <__GI_memcpy+0x434>
    65c8:	90 02 20 01 	inc  %o0
    65cc:	c6 0a 40 00 	ldub  [ %o1 ], %g3
    65d0:	92 02 60 02 	add  %o1, 2, %o1
    65d4:	c6 2a 00 00 	stb  %g3, [ %o0 ]
    65d8:	94 22 a0 02 	sub  %o2, 2, %o2
    65dc:	c6 0a 7f ff 	ldub  [ %o1 + -1 ], %g3
    65e0:	90 02 20 02 	add  %o0, 2, %o0
    65e4:	c6 2a 3f ff 	stb  %g3, [ %o0 + -1 ]
    65e8:	84 0a 60 03 	and  %o1, 3, %g2
    65ec:	86 0a a0 0c 	and  %o2, 0xc, %g3
    65f0:	92 0a 7f fc 	and  %o1, -4, %o1
    65f4:	80 a0 e0 04 	cmp  %g3, 4
    65f8:	89 28 a0 03 	sll  %g2, 3, %g4
    65fc:	84 10 20 20 	mov  0x20, %g2
    6600:	02 80 00 17 	be  665c <__GI_memcpy+0x4a8>
    6604:	8c 20 80 04 	sub  %g2, %g4, %g6
    6608:	0a 80 00 0f 	bcs  6644 <__GI_memcpy+0x490>
    660c:	80 a0 e0 08 	cmp  %g3, 8
    6610:	02 80 00 07 	be  662c <__GI_memcpy+0x478>
    6614:	87 32 a0 02 	srl  %o2, 2, %g3
    6618:	d6 02 40 00 	ld  [ %o1 ], %o3
    661c:	90 02 3f f8 	add  %o0, -8, %o0
    6620:	d8 02 60 04 	ld  [ %o1 + 4 ], %o4
    6624:	10 80 00 1f 	b  66a0 <__GI_memcpy+0x4ec>
    6628:	86 00 e0 01 	inc  %g3
    662c:	d8 02 40 00 	ld  [ %o1 ], %o4
    6630:	90 02 3f f4 	add  %o0, -12, %o0
    6634:	da 02 60 04 	ld  [ %o1 + 4 ], %o5
    6638:	86 00 e0 02 	add  %g3, 2, %g3
    663c:	10 80 00 1e 	b  66b4 <__GI_memcpy+0x500>
    6640:	92 02 7f fc 	add  %o1, -4, %o1
    6644:	c2 02 40 00 	ld  [ %o1 ], %g1
    6648:	90 02 3f fc 	add  %o0, -4, %o0
    664c:	d6 02 60 04 	ld  [ %o1 + 4 ], %o3
    6650:	87 32 a0 02 	srl  %o2, 2, %g3
    6654:	10 80 00 0e 	b  668c <__GI_memcpy+0x4d8>
    6658:	92 02 60 04 	add  %o1, 4, %o1
    665c:	da 02 40 00 	ld  [ %o1 ], %o5
    6660:	80 a2 a0 07 	cmp  %o2, 7
    6664:	c2 02 60 04 	ld  [ %o1 + 4 ], %g1
    6668:	87 32 a0 02 	srl  %o2, 2, %g3
    666c:	08 80 00 1c 	bleu  66dc <__GI_memcpy+0x528>
    6670:	92 02 60 08 	add  %o1, 8, %o1
    6674:	d6 02 40 00 	ld  [ %o1 ], %o3
    6678:	86 00 ff ff 	add  %g3, -1, %g3
    667c:	85 2b 40 04 	sll  %o5, %g4, %g2
    6680:	8b 30 40 06 	srl  %g1, %g6, %g5
    6684:	84 10 80 05 	or  %g2, %g5, %g2
    6688:	c4 22 00 00 	st  %g2, [ %o0 ]
    668c:	d8 02 60 04 	ld  [ %o1 + 4 ], %o4
    6690:	85 28 40 04 	sll  %g1, %g4, %g2
    6694:	8b 32 c0 06 	srl  %o3, %g6, %g5
    6698:	84 10 80 05 	or  %g2, %g5, %g2
    669c:	c4 22 20 04 	st  %g2, [ %o0 + 4 ]
    66a0:	da 02 60 08 	ld  [ %o1 + 8 ], %o5
    66a4:	85 2a c0 04 	sll  %o3, %g4, %g2
    66a8:	8b 33 00 06 	srl  %o4, %g6, %g5
    66ac:	84 10 80 05 	or  %g2, %g5, %g2
    66b0:	c4 22 20 08 	st  %g2, [ %o0 + 8 ]
    66b4:	c2 02 60 0c 	ld  [ %o1 + 0xc ], %g1
    66b8:	85 2b 00 04 	sll  %o4, %g4, %g2
    66bc:	8b 33 40 06 	srl  %o5, %g6, %g5
    66c0:	86 80 ff fc 	addcc  %g3, -4, %g3
    66c4:	84 10 80 05 	or  %g2, %g5, %g2
    66c8:	92 02 60 10 	add  %o1, 0x10, %o1
    66cc:	c4 22 20 0c 	st  %g2, [ %o0 + 0xc ]
    66d0:	90 02 20 10 	add  %o0, 0x10, %o0
    66d4:	32 bf ff ea 	bne,a   667c <__GI_memcpy+0x4c8>
    66d8:	d6 02 40 00 	ld  [ %o1 ], %o3
    66dc:	85 2b 40 04 	sll  %o5, %g4, %g2
    66e0:	8b 30 40 06 	srl  %g1, %g6, %g5
    66e4:	87 31 a0 03 	srl  %g6, 3, %g3
    66e8:	84 10 80 05 	or  %g2, %g5, %g2
    66ec:	92 22 40 03 	sub  %o1, %g3, %o1
    66f0:	80 8a a0 02 	btst  2, %o2
    66f4:	c4 22 00 00 	st  %g2, [ %o0 ]
    66f8:	02 80 00 08 	be  6718 <__GI_memcpy+0x564>
    66fc:	80 8a a0 01 	btst  1, %o2
    6700:	c4 0a 40 00 	ldub  [ %o1 ], %g2
    6704:	92 02 60 02 	add  %o1, 2, %o1
    6708:	c4 2a 20 04 	stb  %g2, [ %o0 + 4 ]
    670c:	90 02 20 02 	add  %o0, 2, %o0
    6710:	c4 0a 7f ff 	ldub  [ %o1 + -1 ], %g2
    6714:	c4 2a 20 03 	stb  %g2, [ %o0 + 3 ]
    6718:	02 80 00 04 	be  6728 <__GI_memcpy+0x574>
    671c:	01 00 00 00 	nop 
    6720:	c4 0a 40 00 	ldub  [ %o1 ], %g2
    6724:	c4 2a 20 04 	stb  %g2, [ %o0 + 4 ]
    6728:	81 c3 e0 08 	retl 
    672c:	d0 03 a0 40 	ld  [ %sp + 0x40 ], %o0
    6730:	80 8a 60 03 	btst  3, %o1
    6734:	02 80 00 11 	be  6778 <__GI_memcpy+0x5c4>
    6738:	80 8a 60 01 	btst  1, %o1
    673c:	02 80 00 08 	be  675c <__GI_memcpy+0x5a8>
    6740:	80 8a 60 02 	btst  2, %o1
    6744:	c4 0a 40 00 	ldub  [ %o1 ], %g2
    6748:	92 02 60 01 	inc  %o1
    674c:	c4 2a 00 00 	stb  %g2, [ %o0 ]
    6750:	94 22 a0 01 	dec  %o2
    6754:	12 80 00 09 	bne  6778 <__GI_memcpy+0x5c4>
    6758:	90 02 20 01 	inc  %o0
    675c:	c4 12 40 00 	lduh  [ %o1 ], %g2
    6760:	92 02 60 02 	add  %o1, 2, %o1
    6764:	87 30 a0 08 	srl  %g2, 8, %g3
    6768:	94 22 a0 02 	sub  %o2, 2, %o2
    676c:	c6 2a 00 00 	stb  %g3, [ %o0 ]
    6770:	90 02 20 02 	add  %o0, 2, %o0
    6774:	c4 2a 3f ff 	stb  %g2, [ %o0 + -1 ]
    6778:	80 8a 60 04 	btst  4, %o1
    677c:	12 80 00 0d 	bne  67b0 <__GI_memcpy+0x5fc>
    6780:	80 a3 60 01 	cmp  %o5, 1
    6784:	d8 02 40 00 	ld  [ %o1 ], %o4
    6788:	85 33 20 18 	srl  %o4, 0x18, %g2
    678c:	c4 2a 00 00 	stb  %g2, [ %o0 ]
    6790:	87 33 20 10 	srl  %o4, 0x10, %g3
    6794:	c6 2a 20 01 	stb  %g3, [ %o0 + 1 ]
    6798:	85 33 20 08 	srl  %o4, 8, %g2
    679c:	c4 2a 20 02 	stb  %g2, [ %o0 + 2 ]
    67a0:	94 22 a0 04 	sub  %o2, 4, %o2
    67a4:	d8 2a 20 03 	stb  %o4, [ %o0 + 3 ]
    67a8:	92 02 60 04 	add  %o1, 4, %o1
    67ac:	90 02 20 04 	add  %o0, 4, %o0
    67b0:	02 80 00 da 	be  6b18 <__GI_memcpy+0x964>
    67b4:	80 a3 60 02 	cmp  %o5, 2
    67b8:	02 80 00 6e 	be  6970 <__GI_memcpy+0x7bc>
    67bc:	94 22 a0 04 	sub  %o2, 4, %o2
    67c0:	c4 02 40 00 	ld  [ %o1 ], %g2
    67c4:	92 02 60 04 	add  %o1, 4, %o1
    67c8:	87 30 a0 18 	srl  %g2, 0x18, %g3
    67cc:	8a 0a 20 07 	and  %o0, 7, %g5
    67d0:	c6 2a 00 00 	stb  %g3, [ %o0 ]
    67d4:	80 a1 60 07 	cmp  %g5, 7
    67d8:	83 28 a0 08 	sll  %g2, 8, %g1
    67dc:	90 02 20 04 	add  %o0, 4, %o0
    67e0:	02 80 01 3b 	be  6ccc <__GI_memcpy+0xb18>
    67e4:	96 0a bf c0 	and  %o2, -64, %o3
    67e8:	d8 02 3f f9 	ld  [ %o0 + -7 ], %o4
    67ec:	c4 1a 60 00 	ldd  [ %o1 ], %g2
    67f0:	c8 1a 60 08 	ldd  [ %o1 + 8 ], %g4
    67f4:	9b 30 a0 18 	srl  %g2, 0x18, %o5
    67f8:	8d 30 e0 18 	srl  %g3, 0x18, %g6
    67fc:	85 28 a0 08 	sll  %g2, 8, %g2
    6800:	9a 13 40 01 	or  %o5, %g1, %o5
    6804:	83 28 e0 08 	sll  %g3, 8, %g1
    6808:	84 11 80 02 	or  %g6, %g2, %g2
    680c:	87 31 20 18 	srl  %g4, 0x18, %g3
    6810:	8d 31 60 18 	srl  %g5, 0x18, %g6
    6814:	89 29 20 08 	sll  %g4, 8, %g4
    6818:	86 10 c0 01 	or  %g3, %g1, %g3
    681c:	d8 3a 3f f9 	std  %o4, [ %o0 + -7 ]
    6820:	c4 3a 20 01 	std  %g2, [ %o0 + 1 ]
    6824:	83 29 60 08 	sll  %g5, 8, %g1
    6828:	98 11 80 04 	or  %g6, %g4, %o4
    682c:	c4 1a 60 10 	ldd  [ %o1 + 0x10 ], %g2
    6830:	c8 1a 60 18 	ldd  [ %o1 + 0x18 ], %g4
    6834:	9b 30 a0 18 	srl  %g2, 0x18, %o5
    6838:	8d 30 e0 18 	srl  %g3, 0x18, %g6
    683c:	85 28 a0 08 	sll  %g2, 8, %g2
    6840:	9a 13 40 01 	or  %o5, %g1, %o5
    6844:	83 28 e0 08 	sll  %g3, 8, %g1
    6848:	84 11 80 02 	or  %g6, %g2, %g2
    684c:	87 31 20 18 	srl  %g4, 0x18, %g3
    6850:	8d 31 60 18 	srl  %g5, 0x18, %g6
    6854:	89 29 20 08 	sll  %g4, 8, %g4
    6858:	86 10 c0 01 	or  %g3, %g1, %g3
    685c:	d8 3a 20 09 	std  %o4, [ %o0 + 9 ]
    6860:	c4 3a 20 11 	std  %g2, [ %o0 + 0x11 ]
    6864:	83 29 60 08 	sll  %g5, 8, %g1
    6868:	98 11 80 04 	or  %g6, %g4, %o4
    686c:	c4 1a 60 20 	ldd  [ %o1 + 0x20 ], %g2
    6870:	c8 1a 60 28 	ldd  [ %o1 + 0x28 ], %g4
    6874:	9b 30 a0 18 	srl  %g2, 0x18, %o5
    6878:	8d 30 e0 18 	srl  %g3, 0x18, %g6
    687c:	85 28 a0 08 	sll  %g2, 8, %g2
    6880:	9a 13 40 01 	or  %o5, %g1, %o5
    6884:	83 28 e0 08 	sll  %g3, 8, %g1
    6888:	84 11 80 02 	or  %g6, %g2, %g2
    688c:	87 31 20 18 	srl  %g4, 0x18, %g3
    6890:	8d 31 60 18 	srl  %g5, 0x18, %g6
    6894:	89 29 20 08 	sll  %g4, 8, %g4
    6898:	86 10 c0 01 	or  %g3, %g1, %g3
    689c:	d8 3a 20 19 	std  %o4, [ %o0 + 0x19 ]
    68a0:	c4 3a 20 21 	std  %g2, [ %o0 + 0x21 ]
    68a4:	83 29 60 08 	sll  %g5, 8, %g1
    68a8:	98 11 80 04 	or  %g6, %g4, %o4
    68ac:	c4 1a 60 30 	ldd  [ %o1 + 0x30 ], %g2
    68b0:	c8 1a 60 38 	ldd  [ %o1 + 0x38 ], %g4
    68b4:	9b 30 a0 18 	srl  %g2, 0x18, %o5
    68b8:	8d 30 e0 18 	srl  %g3, 0x18, %g6
    68bc:	85 28 a0 08 	sll  %g2, 8, %g2
    68c0:	9a 13 40 01 	or  %o5, %g1, %o5
    68c4:	83 28 e0 08 	sll  %g3, 8, %g1
    68c8:	84 11 80 02 	or  %g6, %g2, %g2
    68cc:	87 31 20 18 	srl  %g4, 0x18, %g3
    68d0:	8d 31 60 18 	srl  %g5, 0x18, %g6
    68d4:	89 29 20 08 	sll  %g4, 8, %g4
    68d8:	86 10 c0 01 	or  %g3, %g1, %g3
    68dc:	d8 3a 20 29 	std  %o4, [ %o0 + 0x29 ]
    68e0:	c4 3a 20 31 	std  %g2, [ %o0 + 0x31 ]
    68e4:	83 29 60 08 	sll  %g5, 8, %g1
    68e8:	98 11 80 04 	or  %g6, %g4, %o4
    68ec:	96 a2 e0 40 	subcc  %o3, 0x40, %o3
    68f0:	92 02 60 40 	add  %o1, 0x40, %o1
    68f4:	12 bf ff be 	bne  67ec <__GI_memcpy+0x638>
    68f8:	90 02 20 40 	add  %o0, 0x40, %o0
    68fc:	96 8a a0 30 	andcc  %o2, 0x30, %o3
    6900:	22 80 00 17 	be,a   695c <__GI_memcpy+0x7a8>
    6904:	85 30 60 10 	srl  %g1, 0x10, %g2
    6908:	c4 1a 60 00 	ldd  [ %o1 ], %g2
    690c:	c8 1a 60 08 	ldd  [ %o1 + 8 ], %g4
    6910:	9b 30 a0 18 	srl  %g2, 0x18, %o5
    6914:	8d 30 e0 18 	srl  %g3, 0x18, %g6
    6918:	85 28 a0 08 	sll  %g2, 8, %g2
    691c:	9a 13 40 01 	or  %o5, %g1, %o5
    6920:	83 28 e0 08 	sll  %g3, 8, %g1
    6924:	84 11 80 02 	or  %g6, %g2, %g2
    6928:	87 31 20 18 	srl  %g4, 0x18, %g3
    692c:	8d 31 60 18 	srl  %g5, 0x18, %g6
    6930:	89 29 20 08 	sll  %g4, 8, %g4
    6934:	86 10 c0 01 	or  %g3, %g1, %g3
    6938:	d8 3a 3f f9 	std  %o4, [ %o0 + -7 ]
    693c:	c4 3a 20 01 	std  %g2, [ %o0 + 1 ]
    6940:	83 29 60 08 	sll  %g5, 8, %g1
    6944:	98 11 80 04 	or  %g6, %g4, %o4
    6948:	96 a2 e0 10 	subcc  %o3, 0x10, %o3
    694c:	92 02 60 10 	add  %o1, 0x10, %o1
    6950:	12 bf ff ee 	bne  6908 <__GI_memcpy+0x754>
    6954:	90 02 20 10 	add  %o0, 0x10, %o0
    6958:	85 30 60 10 	srl  %g1, 0x10, %g2
    695c:	d8 22 3f f9 	st  %o4, [ %o0 + -7 ]
    6960:	c4 32 3f fd 	sth  %g2, [ %o0 + -3 ]
    6964:	89 30 60 08 	srl  %g1, 8, %g4
    6968:	10 80 01 f5 	b  713c <__GI_memcpy+0xf88>
    696c:	c8 2a 3f ff 	stb  %g4, [ %o0 + -1 ]
    6970:	c4 02 40 00 	ld  [ %o1 ], %g2
    6974:	92 02 60 04 	add  %o1, 4, %o1
    6978:	87 30 a0 10 	srl  %g2, 0x10, %g3
    697c:	8a 0a 20 07 	and  %o0, 7, %g5
    6980:	c6 32 00 00 	sth  %g3, [ %o0 ]
    6984:	80 a1 60 06 	cmp  %g5, 6
    6988:	83 28 a0 10 	sll  %g2, 0x10, %g1
    698c:	90 02 20 04 	add  %o0, 4, %o0
    6990:	02 80 01 8e 	be  6fc8 <__GI_memcpy+0xe14>
    6994:	96 0a bf c0 	and  %o2, -64, %o3
    6998:	d8 02 3f fa 	ld  [ %o0 + -6 ], %o4
    699c:	c4 1a 60 00 	ldd  [ %o1 ], %g2
    69a0:	c8 1a 60 08 	ldd  [ %o1 + 8 ], %g4
    69a4:	9b 30 a0 10 	srl  %g2, 0x10, %o5
    69a8:	8d 30 e0 10 	srl  %g3, 0x10, %g6
    69ac:	85 28 a0 10 	sll  %g2, 0x10, %g2
    69b0:	9a 13 40 01 	or  %o5, %g1, %o5
    69b4:	83 28 e0 10 	sll  %g3, 0x10, %g1
    69b8:	84 11 80 02 	or  %g6, %g2, %g2
    69bc:	87 31 20 10 	srl  %g4, 0x10, %g3
    69c0:	8d 31 60 10 	srl  %g5, 0x10, %g6
    69c4:	89 29 20 10 	sll  %g4, 0x10, %g4
    69c8:	86 10 c0 01 	or  %g3, %g1, %g3
    69cc:	d8 3a 3f fa 	std  %o4, [ %o0 + -6 ]
    69d0:	c4 3a 20 02 	std  %g2, [ %o0 + 2 ]
    69d4:	83 29 60 10 	sll  %g5, 0x10, %g1
    69d8:	98 11 80 04 	or  %g6, %g4, %o4
    69dc:	c4 1a 60 10 	ldd  [ %o1 + 0x10 ], %g2
    69e0:	c8 1a 60 18 	ldd  [ %o1 + 0x18 ], %g4
    69e4:	9b 30 a0 10 	srl  %g2, 0x10, %o5
    69e8:	8d 30 e0 10 	srl  %g3, 0x10, %g6
    69ec:	85 28 a0 10 	sll  %g2, 0x10, %g2
    69f0:	9a 13 40 01 	or  %o5, %g1, %o5
    69f4:	83 28 e0 10 	sll  %g3, 0x10, %g1
    69f8:	84 11 80 02 	or  %g6, %g2, %g2
    69fc:	87 31 20 10 	srl  %g4, 0x10, %g3
    6a00:	8d 31 60 10 	srl  %g5, 0x10, %g6
    6a04:	89 29 20 10 	sll  %g4, 0x10, %g4
    6a08:	86 10 c0 01 	or  %g3, %g1, %g3
    6a0c:	d8 3a 20 0a 	std  %o4, [ %o0 + 0xa ]
    6a10:	c4 3a 20 12 	std  %g2, [ %o0 + 0x12 ]
    6a14:	83 29 60 10 	sll  %g5, 0x10, %g1
    6a18:	98 11 80 04 	or  %g6, %g4, %o4
    6a1c:	c4 1a 60 20 	ldd  [ %o1 + 0x20 ], %g2
    6a20:	c8 1a 60 28 	ldd  [ %o1 + 0x28 ], %g4
    6a24:	9b 30 a0 10 	srl  %g2, 0x10, %o5
    6a28:	8d 30 e0 10 	srl  %g3, 0x10, %g6
    6a2c:	85 28 a0 10 	sll  %g2, 0x10, %g2
    6a30:	9a 13 40 01 	or  %o5, %g1, %o5
    6a34:	83 28 e0 10 	sll  %g3, 0x10, %g1
    6a38:	84 11 80 02 	or  %g6, %g2, %g2
    6a3c:	87 31 20 10 	srl  %g4, 0x10, %g3
    6a40:	8d 31 60 10 	srl  %g5, 0x10, %g6
    6a44:	89 29 20 10 	sll  %g4, 0x10, %g4
    6a48:	86 10 c0 01 	or  %g3, %g1, %g3
    6a4c:	d8 3a 20 1a 	std  %o4, [ %o0 + 0x1a ]
    6a50:	c4 3a 20 22 	std  %g2, [ %o0 + 0x22 ]
    6a54:	83 29 60 10 	sll  %g5, 0x10, %g1
    6a58:	98 11 80 04 	or  %g6, %g4, %o4
    6a5c:	c4 1a 60 30 	ldd  [ %o1 + 0x30 ], %g2
    6a60:	c8 1a 60 38 	ldd  [ %o1 + 0x38 ], %g4
    6a64:	9b 30 a0 10 	srl  %g2, 0x10, %o5
    6a68:	8d 30 e0 10 	srl  %g3, 0x10, %g6
    6a6c:	85 28 a0 10 	sll  %g2, 0x10, %g2
    6a70:	9a 13 40 01 	or  %o5, %g1, %o5
    6a74:	83 28 e0 10 	sll  %g3, 0x10, %g1
    6a78:	84 11 80 02 	or  %g6, %g2, %g2
    6a7c:	87 31 20 10 	srl  %g4, 0x10, %g3
    6a80:	8d 31 60 10 	srl  %g5, 0x10, %g6
    6a84:	89 29 20 10 	sll  %g4, 0x10, %g4
    6a88:	86 10 c0 01 	or  %g3, %g1, %g3
    6a8c:	d8 3a 20 2a 	std  %o4, [ %o0 + 0x2a ]
    6a90:	c4 3a 20 32 	std  %g2, [ %o0 + 0x32 ]
    6a94:	83 29 60 10 	sll  %g5, 0x10, %g1
    6a98:	98 11 80 04 	or  %g6, %g4, %o4
    6a9c:	96 a2 e0 40 	subcc  %o3, 0x40, %o3
    6aa0:	92 02 60 40 	add  %o1, 0x40, %o1
    6aa4:	12 bf ff be 	bne  699c <__GI_memcpy+0x7e8>
    6aa8:	90 02 20 40 	add  %o0, 0x40, %o0
    6aac:	96 8a a0 30 	andcc  %o2, 0x30, %o3
    6ab0:	22 80 00 17 	be,a   6b0c <__GI_memcpy+0x958>
    6ab4:	85 30 60 10 	srl  %g1, 0x10, %g2
    6ab8:	c4 1a 60 00 	ldd  [ %o1 ], %g2
    6abc:	c8 1a 60 08 	ldd  [ %o1 + 8 ], %g4
    6ac0:	9b 30 a0 10 	srl  %g2, 0x10, %o5
    6ac4:	8d 30 e0 10 	srl  %g3, 0x10, %g6
    6ac8:	85 28 a0 10 	sll  %g2, 0x10, %g2
    6acc:	9a 13 40 01 	or  %o5, %g1, %o5
    6ad0:	83 28 e0 10 	sll  %g3, 0x10, %g1
    6ad4:	84 11 80 02 	or  %g6, %g2, %g2
    6ad8:	87 31 20 10 	srl  %g4, 0x10, %g3
    6adc:	8d 31 60 10 	srl  %g5, 0x10, %g6
    6ae0:	89 29 20 10 	sll  %g4, 0x10, %g4
    6ae4:	86 10 c0 01 	or  %g3, %g1, %g3
    6ae8:	d8 3a 3f fa 	std  %o4, [ %o0 + -6 ]
    6aec:	c4 3a 20 02 	std  %g2, [ %o0 + 2 ]
    6af0:	83 29 60 10 	sll  %g5, 0x10, %g1
    6af4:	98 11 80 04 	or  %g6, %g4, %o4
    6af8:	96 a2 e0 10 	subcc  %o3, 0x10, %o3
    6afc:	92 02 60 10 	add  %o1, 0x10, %o1
    6b00:	12 bf ff ee 	bne  6ab8 <__GI_memcpy+0x904>
    6b04:	90 02 20 10 	add  %o0, 0x10, %o0
    6b08:	85 30 60 10 	srl  %g1, 0x10, %g2
    6b0c:	d8 22 3f fa 	st  %o4, [ %o0 + -6 ]
    6b10:	10 80 01 8b 	b  713c <__GI_memcpy+0xf88>
    6b14:	c4 32 3f fe 	sth  %g2, [ %o0 + -2 ]
    6b18:	c4 02 40 00 	ld  [ %o1 ], %g2
    6b1c:	94 22 a0 04 	sub  %o2, 4, %o2
    6b20:	87 30 a0 18 	srl  %g2, 0x18, %g3
    6b24:	8a 0a 20 07 	and  %o0, 7, %g5
    6b28:	c6 2a 00 00 	stb  %g3, [ %o0 ]
    6b2c:	80 a1 60 05 	cmp  %g5, 5
    6b30:	89 30 a0 08 	srl  %g2, 8, %g4
    6b34:	83 28 a0 18 	sll  %g2, 0x18, %g1
    6b38:	c8 32 20 01 	sth  %g4, [ %o0 + 1 ]
    6b3c:	92 02 60 04 	add  %o1, 4, %o1
    6b40:	02 80 00 c3 	be  6e4c <__GI_memcpy+0xc98>
    6b44:	96 0a bf c0 	and  %o2, -64, %o3
    6b48:	d8 02 3f ff 	ld  [ %o0 + -1 ], %o4
    6b4c:	90 02 20 04 	add  %o0, 4, %o0
    6b50:	c4 1a 60 00 	ldd  [ %o1 ], %g2
    6b54:	c8 1a 60 08 	ldd  [ %o1 + 8 ], %g4
    6b58:	9b 30 a0 08 	srl  %g2, 8, %o5
    6b5c:	8d 30 e0 08 	srl  %g3, 8, %g6
    6b60:	85 28 a0 18 	sll  %g2, 0x18, %g2
    6b64:	9a 13 40 01 	or  %o5, %g1, %o5
    6b68:	83 28 e0 18 	sll  %g3, 0x18, %g1
    6b6c:	84 11 80 02 	or  %g6, %g2, %g2
    6b70:	87 31 20 08 	srl  %g4, 8, %g3
    6b74:	8d 31 60 08 	srl  %g5, 8, %g6
    6b78:	89 29 20 18 	sll  %g4, 0x18, %g4
    6b7c:	86 10 c0 01 	or  %g3, %g1, %g3
    6b80:	d8 3a 3f fb 	std  %o4, [ %o0 + -5 ]
    6b84:	c4 3a 20 03 	std  %g2, [ %o0 + 3 ]
    6b88:	83 29 60 18 	sll  %g5, 0x18, %g1
    6b8c:	98 11 80 04 	or  %g6, %g4, %o4
    6b90:	c4 1a 60 10 	ldd  [ %o1 + 0x10 ], %g2
    6b94:	c8 1a 60 18 	ldd  [ %o1 + 0x18 ], %g4
    6b98:	9b 30 a0 08 	srl  %g2, 8, %o5
    6b9c:	8d 30 e0 08 	srl  %g3, 8, %g6
    6ba0:	85 28 a0 18 	sll  %g2, 0x18, %g2
    6ba4:	9a 13 40 01 	or  %o5, %g1, %o5
    6ba8:	83 28 e0 18 	sll  %g3, 0x18, %g1
    6bac:	84 11 80 02 	or  %g6, %g2, %g2
    6bb0:	87 31 20 08 	srl  %g4, 8, %g3
    6bb4:	8d 31 60 08 	srl  %g5, 8, %g6
    6bb8:	89 29 20 18 	sll  %g4, 0x18, %g4
    6bbc:	86 10 c0 01 	or  %g3, %g1, %g3
    6bc0:	d8 3a 20 0b 	std  %o4, [ %o0 + 0xb ]
    6bc4:	c4 3a 20 13 	std  %g2, [ %o0 + 0x13 ]
    6bc8:	83 29 60 18 	sll  %g5, 0x18, %g1
    6bcc:	98 11 80 04 	or  %g6, %g4, %o4
    6bd0:	c4 1a 60 20 	ldd  [ %o1 + 0x20 ], %g2
    6bd4:	c8 1a 60 28 	ldd  [ %o1 + 0x28 ], %g4
    6bd8:	9b 30 a0 08 	srl  %g2, 8, %o5
    6bdc:	8d 30 e0 08 	srl  %g3, 8, %g6
    6be0:	85 28 a0 18 	sll  %g2, 0x18, %g2
    6be4:	9a 13 40 01 	or  %o5, %g1, %o5
    6be8:	83 28 e0 18 	sll  %g3, 0x18, %g1
    6bec:	84 11 80 02 	or  %g6, %g2, %g2
    6bf0:	87 31 20 08 	srl  %g4, 8, %g3
    6bf4:	8d 31 60 08 	srl  %g5, 8, %g6
    6bf8:	89 29 20 18 	sll  %g4, 0x18, %g4
    6bfc:	86 10 c0 01 	or  %g3, %g1, %g3
    6c00:	d8 3a 20 1b 	std  %o4, [ %o0 + 0x1b ]
    6c04:	c4 3a 20 23 	std  %g2, [ %o0 + 0x23 ]
    6c08:	83 29 60 18 	sll  %g5, 0x18, %g1
    6c0c:	98 11 80 04 	or  %g6, %g4, %o4
    6c10:	c4 1a 60 30 	ldd  [ %o1 + 0x30 ], %g2
    6c14:	c8 1a 60 38 	ldd  [ %o1 + 0x38 ], %g4
    6c18:	9b 30 a0 08 	srl  %g2, 8, %o5
    6c1c:	8d 30 e0 08 	srl  %g3, 8, %g6
    6c20:	85 28 a0 18 	sll  %g2, 0x18, %g2
    6c24:	9a 13 40 01 	or  %o5, %g1, %o5
    6c28:	83 28 e0 18 	sll  %g3, 0x18, %g1
    6c2c:	84 11 80 02 	or  %g6, %g2, %g2
    6c30:	87 31 20 08 	srl  %g4, 8, %g3
    6c34:	8d 31 60 08 	srl  %g5, 8, %g6
    6c38:	89 29 20 18 	sll  %g4, 0x18, %g4
    6c3c:	86 10 c0 01 	or  %g3, %g1, %g3
    6c40:	d8 3a 20 2b 	std  %o4, [ %o0 + 0x2b ]
    6c44:	c4 3a 20 33 	std  %g2, [ %o0 + 0x33 ]
    6c48:	83 29 60 18 	sll  %g5, 0x18, %g1
    6c4c:	98 11 80 04 	or  %g6, %g4, %o4
    6c50:	96 a2 e0 40 	subcc  %o3, 0x40, %o3
    6c54:	92 02 60 40 	add  %o1, 0x40, %o1
    6c58:	12 bf ff be 	bne  6b50 <__GI_memcpy+0x99c>
    6c5c:	90 02 20 40 	add  %o0, 0x40, %o0
    6c60:	96 8a a0 30 	andcc  %o2, 0x30, %o3
    6c64:	22 80 00 17 	be,a   6cc0 <__GI_memcpy+0xb0c>
    6c68:	85 30 60 18 	srl  %g1, 0x18, %g2
    6c6c:	c4 1a 60 00 	ldd  [ %o1 ], %g2
    6c70:	c8 1a 60 08 	ldd  [ %o1 + 8 ], %g4
    6c74:	9b 30 a0 08 	srl  %g2, 8, %o5
    6c78:	8d 30 e0 08 	srl  %g3, 8, %g6
    6c7c:	85 28 a0 18 	sll  %g2, 0x18, %g2
    6c80:	9a 13 40 01 	or  %o5, %g1, %o5
    6c84:	83 28 e0 18 	sll  %g3, 0x18, %g1
    6c88:	84 11 80 02 	or  %g6, %g2, %g2
    6c8c:	87 31 20 08 	srl  %g4, 8, %g3
    6c90:	8d 31 60 08 	srl  %g5, 8, %g6
    6c94:	89 29 20 18 	sll  %g4, 0x18, %g4
    6c98:	86 10 c0 01 	or  %g3, %g1, %g3
    6c9c:	d8 3a 3f fb 	std  %o4, [ %o0 + -5 ]
    6ca0:	c4 3a 20 03 	std  %g2, [ %o0 + 3 ]
    6ca4:	83 29 60 18 	sll  %g5, 0x18, %g1
    6ca8:	98 11 80 04 	or  %g6, %g4, %o4
    6cac:	96 a2 e0 10 	subcc  %o3, 0x10, %o3
    6cb0:	92 02 60 10 	add  %o1, 0x10, %o1
    6cb4:	12 bf ff ee 	bne  6c6c <__GI_memcpy+0xab8>
    6cb8:	90 02 20 10 	add  %o0, 0x10, %o0
    6cbc:	85 30 60 18 	srl  %g1, 0x18, %g2
    6cc0:	d8 22 3f fb 	st  %o4, [ %o0 + -5 ]
    6cc4:	10 80 01 1e 	b  713c <__GI_memcpy+0xf88>
    6cc8:	c4 2a 3f ff 	stb  %g2, [ %o0 + -1 ]
    6ccc:	c4 1a 60 00 	ldd  [ %o1 ], %g2
    6cd0:	c8 1a 60 08 	ldd  [ %o1 + 8 ], %g4
    6cd4:	99 30 a0 18 	srl  %g2, 0x18, %o4
    6cd8:	9b 30 e0 18 	srl  %g3, 0x18, %o5
    6cdc:	8d 28 a0 08 	sll  %g2, 8, %g6
    6ce0:	84 13 00 01 	or  %o4, %g1, %g2
    6ce4:	83 28 e0 08 	sll  %g3, 8, %g1
    6ce8:	86 13 40 06 	or  %o5, %g6, %g3
    6cec:	99 31 20 18 	srl  %g4, 0x18, %o4
    6cf0:	9b 31 60 18 	srl  %g5, 0x18, %o5
    6cf4:	8d 29 20 08 	sll  %g4, 8, %g6
    6cf8:	88 13 00 01 	or  %o4, %g1, %g4
    6cfc:	83 29 60 08 	sll  %g5, 8, %g1
    6d00:	8a 13 40 06 	or  %o5, %g6, %g5
    6d04:	c4 3a 3f fd 	std  %g2, [ %o0 + -3 ]
    6d08:	c8 3a 20 05 	std  %g4, [ %o0 + 5 ]
    6d0c:	c4 1a 60 10 	ldd  [ %o1 + 0x10 ], %g2
    6d10:	c8 1a 60 18 	ldd  [ %o1 + 0x18 ], %g4
    6d14:	99 30 a0 18 	srl  %g2, 0x18, %o4
    6d18:	9b 30 e0 18 	srl  %g3, 0x18, %o5
    6d1c:	8d 28 a0 08 	sll  %g2, 8, %g6
    6d20:	84 13 00 01 	or  %o4, %g1, %g2
    6d24:	83 28 e0 08 	sll  %g3, 8, %g1
    6d28:	86 13 40 06 	or  %o5, %g6, %g3
    6d2c:	99 31 20 18 	srl  %g4, 0x18, %o4
    6d30:	9b 31 60 18 	srl  %g5, 0x18, %o5
    6d34:	8d 29 20 08 	sll  %g4, 8, %g6
    6d38:	88 13 00 01 	or  %o4, %g1, %g4
    6d3c:	83 29 60 08 	sll  %g5, 8, %g1
    6d40:	8a 13 40 06 	or  %o5, %g6, %g5
    6d44:	c4 3a 20 0d 	std  %g2, [ %o0 + 0xd ]
    6d48:	c8 3a 20 15 	std  %g4, [ %o0 + 0x15 ]
    6d4c:	c4 1a 60 20 	ldd  [ %o1 + 0x20 ], %g2
    6d50:	c8 1a 60 28 	ldd  [ %o1 + 0x28 ], %g4
    6d54:	99 30 a0 18 	srl  %g2, 0x18, %o4
    6d58:	9b 30 e0 18 	srl  %g3, 0x18, %o5
    6d5c:	8d 28 a0 08 	sll  %g2, 8, %g6
    6d60:	84 13 00 01 	or  %o4, %g1, %g2
    6d64:	83 28 e0 08 	sll  %g3, 8, %g1
    6d68:	86 13 40 06 	or  %o5, %g6, %g3
    6d6c:	99 31 20 18 	srl  %g4, 0x18, %o4
    6d70:	9b 31 60 18 	srl  %g5, 0x18, %o5
    6d74:	8d 29 20 08 	sll  %g4, 8, %g6
    6d78:	88 13 00 01 	or  %o4, %g1, %g4
    6d7c:	83 29 60 08 	sll  %g5, 8, %g1
    6d80:	8a 13 40 06 	or  %o5, %g6, %g5
    6d84:	c4 3a 20 1d 	std  %g2, [ %o0 + 0x1d ]
    6d88:	c8 3a 20 25 	std  %g4, [ %o0 + 0x25 ]
    6d8c:	c4 1a 60 30 	ldd  [ %o1 + 0x30 ], %g2
    6d90:	c8 1a 60 38 	ldd  [ %o1 + 0x38 ], %g4
    6d94:	99 30 a0 18 	srl  %g2, 0x18, %o4
    6d98:	9b 30 e0 18 	srl  %g3, 0x18, %o5
    6d9c:	8d 28 a0 08 	sll  %g2, 8, %g6
    6da0:	84 13 00 01 	or  %o4, %g1, %g2
    6da4:	83 28 e0 08 	sll  %g3, 8, %g1
    6da8:	86 13 40 06 	or  %o5, %g6, %g3
    6dac:	99 31 20 18 	srl  %g4, 0x18, %o4
    6db0:	9b 31 60 18 	srl  %g5, 0x18, %o5
    6db4:	8d 29 20 08 	sll  %g4, 8, %g6
    6db8:	88 13 00 01 	or  %o4, %g1, %g4
    6dbc:	83 29 60 08 	sll  %g5, 8, %g1
    6dc0:	8a 13 40 06 	or  %o5, %g6, %g5
    6dc4:	c4 3a 20 2d 	std  %g2, [ %o0 + 0x2d ]
    6dc8:	c8 3a 20 35 	std  %g4, [ %o0 + 0x35 ]
    6dcc:	96 a2 e0 40 	subcc  %o3, 0x40, %o3
    6dd0:	92 02 60 40 	add  %o1, 0x40, %o1
    6dd4:	12 bf ff be 	bne  6ccc <__GI_memcpy+0xb18>
    6dd8:	90 02 20 40 	add  %o0, 0x40, %o0
    6ddc:	96 8a a0 30 	andcc  %o2, 0x30, %o3
    6de0:	22 80 00 17 	be,a   6e3c <__GI_memcpy+0xc88>
    6de4:	85 30 60 10 	srl  %g1, 0x10, %g2
    6de8:	c4 1a 60 00 	ldd  [ %o1 ], %g2
    6dec:	c8 1a 60 08 	ldd  [ %o1 + 8 ], %g4
    6df0:	99 30 a0 18 	srl  %g2, 0x18, %o4
    6df4:	9b 30 e0 18 	srl  %g3, 0x18, %o5
    6df8:	8d 28 a0 08 	sll  %g2, 8, %g6
    6dfc:	84 13 00 01 	or  %o4, %g1, %g2
    6e00:	83 28 e0 08 	sll  %g3, 8, %g1
    6e04:	86 13 40 06 	or  %o5, %g6, %g3
    6e08:	99 31 20 18 	srl  %g4, 0x18, %o4
    6e0c:	9b 31 60 18 	srl  %g5, 0x18, %o5
    6e10:	8d 29 20 08 	sll  %g4, 8, %g6
    6e14:	88 13 00 01 	or  %o4, %g1, %g4
    6e18:	83 29 60 08 	sll  %g5, 8, %g1
    6e1c:	8a 13 40 06 	or  %o5, %g6, %g5
    6e20:	c4 3a 3f fd 	std  %g2, [ %o0 + -3 ]
    6e24:	c8 3a 20 05 	std  %g4, [ %o0 + 5 ]
    6e28:	96 a2 e0 10 	subcc  %o3, 0x10, %o3
    6e2c:	92 02 60 10 	add  %o1, 0x10, %o1
    6e30:	12 bf ff ee 	bne  6de8 <__GI_memcpy+0xc34>
    6e34:	90 02 20 10 	add  %o0, 0x10, %o0
    6e38:	85 30 60 10 	srl  %g1, 0x10, %g2
    6e3c:	c4 32 3f fd 	sth  %g2, [ %o0 + -3 ]
    6e40:	89 30 60 08 	srl  %g1, 8, %g4
    6e44:	10 80 00 be 	b  713c <__GI_memcpy+0xf88>
    6e48:	c8 2a 3f ff 	stb  %g4, [ %o0 + -1 ]
    6e4c:	c4 1a 60 00 	ldd  [ %o1 ], %g2
    6e50:	c8 1a 60 08 	ldd  [ %o1 + 8 ], %g4
    6e54:	99 30 a0 08 	srl  %g2, 8, %o4
    6e58:	9b 30 e0 08 	srl  %g3, 8, %o5
    6e5c:	8d 28 a0 18 	sll  %g2, 0x18, %g6
    6e60:	84 13 00 01 	or  %o4, %g1, %g2
    6e64:	83 28 e0 18 	sll  %g3, 0x18, %g1
    6e68:	86 13 40 06 	or  %o5, %g6, %g3
    6e6c:	99 31 20 08 	srl  %g4, 8, %o4
    6e70:	9b 31 60 08 	srl  %g5, 8, %o5
    6e74:	8d 29 20 18 	sll  %g4, 0x18, %g6
    6e78:	88 13 00 01 	or  %o4, %g1, %g4
    6e7c:	83 29 60 18 	sll  %g5, 0x18, %g1
    6e80:	8a 13 40 06 	or  %o5, %g6, %g5
    6e84:	c4 3a 20 03 	std  %g2, [ %o0 + 3 ]
    6e88:	c8 3a 20 0b 	std  %g4, [ %o0 + 0xb ]
    6e8c:	c4 1a 60 10 	ldd  [ %o1 + 0x10 ], %g2
    6e90:	c8 1a 60 18 	ldd  [ %o1 + 0x18 ], %g4
    6e94:	99 30 a0 08 	srl  %g2, 8, %o4
    6e98:	9b 30 e0 08 	srl  %g3, 8, %o5
    6e9c:	8d 28 a0 18 	sll  %g2, 0x18, %g6
    6ea0:	84 13 00 01 	or  %o4, %g1, %g2
    6ea4:	83 28 e0 18 	sll  %g3, 0x18, %g1
    6ea8:	86 13 40 06 	or  %o5, %g6, %g3
    6eac:	99 31 20 08 	srl  %g4, 8, %o4
    6eb0:	9b 31 60 08 	srl  %g5, 8, %o5
    6eb4:	8d 29 20 18 	sll  %g4, 0x18, %g6
    6eb8:	88 13 00 01 	or  %o4, %g1, %g4
    6ebc:	83 29 60 18 	sll  %g5, 0x18, %g1
    6ec0:	8a 13 40 06 	or  %o5, %g6, %g5
    6ec4:	c4 3a 20 13 	std  %g2, [ %o0 + 0x13 ]
    6ec8:	c8 3a 20 1b 	std  %g4, [ %o0 + 0x1b ]
    6ecc:	c4 1a 60 20 	ldd  [ %o1 + 0x20 ], %g2
    6ed0:	c8 1a 60 28 	ldd  [ %o1 + 0x28 ], %g4
    6ed4:	99 30 a0 08 	srl  %g2, 8, %o4
    6ed8:	9b 30 e0 08 	srl  %g3, 8, %o5
    6edc:	8d 28 a0 18 	sll  %g2, 0x18, %g6
    6ee0:	84 13 00 01 	or  %o4, %g1, %g2
    6ee4:	83 28 e0 18 	sll  %g3, 0x18, %g1
    6ee8:	86 13 40 06 	or  %o5, %g6, %g3
    6eec:	99 31 20 08 	srl  %g4, 8, %o4
    6ef0:	9b 31 60 08 	srl  %g5, 8, %o5
    6ef4:	8d 29 20 18 	sll  %g4, 0x18, %g6
    6ef8:	88 13 00 01 	or  %o4, %g1, %g4
    6efc:	83 29 60 18 	sll  %g5, 0x18, %g1
    6f00:	8a 13 40 06 	or  %o5, %g6, %g5
    6f04:	c4 3a 20 23 	std  %g2, [ %o0 + 0x23 ]
    6f08:	c8 3a 20 2b 	std  %g4, [ %o0 + 0x2b ]
    6f0c:	c4 1a 60 30 	ldd  [ %o1 + 0x30 ], %g2
    6f10:	c8 1a 60 38 	ldd  [ %o1 + 0x38 ], %g4
    6f14:	99 30 a0 08 	srl  %g2, 8, %o4
    6f18:	9b 30 e0 08 	srl  %g3, 8, %o5
    6f1c:	8d 28 a0 18 	sll  %g2, 0x18, %g6
    6f20:	84 13 00 01 	or  %o4, %g1, %g2
    6f24:	83 28 e0 18 	sll  %g3, 0x18, %g1
    6f28:	86 13 40 06 	or  %o5, %g6, %g3
    6f2c:	99 31 20 08 	srl  %g4, 8, %o4
    6f30:	9b 31 60 08 	srl  %g5, 8, %o5
    6f34:	8d 29 20 18 	sll  %g4, 0x18, %g6
    6f38:	88 13 00 01 	or  %o4, %g1, %g4
    6f3c:	83 29 60 18 	sll  %g5, 0x18, %g1
    6f40:	8a 13 40 06 	or  %o5, %g6, %g5
    6f44:	c4 3a 20 33 	std  %g2, [ %o0 + 0x33 ]
    6f48:	c8 3a 20 3b 	std  %g4, [ %o0 + 0x3b ]
    6f4c:	96 a2 e0 40 	subcc  %o3, 0x40, %o3
    6f50:	92 02 60 40 	add  %o1, 0x40, %o1
    6f54:	12 bf ff be 	bne  6e4c <__GI_memcpy+0xc98>
    6f58:	90 02 20 40 	add  %o0, 0x40, %o0
    6f5c:	96 8a a0 30 	andcc  %o2, 0x30, %o3
    6f60:	22 80 00 17 	be,a   6fbc <__GI_memcpy+0xe08>
    6f64:	85 30 60 18 	srl  %g1, 0x18, %g2
    6f68:	c4 1a 60 00 	ldd  [ %o1 ], %g2
    6f6c:	c8 1a 60 08 	ldd  [ %o1 + 8 ], %g4
    6f70:	99 30 a0 08 	srl  %g2, 8, %o4
    6f74:	9b 30 e0 08 	srl  %g3, 8, %o5
    6f78:	8d 28 a0 18 	sll  %g2, 0x18, %g6
    6f7c:	84 13 00 01 	or  %o4, %g1, %g2
    6f80:	83 28 e0 18 	sll  %g3, 0x18, %g1
    6f84:	86 13 40 06 	or  %o5, %g6, %g3
    6f88:	99 31 20 08 	srl  %g4, 8, %o4
    6f8c:	9b 31 60 08 	srl  %g5, 8, %o5
    6f90:	8d 29 20 18 	sll  %g4, 0x18, %g6
    6f94:	88 13 00 01 	or  %o4, %g1, %g4
    6f98:	83 29 60 18 	sll  %g5, 0x18, %g1
    6f9c:	8a 13 40 06 	or  %o5, %g6, %g5
    6fa0:	c4 3a 20 03 	std  %g2, [ %o0 + 3 ]
    6fa4:	c8 3a 20 0b 	std  %g4, [ %o0 + 0xb ]
    6fa8:	96 a2 e0 10 	subcc  %o3, 0x10, %o3
    6fac:	92 02 60 10 	add  %o1, 0x10, %o1
    6fb0:	12 bf ff ee 	bne  6f68 <__GI_memcpy+0xdb4>
    6fb4:	90 02 20 10 	add  %o0, 0x10, %o0
    6fb8:	85 30 60 18 	srl  %g1, 0x18, %g2
    6fbc:	c4 2a 20 03 	stb  %g2, [ %o0 + 3 ]
    6fc0:	10 80 00 5f 	b  713c <__GI_memcpy+0xf88>
    6fc4:	90 02 20 04 	add  %o0, 4, %o0
    6fc8:	c4 1a 60 00 	ldd  [ %o1 ], %g2
    6fcc:	c8 1a 60 08 	ldd  [ %o1 + 8 ], %g4
    6fd0:	99 30 a0 10 	srl  %g2, 0x10, %o4
    6fd4:	9b 30 e0 10 	srl  %g3, 0x10, %o5
    6fd8:	8d 28 a0 10 	sll  %g2, 0x10, %g6
    6fdc:	84 13 00 01 	or  %o4, %g1, %g2
    6fe0:	83 28 e0 10 	sll  %g3, 0x10, %g1
    6fe4:	86 13 40 06 	or  %o5, %g6, %g3
    6fe8:	99 31 20 10 	srl  %g4, 0x10, %o4
    6fec:	9b 31 60 10 	srl  %g5, 0x10, %o5
    6ff0:	8d 29 20 10 	sll  %g4, 0x10, %g6
    6ff4:	88 13 00 01 	or  %o4, %g1, %g4
    6ff8:	83 29 60 10 	sll  %g5, 0x10, %g1
    6ffc:	8a 13 40 06 	or  %o5, %g6, %g5
    7000:	c4 3a 3f fe 	std  %g2, [ %o0 + -2 ]
    7004:	c8 3a 20 06 	std  %g4, [ %o0 + 6 ]
    7008:	c4 1a 60 10 	ldd  [ %o1 + 0x10 ], %g2
    700c:	c8 1a 60 18 	ldd  [ %o1 + 0x18 ], %g4
    7010:	99 30 a0 10 	srl  %g2, 0x10, %o4
    7014:	9b 30 e0 10 	srl  %g3, 0x10, %o5
    7018:	8d 28 a0 10 	sll  %g2, 0x10, %g6
    701c:	84 13 00 01 	or  %o4, %g1, %g2
    7020:	83 28 e0 10 	sll  %g3, 0x10, %g1
    7024:	86 13 40 06 	or  %o5, %g6, %g3
    7028:	99 31 20 10 	srl  %g4, 0x10, %o4
    702c:	9b 31 60 10 	srl  %g5, 0x10, %o5
    7030:	8d 29 20 10 	sll  %g4, 0x10, %g6
    7034:	88 13 00 01 	or  %o4, %g1, %g4
    7038:	83 29 60 10 	sll  %g5, 0x10, %g1
    703c:	8a 13 40 06 	or  %o5, %g6, %g5
    7040:	c4 3a 20 0e 	std  %g2, [ %o0 + 0xe ]
    7044:	c8 3a 20 16 	std  %g4, [ %o0 + 0x16 ]
    7048:	c4 1a 60 20 	ldd  [ %o1 + 0x20 ], %g2
    704c:	c8 1a 60 28 	ldd  [ %o1 + 0x28 ], %g4
    7050:	99 30 a0 10 	srl  %g2, 0x10, %o4
    7054:	9b 30 e0 10 	srl  %g3, 0x10, %o5
    7058:	8d 28 a0 10 	sll  %g2, 0x10, %g6
    705c:	84 13 00 01 	or  %o4, %g1, %g2
    7060:	83 28 e0 10 	sll  %g3, 0x10, %g1
    7064:	86 13 40 06 	or  %o5, %g6, %g3
    7068:	99 31 20 10 	srl  %g4, 0x10, %o4
    706c:	9b 31 60 10 	srl  %g5, 0x10, %o5
    7070:	8d 29 20 10 	sll  %g4, 0x10, %g6
    7074:	88 13 00 01 	or  %o4, %g1, %g4
    7078:	83 29 60 10 	sll  %g5, 0x10, %g1
    707c:	8a 13 40 06 	or  %o5, %g6, %g5
    7080:	c4 3a 20 1e 	std  %g2, [ %o0 + 0x1e ]
    7084:	c8 3a 20 26 	std  %g4, [ %o0 + 0x26 ]
    7088:	c4 1a 60 30 	ldd  [ %o1 + 0x30 ], %g2
    708c:	c8 1a 60 38 	ldd  [ %o1 + 0x38 ], %g4
    7090:	99 30 a0 10 	srl  %g2, 0x10, %o4
    7094:	9b 30 e0 10 	srl  %g3, 0x10, %o5
    7098:	8d 28 a0 10 	sll  %g2, 0x10, %g6
    709c:	84 13 00 01 	or  %o4, %g1, %g2
    70a0:	83 28 e0 10 	sll  %g3, 0x10, %g1
    70a4:	86 13 40 06 	or  %o5, %g6, %g3
    70a8:	99 31 20 10 	srl  %g4, 0x10, %o4
    70ac:	9b 31 60 10 	srl  %g5, 0x10, %o5
    70b0:	8d 29 20 10 	sll  %g4, 0x10, %g6
    70b4:	88 13 00 01 	or  %o4, %g1, %g4
    70b8:	83 29 60 10 	sll  %g5, 0x10, %g1
    70bc:	8a 13 40 06 	or  %o5, %g6, %g5
    70c0:	c4 3a 20 2e 	std  %g2, [ %o0 + 0x2e ]
    70c4:	c8 3a 20 36 	std  %g4, [ %o0 + 0x36 ]
    70c8:	96 a2 e0 40 	subcc  %o3, 0x40, %o3
    70cc:	92 02 60 40 	add  %o1, 0x40, %o1
    70d0:	12 bf ff be 	bne  6fc8 <__GI_memcpy+0xe14>
    70d4:	90 02 20 40 	add  %o0, 0x40, %o0
    70d8:	96 8a a0 30 	andcc  %o2, 0x30, %o3
    70dc:	22 80 00 17 	be,a   7138 <__GI_memcpy+0xf84>
    70e0:	85 30 60 10 	srl  %g1, 0x10, %g2
    70e4:	c4 1a 60 00 	ldd  [ %o1 ], %g2
    70e8:	c8 1a 60 08 	ldd  [ %o1 + 8 ], %g4
    70ec:	99 30 a0 10 	srl  %g2, 0x10, %o4
    70f0:	9b 30 e0 10 	srl  %g3, 0x10, %o5
    70f4:	8d 28 a0 10 	sll  %g2, 0x10, %g6
    70f8:	84 13 00 01 	or  %o4, %g1, %g2
    70fc:	83 28 e0 10 	sll  %g3, 0x10, %g1
    7100:	86 13 40 06 	or  %o5, %g6, %g3
    7104:	99 31 20 10 	srl  %g4, 0x10, %o4
    7108:	9b 31 60 10 	srl  %g5, 0x10, %o5
    710c:	8d 29 20 10 	sll  %g4, 0x10, %g6
    7110:	88 13 00 01 	or  %o4, %g1, %g4
    7114:	83 29 60 10 	sll  %g5, 0x10, %g1
    7118:	8a 13 40 06 	or  %o5, %g6, %g5
    711c:	c4 3a 3f fe 	std  %g2, [ %o0 + -2 ]
    7120:	c8 3a 20 06 	std  %g4, [ %o0 + 6 ]
    7124:	96 a2 e0 10 	subcc  %o3, 0x10, %o3
    7128:	92 02 60 10 	add  %o1, 0x10, %o1
    712c:	12 bf ff ee 	bne  70e4 <__GI_memcpy+0xf30>
    7130:	90 02 20 10 	add  %o0, 0x10, %o0
    7134:	85 30 60 10 	srl  %g1, 0x10, %g2
    7138:	c4 32 3f fe 	sth  %g2, [ %o0 + -2 ]
    713c:	96 0a a0 0e 	and  %o2, 0xe, %o3
    7140:	84 10 00 0f 	mov  %o7, %g2
    7144:	99 2a e0 03 	sll  %o3, 3, %o4
    7148:	90 02 00 0b 	add  %o0, %o3, %o0
    714c:	40 00 00 33 	call  7218 <__GI_memcpy+0x1064>
    7150:	92 02 40 0b 	add  %o1, %o3, %o1
    7154:	9e 10 00 02 	mov  %g2, %o7
    7158:	81 c3 60 84 	jmp  %o5 + 0x84
    715c:	80 8a a0 01 	btst  1, %o2
    7160:	c4 0a 7f f2 	ldub  [ %o1 + -14 ], %g2
    7164:	c6 0a 7f f3 	ldub  [ %o1 + -13 ], %g3
    7168:	c4 2a 3f f2 	stb  %g2, [ %o0 + -14 ]
    716c:	c6 2a 3f f3 	stb  %g3, [ %o0 + -13 ]
    7170:	c4 0a 7f f4 	ldub  [ %o1 + -12 ], %g2
    7174:	c6 0a 7f f5 	ldub  [ %o1 + -11 ], %g3
    7178:	c4 2a 3f f4 	stb  %g2, [ %o0 + -12 ]
    717c:	c6 2a 3f f5 	stb  %g3, [ %o0 + -11 ]
    7180:	c4 0a 7f f6 	ldub  [ %o1 + -10 ], %g2
    7184:	c6 0a 7f f7 	ldub  [ %o1 + -9 ], %g3
    7188:	c4 2a 3f f6 	stb  %g2, [ %o0 + -10 ]
    718c:	c6 2a 3f f7 	stb  %g3, [ %o0 + -9 ]
    7190:	c4 0a 7f f8 	ldub  [ %o1 + -8 ], %g2
    7194:	c6 0a 7f f9 	ldub  [ %o1 + -7 ], %g3
    7198:	c4 2a 3f f8 	stb  %g2, [ %o0 + -8 ]
    719c:	c6 2a 3f f9 	stb  %g3, [ %o0 + -7 ]
    71a0:	c4 0a 7f fa 	ldub  [ %o1 + -6 ], %g2
    71a4:	c6 0a 7f fb 	ldub  [ %o1 + -5 ], %g3
    71a8:	c4 2a 3f fa 	stb  %g2, [ %o0 + -6 ]
    71ac:	c6 2a 3f fb 	stb  %g3, [ %o0 + -5 ]
    71b0:	c4 0a 7f fc 	ldub  [ %o1 + -4 ], %g2
    71b4:	c6 0a 7f fd 	ldub  [ %o1 + -3 ], %g3
    71b8:	c4 2a 3f fc 	stb  %g2, [ %o0 + -4 ]
    71bc:	c6 2a 3f fd 	stb  %g3, [ %o0 + -3 ]
    71c0:	c4 0a 7f fe 	ldub  [ %o1 + -2 ], %g2
    71c4:	c6 0a 7f ff 	ldub  [ %o1 + -1 ], %g3
    71c8:	c4 2a 3f fe 	stb  %g2, [ %o0 + -2 ]
    71cc:	c6 2a 3f ff 	stb  %g3, [ %o0 + -1 ]
    71d0:	02 80 00 04 	be  71e0 <__GI_memcpy+0x102c>
    71d4:	01 00 00 00 	nop 
    71d8:	c4 0a 40 00 	ldub  [ %o1 ], %g2
    71dc:	c4 2a 00 00 	stb  %g2, [ %o0 ]
    71e0:	81 c3 e0 08 	retl 
    71e4:	d0 03 a0 40 	ld  [ %sp + 0x40 ], %o0
    71e8:	12 bf ff d5 	bne  713c <__GI_memcpy+0xf88>
    71ec:	80 8a a0 08 	btst  8, %o2
    71f0:	02 80 00 08 	be  7210 <__GI_memcpy+0x105c>
    71f4:	80 8a a0 04 	btst  4, %o2
    71f8:	c4 02 60 00 	ld  [ %o1 ], %g2
    71fc:	c6 02 60 04 	ld  [ %o1 + 4 ], %g3
    7200:	92 02 60 08 	add  %o1, 8, %o1
    7204:	c4 22 20 00 	st  %g2, [ %o0 ]
    7208:	c6 22 20 04 	st  %g3, [ %o0 + 4 ]
    720c:	90 02 20 08 	add  %o0, 8, %o0
    7210:	10 bf fc 6d 	b  63c4 <__GI_memcpy+0x210>
    7214:	82 10 00 0a 	mov  %o2, %g1
    7218:	81 c3 e0 08 	retl 
    721c:	9a 23 c0 0c 	sub  %o7, %o4, %o5
    7220:	81 c3 e0 08 	retl 
    7224:	9a 23 c0 06 	sub  %o7, %g6, %o5

00007228 <__GI_strnlen>:
    7228:	10 80 00 03 	b  7234 <__GI_strnlen+0xc>
    722c:	82 10 00 08 	mov  %o0, %g1
    7230:	92 02 7f ff 	add  %o1, -1, %o1
    7234:	80 a2 60 00 	cmp  %o1, 0
    7238:	02 80 00 06 	be  7250 <__GI_strnlen+0x28>
    723c:	01 00 00 00 	nop 
    7240:	c4 08 40 00 	ldub  [ %g1 ], %g2
    7244:	80 a0 a0 00 	cmp  %g2, 0
    7248:	32 bf ff fa 	bne,a   7230 <__GI_strnlen+0x8>
    724c:	82 00 60 01 	inc  %g1
    7250:	81 c3 e0 08 	retl 
    7254:	90 20 40 08 	sub  %g1, %o0, %o0

00007258 <__GI___glibc_strerror_r>:
    7258:	9d e3 bf a0 	save  %sp, -96, %sp
    725c:	90 10 00 18 	mov  %i0, %o0
    7260:	92 10 00 19 	mov  %i1, %o1
    7264:	94 10 00 1a 	mov  %i2, %o2
    7268:	40 00 05 80 	call  8868 <__GI___xpg_strerror_r>
    726c:	b0 10 00 19 	mov  %i1, %i0
    7270:	81 c7 e0 08 	ret 
    7274:	81 e8 00 00 	restore 

00007278 <_Q_dtoq>:
    7278:	9d e3 bf 78 	save  %sp, -136, %sp
    727c:	03 3f fc 00 	sethi  %hi(0xfff00000), %g1
    7280:	f2 27 bf f0 	st  %i1, [ %fp + -16 ]
    7284:	82 2e 00 01 	andn  %i0, %g1, %g1
    7288:	c0 27 bf fc 	clr  [ %fp + -4 ]
    728c:	c2 27 bf f4 	st  %g1, [ %fp + -12 ]
    7290:	c0 27 bf f8 	clr  [ %fp + -8 ]
    7294:	2f 00 00 3c 	sethi  %hi(0xf000), %l7
    7298:	40 00 23 5a 	call  10000 <__sparc_get_pc_thunk.l7>
    729c:	ae 05 e2 84 	add  %l7, 0x284, %l7	! f284 <HW_trap_0x28+0x4>
    72a0:	b7 36 20 14 	srl  %i0, 0x14, %i3
    72a4:	b6 0e e7 ff 	and  %i3, 0x7ff, %i3
    72a8:	fa 07 a0 40 	ld  [ %fp + 0x40 ], %i5
    72ac:	b4 06 e0 01 	add  %i3, 1, %i2
    72b0:	c1 2f bf dc 	st  %fsr, [ %fp + -36 ]
    72b4:	b4 0e a7 ff 	and  %i2, 0x7ff, %i2
    72b8:	80 a6 a0 01 	cmp  %i2, 1
    72bc:	04 80 00 0e 	ble  72f4 <_Q_dtoq+0x7c>
    72c0:	b9 36 20 1f 	srl  %i0, 0x1f, %i4
    72c4:	87 30 60 04 	srl  %g1, 4, %g3
    72c8:	05 00 00 0f 	sethi  %hi(0x3c00), %g2
    72cc:	c6 27 bf fc 	st  %g3, [ %fp + -4 ]
    72d0:	83 28 60 1c 	sll  %g1, 0x1c, %g1
    72d4:	87 36 60 04 	srl  %i1, 4, %g3
    72d8:	89 2e 60 1c 	sll  %i1, 0x1c, %g4
    72dc:	82 10 40 03 	or  %g1, %g3, %g1
    72e0:	84 06 c0 02 	add  %i3, %g2, %g2
    72e4:	c2 27 bf f8 	st  %g1, [ %fp + -8 ]
    72e8:	c8 27 bf f4 	st  %g4, [ %fp + -12 ]
    72ec:	10 80 00 65 	b  7480 <_Q_dtoq+0x208>
    72f0:	c0 27 bf f0 	clr  [ %fp + -16 ]
    72f4:	80 a6 e0 00 	cmp  %i3, 0
    72f8:	12 80 00 4d 	bne  742c <_Q_dtoq+0x1b4>
    72fc:	b6 10 40 19 	or  %g1, %i1, %i3
    7300:	80 a6 e0 00 	cmp  %i3, 0
    7304:	02 80 00 5f 	be  7480 <_Q_dtoq+0x208>
    7308:	84 10 20 00 	clr  %g2
    730c:	80 a0 60 00 	cmp  %g1, 0
    7310:	02 80 00 06 	be  7328 <_Q_dtoq+0xb0>
    7314:	01 00 00 00 	nop 
    7318:	40 00 18 6b 	call  d4c4 <__clzsi2>
    731c:	90 10 00 01 	mov  %g1, %o0
    7320:	10 80 00 06 	b  7338 <_Q_dtoq+0xc0>
    7324:	82 02 20 31 	add  %o0, 0x31, %g1
    7328:	40 00 18 67 	call  d4c4 <__clzsi2>
    732c:	90 10 00 19 	mov  %i1, %o0
    7330:	90 02 20 20 	add  %o0, 0x20, %o0
    7334:	82 02 20 31 	add  %o0, 0x31, %g1
    7338:	05 20 00 00 	sethi  %hi(0x80000000), %g2
    733c:	87 38 60 1f 	sra  %g1, 0x1f, %g3
    7340:	84 10 a0 1f 	or  %g2, 0x1f, %g2
    7344:	86 08 e0 1f 	and  %g3, 0x1f, %g3
    7348:	84 88 40 02 	andcc  %g1, %g2, %g2
    734c:	86 00 c0 01 	add  %g3, %g1, %g3
    7350:	16 80 00 05 	bge  7364 <_Q_dtoq+0xec>
    7354:	87 38 e0 05 	sra  %g3, 5, %g3
    7358:	84 00 bf ff 	add  %g2, -1, %g2
    735c:	84 10 bf e0 	or  %g2, -32, %g2
    7360:	84 00 a0 01 	inc  %g2
    7364:	80 a0 a0 00 	cmp  %g2, 0
    7368:	02 80 00 0c 	be  7398 <_Q_dtoq+0x120>
    736c:	82 10 20 03 	mov  3, %g1
    7370:	b4 10 20 20 	mov  0x20, %i2
    7374:	10 80 00 1c 	b  73e4 <_Q_dtoq+0x16c>
    7378:	b4 26 80 02 	sub  %i2, %g2, %i2
    737c:	85 28 a0 02 	sll  %g2, 2, %g2
    7380:	84 07 80 02 	add  %fp, %g2, %g2
    7384:	c8 00 bf f0 	ld  [ %g2 + -16 ], %g4
    7388:	85 28 60 02 	sll  %g1, 2, %g2
    738c:	82 00 7f ff 	add  %g1, -1, %g1
    7390:	84 07 80 02 	add  %fp, %g2, %g2
    7394:	c8 20 bf f0 	st  %g4, [ %g2 + -16 ]
    7398:	80 a0 40 03 	cmp  %g1, %g3
    739c:	36 bf ff f8 	bge,a   737c <_Q_dtoq+0x104>
    73a0:	84 20 40 03 	sub  %g1, %g3, %g2
    73a4:	10 80 00 1c 	b  7414 <_Q_dtoq+0x19c>
    73a8:	05 00 00 0f 	sethi  %hi(0x3c00), %g2
    73ac:	b6 20 40 03 	sub  %g1, %g3, %i3
    73b0:	88 07 80 04 	add  %fp, %g4, %g4
    73b4:	b2 06 ff ff 	add  %i3, -1, %i1
    73b8:	82 00 7f ff 	add  %g1, -1, %g1
    73bc:	b3 2e 60 02 	sll  %i1, 2, %i1
    73c0:	b7 2e e0 02 	sll  %i3, 2, %i3
    73c4:	b2 07 80 19 	add  %fp, %i1, %i1
    73c8:	b6 07 80 1b 	add  %fp, %i3, %i3
    73cc:	f2 06 7f f0 	ld  [ %i1 + -16 ], %i1
    73d0:	f6 06 ff f0 	ld  [ %i3 + -16 ], %i3
    73d4:	b3 36 40 1a 	srl  %i1, %i2, %i1
    73d8:	b7 2e c0 02 	sll  %i3, %g2, %i3
    73dc:	b6 16 40 1b 	or  %i1, %i3, %i3
    73e0:	f6 21 3f f0 	st  %i3, [ %g4 + -16 ]
    73e4:	80 a0 40 03 	cmp  %g1, %g3
    73e8:	14 bf ff f1 	bg  73ac <_Q_dtoq+0x134>
    73ec:	89 28 60 02 	sll  %g1, 2, %g4
    73f0:	c6 07 bf f0 	ld  [ %fp + -16 ], %g3
    73f4:	88 07 80 04 	add  %fp, %g4, %g4
    73f8:	85 28 c0 02 	sll  %g3, %g2, %g2
    73fc:	10 80 00 04 	b  740c <_Q_dtoq+0x194>
    7400:	c4 21 3f f0 	st  %g2, [ %g4 + -16 ]
    7404:	84 07 80 02 	add  %fp, %g2, %g2
    7408:	c0 20 bf f0 	clr  [ %g2 + -16 ]
    740c:	82 00 7f ff 	add  %g1, -1, %g1
    7410:	05 00 00 0f 	sethi  %hi(0x3c00), %g2
    7414:	80 a0 60 00 	cmp  %g1, 0
    7418:	84 10 a0 0c 	or  %g2, 0xc, %g2
    741c:	06 80 00 19 	bl  7480 <_Q_dtoq+0x208>
    7420:	84 20 80 08 	sub  %g2, %o0, %g2
    7424:	10 bf ff f8 	b  7404 <_Q_dtoq+0x18c>
    7428:	85 28 60 02 	sll  %g1, 2, %g2
    742c:	80 a6 e0 00 	cmp  %i3, 0
    7430:	22 80 00 13 	be,a   747c <_Q_dtoq+0x204>
    7434:	05 00 00 1f 	sethi  %hi(0x7c00), %g2
    7438:	05 00 02 00 	sethi  %hi(0x80000), %g2
    743c:	84 08 40 02 	and  %g1, %g2, %g2
    7440:	80 a0 00 02 	cmp  %g0, %g2
    7444:	85 30 60 04 	srl  %g1, 4, %g2
    7448:	c4 27 bf fc 	st  %g2, [ %fp + -4 ]
    744c:	85 36 60 04 	srl  %i1, 4, %g2
    7450:	90 60 3f ff 	subx  %g0, -1, %o0
    7454:	83 28 60 1c 	sll  %g1, 0x1c, %g1
    7458:	89 2e 60 1c 	sll  %i1, 0x1c, %g4
    745c:	82 10 40 02 	or  %g1, %g2, %g1
    7460:	91 2a 20 04 	sll  %o0, 4, %o0
    7464:	05 00 00 1f 	sethi  %hi(0x7c00), %g2
    7468:	c2 27 bf f8 	st  %g1, [ %fp + -8 ]
    746c:	c8 27 bf f4 	st  %g4, [ %fp + -12 ]
    7470:	c0 27 bf f0 	clr  [ %fp + -16 ]
    7474:	10 80 00 04 	b  7484 <_Q_dtoq+0x20c>
    7478:	84 10 a3 ff 	or  %g2, 0x3ff, %g2
    747c:	84 10 a3 ff 	or  %g2, 0x3ff, %g2
    7480:	90 10 20 00 	clr  %o0
    7484:	c2 07 bf f0 	ld  [ %fp + -16 ], %g1
    7488:	c2 27 bf ec 	st  %g1, [ %fp + -20 ]
    748c:	c2 07 bf f4 	ld  [ %fp + -12 ], %g1
    7490:	c2 27 bf e8 	st  %g1, [ %fp + -24 ]
    7494:	c2 07 bf f8 	ld  [ %fp + -8 ], %g1
    7498:	c2 27 bf e4 	st  %g1, [ %fp + -28 ]
    749c:	c2 07 bf fc 	ld  [ %fp + -4 ], %g1
    74a0:	c2 37 bf e2 	sth  %g1, [ %fp + -30 ]
    74a4:	03 3f ff e0 	sethi  %hi(0xffff8000), %g1
    74a8:	b8 0f 20 ff 	and  %i4, 0xff, %i4
    74ac:	84 28 80 01 	andn  %g2, %g1, %g2
    74b0:	83 28 a0 10 	sll  %g2, 0x10, %g1
    74b4:	07 1f ff c0 	sethi  %hi(0x7fff0000), %g3
    74b8:	c4 07 bf e0 	ld  [ %fp + -32 ], %g2
    74bc:	84 28 80 03 	andn  %g2, %g3, %g2
    74c0:	84 10 80 01 	or  %g2, %g1, %g2
    74c4:	83 2f 20 1f 	sll  %i4, 0x1f, %g1
    74c8:	39 20 00 00 	sethi  %hi(0x80000000), %i4
    74cc:	b8 28 80 1c 	andn  %g2, %i4, %i4
    74d0:	b8 17 00 01 	or  %i4, %g1, %i4
    74d4:	f8 27 bf e0 	st  %i4, [ %fp + -32 ]
    74d8:	e4 1f bf e8 	ldd  [ %fp + -24 ], %l2
    74dc:	80 a2 20 00 	cmp  %o0, 0
    74e0:	12 80 00 09 	bne  7504 <_Q_dtoq+0x28c>
    74e4:	e0 1f bf e0 	ldd  [ %fp + -32 ], %l0
    74e8:	03 00 00 00 	sethi  %hi(0), %g1
    74ec:	82 18 7f d4 	xor  %g1, -44, %g1
    74f0:	82 05 c0 01 	add  %l7, %g1, %g1
    74f4:	fd 18 40 00 	ldd  [ %g1 ], %f30
    74f8:	bd a7 88 5e 	faddd  %f30, %f30, %f30
    74fc:	10 80 00 05 	b  7510 <_Q_dtoq+0x298>
    7500:	e0 3f 40 00 	std  %l0, [ %i5 ]
    7504:	40 00 00 06 	call  751c <___Q_simulate_exceptions>
    7508:	01 00 00 00 	nop 
    750c:	e0 3f 40 00 	std  %l0, [ %i5 ]
    7510:	e4 3f 60 08 	std  %l2, [ %i5 + 8 ]
    7514:	81 c7 e0 0c 	jmp  %i7 + 0xc
    7518:	91 e8 00 1d 	restore  %g0, %i5, %o0

0000751c <___Q_simulate_exceptions>:
    751c:	9d e3 bf a0 	save  %sp, -96, %sp
    7520:	2f 00 00 3b 	sethi  %hi(0xec00), %l7
    7524:	40 00 22 b7 	call  10000 <__sparc_get_pc_thunk.l7>
    7528:	ae 05 e3 f8 	add  %l7, 0x3f8, %l7	! eff8 <window_underflow_trap_handler+0x2fc>
    752c:	80 8e 20 10 	btst  0x10, %i0
    7530:	02 80 00 07 	be  754c <___Q_simulate_exceptions+0x30>
    7534:	80 8e 20 08 	btst  8, %i0
    7538:	03 00 00 00 	sethi  %hi(0), %g1
    753c:	82 18 7f d4 	xor  %g1, -44, %g1
    7540:	82 05 c0 01 	add  %l7, %g1, %g1
    7544:	c1 18 40 00 	ldd  [ %g1 ], %f0
    7548:	81 a0 09 c0 	fdivd  %f0, %f0, %f0
    754c:	02 80 00 09 	be  7570 <___Q_simulate_exceptions+0x54>
    7550:	80 8e 20 04 	btst  4, %i0
    7554:	03 00 00 00 	sethi  %hi(0), %g1
    7558:	b0 0e 3f fe 	and  %i0, -2, %i0
    755c:	82 18 7f d4 	xor  %g1, -44, %g1
    7560:	82 05 c0 01 	add  %l7, %g1, %g1
    7564:	c1 18 60 18 	ldd  [ %g1 + 0x18 ], %f0
    7568:	81 a0 08 40 	faddd  %f0, %f0, %f0
    756c:	80 8e 20 04 	btst  4, %i0
    7570:	02 80 00 0f 	be  75ac <___Q_simulate_exceptions+0x90>
    7574:	80 8e 20 02 	btst  2, %i0
    7578:	03 00 00 00 	sethi  %hi(0), %g1
    757c:	80 8e 20 01 	btst  1, %i0
    7580:	82 18 7f d4 	xor  %g1, -44, %g1
    7584:	02 80 00 06 	be  759c <___Q_simulate_exceptions+0x80>
    7588:	82 05 c0 01 	add  %l7, %g1, %g1
    758c:	c1 18 60 10 	ldd  [ %g1 + 0x10 ], %f0
    7590:	b0 0e 3f fe 	and  %i0, -2, %i0
    7594:	10 80 00 05 	b  75a8 <___Q_simulate_exceptions+0x8c>
    7598:	81 a0 09 40 	fmuld  %f0, %f0, %f0
    759c:	c1 18 60 08 	ldd  [ %g1 + 8 ], %f0
    75a0:	d1 18 60 10 	ldd  [ %g1 + 0x10 ], %f8
    75a4:	81 a0 08 c8 	fsubd  %f0, %f8, %f0
    75a8:	80 8e 20 02 	btst  2, %i0
    75ac:	02 80 00 0b 	be  75d8 <___Q_simulate_exceptions+0xbc>
    75b0:	80 8e 20 01 	btst  1, %i0
    75b4:	03 00 00 00 	sethi  %hi(0), %g1
    75b8:	82 18 7f d4 	xor  %g1, -44, %g1
    75bc:	84 05 c0 01 	add  %l7, %g1, %g2
    75c0:	03 00 00 00 	sethi  %hi(0), %g1
    75c4:	d1 18 80 00 	ldd  [ %g2 ], %f8
    75c8:	82 18 7e cc 	xor  %g1, -308, %g1
    75cc:	82 05 c0 01 	add  %l7, %g1, %g1
    75d0:	c1 18 40 00 	ldd  [ %g1 ], %f0
    75d4:	81 a0 09 c8 	fdivd  %f0, %f8, %f0
    75d8:	02 80 00 07 	be  75f4 <___Q_simulate_exceptions+0xd8>
    75dc:	03 00 00 00 	sethi  %hi(0), %g1
    75e0:	82 18 7f d4 	xor  %g1, -44, %g1
    75e4:	82 05 c0 01 	add  %l7, %g1, %g1
    75e8:	c1 18 60 18 	ldd  [ %g1 + 0x18 ], %f0
    75ec:	d1 18 60 10 	ldd  [ %g1 + 0x10 ], %f8
    75f0:	81 a0 08 c8 	fsubd  %f0, %f8, %f0
    75f4:	81 c7 e0 08 	ret 
    75f8:	81 e8 00 00 	restore 

000075fc <__stdio_fwrite>:
    75fc:	9d e3 bf a0 	save  %sp, -96, %sp
    7600:	b6 10 00 18 	mov  %i0, %i3
    7604:	c2 16 80 00 	lduh  [ %i2 ], %g1
    7608:	b8 10 00 19 	mov  %i1, %i4
    760c:	80 88 62 00 	btst  0x200, %g1
    7610:	02 80 00 05 	be  7624 <__stdio_fwrite+0x28>
    7614:	b0 10 00 1a 	mov  %i2, %i0
    7618:	b2 10 00 1b 	mov  %i3, %i1
    761c:	40 00 17 1e 	call  d294 <__stdio_WRITE>
    7620:	95 e8 00 1c 	restore  %g0, %i4, %o2
    7624:	c2 06 a0 04 	ld  [ %i2 + 4 ], %g1
    7628:	d0 06 a0 10 	ld  [ %i2 + 0x10 ], %o0
    762c:	80 a0 7f fe 	cmp  %g1, -2
    7630:	c2 06 a0 0c 	ld  [ %i2 + 0xc ], %g1
    7634:	12 80 00 0d 	bne  7668 <__stdio_fwrite+0x6c>
    7638:	82 20 40 08 	sub  %g1, %o0, %g1
    763c:	80 a6 40 01 	cmp  %i1, %g1
    7640:	08 80 00 03 	bleu  764c <__stdio_fwrite+0x50>
    7644:	b4 10 00 19 	mov  %i1, %i2
    7648:	b4 10 00 01 	mov  %g1, %i2
    764c:	94 10 00 1a 	mov  %i2, %o2
    7650:	7f ff fa d9 	call  61b4 <__GI_memcpy>
    7654:	92 10 00 1b 	mov  %i3, %o1
    7658:	c2 06 20 10 	ld  [ %i0 + 0x10 ], %g1
    765c:	b4 00 40 1a 	add  %g1, %i2, %i2
    7660:	10 80 00 35 	b  7734 <__stdio_fwrite+0x138>
    7664:	f4 26 20 10 	st  %i2, [ %i0 + 0x10 ]
    7668:	80 a6 40 01 	cmp  %i1, %g1
    766c:	38 80 00 29 	bgu,a   7710 <__stdio_fwrite+0x114>
    7670:	c2 06 a0 08 	ld  [ %i2 + 8 ], %g1
    7674:	92 10 00 1b 	mov  %i3, %o1
    7678:	7f ff fa cf 	call  61b4 <__GI_memcpy>
    767c:	94 10 00 19 	mov  %i1, %o2
    7680:	c2 06 a0 10 	ld  [ %i2 + 0x10 ], %g1
    7684:	82 00 40 19 	add  %g1, %i1, %g1
    7688:	c2 26 a0 10 	st  %g1, [ %i2 + 0x10 ]
    768c:	c2 16 80 00 	lduh  [ %i2 ], %g1
    7690:	80 88 61 00 	btst  0x100, %g1
    7694:	02 80 00 28 	be  7734 <__stdio_fwrite+0x138>
    7698:	90 10 00 1b 	mov  %i3, %o0
    769c:	92 10 20 0a 	mov  0xa, %o1
    76a0:	40 00 04 be 	call  8998 <__GI_memrchr>
    76a4:	94 10 00 19 	mov  %i1, %o2
    76a8:	80 a2 20 00 	cmp  %o0, 0
    76ac:	02 80 00 22 	be  7734 <__stdio_fwrite+0x138>
    76b0:	01 00 00 00 	nop 
    76b4:	40 00 00 58 	call  7814 <__stdio_wcommit>
    76b8:	90 10 00 1a 	mov  %i2, %o0
    76bc:	80 a2 20 00 	cmp  %o0, 0
    76c0:	02 80 00 1d 	be  7734 <__stdio_fwrite+0x138>
    76c4:	80 a2 00 19 	cmp  %o0, %i1
    76c8:	08 80 00 03 	bleu  76d4 <__stdio_fwrite+0xd8>
    76cc:	b4 10 00 08 	mov  %o0, %i2
    76d0:	b4 10 00 19 	mov  %i1, %i2
    76d4:	82 27 00 1a 	sub  %i4, %i2, %g1
    76d8:	92 10 20 0a 	mov  0xa, %o1
    76dc:	b6 06 c0 01 	add  %i3, %g1, %i3
    76e0:	94 10 00 1a 	mov  %i2, %o2
    76e4:	40 00 04 1b 	call  8750 <__GI_memchr>
    76e8:	90 10 00 1b 	mov  %i3, %o0
    76ec:	80 a2 20 00 	cmp  %o0, 0
    76f0:	02 80 00 11 	be  7734 <__stdio_fwrite+0x138>
    76f4:	b6 06 c0 1a 	add  %i3, %i2, %i3
    76f8:	f4 06 20 10 	ld  [ %i0 + 0x10 ], %i2
    76fc:	b6 26 c0 08 	sub  %i3, %o0, %i3
    7700:	b8 27 00 1b 	sub  %i4, %i3, %i4
    7704:	b6 26 80 1b 	sub  %i2, %i3, %i3
    7708:	10 80 00 0b 	b  7734 <__stdio_fwrite+0x138>
    770c:	f6 26 20 10 	st  %i3, [ %i0 + 0x10 ]
    7710:	80 a0 40 08 	cmp  %g1, %o0
    7714:	02 bf ff c2 	be  761c <__stdio_fwrite+0x20>
    7718:	b2 10 00 1b 	mov  %i3, %i1
    771c:	40 00 00 3e 	call  7814 <__stdio_wcommit>
    7720:	90 10 00 1a 	mov  %i2, %o0
    7724:	80 a2 20 00 	cmp  %o0, 0
    7728:	02 bf ff bd 	be  761c <__stdio_fwrite+0x20>
    772c:	b2 10 00 1b 	mov  %i3, %i1
    7730:	b8 10 20 00 	clr  %i4
    7734:	81 c7 e0 08 	ret 
    7738:	91 e8 00 1c 	restore  %g0, %i4, %o0

0000773c <__stdio_trans2w>:
    773c:	9d e3 bf a0 	save  %sp, -96, %sp
    7740:	2f 00 00 3b 	sethi  %hi(0xec00), %l7
    7744:	40 00 22 2f 	call  10000 <__sparc_get_pc_thunk.l7>
    7748:	ae 05 e1 d8 	add  %l7, 0x1d8, %l7	! edd8 <window_underflow_trap_handler+0xdc>
    774c:	c2 16 00 00 	lduh  [ %i0 ], %g1
    7750:	80 88 60 20 	btst  0x20, %g1
    7754:	02 80 00 0c 	be  7784 <__stdio_trans2w+0x48>
    7758:	80 88 60 03 	btst  3, %g1
    775c:	03 00 00 00 	sethi  %hi(0), %g1
    7760:	84 10 20 09 	mov  9, %g2
    7764:	82 18 7f fc 	xor  %g1, -4, %g1
    7768:	01 00 00 00 	nop 
    776c:	c4 21 c0 01 	st  %g2, [ %g7 + %g1 ]
    7770:	c2 16 00 00 	lduh  [ %i0 ], %g1
    7774:	82 10 60 08 	or  %g1, 8, %g1
    7778:	c2 36 00 00 	sth  %g1, [ %i0 ]
    777c:	81 c7 e0 08 	ret 
    7780:	91 e8 3f ff 	restore  %g0, -1, %o0
    7784:	22 80 00 20 	be,a   7804 <__stdio_trans2w+0xc8>
    7788:	c2 16 00 00 	lduh  [ %i0 ], %g1
    778c:	80 88 60 04 	btst  4, %g1
    7790:	22 80 00 09 	be,a   77b4 <__stdio_trans2w+0x78>
    7794:	c6 06 20 14 	ld  [ %i0 + 0x14 ], %g3
    7798:	c2 16 00 00 	lduh  [ %i0 ], %g1
    779c:	82 08 7f fc 	and  %g1, -4, %g1
    77a0:	c2 36 00 00 	sth  %g1, [ %i0 ]
    77a4:	c2 06 20 08 	ld  [ %i0 + 8 ], %g1
    77a8:	c2 26 20 10 	st  %g1, [ %i0 + 0x10 ]
    77ac:	10 80 00 15 	b  7800 <__stdio_trans2w+0xc4>
    77b0:	c2 26 20 14 	st  %g1, [ %i0 + 0x14 ]
    77b4:	c4 06 20 10 	ld  [ %i0 + 0x10 ], %g2
    77b8:	80 a0 c0 02 	cmp  %g3, %g2
    77bc:	32 80 00 06 	bne,a   77d4 <__stdio_trans2w+0x98>
    77c0:	82 08 64 00 	and  %g1, 0x400, %g1
    77c4:	80 88 60 02 	btst  2, %g1
    77c8:	22 bf ff f5 	be,a   779c <__stdio_trans2w+0x60>
    77cc:	c2 16 00 00 	lduh  [ %i0 ], %g1
    77d0:	82 08 64 00 	and  %g1, 0x400, %g1
    77d4:	80 a0 00 01 	cmp  %g0, %g1
    77d8:	90 10 00 18 	mov  %i0, %o0
    77dc:	92 10 20 00 	clr  %o1
    77e0:	94 10 20 02 	mov  2, %o2
    77e4:	40 00 16 3a 	call  d0cc <__GI_fseek>
    77e8:	94 42 bf ff 	addx  %o2, -1, %o2
    77ec:	80 a2 20 00 	cmp  %o0, 0
    77f0:	02 bf ff eb 	be  779c <__stdio_trans2w+0x60>
    77f4:	c2 16 00 00 	lduh  [ %i0 ], %g1
    77f8:	10 bf ff e0 	b  7778 <__stdio_trans2w+0x3c>
    77fc:	82 10 60 08 	or  %g1, 8, %g1
    7800:	c2 16 00 00 	lduh  [ %i0 ], %g1
    7804:	82 10 60 40 	or  %g1, 0x40, %g1
    7808:	c2 36 00 00 	sth  %g1, [ %i0 ]
    780c:	81 c7 e0 08 	ret 
    7810:	91 e8 20 00 	restore  %g0, 0, %o0

00007814 <__stdio_wcommit>:
    7814:	9d e3 bf a0 	save  %sp, -96, %sp
    7818:	d2 06 20 08 	ld  [ %i0 + 8 ], %o1
    781c:	d4 06 20 10 	ld  [ %i0 + 0x10 ], %o2
    7820:	94 a2 80 09 	subcc  %o2, %o1, %o2
    7824:	22 80 00 06 	be,a   783c <__stdio_wcommit+0x28>
    7828:	c4 06 20 10 	ld  [ %i0 + 0x10 ], %g2
    782c:	d2 26 20 10 	st  %o1, [ %i0 + 0x10 ]
    7830:	40 00 16 99 	call  d294 <__stdio_WRITE>
    7834:	90 10 00 18 	mov  %i0, %o0
    7838:	c4 06 20 10 	ld  [ %i0 + 0x10 ], %g2
    783c:	f0 06 20 08 	ld  [ %i0 + 8 ], %i0
    7840:	b0 20 80 18 	sub  %g2, %i0, %i0
    7844:	81 c7 e0 08 	ret 
    7848:	81 e8 00 00 	restore 

0000784c <_load_inttype>:
    784c:	80 a2 a0 00 	cmp  %o2, 0
    7850:	06 80 00 12 	bl  7898 <_load_inttype+0x4c>
    7854:	82 0a 28 00 	and  %o0, 0x800, %g1
    7858:	80 a0 60 00 	cmp  %g1, 0
    785c:	02 80 00 04 	be  786c <_load_inttype+0x20>
    7860:	80 a2 21 00 	cmp  %o0, 0x100
    7864:	81 c3 e0 08 	retl 
    7868:	d0 1a 40 00 	ldd  [ %o1 ], %o0
    786c:	12 80 00 04 	bne  787c <_load_inttype+0x30>
    7870:	d2 02 40 00 	ld  [ %o1 ], %o1
    7874:	10 80 00 07 	b  7890 <_load_inttype+0x44>
    7878:	92 0a 60 ff 	and  %o1, 0xff, %o1
    787c:	80 a2 22 00 	cmp  %o0, 0x200
    7880:	12 80 00 04 	bne  7890 <_load_inttype+0x44>
    7884:	03 00 00 3f 	sethi  %hi(0xfc00), %g1
    7888:	82 10 63 ff 	or  %g1, 0x3ff, %g1	! ffff <SW_trap_0xfe+0x1f>
    788c:	92 0a 40 01 	and  %o1, %g1, %o1
    7890:	81 c3 e0 08 	retl 
    7894:	90 10 20 00 	clr  %o0
    7898:	80 a0 60 00 	cmp  %g1, 0
    789c:	12 bf ff f2 	bne  7864 <_load_inttype+0x18>
    78a0:	80 a2 21 00 	cmp  %o0, 0x100
    78a4:	12 80 00 05 	bne  78b8 <_load_inttype+0x6c>
    78a8:	d2 02 40 00 	ld  [ %o1 ], %o1
    78ac:	93 2a 60 18 	sll  %o1, 0x18, %o1
    78b0:	10 80 00 07 	b  78cc <_load_inttype+0x80>
    78b4:	93 3a 60 18 	sra  %o1, 0x18, %o1
    78b8:	80 a2 22 00 	cmp  %o0, 0x200
    78bc:	12 80 00 04 	bne  78cc <_load_inttype+0x80>
    78c0:	01 00 00 00 	nop 
    78c4:	93 2a 60 10 	sll  %o1, 0x10, %o1
    78c8:	93 3a 60 10 	sra  %o1, 0x10, %o1
    78cc:	81 c3 e0 08 	retl 
    78d0:	91 3a 60 1f 	sra  %o1, 0x1f, %o0

000078d4 <_store_inttype>:
    78d4:	80 a2 61 00 	cmp  %o1, 0x100
    78d8:	12 80 00 04 	bne  78e8 <_store_inttype+0x14>
    78dc:	80 a2 68 00 	cmp  %o1, 0x800
    78e0:	81 c3 e0 08 	retl 
    78e4:	d6 2a 00 00 	stb  %o3, [ %o0 ]
    78e8:	12 80 00 04 	bne  78f8 <_store_inttype+0x24>
    78ec:	80 a2 62 00 	cmp  %o1, 0x200
    78f0:	81 c3 e0 08 	retl 
    78f4:	d4 3a 00 00 	std  %o2, [ %o0 ]
    78f8:	12 80 00 04 	bne  7908 <_store_inttype+0x34>
    78fc:	01 00 00 00 	nop 
    7900:	81 c3 e0 08 	retl 
    7904:	d6 32 00 00 	sth  %o3, [ %o0 ]
    7908:	81 c3 e0 08 	retl 
    790c:	d6 22 00 00 	st  %o3, [ %o0 ]

00007910 <_uintmaxtostr>:
    7910:	9d e3 bf a0 	save  %sp, -96, %sp
    7914:	84 10 00 19 	mov  %i1, %g2
    7918:	86 10 00 1a 	mov  %i2, %g3
    791c:	80 a6 e0 00 	cmp  %i3, 0
    7920:	16 80 00 08 	bge  7940 <_uintmaxtostr+0x30>
    7924:	b2 10 20 00 	clr  %i1
    7928:	80 a0 a0 00 	cmp  %g2, 0
    792c:	16 80 00 05 	bge  7940 <_uintmaxtostr+0x30>
    7930:	b6 20 00 1b 	neg  %i3
    7934:	86 a0 00 1a 	subcc  %g0, %i2, %g3
    7938:	b2 10 20 01 	mov  1, %i1
    793c:	84 60 00 02 	subx  %g0, %g2, %g2
    7940:	82 10 3f ff 	mov  -1, %g1
    7944:	81 80 20 00 	mov  %g0, %y
    7948:	01 00 00 00 	nop 
    794c:	01 00 00 00 	nop 
    7950:	01 00 00 00 	nop 
    7954:	88 70 40 1b 	udiv  %g1, %i3, %g4
    7958:	b4 59 00 1b 	smul  %g4, %i3, %i2
    795c:	b4 20 00 1a 	neg  %i2
    7960:	80 a6 80 1b 	cmp  %i2, %i3
    7964:	12 80 00 04 	bne  7974 <_uintmaxtostr+0x64>
    7968:	c0 2e 00 00 	clrb  [ %i0 ]
    796c:	88 01 20 01 	inc  %g4
    7970:	b4 10 20 00 	clr  %i2
    7974:	82 10 00 03 	mov  %g3, %g1
    7978:	80 a0 a0 00 	cmp  %g2, 0
    797c:	81 80 20 00 	mov  %g0, %y
    7980:	01 00 00 00 	nop 
    7984:	01 00 00 00 	nop 
    7988:	01 00 00 00 	nop 
    798c:	ba 70 40 1b 	udiv  %g1, %i3, %i5
    7990:	22 80 00 19 	be,a   79f4 <_uintmaxtostr+0xe4>
    7994:	86 5f 40 1b 	smul  %i5, %i3, %g3
    7998:	81 80 20 00 	mov  %g0, %y
    799c:	01 00 00 00 	nop 
    79a0:	01 00 00 00 	nop 
    79a4:	01 00 00 00 	nop 
    79a8:	86 70 80 1b 	udiv  %g2, %i3, %g3
    79ac:	9a 58 c0 1b 	smul  %g3, %i3, %o5
    79b0:	9a 20 80 0d 	sub  %g2, %o5, %o5
    79b4:	84 10 00 03 	mov  %g3, %g2
    79b8:	86 5f 40 1b 	smul  %i5, %i3, %g3
    79bc:	82 20 40 03 	sub  %g1, %g3, %g1
    79c0:	9e 5b 40 1a 	smul  %o5, %i2, %o7
    79c4:	9e 03 c0 01 	add  %o7, %g1, %o7
    79c8:	82 5b 40 04 	smul  %o5, %g4, %g1
    79cc:	81 80 20 00 	mov  %g0, %y
    79d0:	01 00 00 00 	nop 
    79d4:	01 00 00 00 	nop 
    79d8:	01 00 00 00 	nop 
    79dc:	86 73 c0 1b 	udiv  %o7, %i3, %g3
    79e0:	82 00 40 1d 	add  %g1, %i5, %g1
    79e4:	82 00 40 03 	add  %g1, %g3, %g1
    79e8:	86 58 c0 1b 	smul  %g3, %i3, %g3
    79ec:	10 80 00 04 	b  79fc <_uintmaxtostr+0xec>
    79f0:	86 23 c0 03 	sub  %o7, %g3, %g3
    79f4:	86 20 40 03 	sub  %g1, %g3, %g3
    79f8:	82 10 00 1d 	mov  %i5, %g1
    79fc:	b0 06 3f ff 	add  %i0, -1, %i0
    7a00:	80 a0 e0 09 	cmp  %g3, 9
    7a04:	18 80 00 03 	bgu  7a10 <_uintmaxtostr+0x100>
    7a08:	ba 00 c0 1c 	add  %g3, %i4, %i5
    7a0c:	ba 00 e0 30 	add  %g3, 0x30, %i5
    7a10:	80 90 40 02 	orcc  %g1, %g2, %g0
    7a14:	12 bf ff d9 	bne  7978 <_uintmaxtostr+0x68>
    7a18:	fa 2e 00 00 	stb  %i5, [ %i0 ]
    7a1c:	80 a6 60 00 	cmp  %i1, 0
    7a20:	02 80 00 04 	be  7a30 <_uintmaxtostr+0x120>
    7a24:	82 10 20 2d 	mov  0x2d, %g1
    7a28:	c2 2e 3f ff 	stb  %g1, [ %i0 + -1 ]
    7a2c:	b0 06 3f ff 	add  %i0, -1, %i0
    7a30:	81 c7 e0 08 	ret 
    7a34:	81 e8 00 00 	restore 

00007a38 <_fpmaxtostr>:
    7a38:	9d e3 be 68 	save  %sp, -408, %sp
    7a3c:	c2 06 a0 04 	ld  [ %i2 + 4 ], %g1
    7a40:	d1 1e 40 00 	ldd  [ %i1 ], %f8
    7a44:	d5 1e 60 08 	ldd  [ %i1 + 8 ], %f10
    7a48:	c2 27 be dc 	st  %g1, [ %fp + -292 ]
    7a4c:	f0 27 a0 44 	st  %i0, [ %fp + 0x44 ]
    7a50:	82 10 20 65 	mov  0x65, %g1
    7a54:	d1 3f bf 10 	std  %f8, [ %fp + -240 ]
    7a58:	c2 2f bf 68 	stb  %g1, [ %fp + -152 ]
    7a5c:	d5 3f bf 18 	std  %f10, [ %fp + -232 ]
    7a60:	f6 27 a0 50 	st  %i3, [ %fp + 0x50 ]
    7a64:	ec 06 a0 08 	ld  [ %i2 + 8 ], %l6
    7a68:	2f 00 00 3a 	sethi  %hi(0xe800), %l7
    7a6c:	40 00 21 65 	call  10000 <__sparc_get_pc_thunk.l7>
    7a70:	ae 05 e2 b0 	add  %l7, 0x2b0, %l7	! eab0 <generic_read_asr+0x188>
    7a74:	b2 15 a0 20 	or  %l6, 0x20, %i1
    7a78:	82 0e 60 ff 	and  %i1, 0xff, %g1
    7a7c:	fa 06 80 00 	ld  [ %i2 ], %i5
    7a80:	80 a0 60 61 	cmp  %g1, 0x61
    7a84:	12 80 00 09 	bne  7aa8 <_fpmaxtostr+0x70>
    7a88:	b8 10 00 16 	mov  %l6, %i4
    7a8c:	82 10 20 70 	mov  0x70, %g1
    7a90:	c2 2f bf 68 	stb  %g1, [ %fp + -152 ]
    7a94:	80 a7 60 00 	cmp  %i5, 0
    7a98:	16 80 00 0a 	bge  7ac0 <_fpmaxtostr+0x88>
    7a9c:	a4 10 20 00 	clr  %l2
    7aa0:	10 80 03 08 	b  86c0 <_fpmaxtostr+0xc88>
    7aa4:	ba 10 20 1d 	mov  0x1d, %i5
    7aa8:	80 a7 60 00 	cmp  %i5, 0
    7aac:	06 80 00 04 	bl  7abc <_fpmaxtostr+0x84>
    7ab0:	a4 10 20 00 	clr  %l2
    7ab4:	10 80 00 04 	b  7ac4 <_fpmaxtostr+0x8c>
    7ab8:	c0 2f bf 60 	clrb  [ %fp + -160 ]
    7abc:	ba 10 20 06 	mov  6, %i5
    7ac0:	c0 2f bf 60 	clrb  [ %fp + -160 ]
    7ac4:	c2 06 a0 0c 	ld  [ %i2 + 0xc ], %g1
    7ac8:	80 88 60 02 	btst  2, %g1
    7acc:	02 80 00 04 	be  7adc <_fpmaxtostr+0xa4>
    7ad0:	80 88 60 01 	btst  1, %g1
    7ad4:	10 80 00 05 	b  7ae8 <_fpmaxtostr+0xb0>
    7ad8:	82 10 20 2b 	mov  0x2b, %g1
    7adc:	02 80 00 05 	be  7af0 <_fpmaxtostr+0xb8>
    7ae0:	d1 1f bf 10 	ldd  [ %fp + -240 ], %f8
    7ae4:	82 10 20 20 	mov  0x20, %g1
    7ae8:	c2 2f bf 60 	stb  %g1, [ %fp + -160 ]
    7aec:	d1 1f bf 10 	ldd  [ %fp + -240 ], %f8
    7af0:	d5 1f bf 18 	ldd  [ %fp + -232 ], %f10
    7af4:	c0 2f bf 61 	clrb  [ %fp + -159 ]
    7af8:	c0 27 bf b4 	clr  [ %fp + -76 ]
    7afc:	d1 3f bf 50 	std  %f8, [ %fp + -176 ]
    7b00:	d5 3f bf 58 	std  %f10, [ %fp + -168 ]
    7b04:	b0 07 bf 50 	add  %fp, -176, %i0
    7b08:	d1 3f bf 40 	std  %f8, [ %fp + -192 ]
    7b0c:	d5 3f bf 48 	std  %f10, [ %fp + -184 ]
    7b10:	90 10 00 18 	mov  %i0, %o0
    7b14:	40 00 12 e9 	call  c6b8 <_Q_feq>
    7b18:	92 07 bf 40 	add  %fp, -192, %o1
    7b1c:	80 a2 20 00 	cmp  %o0, 0
    7b20:	12 80 00 05 	bne  7b34 <_fpmaxtostr+0xfc>
    7b24:	d9 1f bf 10 	ldd  [ %fp + -240 ], %f12
    7b28:	82 10 20 08 	mov  8, %g1
    7b2c:	10 80 00 6f 	b  7ce8 <_fpmaxtostr+0x2b0>
    7b30:	c2 27 bf b4 	st  %g1, [ %fp + -76 ]
    7b34:	dd 1f bf 18 	ldd  [ %fp + -232 ], %f14
    7b38:	d9 3f bf 50 	std  %f12, [ %fp + -176 ]
    7b3c:	dd 3f bf 58 	std  %f14, [ %fp + -168 ]
    7b40:	c0 27 bf 40 	clr  [ %fp + -192 ]
    7b44:	c0 27 bf 44 	clr  [ %fp + -188 ]
    7b48:	c0 27 bf 48 	clr  [ %fp + -184 ]
    7b4c:	c0 27 bf 4c 	clr  [ %fp + -180 ]
    7b50:	90 10 00 18 	mov  %i0, %o0
    7b54:	40 00 13 53 	call  c8a0 <_Q_fne>
    7b58:	92 07 bf 40 	add  %fp, -192, %o1
    7b5c:	80 a2 20 00 	cmp  %o0, 0
    7b60:	12 80 00 2e 	bne  7c18 <_fpmaxtostr+0x1e0>
    7b64:	d1 1f bf 10 	ldd  [ %fp + -240 ], %f8
    7b68:	03 00 00 04 	sethi  %hi(0x1000), %g1
    7b6c:	82 18 7f 3c 	xor  %g1, -196, %g1
    7b70:	82 05 c0 01 	add  %l7, %g1, %g1
    7b74:	d1 18 40 00 	ldd  [ %g1 ], %f8
    7b78:	d5 18 60 08 	ldd  [ %g1 + 8 ], %f10
    7b7c:	d1 3f bf 40 	std  %f8, [ %fp + -192 ]
    7b80:	d5 3f bf 48 	std  %f10, [ %fp + -184 ]
    7b84:	d1 1f bf 10 	ldd  [ %fp + -240 ], %f8
    7b88:	d5 1f bf 18 	ldd  [ %fp + -232 ], %f10
    7b8c:	d1 3f bf 30 	std  %f8, [ %fp + -208 ]
    7b90:	d5 3f bf 38 	std  %f10, [ %fp + -200 ]
    7b94:	90 07 bf 40 	add  %fp, -192, %o0
    7b98:	92 07 bf 30 	add  %fp, -208, %o1
    7b9c:	f0 23 a0 40 	st  %i0, [ %sp + 0x40 ]
    7ba0:	40 00 03 9b 	call  8a0c <_Q_div>
    7ba4:	01 00 00 00 	nop 
    7ba8:	00 00 00 10 	unimp  0x10
    7bac:	d0 1f bf 50 	ldd  [ %fp + -176 ], %o0
    7bb0:	d4 1f bf 58 	ldd  [ %fp + -168 ], %o2
    7bb4:	d0 3f bf 40 	std  %o0, [ %fp + -192 ]
    7bb8:	d4 3f bf 48 	std  %o2, [ %fp + -184 ]
    7bbc:	c0 27 bf 30 	clr  [ %fp + -208 ]
    7bc0:	c0 27 bf 34 	clr  [ %fp + -204 ]
    7bc4:	c0 27 bf 38 	clr  [ %fp + -200 ]
    7bc8:	c0 27 bf 3c 	clr  [ %fp + -196 ]
    7bcc:	90 07 bf 40 	add  %fp, -192, %o0
    7bd0:	40 00 0b 73 	call  a99c <_Q_flt>
    7bd4:	92 07 bf 30 	add  %fp, -208, %o1
    7bd8:	80 a2 20 00 	cmp  %o0, 0
    7bdc:	02 80 00 ff 	be  7fd8 <_fpmaxtostr+0x5a0>
    7be0:	05 00 00 04 	sethi  %hi(0x1000), %g2
    7be4:	82 10 20 2d 	mov  0x2d, %g1
    7be8:	c2 2f bf 60 	stb  %g1, [ %fp + -160 ]
    7bec:	84 18 bf 1c 	xor  %g2, -228, %g2
    7bf0:	b6 10 3f ff 	mov  -1, %i3
    7bf4:	84 05 c0 02 	add  %l7, %g2, %g2
    7bf8:	b0 10 20 24 	mov  0x24, %i0
    7bfc:	d9 18 80 00 	ldd  [ %g2 ], %f12
    7c00:	dd 18 a0 08 	ldd  [ %g2 + 8 ], %f14
    7c04:	a0 10 20 09 	mov  9, %l0
    7c08:	b2 10 20 0a 	mov  0xa, %i1
    7c0c:	d9 3f bf 00 	std  %f12, [ %fp + -256 ]
    7c10:	10 80 00 fc 	b  8000 <_fpmaxtostr+0x5c8>
    7c14:	dd 3f bf 08 	std  %f14, [ %fp + -248 ]
    7c18:	d5 1f bf 18 	ldd  [ %fp + -232 ], %f10
    7c1c:	d1 3f bf 50 	std  %f8, [ %fp + -176 ]
    7c20:	d5 3f bf 58 	std  %f10, [ %fp + -168 ]
    7c24:	c0 27 bf 40 	clr  [ %fp + -192 ]
    7c28:	c0 27 bf 44 	clr  [ %fp + -188 ]
    7c2c:	c0 27 bf 48 	clr  [ %fp + -184 ]
    7c30:	c0 27 bf 4c 	clr  [ %fp + -180 ]
    7c34:	90 10 00 18 	mov  %i0, %o0
    7c38:	40 00 0b 59 	call  a99c <_Q_flt>
    7c3c:	92 07 bf 40 	add  %fp, -192, %o1
    7c40:	80 a2 20 00 	cmp  %o0, 0
    7c44:	02 80 00 0a 	be  7c6c <_fpmaxtostr+0x234>
    7c48:	03 00 00 04 	sethi  %hi(0x1000), %g1
    7c4c:	d9 1f bf 10 	ldd  [ %fp + -240 ], %f12
    7c50:	dd 1f bf 18 	ldd  [ %fp + -232 ], %f14
    7c54:	82 10 20 2d 	mov  0x2d, %g1
    7c58:	99 a0 00 ac 	fnegs  %f12, %f12
    7c5c:	c2 2f bf 60 	stb  %g1, [ %fp + -160 ]
    7c60:	d9 3f bf 10 	std  %f12, [ %fp + -240 ]
    7c64:	dd 3f bf 18 	std  %f14, [ %fp + -232 ]
    7c68:	03 00 00 04 	sethi  %hi(0x1000), %g1
    7c6c:	82 18 7f 4c 	xor  %g1, -180, %g1
    7c70:	82 05 c0 01 	add  %l7, %g1, %g1
    7c74:	d1 1f bf 10 	ldd  [ %fp + -240 ], %f8
    7c78:	d0 18 40 00 	ldd  [ %g1 ], %o0
    7c7c:	d4 18 60 08 	ldd  [ %g1 + 8 ], %o2
    7c80:	d5 1f bf 18 	ldd  [ %fp + -232 ], %f10
    7c84:	82 07 bf 50 	add  %fp, -176, %g1
    7c88:	d0 3f bf 30 	std  %o0, [ %fp + -208 ]
    7c8c:	d1 3f bf 40 	std  %f8, [ %fp + -192 ]
    7c90:	d5 3f bf 48 	std  %f10, [ %fp + -184 ]
    7c94:	d4 3f bf 38 	std  %o2, [ %fp + -200 ]
    7c98:	90 07 bf 40 	add  %fp, -192, %o0
    7c9c:	92 07 bf 30 	add  %fp, -208, %o1
    7ca0:	c2 23 a0 40 	st  %g1, [ %sp + 0x40 ]
    7ca4:	40 00 07 8c 	call  9ad4 <_Q_mul>
    7ca8:	01 00 00 00 	nop 
    7cac:	00 00 00 10 	unimp  0x10
    7cb0:	d0 1f bf 50 	ldd  [ %fp + -176 ], %o0
    7cb4:	d9 1f bf 10 	ldd  [ %fp + -240 ], %f12
    7cb8:	dd 1f bf 18 	ldd  [ %fp + -232 ], %f14
    7cbc:	d4 1f bf 58 	ldd  [ %fp + -168 ], %o2
    7cc0:	d0 3f bf 30 	std  %o0, [ %fp + -208 ]
    7cc4:	d9 3f bf 40 	std  %f12, [ %fp + -192 ]
    7cc8:	dd 3f bf 48 	std  %f14, [ %fp + -184 ]
    7ccc:	d4 3f bf 38 	std  %o2, [ %fp + -200 ]
    7cd0:	90 07 bf 40 	add  %fp, -192, %o0
    7cd4:	40 00 12 f3 	call  c8a0 <_Q_fne>
    7cd8:	92 07 bf 30 	add  %fp, -208, %o1
    7cdc:	80 a2 20 00 	cmp  %o0, 0
    7ce0:	32 80 00 17 	bne,a   7d3c <_fpmaxtostr+0x304>
    7ce4:	b2 0e 60 ff 	and  %i1, 0xff, %i1
    7ce8:	82 10 20 20 	mov  0x20, %g1
    7cec:	c2 26 a0 10 	st  %g1, [ %i2 + 0x10 ]
    7cf0:	82 10 20 70 	mov  0x70, %g1
    7cf4:	c2 27 bf ac 	st  %g1, [ %fp + -84 ]
    7cf8:	82 10 20 03 	mov  3, %g1
    7cfc:	c2 27 bf b0 	st  %g1, [ %fp + -80 ]
    7d00:	82 0f 20 ff 	and  %i4, 0xff, %g1
    7d04:	80 a0 60 60 	cmp  %g1, 0x60
    7d08:	38 80 00 06 	bgu,a   7d20 <_fpmaxtostr+0x2e8>
    7d0c:	c4 07 bf b4 	ld  [ %fp + -76 ], %g2
    7d10:	c2 07 bf b4 	ld  [ %fp + -76 ], %g1
    7d14:	82 00 60 04 	add  %g1, 4, %g1
    7d18:	c2 27 bf b4 	st  %g1, [ %fp + -76 ]
    7d1c:	c4 07 bf b4 	ld  [ %fp + -76 ], %g2
    7d20:	03 00 00 04 	sethi  %hi(0x1000), %g1
    7d24:	82 18 7f 5c 	xor  %g1, -164, %g1
    7d28:	82 05 c0 01 	add  %l7, %g1, %g1
    7d2c:	82 00 80 01 	add  %g2, %g1, %g1
    7d30:	84 07 bf b8 	add  %fp, -72, %g2
    7d34:	10 80 02 13 	b  8580 <_fpmaxtostr+0xb48>
    7d38:	c2 27 bf b4 	st  %g1, [ %fp + -76 ]
    7d3c:	80 a6 60 61 	cmp  %i1, 0x61
    7d40:	32 80 00 14 	bne,a   7d90 <_fpmaxtostr+0x358>
    7d44:	05 00 00 04 	sethi  %hi(0x1000), %g2
    7d48:	05 00 00 04 	sethi  %hi(0x1000), %g2
    7d4c:	84 18 be fc 	xor  %g2, -260, %g2
    7d50:	84 05 c0 02 	add  %l7, %g2, %g2
    7d54:	27 00 00 04 	sethi  %hi(0x1000), %l3
    7d58:	d1 18 80 00 	ldd  [ %g2 ], %f8
    7d5c:	d5 18 a0 08 	ldd  [ %g2 + 8 ], %f10
    7d60:	a6 1c ff 74 	xor  %l3, -140, %l3
    7d64:	05 00 00 04 	sethi  %hi(0x1000), %g2
    7d68:	b6 10 20 07 	mov  7, %i3
    7d6c:	84 18 bf 0c 	xor  %g2, -244, %g2
    7d70:	b0 10 20 1d 	mov  0x1d, %i0
    7d74:	a0 10 20 08 	mov  8, %l0
    7d78:	a6 05 c0 13 	add  %l7, %l3, %l3
    7d7c:	b2 10 20 10 	mov  0x10, %i1
    7d80:	d1 3f bf 00 	std  %f8, [ %fp + -256 ]
    7d84:	d5 3f bf 08 	std  %f10, [ %fp + -248 ]
    7d88:	10 80 00 12 	b  7dd0 <_fpmaxtostr+0x398>
    7d8c:	84 05 c0 02 	add  %l7, %g2, %g2
    7d90:	84 18 bf 1c 	xor  %g2, -228, %g2
    7d94:	84 05 c0 02 	add  %l7, %g2, %g2
    7d98:	27 00 00 03 	sethi  %hi(0xc00), %l3
    7d9c:	d1 18 80 00 	ldd  [ %g2 ], %f8
    7da0:	d5 18 a0 08 	ldd  [ %g2 + 8 ], %f10
    7da4:	a6 1c fc 44 	xor  %l3, -956, %l3
    7da8:	05 00 00 04 	sethi  %hi(0x1000), %g2
    7dac:	b6 10 20 08 	mov  8, %i3
    7db0:	84 18 bf 2c 	xor  %g2, -212, %g2
    7db4:	b0 10 20 24 	mov  0x24, %i0
    7db8:	a0 10 20 09 	mov  9, %l0
    7dbc:	a6 05 c0 13 	add  %l7, %l3, %l3
    7dc0:	b2 10 20 0a 	mov  0xa, %i1
    7dc4:	d1 3f bf 00 	std  %f8, [ %fp + -256 ]
    7dc8:	d5 3f bf 08 	std  %f10, [ %fp + -248 ]
    7dcc:	84 05 c0 02 	add  %l7, %g2, %g2
    7dd0:	d9 18 80 00 	ldd  [ %g2 ], %f12
    7dd4:	dd 18 a0 08 	ldd  [ %g2 + 8 ], %f14
    7dd8:	d1 1f bf 10 	ldd  [ %fp + -240 ], %f8
    7ddc:	d5 1f bf 18 	ldd  [ %fp + -232 ], %f10
    7de0:	d9 3f be e0 	std  %f12, [ %fp + -288 ]
    7de4:	dd 3f be e8 	std  %f14, [ %fp + -280 ]
    7de8:	d1 3f be f0 	std  %f8, [ %fp + -272 ]
    7dec:	d5 3f be f8 	std  %f10, [ %fp + -264 ]
    7df0:	2b 00 00 04 	sethi  %hi(0x1000), %l5
    7df4:	a8 10 20 0d 	mov  0xd, %l4
    7df8:	a2 07 bf 50 	add  %fp, -176, %l1
    7dfc:	d9 1f bf 10 	ldd  [ %fp + -240 ], %f12
    7e00:	dd 1f bf 18 	ldd  [ %fp + -232 ], %f14
    7e04:	d1 1f be e0 	ldd  [ %fp + -288 ], %f8
    7e08:	d5 1f be e8 	ldd  [ %fp + -280 ], %f10
    7e0c:	d9 3f bf 50 	std  %f12, [ %fp + -176 ]
    7e10:	dd 3f bf 58 	std  %f14, [ %fp + -168 ]
    7e14:	d1 3f bf 40 	std  %f8, [ %fp + -192 ]
    7e18:	d5 3f bf 48 	std  %f10, [ %fp + -184 ]
    7e1c:	90 10 00 11 	mov  %l1, %o0
    7e20:	40 00 0a df 	call  a99c <_Q_flt>
    7e24:	92 07 bf 40 	add  %fp, -192, %o1
    7e28:	a8 05 3f ff 	add  %l4, -1, %l4
    7e2c:	80 a2 20 00 	cmp  %o0, 0
    7e30:	85 2d 20 04 	sll  %l4, 4, %g2
    7e34:	02 80 00 21 	be  7eb8 <_fpmaxtostr+0x480>
    7e38:	84 04 c0 02 	add  %l3, %g2, %g2
    7e3c:	d9 1f be f0 	ldd  [ %fp + -272 ], %f12
    7e40:	dd 1f be f8 	ldd  [ %fp + -264 ], %f14
    7e44:	d9 3f bf 40 	std  %f12, [ %fp + -192 ]
    7e48:	dd 3f bf 48 	std  %f14, [ %fp + -184 ]
    7e4c:	d0 18 80 00 	ldd  [ %g2 ], %o0
    7e50:	d4 18 a0 08 	ldd  [ %g2 + 8 ], %o2
    7e54:	d0 3f bf 30 	std  %o0, [ %fp + -208 ]
    7e58:	d4 3f bf 38 	std  %o2, [ %fp + -200 ]
    7e5c:	90 07 bf 40 	add  %fp, -192, %o0
    7e60:	92 07 bf 30 	add  %fp, -208, %o1
    7e64:	e2 23 a0 40 	st  %l1, [ %sp + 0x40 ]
    7e68:	40 00 07 1b 	call  9ad4 <_Q_mul>
    7e6c:	01 00 00 00 	nop 
    7e70:	00 00 00 10 	unimp  0x10
    7e74:	d1 1f bf 50 	ldd  [ %fp + -176 ], %f8
    7e78:	d5 1f bf 58 	ldd  [ %fp + -168 ], %f10
    7e7c:	d9 1f bf 00 	ldd  [ %fp + -256 ], %f12
    7e80:	dd 1f bf 08 	ldd  [ %fp + -248 ], %f14
    7e84:	d1 3f be d0 	std  %f8, [ %fp + -304 ]
    7e88:	d5 3f be c8 	std  %f10, [ %fp + -312 ]
    7e8c:	d9 3f bf 40 	std  %f12, [ %fp + -192 ]
    7e90:	dd 3f bf 48 	std  %f14, [ %fp + -184 ]
    7e94:	90 10 00 11 	mov  %l1, %o0
    7e98:	40 00 0a c1 	call  a99c <_Q_flt>
    7e9c:	92 07 bf 40 	add  %fp, -192, %o1
    7ea0:	d1 1f be d0 	ldd  [ %fp + -304 ], %f8
    7ea4:	80 a2 20 00 	cmp  %o0, 0
    7ea8:	02 80 00 24 	be  7f38 <_fpmaxtostr+0x500>
    7eac:	d5 1f be c8 	ldd  [ %fp + -312 ], %f10
    7eb0:	10 80 00 20 	b  7f30 <_fpmaxtostr+0x4f8>
    7eb4:	b6 26 c0 15 	sub  %i3, %l5, %i3
    7eb8:	d1 1f be f0 	ldd  [ %fp + -272 ], %f8
    7ebc:	d5 1f be f8 	ldd  [ %fp + -264 ], %f10
    7ec0:	d1 3f bf 40 	std  %f8, [ %fp + -192 ]
    7ec4:	d5 3f bf 48 	std  %f10, [ %fp + -184 ]
    7ec8:	d0 18 80 00 	ldd  [ %g2 ], %o0
    7ecc:	d4 18 a0 08 	ldd  [ %g2 + 8 ], %o2
    7ed0:	d0 3f bf 30 	std  %o0, [ %fp + -208 ]
    7ed4:	d4 3f bf 38 	std  %o2, [ %fp + -200 ]
    7ed8:	90 07 bf 40 	add  %fp, -192, %o0
    7edc:	92 07 bf 30 	add  %fp, -208, %o1
    7ee0:	e2 23 a0 40 	st  %l1, [ %sp + 0x40 ]
    7ee4:	40 00 02 ca 	call  8a0c <_Q_div>
    7ee8:	01 00 00 00 	nop 
    7eec:	00 00 00 10 	unimp  0x10
    7ef0:	d1 1f bf 50 	ldd  [ %fp + -176 ], %f8
    7ef4:	d5 1f bf 58 	ldd  [ %fp + -168 ], %f10
    7ef8:	d9 1f be e0 	ldd  [ %fp + -288 ], %f12
    7efc:	dd 1f be e8 	ldd  [ %fp + -280 ], %f14
    7f00:	d1 3f be d0 	std  %f8, [ %fp + -304 ]
    7f04:	d5 3f be c8 	std  %f10, [ %fp + -312 ]
    7f08:	d9 3f bf 40 	std  %f12, [ %fp + -192 ]
    7f0c:	dd 3f bf 48 	std  %f14, [ %fp + -184 ]
    7f10:	90 10 00 11 	mov  %l1, %o0
    7f14:	40 00 13 6f 	call  ccd0 <_Q_fge>
    7f18:	92 07 bf 40 	add  %fp, -192, %o1
    7f1c:	d1 1f be d0 	ldd  [ %fp + -304 ], %f8
    7f20:	80 a2 20 00 	cmp  %o0, 0
    7f24:	02 80 00 05 	be  7f38 <_fpmaxtostr+0x500>
    7f28:	d5 1f be c8 	ldd  [ %fp + -312 ], %f10
    7f2c:	b6 06 c0 15 	add  %i3, %l5, %i3
    7f30:	d1 3f be f0 	std  %f8, [ %fp + -272 ]
    7f34:	d5 3f be f8 	std  %f10, [ %fp + -264 ]
    7f38:	80 a5 20 00 	cmp  %l4, 0
    7f3c:	12 bf ff b0 	bne  7dfc <_fpmaxtostr+0x3c4>
    7f40:	ab 3d 60 01 	sra  %l5, 1, %l5
    7f44:	d1 1f be f0 	ldd  [ %fp + -272 ], %f8
    7f48:	d5 1f be f8 	ldd  [ %fp + -264 ], %f10
    7f4c:	d9 1f bf 00 	ldd  [ %fp + -256 ], %f12
    7f50:	dd 1f bf 08 	ldd  [ %fp + -248 ], %f14
    7f54:	d1 3f bf 10 	std  %f8, [ %fp + -240 ]
    7f58:	d5 3f bf 18 	std  %f10, [ %fp + -232 ]
    7f5c:	d1 3f bf 50 	std  %f8, [ %fp + -176 ]
    7f60:	d5 3f bf 58 	std  %f10, [ %fp + -168 ]
    7f64:	a2 07 bf 50 	add  %fp, -176, %l1
    7f68:	d9 3f bf 40 	std  %f12, [ %fp + -192 ]
    7f6c:	dd 3f bf 48 	std  %f14, [ %fp + -184 ]
    7f70:	90 10 00 11 	mov  %l1, %o0
    7f74:	40 00 13 57 	call  ccd0 <_Q_fge>
    7f78:	92 07 bf 40 	add  %fp, -192, %o1
    7f7c:	80 a2 20 00 	cmp  %o0, 0
    7f80:	02 80 00 21 	be  8004 <_fpmaxtostr+0x5cc>
    7f84:	a8 10 20 00 	clr  %l4
    7f88:	d1 1f bf 10 	ldd  [ %fp + -240 ], %f8
    7f8c:	d5 1f bf 18 	ldd  [ %fp + -232 ], %f10
    7f90:	d1 3f bf 40 	std  %f8, [ %fp + -192 ]
    7f94:	d5 3f bf 48 	std  %f10, [ %fp + -184 ]
    7f98:	d0 1c c0 00 	ldd  [ %l3 ], %o0
    7f9c:	d4 1c e0 08 	ldd  [ %l3 + 8 ], %o2
    7fa0:	d0 3f bf 30 	std  %o0, [ %fp + -208 ]
    7fa4:	d4 3f bf 38 	std  %o2, [ %fp + -200 ]
    7fa8:	90 07 bf 40 	add  %fp, -192, %o0
    7fac:	92 07 bf 30 	add  %fp, -208, %o1
    7fb0:	e2 23 a0 40 	st  %l1, [ %sp + 0x40 ]
    7fb4:	40 00 02 96 	call  8a0c <_Q_div>
    7fb8:	01 00 00 00 	nop 
    7fbc:	00 00 00 10 	unimp  0x10
    7fc0:	d9 1f bf 50 	ldd  [ %fp + -176 ], %f12
    7fc4:	dd 1f bf 58 	ldd  [ %fp + -168 ], %f14
    7fc8:	d9 3f bf 10 	std  %f12, [ %fp + -240 ]
    7fcc:	dd 3f bf 18 	std  %f14, [ %fp + -232 ]
    7fd0:	10 80 00 0d 	b  8004 <_fpmaxtostr+0x5cc>
    7fd4:	b6 06 e0 01 	inc  %i3
    7fd8:	b6 10 3f ff 	mov  -1, %i3
    7fdc:	84 18 bf 1c 	xor  %g2, -228, %g2
    7fe0:	b0 10 20 24 	mov  0x24, %i0
    7fe4:	84 05 c0 02 	add  %l7, %g2, %g2
    7fe8:	a0 10 20 09 	mov  9, %l0
    7fec:	d1 18 80 00 	ldd  [ %g2 ], %f8
    7ff0:	d5 18 a0 08 	ldd  [ %g2 + 8 ], %f10
    7ff4:	b2 10 20 0a 	mov  0xa, %i1
    7ff8:	d1 3f bf 00 	std  %f8, [ %fp + -256 ]
    7ffc:	d5 3f bf 08 	std  %f10, [ %fp + -248 ]
    8000:	a8 10 20 00 	clr  %l4
    8004:	aa 07 bf 7a 	add  %fp, -134, %l5
    8008:	a2 07 bf 50 	add  %fp, -176, %l1
    800c:	a6 07 bf 40 	add  %fp, -192, %l3
    8010:	d9 1f bf 10 	ldd  [ %fp + -240 ], %f12
    8014:	dd 1f bf 18 	ldd  [ %fp + -232 ], %f14
    8018:	d9 3f bf 50 	std  %f12, [ %fp + -176 ]
    801c:	dd 3f bf 58 	std  %f14, [ %fp + -168 ]
    8020:	40 00 12 98 	call  ca80 <_Q_qtou>
    8024:	90 10 00 11 	mov  %l1, %o0
    8028:	d0 27 be d8 	st  %o0, [ %fp + -296 ]
    802c:	e2 23 a0 40 	st  %l1, [ %sp + 0x40 ]
    8030:	40 00 13 b9 	call  cf14 <_Q_utoq>
    8034:	01 00 00 00 	nop 
    8038:	00 00 00 10 	unimp  0x10
    803c:	d1 1f bf 10 	ldd  [ %fp + -240 ], %f8
    8040:	d5 1f bf 18 	ldd  [ %fp + -232 ], %f10
    8044:	d0 1f bf 50 	ldd  [ %fp + -176 ], %o0
    8048:	d4 1f bf 58 	ldd  [ %fp + -168 ], %o2
    804c:	d1 3f bf 30 	std  %f8, [ %fp + -208 ]
    8050:	d5 3f bf 38 	std  %f10, [ %fp + -200 ]
    8054:	d0 3f bf 20 	std  %o0, [ %fp + -224 ]
    8058:	d4 3f bf 28 	std  %o2, [ %fp + -216 ]
    805c:	90 07 bf 30 	add  %fp, -208, %o0
    8060:	92 07 bf 20 	add  %fp, -224, %o1
    8064:	e6 23 a0 40 	st  %l3, [ %sp + 0x40 ]
    8068:	40 00 0a de 	call  abe0 <_Q_sub>
    806c:	01 00 00 00 	nop 
    8070:	00 00 00 10 	unimp  0x10
    8074:	d9 1f bf 00 	ldd  [ %fp + -256 ], %f12
    8078:	dd 1f bf 08 	ldd  [ %fp + -248 ], %f14
    807c:	d9 3f bf 30 	std  %f12, [ %fp + -208 ]
    8080:	dd 3f bf 38 	std  %f14, [ %fp + -200 ]
    8084:	90 10 00 13 	mov  %l3, %o0
    8088:	92 07 bf 30 	add  %fp, -208, %o1
    808c:	e2 23 a0 40 	st  %l1, [ %sp + 0x40 ]
    8090:	40 00 06 91 	call  9ad4 <_Q_mul>
    8094:	01 00 00 00 	nop 
    8098:	00 00 00 10 	unimp  0x10
    809c:	d1 1f bf 50 	ldd  [ %fp + -176 ], %f8
    80a0:	d5 1f bf 58 	ldd  [ %fp + -168 ], %f10
    80a4:	d1 3f bf 10 	std  %f8, [ %fp + -240 ]
    80a8:	d5 3f bf 18 	std  %f10, [ %fp + -232 ]
    80ac:	aa 05 40 10 	add  %l5, %l0, %l5
    80b0:	84 10 20 00 	clr  %g2
    80b4:	c6 07 be d8 	ld  [ %fp + -296 ], %g3
    80b8:	81 80 20 00 	mov  %g0, %y
    80bc:	01 00 00 00 	nop 
    80c0:	01 00 00 00 	nop 
    80c4:	01 00 00 00 	nop 
    80c8:	88 70 c0 19 	udiv  %g3, %i1, %g4
    80cc:	84 00 a0 01 	inc  %g2
    80d0:	9a 59 00 19 	smul  %g4, %i1, %o5
    80d4:	9e 25 40 02 	sub  %l5, %g2, %o7
    80d8:	86 20 c0 0d 	sub  %g3, %o5, %g3
    80dc:	86 00 e0 30 	add  %g3, 0x30, %g3
    80e0:	c6 2b c0 00 	stb  %g3, [ %o7 ]
    80e4:	80 a0 80 10 	cmp  %g2, %l0
    80e8:	06 bf ff f4 	bl  80b8 <_fpmaxtostr+0x680>
    80ec:	86 10 00 04 	mov  %g4, %g3
    80f0:	a8 05 20 01 	inc  %l4
    80f4:	80 a5 20 04 	cmp  %l4, 4
    80f8:	12 bf ff c7 	bne  8014 <_fpmaxtostr+0x5dc>
    80fc:	d9 1f bf 10 	ldd  [ %fp + -240 ], %f12
    8100:	84 0f 20 ff 	and  %i4, 0xff, %g2
    8104:	80 a0 a0 60 	cmp  %g2, 0x60
    8108:	18 80 00 08 	bgu  8128 <_fpmaxtostr+0x6f0>
    810c:	80 a0 a0 67 	cmp  %g2, 0x67
    8110:	c4 0f bf 68 	ldub  [ %fp + -152 ], %g2
    8114:	b8 05 a0 20 	add  %l6, 0x20, %i4
    8118:	84 00 bf e0 	add  %g2, -32, %g2
    811c:	c4 2f bf 68 	stb  %g2, [ %fp + -152 ]
    8120:	84 0f 20 ff 	and  %i4, 0xff, %g2
    8124:	80 a0 a0 67 	cmp  %g2, 0x67
    8128:	32 80 00 08 	bne,a   8148 <_fpmaxtostr+0x710>
    812c:	86 0f 20 ff 	and  %i4, 0xff, %g3
    8130:	80 a7 60 00 	cmp  %i5, 0
    8134:	24 80 00 05 	ble,a   8148 <_fpmaxtostr+0x710>
    8138:	86 0f 20 ff 	and  %i4, 0xff, %g3
    813c:	ba 07 7f ff 	add  %i5, -1, %i5
    8140:	10 80 00 0f 	b  817c <_fpmaxtostr+0x744>
    8144:	84 10 00 1d 	mov  %i5, %g2
    8148:	80 a0 e0 66 	cmp  %g3, 0x66
    814c:	12 80 00 0c 	bne  817c <_fpmaxtostr+0x744>
    8150:	84 10 00 1d 	mov  %i5, %g2
    8154:	84 07 40 1b 	add  %i5, %i3, %g2
    8158:	80 a0 bf ff 	cmp  %g2, -1
    815c:	36 80 00 09 	bge,a   8180 <_fpmaxtostr+0x748>
    8160:	86 10 20 30 	mov  0x30, %g3
    8164:	90 07 bf 78 	add  %fp, -136, %o0
    8168:	92 10 20 30 	mov  0x30, %o1
    816c:	7f ff f5 e7 	call  5908 <__GI_memset>
    8170:	94 10 20 24 	mov  0x24, %o2
    8174:	b6 10 3f ff 	mov  -1, %i3
    8178:	84 10 3f ff 	mov  -1, %g2
    817c:	86 10 20 30 	mov  0x30, %g3
    8180:	c0 2f bf 78 	clrb  [ %fp + -136 ]
    8184:	c6 2f bf 79 	stb  %g3, [ %fp + -135 ]
    8188:	80 a0 80 18 	cmp  %g2, %i0
    818c:	06 80 00 06 	bl  81a4 <_fpmaxtostr+0x76c>
    8190:	86 07 bf 79 	add  %fp, -135, %g3
    8194:	b0 06 20 01 	inc  %i0
    8198:	88 10 20 00 	clr  %g4
    819c:	10 80 00 09 	b  81c0 <_fpmaxtostr+0x788>
    81a0:	b0 00 c0 18 	add  %g3, %i0, %i0
    81a4:	88 00 a0 02 	add  %g2, 2, %g4
    81a8:	b0 00 c0 04 	add  %g3, %g4, %i0
    81ac:	c8 08 c0 04 	ldub  [ %g3 + %g4 ], %g4
    81b0:	87 36 60 01 	srl  %i1, 1, %g3
    81b4:	86 00 e0 30 	add  %g3, 0x30, %g3
    81b8:	80 a1 00 03 	cmp  %g4, %g3
    81bc:	88 60 3f ff 	subx  %g0, -1, %g4
    81c0:	b2 06 60 2f 	add  %i1, 0x2f, %i1
    81c4:	c6 0e 3f ff 	ldub  [ %i0 + -1 ], %g3
    81c8:	86 00 c0 04 	add  %g3, %g4, %g3
    81cc:	c6 2e 3f ff 	stb  %g3, [ %i0 + -1 ]
    81d0:	9e 06 3f ff 	add  %i0, -1, %o7
    81d4:	86 08 e0 ff 	and  %g3, 0xff, %g3
    81d8:	80 a0 e0 30 	cmp  %g3, 0x30
    81dc:	02 bf ff fa 	be  81c4 <_fpmaxtostr+0x78c>
    81e0:	b0 10 00 0f 	mov  %o7, %i0
    81e4:	80 a0 c0 19 	cmp  %g3, %i1
    81e8:	38 bf ff f8 	bgu,a   81c8 <_fpmaxtostr+0x790>
    81ec:	c6 0e 3f ff 	ldub  [ %i0 + -1 ], %g3
    81f0:	86 17 20 20 	or  %i4, 0x20, %g3
    81f4:	86 08 e0 ff 	and  %g3, 0xff, %g3
    81f8:	80 a0 e0 61 	cmp  %g3, 0x61
    81fc:	32 80 00 14 	bne,a   824c <_fpmaxtostr+0x814>
    8200:	86 07 bf 79 	add  %fp, -135, %g3
    8204:	10 80 00 0a 	b  822c <_fpmaxtostr+0x7f4>
    8208:	c6 0e 00 00 	ldub  [ %i0 ], %g3
    820c:	28 80 00 07 	bleu,a   8228 <_fpmaxtostr+0x7f0>
    8210:	b0 06 3f ff 	add  %i0, -1, %i0
    8214:	c8 0f bf 68 	ldub  [ %fp + -152 ], %g4
    8218:	88 01 3f b7 	add  %g4, -73, %g4
    821c:	86 01 00 03 	add  %g4, %g3, %g3
    8220:	c6 2e 00 00 	stb  %g3, [ %i0 ]
    8224:	b0 06 3f ff 	add  %i0, -1, %i0
    8228:	c6 0e 00 00 	ldub  [ %i0 ], %g3
    822c:	88 88 e0 ff 	andcc  %g3, 0xff, %g4
    8230:	12 bf ff f7 	bne  820c <_fpmaxtostr+0x7d4>
    8234:	80 a1 20 39 	cmp  %g4, 0x39
    8238:	86 07 bf 79 	add  %fp, -135, %g3
    823c:	80 a3 c0 03 	cmp  %o7, %g3
    8240:	38 80 00 03 	bgu,a   824c <_fpmaxtostr+0x814>
    8244:	b7 2e e0 02 	sll  %i3, 2, %i3
    8248:	86 07 bf 79 	add  %fp, -135, %g3
    824c:	80 a3 c0 03 	cmp  %o7, %g3
    8250:	38 80 00 06 	bgu,a   8268 <_fpmaxtostr+0x830>
    8254:	82 10 00 1b 	mov  %i3, %g1
    8258:	82 06 e0 01 	add  %i3, 1, %g1
    825c:	9e 10 00 03 	mov  %g3, %o7
    8260:	10 80 00 03 	b  826c <_fpmaxtostr+0x834>
    8264:	b2 10 00 03 	mov  %g3, %i1
    8268:	b2 07 bf 7a 	add  %fp, -134, %i1
    826c:	c0 2b e0 01 	clrb  [ %o7 + 1 ]
    8270:	88 03 e0 01 	add  %o7, 1, %g4
    8274:	9e 0f 20 ff 	and  %i4, 0xff, %o7
    8278:	80 a3 e0 67 	cmp  %o7, 0x67
    827c:	12 80 00 12 	bne  82c4 <_fpmaxtostr+0x88c>
    8280:	80 a3 e0 66 	cmp  %o7, 0x66
    8284:	80 a0 40 02 	cmp  %g1, %g2
    8288:	04 80 00 03 	ble  8294 <_fpmaxtostr+0x85c>
    828c:	b0 10 20 01 	mov  1, %i0
    8290:	b0 10 20 00 	clr  %i0
    8294:	80 8e 20 ff 	btst  0xff, %i0
    8298:	22 80 01 0c 	be,a   86c8 <_fpmaxtostr+0xc90>
    829c:	b0 10 20 67 	mov  0x67, %i0
    82a0:	80 a0 7f fc 	cmp  %g1, -4
    82a4:	16 80 00 03 	bge  82b0 <_fpmaxtostr+0x878>
    82a8:	b0 10 20 01 	mov  1, %i0
    82ac:	b0 10 20 00 	clr  %i0
    82b0:	80 8e 20 ff 	btst  0xff, %i0
    82b4:	02 80 01 05 	be  86c8 <_fpmaxtostr+0xc90>
    82b8:	b0 10 20 67 	mov  0x67, %i0
    82bc:	10 80 00 04 	b  82cc <_fpmaxtostr+0x894>
    82c0:	ba 20 80 01 	sub  %g2, %g1, %i5
    82c4:	12 80 01 01 	bne  86c8 <_fpmaxtostr+0xc90>
    82c8:	b0 10 00 1c 	mov  %i4, %i0
    82cc:	80 a0 60 00 	cmp  %g1, 0
    82d0:	16 80 00 06 	bge  82e8 <_fpmaxtostr+0x8b0>
    82d4:	84 10 20 30 	mov  0x30, %g2
    82d8:	86 10 00 01 	mov  %g1, %g3
    82dc:	c4 2e 7f ff 	stb  %g2, [ %i1 + -1 ]
    82e0:	10 80 00 03 	b  82ec <_fpmaxtostr+0x8b4>
    82e4:	b2 06 7f ff 	add  %i1, -1, %i1
    82e8:	86 10 00 01 	mov  %g1, %g3
    82ec:	b0 10 20 66 	mov  0x66, %i0
    82f0:	84 10 20 01 	mov  1, %g2
    82f4:	c4 27 bf b0 	st  %g2, [ %fp + -80 ]
    82f8:	84 07 bf 64 	add  %fp, -156, %g2
    82fc:	9e 10 20 b0 	mov  0xb0, %o7
    8300:	c4 27 bf b4 	st  %g2, [ %fp + -76 ]
    8304:	de 27 bf ac 	st  %o7, [ %fp + -84 ]
    8308:	c4 0e 40 00 	ldub  [ %i1 ], %g2
    830c:	c0 2f bf 65 	clrb  [ %fp + -155 ]
    8310:	c4 2f bf 64 	stb  %g2, [ %fp + -156 ]
    8314:	b2 06 60 01 	inc  %i1
    8318:	84 07 bf b8 	add  %fp, -72, %g2
    831c:	80 a0 e0 00 	cmp  %g3, 0
    8320:	06 80 00 1f 	bl  839c <_fpmaxtostr+0x964>
    8324:	88 21 00 19 	sub  %g4, %i1, %g4
    8328:	9a 10 20 70 	mov  0x70, %o5
    832c:	f2 27 bf c0 	st  %i1, [ %fp + -64 ]
    8330:	80 a0 c0 04 	cmp  %g3, %g4
    8334:	06 80 00 10 	bl  8374 <_fpmaxtostr+0x93c>
    8338:	da 27 bf b8 	st  %o5, [ %fp + -72 ]
    833c:	86 20 c0 04 	sub  %g3, %g4, %g3
    8340:	80 a0 e0 00 	cmp  %g3, 0
    8344:	04 80 00 13 	ble  8390 <_fpmaxtostr+0x958>
    8348:	c8 27 bf bc 	st  %g4, [ %fp + -68 ]
    834c:	05 00 00 04 	sethi  %hi(0x1000), %g2
    8350:	84 18 bf 5c 	xor  %g2, -164, %g2
    8354:	84 05 c0 02 	add  %l7, %g2, %g2
    8358:	84 00 a0 03 	add  %g2, 3, %g2
    835c:	de 27 bf c4 	st  %o7, [ %fp + -60 ]
    8360:	c4 27 bf cc 	st  %g2, [ %fp + -52 ]
    8364:	c6 27 bf c8 	st  %g3, [ %fp + -56 ]
    8368:	88 10 20 00 	clr  %g4
    836c:	10 80 00 0b 	b  8398 <_fpmaxtostr+0x960>
    8370:	84 07 bf d0 	add  %fp, -48, %g2
    8374:	80 a0 e0 00 	cmp  %g3, 0
    8378:	22 80 00 09 	be,a   839c <_fpmaxtostr+0x964>
    837c:	86 10 3f ff 	mov  -1, %g3
    8380:	c6 27 bf bc 	st  %g3, [ %fp + -68 ]
    8384:	b2 06 40 03 	add  %i1, %g3, %i1
    8388:	10 80 00 03 	b  8394 <_fpmaxtostr+0x95c>
    838c:	88 21 00 03 	sub  %g4, %g3, %g4
    8390:	88 10 20 00 	clr  %g4
    8394:	84 07 bf c4 	add  %fp, -60, %g2
    8398:	86 10 3f ff 	mov  -1, %g3
    839c:	de 06 a0 0c 	ld  [ %i2 + 0xc ], %o7
    83a0:	9a 8b e0 10 	andcc  %o7, 0x10, %o5
    83a4:	12 80 00 0f 	bne  83e0 <_fpmaxtostr+0x9a8>
    83a8:	9e 10 20 70 	mov  0x70, %o7
    83ac:	80 a1 20 00 	cmp  %g4, 0
    83b0:	32 80 00 0d 	bne,a   83e4 <_fpmaxtostr+0x9ac>
    83b4:	de 20 80 00 	st  %o7, [ %g2 ]
    83b8:	9e 0f 20 ff 	and  %i4, 0xff, %o7
    83bc:	80 a3 e0 61 	cmp  %o7, 0x61
    83c0:	22 80 00 12 	be,a   8408 <_fpmaxtostr+0x9d0>
    83c4:	86 80 e0 01 	inccc  %g3
    83c8:	80 a3 e0 67 	cmp  %o7, 0x67
    83cc:	22 80 00 0f 	be,a   8408 <_fpmaxtostr+0x9d0>
    83d0:	86 80 e0 01 	inccc  %g3
    83d4:	80 a7 60 00 	cmp  %i5, 0
    83d8:	04 80 00 0b 	ble  8404 <_fpmaxtostr+0x9cc>
    83dc:	9e 10 20 70 	mov  0x70, %o7
    83e0:	de 20 80 00 	st  %o7, [ %g2 ]
    83e4:	9e 10 20 01 	mov  1, %o7
    83e8:	de 20 a0 04 	st  %o7, [ %g2 + 4 ]
    83ec:	1f 00 00 04 	sethi  %hi(0x1000), %o7
    83f0:	9e 1b ff 5c 	xor  %o7, -164, %o7
    83f4:	9e 05 c0 0f 	add  %l7, %o7, %o7
    83f8:	9e 03 e0 10 	add  %o7, 0x10, %o7
    83fc:	de 20 a0 08 	st  %o7, [ %g2 + 8 ]
    8400:	84 00 a0 0c 	add  %g2, 0xc, %g2
    8404:	86 80 e0 01 	inccc  %g3
    8408:	02 80 00 0c 	be  8438 <_fpmaxtostr+0xa00>
    840c:	80 a1 20 00 	cmp  %g4, 0
    8410:	9e 10 20 b0 	mov  0xb0, %o7
    8414:	de 20 80 00 	st  %o7, [ %g2 ]
    8418:	9e 20 00 03 	neg  %g3, %o7
    841c:	de 20 a0 04 	st  %o7, [ %g2 + 4 ]
    8420:	1f 00 00 04 	sethi  %hi(0x1000), %o7
    8424:	9e 1b ff 5c 	xor  %o7, -164, %o7
    8428:	9e 05 c0 0f 	add  %l7, %o7, %o7
    842c:	9e 03 e0 03 	add  %o7, 3, %o7
    8430:	de 20 a0 08 	st  %o7, [ %g2 + 8 ]
    8434:	84 00 a0 0c 	add  %g2, 0xc, %g2
    8438:	22 80 00 08 	be,a   8458 <_fpmaxtostr+0xa20>
    843c:	b2 0f 20 ff 	and  %i4, 0xff, %i1
    8440:	9e 10 20 70 	mov  0x70, %o7
    8444:	c8 20 a0 04 	st  %g4, [ %g2 + 4 ]
    8448:	de 20 80 00 	st  %o7, [ %g2 ]
    844c:	f2 20 a0 08 	st  %i1, [ %g2 + 8 ]
    8450:	84 00 a0 0c 	add  %g2, 0xc, %g2
    8454:	b2 0f 20 ff 	and  %i4, 0xff, %i1
    8458:	80 a6 60 67 	cmp  %i1, 0x67
    845c:	12 80 00 06 	bne  8474 <_fpmaxtostr+0xa3c>
    8460:	80 a4 a0 00 	cmp  %l2, 0
    8464:	80 a3 60 00 	cmp  %o5, 0
    8468:	22 80 00 14 	be,a   84b8 <_fpmaxtostr+0xa80>
    846c:	86 0e 20 ff 	and  %i0, 0xff, %g3
    8470:	80 a4 a0 00 	cmp  %l2, 0
    8474:	32 80 00 11 	bne,a   84b8 <_fpmaxtostr+0xa80>
    8478:	86 0e 20 ff 	and  %i0, 0xff, %g3
    847c:	88 21 00 03 	sub  %g4, %g3, %g4
    8480:	80 a1 00 1d 	cmp  %g4, %i5
    8484:	16 80 00 0d 	bge  84b8 <_fpmaxtostr+0xa80>
    8488:	86 0e 20 ff 	and  %i0, 0xff, %g3
    848c:	86 10 20 b0 	mov  0xb0, %g3
    8490:	88 27 40 04 	sub  %i5, %g4, %g4
    8494:	c6 20 80 00 	st  %g3, [ %g2 ]
    8498:	c8 20 a0 04 	st  %g4, [ %g2 + 4 ]
    849c:	07 00 00 04 	sethi  %hi(0x1000), %g3
    84a0:	86 18 ff 5c 	xor  %g3, -164, %g3
    84a4:	86 05 c0 03 	add  %l7, %g3, %g3
    84a8:	86 00 e0 03 	add  %g3, 3, %g3
    84ac:	c6 20 a0 08 	st  %g3, [ %g2 + 8 ]
    84b0:	84 00 a0 0c 	add  %g2, 0xc, %g2
    84b4:	86 0e 20 ff 	and  %i0, 0xff, %g3
    84b8:	80 a0 e0 66 	cmp  %g3, 0x66
    84bc:	02 80 00 30 	be  857c <_fpmaxtostr+0xb44>
    84c0:	b8 0f 20 ff 	and  %i4, 0xff, %i4
    84c4:	b8 1f 20 61 	xor  %i4, 0x61, %i4
    84c8:	80 a0 00 1c 	cmp  %g0, %i4
    84cc:	9a 10 20 04 	mov  4, %o5
    84d0:	f2 0f bf 68 	ldub  [ %fp + -152 ], %i1
    84d4:	9a 43 7f ff 	addx  %o5, -1, %o5
    84d8:	80 a0 60 00 	cmp  %g1, 0
    84dc:	16 80 00 04 	bge  84ec <_fpmaxtostr+0xab4>
    84e0:	b8 10 20 2b 	mov  0x2b, %i4
    84e4:	82 20 00 01 	neg  %g1
    84e8:	b8 10 20 2d 	mov  0x2d, %i4
    84ec:	c0 2f bf 77 	clrb  [ %fp + -137 ]
    84f0:	88 10 20 02 	mov  2, %g4
    84f4:	10 80 00 04 	b  8504 <_fpmaxtostr+0xacc>
    84f8:	86 07 bf 77 	add  %fp, -137, %g3
    84fc:	88 10 20 03 	mov  3, %g4
    8500:	86 10 00 0f 	mov  %o7, %g3
    8504:	b7 38 60 1f 	sra  %g1, 0x1f, %i3
    8508:	81 86 e0 00 	mov  %i3, %y
    850c:	01 00 00 00 	nop 
    8510:	01 00 00 00 	nop 
    8514:	01 00 00 00 	nop 
    8518:	ba 78 60 0a 	sdiv  %g1, 0xa, %i5
    851c:	96 07 40 1d 	add  %i5, %i5, %o3
    8520:	99 2f 60 03 	sll  %i5, 3, %o4
    8524:	98 02 c0 0c 	add  %o3, %o4, %o4
    8528:	82 20 40 0c 	sub  %g1, %o4, %g1
    852c:	82 00 60 30 	add  %g1, 0x30, %g1
    8530:	c2 28 ff ff 	stb  %g1, [ %g3 + -1 ]
    8534:	88 01 20 01 	inc  %g4
    8538:	9e 00 ff ff 	add  %g3, -1, %o7
    853c:	80 a1 00 0d 	cmp  %g4, %o5
    8540:	06 bf ff ef 	bl  84fc <_fpmaxtostr+0xac4>
    8544:	82 10 00 1d 	mov  %i5, %g1
    8548:	80 a7 60 00 	cmp  %i5, 0
    854c:	32 bf ff ee 	bne,a   8504 <_fpmaxtostr+0xacc>
    8550:	86 10 00 0f 	mov  %o7, %g3
    8554:	f8 28 ff fe 	stb  %i4, [ %g3 + -2 ]
    8558:	f2 28 ff fd 	stb  %i1, [ %g3 + -3 ]
    855c:	82 10 20 70 	mov  0x70, %g1
    8560:	c8 20 a0 04 	st  %g4, [ %g2 + 4 ]
    8564:	c2 20 80 00 	st  %g1, [ %g2 ]
    8568:	86 00 ff fd 	add  %g3, -3, %g3
    856c:	b8 10 00 18 	mov  %i0, %i4
    8570:	c6 20 a0 08 	st  %g3, [ %g2 + 8 ]
    8574:	10 80 00 03 	b  8580 <_fpmaxtostr+0xb48>
    8578:	84 00 a0 0c 	add  %g2, 0xc, %g2
    857c:	b8 10 20 66 	mov  0x66, %i4
    8580:	82 07 bf b0 	add  %fp, -80, %g1
    8584:	c6 00 40 00 	ld  [ %g1 ], %g3
    8588:	c8 07 be dc 	ld  [ %fp + -292 ], %g4
    858c:	88 21 00 03 	sub  %g4, %g3, %g4
    8590:	82 00 60 0c 	add  %g1, 0xc, %g1
    8594:	80 a0 40 02 	cmp  %g1, %g2
    8598:	0a bf ff fb 	bcs  8584 <_fpmaxtostr+0xb4c>
    859c:	c8 27 be dc 	st  %g4, [ %fp + -292 ]
    85a0:	82 10 20 a0 	mov  0xa0, %g1
    85a4:	c2 27 bf a0 	st  %g1, [ %fp + -96 ]
    85a8:	c2 0f bf 60 	ldub  [ %fp + -160 ], %g1
    85ac:	86 07 bf 60 	add  %fp, -160, %g3
    85b0:	80 a0 00 01 	cmp  %g0, %g1
    85b4:	c6 27 bf a8 	st  %g3, [ %fp + -88 ]
    85b8:	82 40 20 00 	addx  %g0, 0, %g1
    85bc:	b8 17 20 20 	or  %i4, 0x20, %i4
    85c0:	b8 0f 20 ff 	and  %i4, 0xff, %i4
    85c4:	80 a7 20 61 	cmp  %i4, 0x61
    85c8:	12 80 00 0f 	bne  8604 <_fpmaxtostr+0xbcc>
    85cc:	c2 27 bf a4 	st  %g1, [ %fp + -92 ]
    85d0:	c8 07 bf ac 	ld  [ %fp + -84 ], %g4
    85d4:	80 a1 20 0f 	cmp  %g4, 0xf
    85d8:	04 80 00 0c 	ble  8608 <_fpmaxtostr+0xbd0>
    85dc:	f6 07 be dc 	ld  [ %fp + -292 ], %i3
    85e0:	ba 10 20 30 	mov  0x30, %i5
    85e4:	fa 28 c0 01 	stb  %i5, [ %g3 + %g1 ]
    85e8:	88 00 c0 01 	add  %g3, %g1, %g4
    85ec:	c6 0f bf 68 	ldub  [ %fp + -152 ], %g3
    85f0:	82 00 60 02 	add  %g1, 2, %g1
    85f4:	86 00 e0 08 	add  %g3, 8, %g3
    85f8:	c0 29 20 02 	clrb  [ %g4 + 2 ]
    85fc:	c6 29 20 01 	stb  %g3, [ %g4 + 1 ]
    8600:	c2 27 bf a4 	st  %g1, [ %fp + -92 ]
    8604:	f6 07 be dc 	ld  [ %fp + -292 ], %i3
    8608:	82 26 c0 01 	sub  %i3, %g1, %g1
    860c:	80 a0 60 00 	cmp  %g1, 0
    8610:	04 80 00 19 	ble  8674 <_fpmaxtostr+0xc3c>
    8614:	ba 10 00 02 	mov  %g2, %i5
    8618:	c4 06 a0 0c 	ld  [ %i2 + 0xc ], %g2
    861c:	80 88 a0 08 	btst  8, %g2
    8620:	22 80 00 0c 	be,a   8650 <_fpmaxtostr+0xc18>
    8624:	c4 06 a0 10 	ld  [ %i2 + 0x10 ], %g2
    8628:	c2 27 60 04 	st  %g1, [ %i5 + 4 ]
    862c:	84 10 20 a0 	mov  0xa0, %g2
    8630:	03 00 00 04 	sethi  %hi(0x1000), %g1
    8634:	c4 27 40 00 	st  %g2, [ %i5 ]
    8638:	82 18 7f 5c 	xor  %g1, -164, %g1
    863c:	82 05 c0 01 	add  %l7, %g1, %g1
    8640:	82 00 60 03 	add  %g1, 3, %g1
    8644:	c2 27 60 08 	st  %g1, [ %i5 + 8 ]
    8648:	10 80 00 0b 	b  8674 <_fpmaxtostr+0xc3c>
    864c:	ba 07 60 0c 	add  %i5, 0xc, %i5
    8650:	80 a0 a0 30 	cmp  %g2, 0x30
    8654:	12 80 00 06 	bne  866c <_fpmaxtostr+0xc34>
    8658:	c4 07 bf a4 	ld  [ %fp + -92 ], %g2
    865c:	c4 07 bf b0 	ld  [ %fp + -80 ], %g2
    8660:	82 00 80 01 	add  %g2, %g1, %g1
    8664:	10 80 00 04 	b  8674 <_fpmaxtostr+0xc3c>
    8668:	c2 27 bf b0 	st  %g1, [ %fp + -80 ]
    866c:	82 00 80 01 	add  %g2, %g1, %g1
    8670:	c2 27 bf a4 	st  %g1, [ %fp + -92 ]
    8674:	b8 07 bf a0 	add  %fp, -96, %i4
    8678:	b0 10 20 00 	clr  %i0
    867c:	f4 07 20 04 	ld  [ %i4 + 4 ], %i2
    8680:	d0 07 a0 44 	ld  [ %fp + 0x44 ], %o0
    8684:	d2 07 00 00 	ld  [ %i4 ], %o1
    8688:	94 10 00 1a 	mov  %i2, %o2
    868c:	c2 07 a0 50 	ld  [ %fp + 0x50 ], %g1
    8690:	9f c0 40 00 	call  %g1
    8694:	d6 07 20 08 	ld  [ %i4 + 8 ], %o3
    8698:	80 a2 00 1a 	cmp  %o0, %i2
    869c:	12 80 00 07 	bne  86b8 <_fpmaxtostr+0xc80>
    86a0:	b8 07 20 0c 	add  %i4, 0xc, %i4
    86a4:	80 a7 00 1d 	cmp  %i4, %i5
    86a8:	0a bf ff f5 	bcs  867c <_fpmaxtostr+0xc44>
    86ac:	b0 06 00 08 	add  %i0, %o0, %i0
    86b0:	81 c7 e0 08 	ret 
    86b4:	81 e8 00 00 	restore 
    86b8:	81 c7 e0 08 	ret 
    86bc:	91 e8 3f ff 	restore  %g0, -1, %o0
    86c0:	10 bf fd 00 	b  7ac0 <_fpmaxtostr+0x88>
    86c4:	a4 10 20 01 	mov  1, %l2
    86c8:	10 bf ff 0a 	b  82f0 <_fpmaxtostr+0x8b8>
    86cc:	86 10 20 00 	clr  %g3
    86d0:	80 a2 a0 00 	cmp  %o2, 0
    86d4:	02 80 00 47 	be  87f0 <__GI_memchr+0xa0>
    86d8:	19 20 20 20 	sethi  %hi(0x80808000), %o4
    86dc:	c8 0a 00 00 	ldub  [ %o0 ], %g4
    86e0:	80 a1 00 09 	cmp  %g4, %o1
    86e4:	02 80 00 19 	be  8748 <_fpmaxtostr+0xd10>
    86e8:	90 02 20 01 	inc  %o0
    86ec:	94 a2 a0 01 	deccc  %o2
    86f0:	02 80 00 40 	be  87f0 <__GI_memchr+0xa0>
    86f4:	80 8a 20 03 	btst  3, %o0
    86f8:	02 80 00 1f 	be  8774 <__GI_memchr+0x24>
    86fc:	96 13 20 80 	or  %o4, 0x80, %o3
    8700:	c8 0a 00 00 	ldub  [ %o0 ], %g4
    8704:	80 a1 00 09 	cmp  %g4, %o1
    8708:	02 80 00 10 	be  8748 <_fpmaxtostr+0xd10>
    870c:	90 02 20 01 	inc  %o0
    8710:	94 a2 a0 01 	deccc  %o2
    8714:	02 80 00 37 	be  87f0 <__GI_memchr+0xa0>
    8718:	80 8a 20 03 	btst  3, %o0
    871c:	02 80 00 17 	be  8778 <__GI_memchr+0x28>
    8720:	1b 00 40 40 	sethi  %hi(0x1010000), %o5
    8724:	c8 0a 00 00 	ldub  [ %o0 ], %g4
    8728:	80 a1 00 09 	cmp  %g4, %o1
    872c:	02 80 00 07 	be  8748 <_fpmaxtostr+0xd10>
    8730:	90 02 20 01 	inc  %o0
    8734:	94 a2 a0 01 	deccc  %o2
    8738:	32 80 00 11 	bne,a   877c <__GI_memchr+0x2c>
    873c:	82 0a a0 03 	and  %o2, 3, %g1
    8740:	81 c3 e0 08 	retl 
    8744:	90 10 00 00 	mov  %g0, %o0
    8748:	81 c3 e0 08 	retl 
    874c:	90 22 20 01 	dec  %o0

00008750 <__GI_memchr>:
    8750:	92 8a 60 ff 	andcc  %o1, 0xff, %o1
    8754:	8d 2a 60 08 	sll  %o1, 8, %g6
    8758:	80 8a 20 03 	btst  3, %o0
    875c:	8c 12 40 06 	or  %o1, %g6, %g6
    8760:	97 29 a0 10 	sll  %g6, 0x10, %o3
    8764:	12 bf ff db 	bne  86d0 <_fpmaxtostr+0xc98>
    8768:	84 12 c0 06 	or  %o3, %g6, %g2
    876c:	19 20 20 20 	sethi  %hi(0x80808000), %o4
    8770:	96 13 20 80 	or  %o4, 0x80, %o3	! 80808080 <_custom_printf_handler+0x807f0dac>
    8774:	1b 00 40 40 	sethi  %hi(0x1010000), %o5
    8778:	82 0a a0 03 	and  %o2, 3, %g1
    877c:	94 8a bf fc 	andcc  %o2, -4, %o2
    8780:	02 80 00 0b 	be  87ac <__GI_memchr+0x5c>
    8784:	8c 13 61 01 	or  %o5, 0x101, %g6
    8788:	c8 02 00 00 	ld  [ %o0 ], %g4
    878c:	8a 19 00 02 	xor  %g4, %g2, %g5
    8790:	90 02 20 04 	add  %o0, 4, %o0
    8794:	8a 21 40 06 	sub  %g5, %g6, %g5
    8798:	80 89 40 0b 	btst  %g5, %o3
    879c:	12 80 00 17 	bne  87f8 <__GI_memchr+0xa8>
    87a0:	94 a2 a0 04 	subcc  %o2, 4, %o2
    87a4:	32 bf ff fa 	bne,a   878c <__GI_memchr+0x3c>
    87a8:	c8 02 00 00 	ld  [ %o0 ], %g4
    87ac:	80 a0 60 00 	cmp  %g1, 0
    87b0:	02 80 00 10 	be  87f0 <__GI_memchr+0xa0>
    87b4:	90 02 20 04 	add  %o0, 4, %o0
    87b8:	c8 0a 3f fc 	ldub  [ %o0 + -4 ], %g4
    87bc:	80 a1 00 09 	cmp  %g4, %o1
    87c0:	02 80 00 28 	be  8860 <__GI_memchr+0x110>
    87c4:	80 a0 60 01 	cmp  %g1, 1
    87c8:	02 80 00 0a 	be  87f0 <__GI_memchr+0xa0>
    87cc:	c8 0a 3f fd 	ldub  [ %o0 + -3 ], %g4
    87d0:	80 a1 00 09 	cmp  %g4, %o1
    87d4:	02 80 00 21 	be  8858 <__GI_memchr+0x108>
    87d8:	80 a0 60 02 	cmp  %g1, 2
    87dc:	02 80 00 05 	be  87f0 <__GI_memchr+0xa0>
    87e0:	c8 0a 3f fe 	ldub  [ %o0 + -2 ], %g4
    87e4:	80 a1 00 09 	cmp  %g4, %o1
    87e8:	02 80 00 1a 	be  8850 <__GI_memchr+0x100>
    87ec:	01 00 00 00 	nop 
    87f0:	81 c3 e0 08 	retl 
    87f4:	90 10 00 00 	mov  %g0, %o0
    87f8:	8b 31 20 18 	srl  %g4, 0x18, %g5
    87fc:	8a 09 60 ff 	and  %g5, 0xff, %g5
    8800:	80 a1 40 09 	cmp  %g5, %o1
    8804:	02 80 00 17 	be  8860 <__GI_memchr+0x110>
    8808:	8b 31 20 10 	srl  %g4, 0x10, %g5
    880c:	8a 09 60 ff 	and  %g5, 0xff, %g5
    8810:	80 a1 40 09 	cmp  %g5, %o1
    8814:	02 80 00 11 	be  8858 <__GI_memchr+0x108>
    8818:	8b 31 20 08 	srl  %g4, 8, %g5
    881c:	8a 09 60 ff 	and  %g5, 0xff, %g5
    8820:	80 a1 40 09 	cmp  %g5, %o1
    8824:	02 80 00 0b 	be  8850 <__GI_memchr+0x100>
    8828:	8a 09 20 ff 	and  %g4, 0xff, %g5
    882c:	80 a1 40 09 	cmp  %g5, %o1
    8830:	02 80 00 06 	be  8848 <__GI_memchr+0xf8>
    8834:	80 a2 a0 00 	cmp  %o2, 0
    8838:	32 bf ff d5 	bne,a   878c <__GI_memchr+0x3c>
    883c:	c8 02 00 00 	ld  [ %o0 ], %g4
    8840:	10 bf ff dc 	b  87b0 <__GI_memchr+0x60>
    8844:	80 a0 60 00 	cmp  %g1, 0
    8848:	81 c3 e0 08 	retl 
    884c:	90 22 20 01 	dec  %o0
    8850:	81 c3 e0 08 	retl 
    8854:	90 22 20 02 	sub  %o0, 2, %o0
    8858:	81 c3 e0 08 	retl 
    885c:	90 22 20 03 	sub  %o0, 3, %o0
    8860:	81 c3 e0 08 	retl 
    8864:	90 22 20 04 	sub  %o0, 4, %o0

00008868 <__GI___xpg_strerror_r>:
    8868:	9d e3 bf 68 	save  %sp, -152, %sp
    886c:	2f 00 00 37 	sethi  %hi(0xdc00), %l7
    8870:	40 00 1d e4 	call  10000 <__sparc_get_pc_thunk.l7>
    8874:	ae 05 e0 ac 	add  %l7, 0xac, %l7	! dcac <__moddi3+0x204>
    8878:	05 00 00 03 	sethi  %hi(0xc00), %g2
    887c:	84 18 bd 14 	xor  %g2, -748, %g2
    8880:	82 10 20 00 	clr  %g1
    8884:	84 05 c0 02 	add  %l7, %g2, %g2
    8888:	c6 08 80 01 	ldub  [ %g2 + %g1 ], %g3
    888c:	80 a0 c0 18 	cmp  %g3, %i0
    8890:	02 80 00 08 	be  88b0 <__GI___xpg_strerror_r+0x48>
    8894:	80 a0 60 7d 	cmp  %g1, 0x7d
    8898:	82 00 60 01 	inc  %g1
    889c:	80 a0 60 7e 	cmp  %g1, 0x7e
    88a0:	32 bf ff fb 	bne,a   888c <__GI___xpg_strerror_r+0x24>
    88a4:	c6 08 80 01 	ldub  [ %g2 + %g1 ], %g3
    88a8:	10 80 00 14 	b  88f8 <__GI___xpg_strerror_r+0x90>
    88ac:	93 3e 20 1f 	sra  %i0, 0x1f, %o1
    88b0:	08 80 00 08 	bleu  88d0 <__GI___xpg_strerror_r+0x68>
    88b4:	3b 00 00 03 	sethi  %hi(0xc00), %i5
    88b8:	10 80 00 10 	b  88f8 <__GI___xpg_strerror_r+0x90>
    88bc:	93 3e 20 1f 	sra  %i0, 0x1f, %o1
    88c0:	ba 07 60 01 	inc  %i5
    88c4:	80 a0 00 02 	cmp  %g0, %g2
    88c8:	10 80 00 04 	b  88d8 <__GI___xpg_strerror_r+0x70>
    88cc:	82 40 7f ff 	addx  %g1, -1, %g1
    88d0:	ba 1f 7d a4 	xor  %i5, -604, %i5
    88d4:	ba 05 c0 1d 	add  %l7, %i5, %i5
    88d8:	80 a0 60 00 	cmp  %g1, 0
    88dc:	32 bf ff f9 	bne,a   88c0 <__GI___xpg_strerror_r+0x58>
    88e0:	c4 0f 40 00 	ldub  [ %i5 ], %g2
    88e4:	c2 0f 40 00 	ldub  [ %i5 ], %g1
    88e8:	80 a0 60 00 	cmp  %g1, 0
    88ec:	12 80 00 10 	bne  892c <__GI___xpg_strerror_r+0xc4>
    88f0:	b8 10 20 00 	clr  %i4
    88f4:	93 3e 20 1f 	sra  %i0, 0x1f, %o1
    88f8:	94 10 00 18 	mov  %i0, %o2
    88fc:	96 10 3f f6 	mov  -10, %o3
    8900:	98 10 20 00 	clr  %o4
    8904:	7f ff fc 03 	call  7910 <_uintmaxtostr>
    8908:	90 07 bf f9 	add  %fp, -7, %o0
    890c:	13 00 00 03 	sethi  %hi(0xc00), %o1
    8910:	ba 02 3f f2 	add  %o0, -14, %i5
    8914:	92 1a 7d 94 	xor  %o1, -620, %o1
    8918:	90 10 00 1d 	mov  %i5, %o0
    891c:	92 05 c0 09 	add  %l7, %o1, %o1
    8920:	94 10 20 0e 	mov  0xe, %o2
    8924:	7f ff f6 24 	call  61b4 <__GI_memcpy>
    8928:	b8 10 20 16 	mov  0x16, %i4
    892c:	80 a0 00 19 	cmp  %g0, %i1
    8930:	82 60 20 00 	subx  %g0, 0, %g1
    8934:	90 10 00 1d 	mov  %i5, %o0
    8938:	7f ff f4 76 	call  5b10 <__GI_strlen>
    893c:	b4 0e 80 01 	and  %i2, %g1, %i2
    8940:	90 02 20 01 	inc  %o0
    8944:	80 a2 00 1a 	cmp  %o0, %i2
    8948:	38 80 00 03 	bgu,a   8954 <__GI___xpg_strerror_r+0xec>
    894c:	b8 10 20 22 	mov  0x22, %i4
    8950:	b4 10 00 08 	mov  %o0, %i2
    8954:	80 a6 a0 00 	cmp  %i2, 0
    8958:	02 80 00 09 	be  897c <__GI___xpg_strerror_r+0x114>
    895c:	80 a7 20 00 	cmp  %i4, 0
    8960:	94 10 00 1a 	mov  %i2, %o2
    8964:	90 10 00 19 	mov  %i1, %o0
    8968:	92 10 00 1d 	mov  %i5, %o1
    896c:	7f ff f6 12 	call  61b4 <__GI_memcpy>
    8970:	b4 06 40 1a 	add  %i1, %i2, %i2
    8974:	c0 2e bf ff 	clrb  [ %i2 + -1 ]
    8978:	80 a7 20 00 	cmp  %i4, 0
    897c:	02 80 00 05 	be  8990 <__GI___xpg_strerror_r+0x128>
    8980:	03 00 00 00 	sethi  %hi(0), %g1
    8984:	82 18 7f fc 	xor  %g1, -4, %g1
    8988:	01 00 00 00 	nop 
    898c:	f8 21 c0 01 	st  %i4, [ %g7 + %g1 ]
    8990:	81 c7 e0 08 	ret 
    8994:	91 e8 00 1c 	restore  %g0, %i4, %o0

00008998 <__GI_memrchr>:
    8998:	90 02 00 0a 	add  %o0, %o2, %o0
    899c:	10 80 00 06 	b  89b4 <__GI_memrchr+0x1c>
    89a0:	92 0a 60 ff 	and  %o1, 0xff, %o1
    89a4:	c2 0a 00 00 	ldub  [ %o0 ], %g1
    89a8:	80 a0 40 09 	cmp  %g1, %o1
    89ac:	02 80 00 06 	be  89c4 <__GI_memrchr+0x2c>
    89b0:	94 02 bf ff 	add  %o2, -1, %o2
    89b4:	80 a2 a0 00 	cmp  %o2, 0
    89b8:	32 bf ff fb 	bne,a   89a4 <__GI_memrchr+0xc>
    89bc:	90 02 3f ff 	add  %o0, -1, %o0
    89c0:	90 10 20 00 	clr  %o0
    89c4:	81 c3 e0 08 	retl 
    89c8:	01 00 00 00 	nop 
    89cc:	00 00 05 44 	unimp  0x544
    89d0:	00 00 0a 54 	unimp  0xa54
    89d4:	00 00 0f b8 	unimp  0xfb8
    89d8:	00 00 0a 28 	unimp  0xa28
    89dc:	00 00 0f b8 	unimp  0xfb8
    89e0:	00 00 0a 5c 	unimp  0xa5c
    89e4:	00 00 0f b8 	unimp  0xfb8
    89e8:	00 00 0a 28 	unimp  0xa28
    89ec:	00 00 0f d0 	unimp  0xfd0
    89f0:	00 00 0f d0 	unimp  0xfd0
    89f4:	00 00 0a 5c 	unimp  0xa5c
    89f8:	00 00 0a 28 	unimp  0xa28
    89fc:	00 00 0a 00 	unimp  0xa00
    8a00:	00 00 0a 00 	unimp  0xa00
    8a04:	00 00 0a 00 	unimp  0xa00
    8a08:	00 00 09 98 	unimp  0x998

00008a0c <_Q_div>:
    8a0c:	9d e3 bf 28 	save  %sp, -216, %sp
    8a10:	d0 1e 00 00 	ldd  [ %i0 ], %o0
    8a14:	d4 1e 20 08 	ldd  [ %i0 + 8 ], %o2
    8a18:	d0 3f bf 90 	std  %o0, [ %fp + -112 ]
    8a1c:	d4 3f bf 98 	std  %o2, [ %fp + -104 ]
    8a20:	c6 17 bf 92 	lduh  [ %fp + -110 ], %g3
    8a24:	d0 07 bf 9c 	ld  [ %fp + -100 ], %o0
    8a28:	c8 07 bf 98 	ld  [ %fp + -104 ], %g4
    8a2c:	c4 07 bf 94 	ld  [ %fp + -108 ], %g2
    8a30:	d0 27 bf c0 	st  %o0, [ %fp + -64 ]
    8a34:	c8 27 bf c4 	st  %g4, [ %fp + -60 ]
    8a38:	c4 27 bf c8 	st  %g2, [ %fp + -56 ]
    8a3c:	c6 27 bf cc 	st  %g3, [ %fp + -52 ]
    8a40:	2f 00 00 36 	sethi  %hi(0xd800), %l7
    8a44:	40 00 1d 6f 	call  10000 <__sparc_get_pc_thunk.l7>
    8a48:	ae 05 e2 d8 	add  %l7, 0x2d8, %l7	! dad8 <__moddi3+0x30>
    8a4c:	e0 1e 40 00 	ldd  [ %i1 ], %l0
    8a50:	e4 1e 60 08 	ldd  [ %i1 + 8 ], %l2
    8a54:	39 00 00 1f 	sethi  %hi(0x7c00), %i4
    8a58:	f2 07 bf 90 	ld  [ %fp + -112 ], %i1
    8a5c:	b8 17 23 ff 	or  %i4, 0x3ff, %i4
    8a60:	b1 36 60 10 	srl  %i1, 0x10, %i0
    8a64:	b3 36 60 1f 	srl  %i1, 0x1f, %i1
    8a68:	fa 07 a0 40 	ld  [ %fp + 0x40 ], %i5
    8a6c:	c1 2f bf 8c 	st  %fsr, [ %fp + -116 ]
    8a70:	82 10 00 03 	mov  %g3, %g1
    8a74:	b0 8e 00 1c 	andcc  %i0, %i4, %i0
    8a78:	02 80 00 1d 	be  8aec <_Q_div+0xe0>
    8a7c:	b4 10 00 19 	mov  %i1, %i2
    8a80:	80 a6 00 1c 	cmp  %i0, %i4
    8a84:	02 80 00 74 	be  8c54 <_Q_div+0x248>
    8a88:	88 11 00 08 	or  %g4, %o0, %g4
    8a8c:	05 00 00 40 	sethi  %hi(0x10000), %g2
    8a90:	82 10 c0 02 	or  %g3, %g2, %g1
    8a94:	c2 27 bf cc 	st  %g1, [ %fp + -52 ]
    8a98:	82 10 20 03 	mov  3, %g1
    8a9c:	85 28 60 02 	sll  %g1, 2, %g2
    8aa0:	82 00 7f ff 	add  %g1, -1, %g1
    8aa4:	87 28 60 02 	sll  %g1, 2, %g3
    8aa8:	86 07 80 03 	add  %fp, %g3, %g3
    8aac:	84 07 80 02 	add  %fp, %g2, %g2
    8ab0:	c8 00 ff c0 	ld  [ %g3 + -64 ], %g4
    8ab4:	c6 00 bf c0 	ld  [ %g2 + -64 ], %g3
    8ab8:	89 31 20 1d 	srl  %g4, 0x1d, %g4
    8abc:	87 28 e0 03 	sll  %g3, 3, %g3
    8ac0:	86 11 00 03 	or  %g4, %g3, %g3
    8ac4:	80 a0 60 00 	cmp  %g1, 0
    8ac8:	12 bf ff f5 	bne  8a9c <_Q_div+0x90>
    8acc:	c6 20 bf c0 	st  %g3, [ %g2 + -64 ]
    8ad0:	c2 07 bf c0 	ld  [ %fp + -64 ], %g1
    8ad4:	83 28 60 03 	sll  %g1, 3, %g1
    8ad8:	c2 27 bf c0 	st  %g1, [ %fp + -64 ]
    8adc:	03 3f ff f0 	sethi  %hi(0xffffc000), %g1
    8ae0:	82 10 60 01 	or  %g1, 1, %g1	! ffffc001 <_custom_printf_handler+0xfffe4d2d>
    8ae4:	10 80 00 5a 	b  8c4c <_Q_div+0x240>
    8ae8:	b0 06 00 01 	add  %i0, %g1, %i0
    8aec:	86 11 00 08 	or  %g4, %o0, %g3
    8af0:	86 10 c0 02 	or  %g3, %g2, %g3
    8af4:	80 90 c0 01 	orcc  %g3, %g1, %g0
    8af8:	02 80 00 62 	be  8c80 <_Q_div+0x274>
    8afc:	b0 10 20 00 	clr  %i0
    8b00:	80 a0 60 00 	cmp  %g1, 0
    8b04:	02 80 00 06 	be  8b1c <_Q_div+0x110>
    8b08:	80 a0 a0 00 	cmp  %g2, 0
    8b0c:	40 00 12 6e 	call  d4c4 <__clzsi2>
    8b10:	90 10 00 01 	mov  %g1, %o0
    8b14:	10 80 00 12 	b  8b5c <_Q_div+0x150>
    8b18:	82 02 3f f4 	add  %o0, -12, %g1
    8b1c:	02 80 00 06 	be  8b34 <_Q_div+0x128>
    8b20:	80 a1 20 00 	cmp  %g4, 0
    8b24:	40 00 12 68 	call  d4c4 <__clzsi2>
    8b28:	90 10 00 02 	mov  %g2, %o0
    8b2c:	10 80 00 0b 	b  8b58 <_Q_div+0x14c>
    8b30:	90 02 20 20 	add  %o0, 0x20, %o0
    8b34:	02 80 00 06 	be  8b4c <_Q_div+0x140>
    8b38:	01 00 00 00 	nop 
    8b3c:	40 00 12 62 	call  d4c4 <__clzsi2>
    8b40:	90 10 00 04 	mov  %g4, %o0
    8b44:	10 80 00 05 	b  8b58 <_Q_div+0x14c>
    8b48:	90 02 20 40 	add  %o0, 0x40, %o0
    8b4c:	40 00 12 5e 	call  d4c4 <__clzsi2>
    8b50:	01 00 00 00 	nop 
    8b54:	90 02 20 60 	add  %o0, 0x60, %o0
    8b58:	82 02 3f f4 	add  %o0, -12, %g1
    8b5c:	05 20 00 00 	sethi  %hi(0x80000000), %g2
    8b60:	87 38 60 1f 	sra  %g1, 0x1f, %g3
    8b64:	84 10 a0 1f 	or  %g2, 0x1f, %g2
    8b68:	86 08 e0 1f 	and  %g3, 0x1f, %g3
    8b6c:	84 88 40 02 	andcc  %g1, %g2, %g2
    8b70:	86 00 c0 01 	add  %g3, %g1, %g3
    8b74:	16 80 00 05 	bge  8b88 <_Q_div+0x17c>
    8b78:	87 38 e0 05 	sra  %g3, 5, %g3
    8b7c:	84 00 bf ff 	add  %g2, -1, %g2
    8b80:	84 10 bf e0 	or  %g2, -32, %g2
    8b84:	84 00 a0 01 	inc  %g2
    8b88:	80 a0 a0 00 	cmp  %g2, 0
    8b8c:	02 80 00 0c 	be  8bbc <_Q_div+0x1b0>
    8b90:	82 10 20 03 	mov  3, %g1
    8b94:	b0 10 20 20 	mov  0x20, %i0
    8b98:	10 80 00 1c 	b  8c08 <_Q_div+0x1fc>
    8b9c:	b0 26 00 02 	sub  %i0, %g2, %i0
    8ba0:	85 28 a0 02 	sll  %g2, 2, %g2
    8ba4:	84 07 80 02 	add  %fp, %g2, %g2
    8ba8:	c8 00 bf c0 	ld  [ %g2 + -64 ], %g4
    8bac:	85 28 60 02 	sll  %g1, 2, %g2
    8bb0:	82 00 7f ff 	add  %g1, -1, %g1
    8bb4:	84 07 80 02 	add  %fp, %g2, %g2
    8bb8:	c8 20 bf c0 	st  %g4, [ %g2 + -64 ]
    8bbc:	80 a0 40 03 	cmp  %g1, %g3
    8bc0:	16 bf ff f8 	bge  8ba0 <_Q_div+0x194>
    8bc4:	84 20 40 03 	sub  %g1, %g3, %g2
    8bc8:	10 80 00 1c 	b  8c38 <_Q_div+0x22c>
    8bcc:	80 a0 60 00 	cmp  %g1, 0
    8bd0:	b8 20 40 03 	sub  %g1, %g3, %i4
    8bd4:	88 07 80 04 	add  %fp, %g4, %g4
    8bd8:	9e 07 3f ff 	add  %i4, -1, %o7
    8bdc:	82 00 7f ff 	add  %g1, -1, %g1
    8be0:	9f 2b e0 02 	sll  %o7, 2, %o7
    8be4:	b9 2f 20 02 	sll  %i4, 2, %i4
    8be8:	9e 07 80 0f 	add  %fp, %o7, %o7
    8bec:	b8 07 80 1c 	add  %fp, %i4, %i4
    8bf0:	de 03 ff c0 	ld  [ %o7 + -64 ], %o7
    8bf4:	f8 07 3f c0 	ld  [ %i4 + -64 ], %i4
    8bf8:	9f 33 c0 18 	srl  %o7, %i0, %o7
    8bfc:	b9 2f 00 02 	sll  %i4, %g2, %i4
    8c00:	b8 13 c0 1c 	or  %o7, %i4, %i4
    8c04:	f8 21 3f c0 	st  %i4, [ %g4 + -64 ]
    8c08:	80 a0 40 03 	cmp  %g1, %g3
    8c0c:	14 bf ff f1 	bg  8bd0 <_Q_div+0x1c4>
    8c10:	89 28 60 02 	sll  %g1, 2, %g4
    8c14:	c6 07 bf c0 	ld  [ %fp + -64 ], %g3
    8c18:	88 07 80 04 	add  %fp, %g4, %g4
    8c1c:	85 28 c0 02 	sll  %g3, %g2, %g2
    8c20:	10 80 00 04 	b  8c30 <_Q_div+0x224>
    8c24:	c4 21 3f c0 	st  %g2, [ %g4 + -64 ]
    8c28:	84 07 80 02 	add  %fp, %g2, %g2
    8c2c:	c0 20 bf c0 	clr  [ %g2 + -64 ]
    8c30:	82 00 7f ff 	add  %g1, -1, %g1
    8c34:	80 a0 60 00 	cmp  %g1, 0
    8c38:	16 bf ff fc 	bge  8c28 <_Q_div+0x21c>
    8c3c:	85 28 60 02 	sll  %g1, 2, %g2
    8c40:	31 3f ff f0 	sethi  %hi(0xffffc000), %i0
    8c44:	b0 16 20 11 	or  %i0, 0x11, %i0	! ffffc011 <_custom_printf_handler+0xfffe4d3d>
    8c48:	b0 26 00 08 	sub  %i0, %o0, %i0
    8c4c:	10 80 00 0e 	b  8c84 <_Q_div+0x278>
    8c50:	a8 10 20 00 	clr  %l4
    8c54:	84 11 00 02 	or  %g4, %g2, %g2
    8c58:	80 90 80 03 	orcc  %g2, %g3, %g0
    8c5c:	02 80 00 0a 	be  8c84 <_Q_div+0x278>
    8c60:	a8 10 20 02 	mov  2, %l4
    8c64:	03 00 00 20 	sethi  %hi(0x8000), %g1
    8c68:	a8 10 20 03 	mov  3, %l4
    8c6c:	80 88 40 03 	btst  %g1, %g3
    8c70:	02 80 00 07 	be  8c8c <_Q_div+0x280>
    8c74:	b8 10 20 10 	mov  0x10, %i4
    8c78:	10 80 00 05 	b  8c8c <_Q_div+0x280>
    8c7c:	b8 10 20 00 	clr  %i4
    8c80:	a8 10 20 01 	mov  1, %l4
    8c84:	10 80 00 02 	b  8c8c <_Q_div+0x280>
    8c88:	b8 10 20 00 	clr  %i4
    8c8c:	e0 3f bf a0 	std  %l0, [ %fp + -96 ]
    8c90:	e4 3f bf a8 	std  %l2, [ %fp + -88 ]
    8c94:	c6 17 bf a2 	lduh  [ %fp + -94 ], %g3
    8c98:	d0 07 bf ac 	ld  [ %fp + -84 ], %o0
    8c9c:	de 07 bf a8 	ld  [ %fp + -88 ], %o7
    8ca0:	c8 07 bf a4 	ld  [ %fp + -92 ], %g4
    8ca4:	d0 27 bf d0 	st  %o0, [ %fp + -48 ]
    8ca8:	de 27 bf d4 	st  %o7, [ %fp + -44 ]
    8cac:	c8 27 bf d8 	st  %g4, [ %fp + -40 ]
    8cb0:	c6 27 bf dc 	st  %g3, [ %fp + -36 ]
    8cb4:	e2 07 bf a0 	ld  [ %fp + -96 ], %l1
    8cb8:	1b 00 00 1f 	sethi  %hi(0x7c00), %o5
    8cbc:	85 34 60 10 	srl  %l1, 0x10, %g2
    8cc0:	9a 13 63 ff 	or  %o5, 0x3ff, %o5
    8cc4:	a3 34 60 1f 	srl  %l1, 0x1f, %l1
    8cc8:	82 10 00 03 	mov  %g3, %g1
    8ccc:	84 88 80 0d 	andcc  %g2, %o5, %g2
    8cd0:	02 80 00 1d 	be  8d44 <_Q_div+0x338>
    8cd4:	a0 10 00 11 	mov  %l1, %l0
    8cd8:	80 a0 80 0d 	cmp  %g2, %o5
    8cdc:	02 80 00 75 	be  8eb0 <_Q_div+0x4a4>
    8ce0:	9e 13 c0 08 	or  %o7, %o0, %o7
    8ce4:	07 00 00 40 	sethi  %hi(0x10000), %g3
    8ce8:	82 10 40 03 	or  %g1, %g3, %g1
    8cec:	c2 27 bf dc 	st  %g1, [ %fp + -36 ]
    8cf0:	82 10 20 03 	mov  3, %g1
    8cf4:	87 28 60 02 	sll  %g1, 2, %g3
    8cf8:	82 00 7f ff 	add  %g1, -1, %g1
    8cfc:	89 28 60 02 	sll  %g1, 2, %g4
    8d00:	88 07 80 04 	add  %fp, %g4, %g4
    8d04:	86 07 80 03 	add  %fp, %g3, %g3
    8d08:	de 01 3f d0 	ld  [ %g4 + -48 ], %o7
    8d0c:	c8 00 ff d0 	ld  [ %g3 + -48 ], %g4
    8d10:	9f 33 e0 1d 	srl  %o7, 0x1d, %o7
    8d14:	89 29 20 03 	sll  %g4, 3, %g4
    8d18:	88 13 c0 04 	or  %o7, %g4, %g4
    8d1c:	80 a0 60 00 	cmp  %g1, 0
    8d20:	12 bf ff f5 	bne  8cf4 <_Q_div+0x2e8>
    8d24:	c8 20 ff d0 	st  %g4, [ %g3 + -48 ]
    8d28:	c2 07 bf d0 	ld  [ %fp + -48 ], %g1
    8d2c:	11 3f ff f0 	sethi  %hi(0xffffc000), %o0
    8d30:	83 28 60 03 	sll  %g1, 3, %g1
    8d34:	90 12 20 01 	or  %o0, 1, %o0
    8d38:	c2 27 bf d0 	st  %g1, [ %fp + -48 ]
    8d3c:	10 80 00 5b 	b  8ea8 <_Q_div+0x49c>
    8d40:	90 00 80 08 	add  %g2, %o0, %o0
    8d44:	84 13 c0 08 	or  %o7, %o0, %g2
    8d48:	84 10 80 04 	or  %g2, %g4, %g2
    8d4c:	80 90 80 03 	orcc  %g2, %g3, %g0
    8d50:	22 80 00 62 	be,a   8ed8 <_Q_div+0x4cc>
    8d54:	90 10 20 00 	clr  %o0
    8d58:	80 a0 e0 00 	cmp  %g3, 0
    8d5c:	02 80 00 06 	be  8d74 <_Q_div+0x368>
    8d60:	80 a1 20 00 	cmp  %g4, 0
    8d64:	40 00 11 d8 	call  d4c4 <__clzsi2>
    8d68:	90 10 00 03 	mov  %g3, %o0
    8d6c:	10 80 00 13 	b  8db8 <_Q_div+0x3ac>
    8d70:	82 02 3f f4 	add  %o0, -12, %g1
    8d74:	02 80 00 06 	be  8d8c <_Q_div+0x380>
    8d78:	80 a3 e0 00 	cmp  %o7, 0
    8d7c:	40 00 11 d2 	call  d4c4 <__clzsi2>
    8d80:	90 10 00 04 	mov  %g4, %o0
    8d84:	10 80 00 0c 	b  8db4 <_Q_div+0x3a8>
    8d88:	90 02 20 20 	add  %o0, 0x20, %o0
    8d8c:	02 80 00 07 	be  8da8 <_Q_div+0x39c>
    8d90:	01 00 00 00 	nop 
    8d94:	90 10 00 0f 	mov  %o7, %o0
    8d98:	40 00 11 cb 	call  d4c4 <__clzsi2>
    8d9c:	01 00 00 00 	nop 
    8da0:	10 80 00 05 	b  8db4 <_Q_div+0x3a8>
    8da4:	90 02 20 40 	add  %o0, 0x40, %o0
    8da8:	40 00 11 c7 	call  d4c4 <__clzsi2>
    8dac:	01 00 00 00 	nop 
    8db0:	90 02 20 60 	add  %o0, 0x60, %o0
    8db4:	82 02 3f f4 	add  %o0, -12, %g1
    8db8:	05 20 00 00 	sethi  %hi(0x80000000), %g2
    8dbc:	87 38 60 1f 	sra  %g1, 0x1f, %g3
    8dc0:	84 10 a0 1f 	or  %g2, 0x1f, %g2
    8dc4:	86 08 e0 1f 	and  %g3, 0x1f, %g3
    8dc8:	84 88 40 02 	andcc  %g1, %g2, %g2
    8dcc:	86 00 c0 01 	add  %g3, %g1, %g3
    8dd0:	16 80 00 05 	bge  8de4 <_Q_div+0x3d8>
    8dd4:	87 38 e0 05 	sra  %g3, 5, %g3
    8dd8:	84 00 bf ff 	add  %g2, -1, %g2
    8ddc:	84 10 bf e0 	or  %g2, -32, %g2
    8de0:	84 00 a0 01 	inc  %g2
    8de4:	80 a0 a0 00 	cmp  %g2, 0
    8de8:	02 80 00 0c 	be  8e18 <_Q_div+0x40c>
    8dec:	82 10 20 03 	mov  3, %g1
    8df0:	9a 10 20 20 	mov  0x20, %o5
    8df4:	10 80 00 1c 	b  8e64 <_Q_div+0x458>
    8df8:	9a 23 40 02 	sub  %o5, %g2, %o5
    8dfc:	85 28 a0 02 	sll  %g2, 2, %g2
    8e00:	84 07 80 02 	add  %fp, %g2, %g2
    8e04:	c8 00 bf d0 	ld  [ %g2 + -48 ], %g4
    8e08:	85 28 60 02 	sll  %g1, 2, %g2
    8e0c:	82 00 7f ff 	add  %g1, -1, %g1
    8e10:	84 07 80 02 	add  %fp, %g2, %g2
    8e14:	c8 20 bf d0 	st  %g4, [ %g2 + -48 ]
    8e18:	80 a0 40 03 	cmp  %g1, %g3
    8e1c:	16 bf ff f8 	bge  8dfc <_Q_div+0x3f0>
    8e20:	84 20 40 03 	sub  %g1, %g3, %g2
    8e24:	10 80 00 1c 	b  8e94 <_Q_div+0x488>
    8e28:	80 a0 60 00 	cmp  %g1, 0
    8e2c:	9e 20 40 03 	sub  %g1, %g3, %o7
    8e30:	88 07 80 04 	add  %fp, %g4, %g4
    8e34:	98 03 ff ff 	add  %o7, -1, %o4
    8e38:	82 00 7f ff 	add  %g1, -1, %g1
    8e3c:	99 2b 20 02 	sll  %o4, 2, %o4
    8e40:	9f 2b e0 02 	sll  %o7, 2, %o7
    8e44:	98 07 80 0c 	add  %fp, %o4, %o4
    8e48:	9e 07 80 0f 	add  %fp, %o7, %o7
    8e4c:	d8 03 3f d0 	ld  [ %o4 + -48 ], %o4
    8e50:	de 03 ff d0 	ld  [ %o7 + -48 ], %o7
    8e54:	99 33 00 0d 	srl  %o4, %o5, %o4
    8e58:	9f 2b c0 02 	sll  %o7, %g2, %o7
    8e5c:	9e 13 00 0f 	or  %o4, %o7, %o7
    8e60:	de 21 3f d0 	st  %o7, [ %g4 + -48 ]
    8e64:	80 a0 40 03 	cmp  %g1, %g3
    8e68:	14 bf ff f1 	bg  8e2c <_Q_div+0x420>
    8e6c:	89 28 60 02 	sll  %g1, 2, %g4
    8e70:	c6 07 bf d0 	ld  [ %fp + -48 ], %g3
    8e74:	88 07 80 04 	add  %fp, %g4, %g4
    8e78:	85 28 c0 02 	sll  %g3, %g2, %g2
    8e7c:	10 80 00 04 	b  8e8c <_Q_div+0x480>
    8e80:	c4 21 3f d0 	st  %g2, [ %g4 + -48 ]
    8e84:	84 07 80 02 	add  %fp, %g2, %g2
    8e88:	c0 20 bf d0 	clr  [ %g2 + -48 ]
    8e8c:	82 00 7f ff 	add  %g1, -1, %g1
    8e90:	80 a0 60 00 	cmp  %g1, 0
    8e94:	16 bf ff fc 	bge  8e84 <_Q_div+0x478>
    8e98:	85 28 60 02 	sll  %g1, 2, %g2
    8e9c:	03 3f ff f0 	sethi  %hi(0xffffc000), %g1
    8ea0:	82 10 60 11 	or  %g1, 0x11, %g1	! ffffc011 <_custom_printf_handler+0xfffe4d3d>
    8ea4:	90 20 40 08 	sub  %g1, %o0, %o0
    8ea8:	10 80 00 11 	b  8eec <_Q_div+0x4e0>
    8eac:	82 10 20 00 	clr  %g1
    8eb0:	88 13 c0 04 	or  %o7, %g4, %g4
    8eb4:	80 91 00 03 	orcc  %g4, %g3, %g0
    8eb8:	02 80 00 0a 	be  8ee0 <_Q_div+0x4d4>
    8ebc:	90 10 00 02 	mov  %g2, %o0
    8ec0:	03 00 00 20 	sethi  %hi(0x8000), %g1
    8ec4:	80 88 40 03 	btst  %g1, %g3
    8ec8:	02 80 00 08 	be  8ee8 <_Q_div+0x4dc>
    8ecc:	82 10 20 03 	mov  3, %g1
    8ed0:	10 80 00 08 	b  8ef0 <_Q_div+0x4e4>
    8ed4:	89 2d 20 02 	sll  %l4, 2, %g4
    8ed8:	10 80 00 05 	b  8eec <_Q_div+0x4e0>
    8edc:	82 10 20 01 	mov  1, %g1
    8ee0:	10 80 00 03 	b  8eec <_Q_div+0x4e0>
    8ee4:	82 10 20 02 	mov  2, %g1
    8ee8:	b8 10 20 10 	mov  0x10, %i4
    8eec:	89 2d 20 02 	sll  %l4, 2, %g4
    8ef0:	05 00 00 36 	sethi  %hi(0xd800), %g2
    8ef4:	88 10 40 04 	or  %g1, %g4, %g4
    8ef8:	84 10 a3 50 	or  %g2, 0x350, %g2
    8efc:	89 29 20 02 	sll  %g4, 2, %g4
    8f00:	84 25 c0 02 	sub  %l7, %g2, %g2
    8f04:	c8 00 80 04 	ld  [ %g2 + %g4 ], %g4
    8f08:	81 c0 80 04 	jmp  %g2 + %g4
    8f0c:	86 1c 40 19 	xor  %l1, %i1, %g3
    8f10:	c0 27 bf fc 	clr  [ %fp + -4 ]
    8f14:	c0 27 bf f8 	clr  [ %fp + -8 ]
    8f18:	c0 27 bf f4 	clr  [ %fp + -12 ]
    8f1c:	c0 27 bf f0 	clr  [ %fp + -16 ]
    8f20:	c4 07 bf cc 	ld  [ %fp + -52 ], %g2
    8f24:	c2 07 bf dc 	ld  [ %fp + -36 ], %g1
    8f28:	80 a0 80 01 	cmp  %g2, %g1
    8f2c:	18 80 00 1a 	bgu  8f94 <_Q_div+0x588>
    8f30:	b6 26 00 08 	sub  %i0, %o0, %i3
    8f34:	80 a0 80 01 	cmp  %g2, %g1
    8f38:	32 80 00 2c 	bne,a   8fe8 <_Q_div+0x5dc>
    8f3c:	b6 06 ff ff 	add  %i3, -1, %i3
    8f40:	c4 07 bf c8 	ld  [ %fp + -56 ], %g2
    8f44:	c2 07 bf d8 	ld  [ %fp + -40 ], %g1
    8f48:	80 a0 80 01 	cmp  %g2, %g1
    8f4c:	38 80 00 13 	bgu,a   8f98 <_Q_div+0x58c>
    8f50:	c2 07 bf c0 	ld  [ %fp + -64 ], %g1
    8f54:	80 a0 80 01 	cmp  %g2, %g1
    8f58:	32 80 00 24 	bne,a   8fe8 <_Q_div+0x5dc>
    8f5c:	b6 06 ff ff 	add  %i3, -1, %i3
    8f60:	c4 07 bf c4 	ld  [ %fp + -60 ], %g2
    8f64:	c2 07 bf d4 	ld  [ %fp + -44 ], %g1
    8f68:	80 a0 80 01 	cmp  %g2, %g1
    8f6c:	38 80 00 0b 	bgu,a   8f98 <_Q_div+0x58c>
    8f70:	c2 07 bf c0 	ld  [ %fp + -64 ], %g1
    8f74:	80 a0 80 01 	cmp  %g2, %g1
    8f78:	32 80 00 1c 	bne,a   8fe8 <_Q_div+0x5dc>
    8f7c:	b6 06 ff ff 	add  %i3, -1, %i3
    8f80:	c2 07 bf d0 	ld  [ %fp + -48 ], %g1
    8f84:	c4 07 bf c0 	ld  [ %fp + -64 ], %g2
    8f88:	80 a0 80 01 	cmp  %g2, %g1
    8f8c:	28 80 00 17 	bleu,a   8fe8 <_Q_div+0x5dc>
    8f90:	b6 06 ff ff 	add  %i3, -1, %i3
    8f94:	c2 07 bf c0 	ld  [ %fp + -64 ], %g1
    8f98:	83 28 60 1f 	sll  %g1, 0x1f, %g1
    8f9c:	c2 27 bf fc 	st  %g1, [ %fp + -4 ]
    8fa0:	82 10 20 00 	clr  %g1
    8fa4:	84 00 60 01 	add  %g1, 1, %g2
    8fa8:	89 28 a0 02 	sll  %g2, 2, %g4
    8fac:	88 07 80 04 	add  %fp, %g4, %g4
    8fb0:	83 28 60 02 	sll  %g1, 2, %g1
    8fb4:	f4 01 3f c0 	ld  [ %g4 + -64 ], %i2
    8fb8:	82 07 80 01 	add  %fp, %g1, %g1
    8fbc:	b5 2e a0 1f 	sll  %i2, 0x1f, %i2
    8fc0:	c8 00 7f c0 	ld  [ %g1 + -64 ], %g4
    8fc4:	89 31 20 01 	srl  %g4, 1, %g4
    8fc8:	88 16 80 04 	or  %i2, %g4, %g4
    8fcc:	c8 20 7f c0 	st  %g4, [ %g1 + -64 ]
    8fd0:	80 a0 a0 03 	cmp  %g2, 3
    8fd4:	12 bf ff f4 	bne  8fa4 <_Q_div+0x598>
    8fd8:	82 10 00 02 	mov  %g2, %g1
    8fdc:	c2 07 bf cc 	ld  [ %fp + -52 ], %g1
    8fe0:	83 30 60 01 	srl  %g1, 1, %g1
    8fe4:	c2 27 bf cc 	st  %g1, [ %fp + -52 ]
    8fe8:	82 10 20 03 	mov  3, %g1
    8fec:	85 28 60 02 	sll  %g1, 2, %g2
    8ff0:	82 00 7f ff 	add  %g1, -1, %g1
    8ff4:	89 28 60 02 	sll  %g1, 2, %g4
    8ff8:	88 07 80 04 	add  %fp, %g4, %g4
    8ffc:	84 07 80 02 	add  %fp, %g2, %g2
    9000:	f4 01 3f d0 	ld  [ %g4 + -48 ], %i2
    9004:	c8 00 bf d0 	ld  [ %g2 + -48 ], %g4
    9008:	b5 36 a0 14 	srl  %i2, 0x14, %i2
    900c:	89 29 20 0c 	sll  %g4, 0xc, %g4
    9010:	88 16 80 04 	or  %i2, %g4, %g4
    9014:	80 a0 60 00 	cmp  %g1, 0
    9018:	12 bf ff f5 	bne  8fec <_Q_div+0x5e0>
    901c:	c8 20 bf d0 	st  %g4, [ %g2 + -48 ]
    9020:	c2 07 bf d0 	ld  [ %fp + -48 ], %g1
    9024:	b4 10 20 03 	mov  3, %i2
    9028:	83 28 60 0c 	sll  %g1, 0xc, %g1
    902c:	90 10 3f fe 	mov  -2, %o0
    9030:	c2 27 bf d0 	st  %g1, [ %fp + -48 ]
    9034:	c8 07 bf cc 	ld  [ %fp + -52 ], %g4
    9038:	c4 07 bf dc 	ld  [ %fp + -36 ], %g2
    903c:	80 a1 00 02 	cmp  %g4, %g2
    9040:	12 80 00 29 	bne  90e4 <_Q_div+0x6d8>
    9044:	93 2e a0 02 	sll  %i2, 2, %o1
    9048:	92 07 80 09 	add  %fp, %o1, %o1
    904c:	82 10 3f ff 	mov  -1, %g1
    9050:	80 a6 a0 00 	cmp  %i2, 0
    9054:	02 80 01 06 	be  946c <_Q_div+0xa60>
    9058:	c2 22 7f e0 	st  %g1, [ %o1 + -32 ]
    905c:	f2 07 bf d8 	ld  [ %fp + -40 ], %i1
    9060:	f0 07 bf d4 	ld  [ %fp + -44 ], %i0
    9064:	de 07 bf d0 	ld  [ %fp + -48 ], %o7
    9068:	d4 02 7f f0 	ld  [ %o1 + -16 ], %o2
    906c:	d6 07 bf c0 	ld  [ %fp + -64 ], %o3
    9070:	d8 07 bf c4 	ld  [ %fp + -60 ], %o4
    9074:	da 07 bf c8 	ld  [ %fp + -56 ], %o5
    9078:	a2 a0 00 0a 	subcc  %g0, %o2, %l1
    907c:	a0 e3 c0 0b 	subxcc  %o7, %o3, %l0
    9080:	84 e6 00 0c 	subxcc  %i0, %o4, %g2
    9084:	82 66 40 0d 	subx  %i1, %o5, %g1
    9088:	9a 10 00 01 	mov  %g1, %o5
    908c:	98 10 00 02 	mov  %g2, %o4
    9090:	94 a3 c0 11 	subcc  %o7, %l1, %o2
    9094:	96 e6 00 10 	subxcc  %i0, %l0, %o3
    9098:	84 e6 40 0c 	subxcc  %i1, %o4, %g2
    909c:	82 61 00 0d 	subx  %g4, %o5, %g1
    90a0:	d4 3f bf c0 	std  %o2, [ %fp + -64 ]
    90a4:	c2 27 bf cc 	st  %g1, [ %fp + -52 ]
    90a8:	c4 27 bf c8 	st  %g2, [ %fp + -56 ]
    90ac:	9a 10 00 01 	mov  %g1, %o5
    90b0:	80 a0 40 04 	cmp  %g1, %g4
    90b4:	08 80 00 aa 	bleu  935c <_Q_div+0x950>
    90b8:	98 10 00 02 	mov  %g2, %o4
    90bc:	d0 22 7f e0 	st  %o0, [ %o1 + -32 ]
    90c0:	92 83 c0 0a 	addcc  %o7, %o2, %o1
    90c4:	a0 c6 00 0b 	addxcc  %i0, %o3, %l0
    90c8:	84 c6 40 0c 	addxcc  %i1, %o4, %g2
    90cc:	82 41 00 0d 	addx  %g4, %o5, %g1
    90d0:	e0 27 bf c4 	st  %l0, [ %fp + -60 ]
    90d4:	d2 27 bf c0 	st  %o1, [ %fp + -64 ]
    90d8:	c2 27 bf cc 	st  %g1, [ %fp + -52 ]
    90dc:	10 80 00 a0 	b  935c <_Q_div+0x950>
    90e0:	c4 27 bf c8 	st  %g2, [ %fp + -56 ]
    90e4:	f2 07 bf c8 	ld  [ %fp + -56 ], %i1
    90e8:	d4 07 bf c0 	ld  [ %fp + -64 ], %o2
    90ec:	81 80 00 04 	mov  %g4, %y
    90f0:	01 00 00 00 	nop 
    90f4:	01 00 00 00 	nop 
    90f8:	01 00 00 00 	nop 
    90fc:	82 76 40 02 	udiv  %i1, %g2, %g1
    9100:	9e 50 40 02 	umul  %g1, %g2, %o7
    9104:	9e 26 40 0f 	sub  %i1, %o7, %o7
    9108:	e2 07 bf d0 	ld  [ %fp + -48 ], %l1
    910c:	84 07 80 09 	add  %fp, %o1, %g2
    9110:	96 50 40 11 	umul  %g1, %l1, %o3
    9114:	89 40 00 00 	rd  %y, %g4
    9118:	e0 07 bf d4 	ld  [ %fp + -44 ], %l0
    911c:	d2 07 bf d8 	ld  [ %fp + -40 ], %o1
    9120:	9a 50 40 10 	umul  %g1, %l0, %o5
    9124:	b3 40 00 00 	rd  %y, %i1
    9128:	e4 00 bf f0 	ld  [ %g2 + -16 ], %l2
    912c:	b0 81 00 0d 	addcc  %g4, %o5, %i0
    9130:	88 46 60 00 	addx  %i1, 0, %g4
    9134:	c2 20 bf e0 	st  %g1, [ %g2 + -32 ]
    9138:	98 50 40 09 	umul  %g1, %o1, %o4
    913c:	9b 40 00 00 	rd  %y, %o5
    9140:	de 27 bf cc 	st  %o7, [ %fp + -52 ]
    9144:	b2 81 00 0c 	addcc  %g4, %o4, %i1
    9148:	88 43 60 00 	addx  %o5, 0, %g4
    914c:	e4 27 bf c0 	st  %l2, [ %fp + -64 ]
    9150:	da 07 bf c4 	ld  [ %fp + -60 ], %o5
    9154:	d4 27 bf c4 	st  %o2, [ %fp + -60 ]
    9158:	80 a1 00 0f 	cmp  %g4, %o7
    915c:	18 80 00 14 	bgu  91ac <_Q_div+0x7a0>
    9160:	da 27 bf c8 	st  %o5, [ %fp + -56 ]
    9164:	80 a1 00 0f 	cmp  %g4, %o7
    9168:	32 80 00 61 	bne,a   92ec <_Q_div+0x8e0>
    916c:	e0 07 bf c0 	ld  [ %fp + -64 ], %l0
    9170:	80 a6 40 0d 	cmp  %i1, %o5
    9174:	38 80 00 0f 	bgu,a   91b0 <_Q_div+0x7a4>
    9178:	85 2e a0 02 	sll  %i2, 2, %g2
    917c:	80 a6 40 0d 	cmp  %i1, %o5
    9180:	32 80 00 5b 	bne,a   92ec <_Q_div+0x8e0>
    9184:	e0 07 bf c0 	ld  [ %fp + -64 ], %l0
    9188:	80 a6 00 0a 	cmp  %i0, %o2
    918c:	38 80 00 09 	bgu,a   91b0 <_Q_div+0x7a4>
    9190:	85 2e a0 02 	sll  %i2, 2, %g2
    9194:	80 a6 00 0a 	cmp  %i0, %o2
    9198:	32 80 00 55 	bne,a   92ec <_Q_div+0x8e0>
    919c:	e0 07 bf c0 	ld  [ %fp + -64 ], %l0
    91a0:	80 a2 c0 12 	cmp  %o3, %l2
    91a4:	28 80 00 52 	bleu,a   92ec <_Q_div+0x8e0>
    91a8:	e0 07 bf c0 	ld  [ %fp + -64 ], %l0
    91ac:	85 2e a0 02 	sll  %i2, 2, %g2
    91b0:	82 00 7f ff 	add  %g1, -1, %g1
    91b4:	84 07 80 02 	add  %fp, %g2, %g2
    91b8:	d8 07 bf dc 	ld  [ %fp + -36 ], %o4
    91bc:	c2 20 bf e0 	st  %g1, [ %g2 + -32 ]
    91c0:	a8 84 40 12 	addcc  %l1, %l2, %l4
    91c4:	a6 c4 00 0a 	addxcc  %l0, %o2, %l3
    91c8:	84 c2 40 0d 	addxcc  %o1, %o5, %g2
    91cc:	82 43 00 0f 	addx  %o4, %o7, %g1
    91d0:	e6 27 bf c4 	st  %l3, [ %fp + -60 ]
    91d4:	e8 27 bf c0 	st  %l4, [ %fp + -64 ]
    91d8:	c2 27 bf cc 	st  %g1, [ %fp + -52 ]
    91dc:	c4 27 bf c8 	st  %g2, [ %fp + -56 ]
    91e0:	9e 10 00 01 	mov  %g1, %o7
    91e4:	80 a0 40 0c 	cmp  %g1, %o4
    91e8:	18 80 00 17 	bgu  9244 <_Q_div+0x838>
    91ec:	9a 10 00 02 	mov  %g2, %o5
    91f0:	80 a0 40 0c 	cmp  %g1, %o4
    91f4:	32 80 00 3e 	bne,a   92ec <_Q_div+0x8e0>
    91f8:	e0 07 bf c0 	ld  [ %fp + -64 ], %l0
    91fc:	c2 07 bf d8 	ld  [ %fp + -40 ], %g1
    9200:	80 a0 80 01 	cmp  %g2, %g1
    9204:	18 80 00 11 	bgu  9248 <_Q_div+0x83c>
    9208:	80 a1 00 0f 	cmp  %g4, %o7
    920c:	80 a0 80 01 	cmp  %g2, %g1
    9210:	32 80 00 37 	bne,a   92ec <_Q_div+0x8e0>
    9214:	e0 07 bf c0 	ld  [ %fp + -64 ], %l0
    9218:	c2 07 bf d4 	ld  [ %fp + -44 ], %g1
    921c:	80 a4 c0 01 	cmp  %l3, %g1
    9220:	18 80 00 0a 	bgu  9248 <_Q_div+0x83c>
    9224:	80 a1 00 0f 	cmp  %g4, %o7
    9228:	80 a4 c0 01 	cmp  %l3, %g1
    922c:	12 80 00 30 	bne  92ec <_Q_div+0x8e0>
    9230:	e0 07 bf c0 	ld  [ %fp + -64 ], %l0
    9234:	c2 07 bf d0 	ld  [ %fp + -48 ], %g1
    9238:	80 a5 00 01 	cmp  %l4, %g1
    923c:	0a 80 00 2d 	bcs  92f0 <_Q_div+0x8e4>
    9240:	d2 07 bf c4 	ld  [ %fp + -60 ], %o1
    9244:	80 a1 00 0f 	cmp  %g4, %o7
    9248:	18 80 00 17 	bgu  92a4 <_Q_div+0x898>
    924c:	83 2e a0 02 	sll  %i2, 2, %g1
    9250:	80 a1 00 0f 	cmp  %g4, %o7
    9254:	12 80 00 26 	bne  92ec <_Q_div+0x8e0>
    9258:	e0 07 bf c0 	ld  [ %fp + -64 ], %l0
    925c:	80 a6 40 0d 	cmp  %i1, %o5
    9260:	18 80 00 12 	bgu  92a8 <_Q_div+0x89c>
    9264:	e4 07 bf c0 	ld  [ %fp + -64 ], %l2
    9268:	80 a6 40 0d 	cmp  %i1, %o5
    926c:	12 80 00 21 	bne  92f0 <_Q_div+0x8e4>
    9270:	d2 07 bf c4 	ld  [ %fp + -60 ], %o1
    9274:	c2 07 bf c4 	ld  [ %fp + -60 ], %g1
    9278:	80 a6 00 01 	cmp  %i0, %g1
    927c:	38 80 00 0b 	bgu,a   92a8 <_Q_div+0x89c>
    9280:	83 2e a0 02 	sll  %i2, 2, %g1
    9284:	80 a6 00 01 	cmp  %i0, %g1
    9288:	12 80 00 1b 	bne  92f4 <_Q_div+0x8e8>
    928c:	d4 07 bf c8 	ld  [ %fp + -56 ], %o2
    9290:	c2 07 bf c0 	ld  [ %fp + -64 ], %g1
    9294:	80 a2 c0 01 	cmp  %o3, %g1
    9298:	28 80 00 18 	bleu,a   92f8 <_Q_div+0x8ec>
    929c:	d8 07 bf cc 	ld  [ %fp + -52 ], %o4
    92a0:	83 2e a0 02 	sll  %i2, 2, %g1
    92a4:	e4 07 bf c0 	ld  [ %fp + -64 ], %l2
    92a8:	82 07 80 01 	add  %fp, %g1, %g1
    92ac:	e2 07 bf d0 	ld  [ %fp + -48 ], %l1
    92b0:	c4 00 7f e0 	ld  [ %g1 + -32 ], %g2
    92b4:	e0 07 bf c4 	ld  [ %fp + -60 ], %l0
    92b8:	84 00 bf ff 	add  %g2, -1, %g2
    92bc:	d2 07 bf d4 	ld  [ %fp + -44 ], %o1
    92c0:	c4 20 7f e0 	st  %g2, [ %g1 + -32 ]
    92c4:	d4 07 bf d8 	ld  [ %fp + -40 ], %o2
    92c8:	a6 84 40 12 	addcc  %l1, %l2, %l3
    92cc:	a8 c2 40 10 	addxcc  %o1, %l0, %l4
    92d0:	84 c2 80 0d 	addxcc  %o2, %o5, %g2
    92d4:	82 43 00 0f 	addx  %o4, %o7, %g1
    92d8:	e8 27 bf c4 	st  %l4, [ %fp + -60 ]
    92dc:	e6 27 bf c0 	st  %l3, [ %fp + -64 ]
    92e0:	c2 27 bf cc 	st  %g1, [ %fp + -52 ]
    92e4:	c4 27 bf c8 	st  %g2, [ %fp + -56 ]
    92e8:	e0 07 bf c0 	ld  [ %fp + -64 ], %l0
    92ec:	d2 07 bf c4 	ld  [ %fp + -60 ], %o1
    92f0:	d4 07 bf c8 	ld  [ %fp + -56 ], %o2
    92f4:	d8 07 bf cc 	ld  [ %fp + -52 ], %o4
    92f8:	9a a4 00 0b 	subcc  %l0, %o3, %o5
    92fc:	9e e2 40 18 	subxcc  %o1, %i0, %o7
    9300:	84 e2 80 19 	subxcc  %o2, %i1, %g2
    9304:	82 63 00 04 	subx  %o4, %g4, %g1
    9308:	de 27 bf c4 	st  %o7, [ %fp + -60 ]
    930c:	da 27 bf c0 	st  %o5, [ %fp + -64 ]
    9310:	c2 27 bf cc 	st  %g1, [ %fp + -52 ]
    9314:	80 a6 a0 00 	cmp  %i2, 0
    9318:	12 80 00 11 	bne  935c <_Q_div+0x950>
    931c:	c4 27 bf c8 	st  %g2, [ %fp + -56 ]
    9320:	80 a3 40 0b 	cmp  %o5, %o3
    9324:	32 80 00 0b 	bne,a   9350 <_Q_div+0x944>
    9328:	c2 07 bf e0 	ld  [ %fp + -32 ], %g1
    932c:	80 a3 c0 18 	cmp  %o7, %i0
    9330:	32 80 00 08 	bne,a   9350 <_Q_div+0x944>
    9334:	c2 07 bf e0 	ld  [ %fp + -32 ], %g1
    9338:	80 a0 80 19 	cmp  %g2, %i1
    933c:	32 80 00 05 	bne,a   9350 <_Q_div+0x944>
    9340:	c2 07 bf e0 	ld  [ %fp + -32 ], %g1
    9344:	80 a0 40 04 	cmp  %g1, %g4
    9348:	02 80 00 49 	be  946c <_Q_div+0xa60>
    934c:	c2 07 bf e0 	ld  [ %fp + -32 ], %g1
    9350:	82 10 60 01 	or  %g1, 1, %g1
    9354:	10 80 00 46 	b  946c <_Q_div+0xa60>
    9358:	c2 27 bf e0 	st  %g1, [ %fp + -32 ]
    935c:	10 bf ff 36 	b  9034 <_Q_div+0x628>
    9360:	b4 06 bf ff 	add  %i2, -1, %i2
    9364:	c2 07 bf cc 	ld  [ %fp + -52 ], %g1
    9368:	07 00 00 20 	sethi  %hi(0x8000), %g3
    936c:	80 88 40 03 	btst  %g1, %g3
    9370:	02 80 00 0f 	be  93ac <_Q_div+0x9a0>
    9374:	c4 07 bf c0 	ld  [ %fp + -64 ], %g2
    9378:	c4 07 bf dc 	ld  [ %fp + -36 ], %g2
    937c:	80 88 80 03 	btst  %g2, %g3
    9380:	32 80 00 0b 	bne,a   93ac <_Q_div+0x9a0>
    9384:	c4 07 bf c0 	ld  [ %fp + -64 ], %g2
    9388:	c2 07 bf d0 	ld  [ %fp + -48 ], %g1
    938c:	c2 27 bf e0 	st  %g1, [ %fp + -32 ]
    9390:	c2 07 bf d4 	ld  [ %fp + -44 ], %g1
    9394:	c4 27 bf ec 	st  %g2, [ %fp + -20 ]
    9398:	c2 27 bf e4 	st  %g1, [ %fp + -28 ]
    939c:	86 10 00 10 	mov  %l0, %g3
    93a0:	c2 07 bf d8 	ld  [ %fp + -40 ], %g1
    93a4:	10 80 01 83 	b  99b0 <_Q_div+0xfa4>
    93a8:	c2 27 bf e8 	st  %g1, [ %fp + -24 ]
    93ac:	c4 27 bf e0 	st  %g2, [ %fp + -32 ]
    93b0:	c4 07 bf c4 	ld  [ %fp + -60 ], %g2
    93b4:	c2 27 bf ec 	st  %g1, [ %fp + -20 ]
    93b8:	c4 27 bf e4 	st  %g2, [ %fp + -28 ]
    93bc:	86 10 00 1a 	mov  %i2, %g3
    93c0:	c4 07 bf c8 	ld  [ %fp + -56 ], %g2
    93c4:	10 80 01 7b 	b  99b0 <_Q_div+0xfa4>
    93c8:	c4 27 bf e8 	st  %g2, [ %fp + -24 ]
    93cc:	c2 07 bf c0 	ld  [ %fp + -64 ], %g1
    93d0:	c2 27 bf e0 	st  %g1, [ %fp + -32 ]
    93d4:	c2 07 bf c4 	ld  [ %fp + -60 ], %g1
    93d8:	c2 27 bf e4 	st  %g1, [ %fp + -28 ]
    93dc:	c2 07 bf c8 	ld  [ %fp + -56 ], %g1
    93e0:	86 10 00 1a 	mov  %i2, %g3
    93e4:	c2 27 bf e8 	st  %g1, [ %fp + -24 ]
    93e8:	c2 07 bf cc 	ld  [ %fp + -52 ], %g1
    93ec:	10 80 00 19 	b  9450 <_Q_div+0xa44>
    93f0:	c2 27 bf ec 	st  %g1, [ %fp + -20 ]
    93f4:	c4 07 bf d0 	ld  [ %fp + -48 ], %g2
    93f8:	c4 27 bf e0 	st  %g2, [ %fp + -32 ]
    93fc:	c4 07 bf d4 	ld  [ %fp + -44 ], %g2
    9400:	c4 27 bf e4 	st  %g2, [ %fp + -28 ]
    9404:	c4 07 bf d8 	ld  [ %fp + -40 ], %g2
    9408:	86 10 00 10 	mov  %l0, %g3
    940c:	c4 27 bf e8 	st  %g2, [ %fp + -24 ]
    9410:	a8 10 00 01 	mov  %g1, %l4
    9414:	c4 07 bf dc 	ld  [ %fp + -36 ], %g2
    9418:	10 80 00 0e 	b  9450 <_Q_div+0xa44>
    941c:	c4 27 bf ec 	st  %g2, [ %fp + -20 ]
    9420:	10 80 01 5f 	b  999c <_Q_div+0xf90>
    9424:	b8 17 20 02 	or  %i4, 2, %i4
    9428:	b4 10 3f ff 	mov  -1, %i2
    942c:	03 00 00 3f 	sethi  %hi(0xfc00), %g1
    9430:	f4 27 bf e8 	st  %i2, [ %fp + -24 ]
    9434:	82 10 63 ff 	or  %g1, 0x3ff, %g1
    9438:	f4 27 bf e4 	st  %i2, [ %fp + -28 ]
    943c:	c2 27 bf ec 	st  %g1, [ %fp + -20 ]
    9440:	f4 27 bf e0 	st  %i2, [ %fp + -32 ]
    9444:	86 10 20 00 	clr  %g3
    9448:	10 80 01 5a 	b  99b0 <_Q_div+0xfa4>
    944c:	b8 10 20 10 	mov  0x10, %i4
    9450:	80 a5 20 02 	cmp  %l4, 2
    9454:	02 80 01 52 	be  999c <_Q_div+0xf90>
    9458:	80 a5 20 03 	cmp  %l4, 3
    945c:	02 80 01 55 	be  99b0 <_Q_div+0xfa4>
    9460:	80 a5 20 01 	cmp  %l4, 1
    9464:	22 80 01 49 	be,a   9988 <_Q_div+0xf7c>
    9468:	c0 27 bf ec 	clr  [ %fp + -20 ]
    946c:	03 00 00 0f 	sethi  %hi(0x3c00), %g1
    9470:	82 10 63 ff 	or  %g1, 0x3ff, %g1	! 3fff <vfctprintf+0x7>
    9474:	82 06 c0 01 	add  %i3, %g1, %g1
    9478:	80 a0 60 00 	cmp  %g1, 0
    947c:	04 80 00 64 	ble  960c <_Q_div+0xc00>
    9480:	c4 07 bf e0 	ld  [ %fp + -32 ], %g2
    9484:	b4 88 a0 07 	andcc  %g2, 7, %i2
    9488:	32 80 00 02 	bne,a   9490 <_Q_div+0xa84>
    948c:	b8 17 20 01 	or  %i4, 1, %i4
    9490:	c8 07 bf 8c 	ld  [ %fp + -116 ], %g4
    9494:	89 31 20 1e 	srl  %g4, 0x1e, %g4
    9498:	80 a1 20 02 	cmp  %g4, 2
    949c:	02 80 00 12 	be  94e4 <_Q_div+0xad8>
    94a0:	80 a1 20 03 	cmp  %g4, 3
    94a4:	02 80 00 15 	be  94f8 <_Q_div+0xaec>
    94a8:	80 a1 20 00 	cmp  %g4, 0
    94ac:	32 80 00 25 	bne,a   9540 <_Q_div+0xb34>
    94b0:	c4 07 bf ec 	ld  [ %fp + -20 ], %g2
    94b4:	88 08 a0 0f 	and  %g2, 0xf, %g4
    94b8:	80 a1 20 04 	cmp  %g4, 4
    94bc:	02 80 00 20 	be  953c <_Q_div+0xb30>
    94c0:	f2 07 bf ec 	ld  [ %fp + -20 ], %i1
    94c4:	f4 07 bf e8 	ld  [ %fp + -24 ], %i2
    94c8:	c8 07 bf e4 	ld  [ %fp + -28 ], %g4
    94cc:	84 80 a0 04 	addcc  %g2, 4, %g2
    94d0:	88 c1 00 00 	addxcc  %g4, %g0, %g4
    94d4:	b4 c6 80 00 	addxcc  %i2, %g0, %i2
    94d8:	b2 46 40 00 	addx  %i1, %g0, %i1
    94dc:	10 80 00 15 	b  9530 <_Q_div+0xb24>
    94e0:	f2 27 bf ec 	st  %i1, [ %fp + -20 ]
    94e4:	80 a0 e0 00 	cmp  %g3, 0
    94e8:	32 80 00 16 	bne,a   9540 <_Q_div+0xb34>
    94ec:	c4 07 bf ec 	ld  [ %fp + -20 ], %g2
    94f0:	10 80 00 06 	b  9508 <_Q_div+0xafc>
    94f4:	80 a6 a0 00 	cmp  %i2, 0
    94f8:	80 a0 e0 00 	cmp  %g3, 0
    94fc:	22 80 00 11 	be,a   9540 <_Q_div+0xb34>
    9500:	c4 07 bf ec 	ld  [ %fp + -20 ], %g2
    9504:	80 a6 a0 00 	cmp  %i2, 0
    9508:	22 80 00 0e 	be,a   9540 <_Q_div+0xb34>
    950c:	c4 07 bf ec 	ld  [ %fp + -20 ], %g2
    9510:	f2 07 bf ec 	ld  [ %fp + -20 ], %i1
    9514:	f4 07 bf e8 	ld  [ %fp + -24 ], %i2
    9518:	c8 07 bf e4 	ld  [ %fp + -28 ], %g4
    951c:	84 80 a0 08 	addcc  %g2, 8, %g2
    9520:	88 c1 00 00 	addxcc  %g4, %g0, %g4
    9524:	b4 c6 80 00 	addxcc  %i2, %g0, %i2
    9528:	b2 46 40 00 	addx  %i1, %g0, %i1
    952c:	f2 27 bf ec 	st  %i1, [ %fp + -20 ]
    9530:	f4 27 bf e8 	st  %i2, [ %fp + -24 ]
    9534:	c8 27 bf e4 	st  %g4, [ %fp + -28 ]
    9538:	c4 27 bf e0 	st  %g2, [ %fp + -32 ]
    953c:	c4 07 bf ec 	ld  [ %fp + -20 ], %g2
    9540:	09 00 04 00 	sethi  %hi(0x100000), %g4
    9544:	80 88 80 04 	btst  %g2, %g4
    9548:	22 80 00 07 	be,a   9564 <_Q_div+0xb58>
    954c:	84 10 20 00 	clr  %g2
    9550:	84 28 80 04 	andn  %g2, %g4, %g2
    9554:	03 00 00 10 	sethi  %hi(0x4000), %g1
    9558:	c4 27 bf ec 	st  %g2, [ %fp + -20 ]
    955c:	82 06 c0 01 	add  %i3, %g1, %g1
    9560:	84 10 20 00 	clr  %g2
    9564:	88 00 a0 01 	add  %g2, 1, %g4
    9568:	b7 29 20 02 	sll  %g4, 2, %i3
    956c:	b6 07 80 1b 	add  %fp, %i3, %i3
    9570:	85 28 a0 02 	sll  %g2, 2, %g2
    9574:	f4 06 ff e0 	ld  [ %i3 + -32 ], %i2
    9578:	84 07 80 02 	add  %fp, %g2, %g2
    957c:	b5 2e a0 1d 	sll  %i2, 0x1d, %i2
    9580:	f6 00 bf e0 	ld  [ %g2 + -32 ], %i3
    9584:	b7 36 e0 03 	srl  %i3, 3, %i3
    9588:	b6 16 80 1b 	or  %i2, %i3, %i3
    958c:	f6 20 bf e0 	st  %i3, [ %g2 + -32 ]
    9590:	80 a1 20 03 	cmp  %g4, 3
    9594:	12 bf ff f4 	bne  9564 <_Q_div+0xb58>
    9598:	84 10 00 04 	mov  %g4, %g2
    959c:	c4 07 bf ec 	ld  [ %fp + -20 ], %g2
    95a0:	85 30 a0 03 	srl  %g2, 3, %g2
    95a4:	c4 27 bf ec 	st  %g2, [ %fp + -20 ]
    95a8:	05 00 00 1f 	sethi  %hi(0x7c00), %g2
    95ac:	84 10 a3 fe 	or  %g2, 0x3fe, %g2	! 7ffe <_fpmaxtostr+0x5c6>
    95b0:	80 a0 40 02 	cmp  %g1, %g2
    95b4:	24 80 01 06 	ble,a   99cc <_Q_div+0xfc0>
    95b8:	c4 07 bf e0 	ld  [ %fp + -32 ], %g2
    95bc:	c2 07 bf 8c 	ld  [ %fp + -116 ], %g1
    95c0:	83 30 60 1e 	srl  %g1, 0x1e, %g1
    95c4:	80 a0 60 02 	cmp  %g1, 2
    95c8:	02 80 00 05 	be  95dc <_Q_div+0xbd0>
    95cc:	80 a0 60 03 	cmp  %g1, 3
    95d0:	02 80 00 08 	be  95f0 <_Q_div+0xbe4>
    95d4:	80 a0 60 00 	cmp  %g1, 0
    95d8:	30 80 00 02 	b,a   95e0 <_Q_div+0xbd4>
    95dc:	80 a0 e0 00 	cmp  %g3, 0
    95e0:	22 80 01 1d 	be,a   9a54 <_Q_div+0x1048>
    95e4:	03 00 00 1f 	sethi  %hi(0x7c00), %g1
    95e8:	10 80 01 21 	b  9a6c <_Q_div+0x1060>
    95ec:	82 10 3f ff 	mov  -1, %g1
    95f0:	80 a0 e0 00 	cmp  %g3, 0
    95f4:	32 80 01 18 	bne,a   9a54 <_Q_div+0x1048>
    95f8:	03 00 00 1f 	sethi  %hi(0x7c00), %g1
    95fc:	10 80 01 1c 	b  9a6c <_Q_div+0x1060>
    9600:	82 10 3f ff 	mov  -1, %g1
    9604:	10 80 00 f1 	b  99c8 <_Q_div+0xfbc>
    9608:	b8 17 20 09 	or  %i4, 9, %i4
    960c:	03 3f ff f0 	sethi  %hi(0xffffc000), %g1
    9610:	82 10 60 02 	or  %g1, 2, %g1	! ffffc002 <_custom_printf_handler+0xfffe4d2e>
    9614:	b6 20 40 1b 	sub  %g1, %i3, %i3
    9618:	80 a6 e0 74 	cmp  %i3, 0x74
    961c:	14 80 00 a1 	bg  98a0 <_Q_div+0xe94>
    9620:	c2 07 bf e0 	ld  [ %fp + -32 ], %g1
    9624:	89 3e e0 1f 	sra  %i3, 0x1f, %g4
    9628:	03 20 00 00 	sethi  %hi(0x80000000), %g1
    962c:	88 09 20 1f 	and  %g4, 0x1f, %g4
    9630:	82 10 60 1f 	or  %g1, 0x1f, %g1
    9634:	88 01 00 1b 	add  %g4, %i3, %g4
    9638:	b6 8e c0 01 	andcc  %i3, %g1, %i3
    963c:	16 80 00 05 	bge  9650 <_Q_div+0xc44>
    9640:	89 39 20 05 	sra  %g4, 5, %g4
    9644:	b6 06 ff ff 	add  %i3, -1, %i3
    9648:	b6 16 ff e0 	or  %i3, -32, %i3
    964c:	b6 06 e0 01 	inc  %i3
    9650:	84 10 20 00 	clr  %g2
    9654:	10 80 00 06 	b  966c <_Q_div+0xc60>
    9658:	82 10 20 00 	clr  %g1
    965c:	82 00 60 01 	inc  %g1
    9660:	b4 07 80 1a 	add  %fp, %i2, %i2
    9664:	f4 06 bf e0 	ld  [ %i2 + -32 ], %i2
    9668:	84 10 80 1a 	or  %g2, %i2, %g2
    966c:	80 a0 40 04 	cmp  %g1, %g4
    9670:	06 bf ff fb 	bl  965c <_Q_div+0xc50>
    9674:	b5 28 60 02 	sll  %g1, 2, %i2
    9678:	80 a6 e0 00 	cmp  %i3, 0
    967c:	22 80 00 0c 	be,a   96ac <_Q_div+0xca0>
    9680:	b6 10 20 03 	mov  3, %i3
    9684:	10 80 00 11 	b  96c8 <_Q_div+0xcbc>
    9688:	b2 10 20 20 	mov  0x20, %i1
    968c:	b5 2e a0 02 	sll  %i2, 2, %i2
    9690:	b4 07 80 1a 	add  %fp, %i2, %i2
    9694:	f2 06 bf e0 	ld  [ %i2 + -32 ], %i1
    9698:	b5 28 60 02 	sll  %g1, 2, %i2
    969c:	82 00 60 01 	inc  %g1
    96a0:	b4 07 80 1a 	add  %fp, %i2, %i2
    96a4:	10 80 00 04 	b  96b4 <_Q_div+0xca8>
    96a8:	f2 26 bf e0 	st  %i1, [ %i2 + -32 ]
    96ac:	82 10 20 00 	clr  %g1
    96b0:	b6 26 c0 04 	sub  %i3, %g4, %i3
    96b4:	80 a0 40 1b 	cmp  %g1, %i3
    96b8:	04 bf ff f5 	ble  968c <_Q_div+0xc80>
    96bc:	b4 00 40 04 	add  %g1, %g4, %i2
    96c0:	10 80 00 26 	b  9758 <_Q_div+0xd4c>
    96c4:	80 a0 60 03 	cmp  %g1, 3
    96c8:	83 28 60 02 	sll  %g1, 2, %g1
    96cc:	b2 26 40 1b 	sub  %i1, %i3, %i1
    96d0:	82 07 80 01 	add  %fp, %g1, %g1
    96d4:	c2 00 7f e0 	ld  [ %g1 + -32 ], %g1
    96d8:	83 28 40 19 	sll  %g1, %i1, %g1
    96dc:	9e 10 20 03 	mov  3, %o7
    96e0:	84 10 80 01 	or  %g2, %g1, %g2
    96e4:	9e 23 c0 04 	sub  %o7, %g4, %o7
    96e8:	10 80 00 10 	b  9728 <_Q_div+0xd1c>
    96ec:	82 10 20 00 	clr  %g1
    96f0:	b0 00 40 04 	add  %g1, %g4, %i0
    96f4:	b4 07 80 1a 	add  %fp, %i2, %i2
    96f8:	9a 06 20 01 	add  %i0, 1, %o5
    96fc:	82 00 60 01 	inc  %g1
    9700:	9b 2b 60 02 	sll  %o5, 2, %o5
    9704:	b1 2e 20 02 	sll  %i0, 2, %i0
    9708:	9a 07 80 0d 	add  %fp, %o5, %o5
    970c:	b0 07 80 18 	add  %fp, %i0, %i0
    9710:	da 03 7f e0 	ld  [ %o5 + -32 ], %o5
    9714:	f0 06 3f e0 	ld  [ %i0 + -32 ], %i0
    9718:	9b 2b 40 19 	sll  %o5, %i1, %o5
    971c:	b1 36 00 1b 	srl  %i0, %i3, %i0
    9720:	b0 13 40 18 	or  %o5, %i0, %i0
    9724:	f0 26 bf e0 	st  %i0, [ %i2 + -32 ]
    9728:	80 a0 40 0f 	cmp  %g1, %o7
    972c:	06 bf ff f1 	bl  96f0 <_Q_div+0xce4>
    9730:	b5 28 60 02 	sll  %g1, 2, %i2
    9734:	c8 07 bf ec 	ld  [ %fp + -20 ], %g4
    9738:	b4 07 80 1a 	add  %fp, %i2, %i2
    973c:	b7 31 00 1b 	srl  %g4, %i3, %i3
    9740:	10 80 00 04 	b  9750 <_Q_div+0xd44>
    9744:	f6 26 bf e0 	st  %i3, [ %i2 + -32 ]
    9748:	88 07 80 04 	add  %fp, %g4, %g4
    974c:	c0 21 3f e0 	clr  [ %g4 + -32 ]
    9750:	82 00 60 01 	inc  %g1
    9754:	80 a0 60 03 	cmp  %g1, 3
    9758:	04 bf ff fc 	ble  9748 <_Q_div+0xd3c>
    975c:	89 28 60 02 	sll  %g1, 2, %g4
    9760:	80 a0 00 02 	cmp  %g0, %g2
    9764:	c2 07 bf e0 	ld  [ %fp + -32 ], %g1
    9768:	84 40 20 00 	addx  %g0, 0, %g2
    976c:	82 10 80 01 	or  %g2, %g1, %g1
    9770:	88 88 60 07 	andcc  %g1, 7, %g4
    9774:	02 80 00 03 	be  9780 <_Q_div+0xd74>
    9778:	c2 27 bf e0 	st  %g1, [ %fp + -32 ]
    977c:	b8 17 20 01 	or  %i4, 1, %i4
    9780:	c4 07 bf 8c 	ld  [ %fp + -116 ], %g2
    9784:	85 30 a0 1e 	srl  %g2, 0x1e, %g2
    9788:	80 a0 a0 02 	cmp  %g2, 2
    978c:	02 80 00 12 	be  97d4 <_Q_div+0xdc8>
    9790:	80 a0 a0 03 	cmp  %g2, 3
    9794:	02 80 00 15 	be  97e8 <_Q_div+0xddc>
    9798:	80 a0 a0 00 	cmp  %g2, 0
    979c:	32 80 00 25 	bne,a   9830 <_Q_div+0xe24>
    97a0:	03 00 02 00 	sethi  %hi(0x80000), %g1
    97a4:	84 08 60 0f 	and  %g1, 0xf, %g2
    97a8:	80 a0 a0 04 	cmp  %g2, 4
    97ac:	02 80 00 20 	be  982c <_Q_div+0xe20>
    97b0:	f6 07 bf ec 	ld  [ %fp + -20 ], %i3
    97b4:	c8 07 bf e8 	ld  [ %fp + -24 ], %g4
    97b8:	c4 07 bf e4 	ld  [ %fp + -28 ], %g2
    97bc:	82 80 60 04 	addcc  %g1, 4, %g1
    97c0:	84 c0 80 00 	addxcc  %g2, %g0, %g2
    97c4:	88 c1 00 00 	addxcc  %g4, %g0, %g4
    97c8:	b6 46 c0 00 	addx  %i3, %g0, %i3
    97cc:	10 80 00 15 	b  9820 <_Q_div+0xe14>
    97d0:	f6 27 bf ec 	st  %i3, [ %fp + -20 ]
    97d4:	80 a0 e0 00 	cmp  %g3, 0
    97d8:	32 80 00 16 	bne,a   9830 <_Q_div+0xe24>
    97dc:	03 00 02 00 	sethi  %hi(0x80000), %g1
    97e0:	10 80 00 06 	b  97f8 <_Q_div+0xdec>
    97e4:	80 a1 20 00 	cmp  %g4, 0
    97e8:	80 a0 e0 00 	cmp  %g3, 0
    97ec:	22 80 00 11 	be,a   9830 <_Q_div+0xe24>
    97f0:	03 00 02 00 	sethi  %hi(0x80000), %g1
    97f4:	80 a1 20 00 	cmp  %g4, 0
    97f8:	22 80 00 0e 	be,a   9830 <_Q_div+0xe24>
    97fc:	03 00 02 00 	sethi  %hi(0x80000), %g1
    9800:	f6 07 bf ec 	ld  [ %fp + -20 ], %i3
    9804:	c8 07 bf e8 	ld  [ %fp + -24 ], %g4
    9808:	c4 07 bf e4 	ld  [ %fp + -28 ], %g2
    980c:	82 80 60 08 	addcc  %g1, 8, %g1
    9810:	84 c0 80 00 	addxcc  %g2, %g0, %g2
    9814:	88 c1 00 00 	addxcc  %g4, %g0, %g4
    9818:	b6 46 c0 00 	addx  %i3, %g0, %i3
    981c:	f6 27 bf ec 	st  %i3, [ %fp + -20 ]
    9820:	c8 27 bf e8 	st  %g4, [ %fp + -24 ]
    9824:	c4 27 bf e4 	st  %g2, [ %fp + -28 ]
    9828:	c2 27 bf e0 	st  %g1, [ %fp + -32 ]
    982c:	03 00 02 00 	sethi  %hi(0x80000), %g1
    9830:	c4 07 bf ec 	ld  [ %fp + -20 ], %g2
    9834:	80 88 80 01 	btst  %g2, %g1
    9838:	22 80 00 08 	be,a   9858 <_Q_div+0xe4c>
    983c:	82 10 20 00 	clr  %g1
    9840:	c0 27 bf ec 	clr  [ %fp + -20 ]
    9844:	c0 27 bf e8 	clr  [ %fp + -24 ]
    9848:	c0 27 bf e4 	clr  [ %fp + -28 ]
    984c:	c0 27 bf e0 	clr  [ %fp + -32 ]
    9850:	10 80 00 5e 	b  99c8 <_Q_div+0xfbc>
    9854:	82 10 20 01 	mov  1, %g1
    9858:	84 00 60 01 	add  %g1, 1, %g2
    985c:	89 28 a0 02 	sll  %g2, 2, %g4
    9860:	88 07 80 04 	add  %fp, %g4, %g4
    9864:	83 28 60 02 	sll  %g1, 2, %g1
    9868:	f6 01 3f e0 	ld  [ %g4 + -32 ], %i3
    986c:	82 07 80 01 	add  %fp, %g1, %g1
    9870:	b7 2e e0 1d 	sll  %i3, 0x1d, %i3
    9874:	c8 00 7f e0 	ld  [ %g1 + -32 ], %g4
    9878:	89 31 20 03 	srl  %g4, 3, %g4
    987c:	88 16 c0 04 	or  %i3, %g4, %g4
    9880:	c8 20 7f e0 	st  %g4, [ %g1 + -32 ]
    9884:	80 a0 a0 03 	cmp  %g2, 3
    9888:	12 bf ff f4 	bne  9858 <_Q_div+0xe4c>
    988c:	82 10 00 02 	mov  %g2, %g1
    9890:	c2 07 bf ec 	ld  [ %fp + -20 ], %g1
    9894:	83 30 60 03 	srl  %g1, 3, %g1
    9898:	10 80 00 39 	b  997c <_Q_div+0xf70>
    989c:	c2 27 bf ec 	st  %g1, [ %fp + -20 ]
    98a0:	c4 07 bf e4 	ld  [ %fp + -28 ], %g2
    98a4:	84 10 80 01 	or  %g2, %g1, %g2
    98a8:	c2 07 bf e8 	ld  [ %fp + -24 ], %g1
    98ac:	84 10 80 01 	or  %g2, %g1, %g2
    98b0:	c2 07 bf ec 	ld  [ %fp + -20 ], %g1
    98b4:	80 90 80 01 	orcc  %g2, %g1, %g0
    98b8:	22 80 00 37 	be,a   9994 <_Q_div+0xf88>
    98bc:	b8 17 20 04 	or  %i4, 4, %i4
    98c0:	84 10 20 01 	mov  1, %g2
    98c4:	c0 27 bf ec 	clr  [ %fp + -20 ]
    98c8:	c0 27 bf e8 	clr  [ %fp + -24 ]
    98cc:	c0 27 bf e4 	clr  [ %fp + -28 ]
    98d0:	c4 27 bf e0 	st  %g2, [ %fp + -32 ]
    98d4:	c2 07 bf 8c 	ld  [ %fp + -116 ], %g1
    98d8:	83 30 60 1e 	srl  %g1, 0x1e, %g1
    98dc:	80 a0 60 02 	cmp  %g1, 2
    98e0:	02 80 00 10 	be  9920 <_Q_div+0xf14>
    98e4:	b8 17 20 01 	or  %i4, 1, %i4
    98e8:	80 a0 60 03 	cmp  %g1, 3
    98ec:	02 80 00 12 	be  9934 <_Q_div+0xf28>
    98f0:	80 a0 60 00 	cmp  %g1, 0
    98f4:	32 80 00 20 	bne,a   9974 <_Q_div+0xf68>
    98f8:	c2 07 bf e0 	ld  [ %fp + -32 ], %g1
    98fc:	b4 10 00 01 	mov  %g1, %i2
    9900:	b6 10 00 01 	mov  %g1, %i3
    9904:	88 10 00 01 	mov  %g1, %g4
    9908:	84 80 a0 04 	addcc  %g2, 4, %g2
    990c:	88 c1 00 00 	addxcc  %g4, %g0, %g4
    9910:	b6 c6 c0 00 	addxcc  %i3, %g0, %i3
    9914:	b4 46 80 00 	addx  %i2, %g0, %i2
    9918:	10 80 00 13 	b  9964 <_Q_div+0xf58>
    991c:	f4 27 bf ec 	st  %i2, [ %fp + -20 ]
    9920:	80 a0 e0 00 	cmp  %g3, 0
    9924:	02 80 00 08 	be  9944 <_Q_div+0xf38>
    9928:	82 10 00 03 	mov  %g3, %g1
    992c:	10 80 00 12 	b  9974 <_Q_div+0xf68>
    9930:	c2 07 bf e0 	ld  [ %fp + -32 ], %g1
    9934:	80 a0 e0 00 	cmp  %g3, 0
    9938:	22 80 00 0f 	be,a   9974 <_Q_div+0xf68>
    993c:	c2 07 bf e0 	ld  [ %fp + -32 ], %g1
    9940:	82 10 20 00 	clr  %g1
    9944:	b4 10 00 01 	mov  %g1, %i2
    9948:	b6 10 00 01 	mov  %g1, %i3
    994c:	88 10 00 01 	mov  %g1, %g4
    9950:	84 80 a0 08 	addcc  %g2, 8, %g2
    9954:	88 c1 00 00 	addxcc  %g4, %g0, %g4
    9958:	b6 c6 c0 00 	addxcc  %i3, %g0, %i3
    995c:	b4 46 80 00 	addx  %i2, %g0, %i2
    9960:	f4 27 bf ec 	st  %i2, [ %fp + -20 ]
    9964:	f6 27 bf e8 	st  %i3, [ %fp + -24 ]
    9968:	c8 27 bf e4 	st  %g4, [ %fp + -28 ]
    996c:	c4 27 bf e0 	st  %g2, [ %fp + -32 ]
    9970:	c2 07 bf e0 	ld  [ %fp + -32 ], %g1
    9974:	83 30 60 03 	srl  %g1, 3, %g1
    9978:	c2 27 bf e0 	st  %g1, [ %fp + -32 ]
    997c:	10 80 00 06 	b  9994 <_Q_div+0xf88>
    9980:	b8 17 20 04 	or  %i4, 4, %i4
    9984:	c0 27 bf ec 	clr  [ %fp + -20 ]
    9988:	c0 27 bf e8 	clr  [ %fp + -24 ]
    998c:	c0 27 bf e4 	clr  [ %fp + -28 ]
    9990:	c0 27 bf e0 	clr  [ %fp + -32 ]
    9994:	10 80 00 0d 	b  99c8 <_Q_div+0xfbc>
    9998:	82 10 20 00 	clr  %g1
    999c:	c0 27 bf ec 	clr  [ %fp + -20 ]
    99a0:	c0 27 bf e8 	clr  [ %fp + -24 ]
    99a4:	c0 27 bf e4 	clr  [ %fp + -28 ]
    99a8:	10 80 00 06 	b  99c0 <_Q_div+0xfb4>
    99ac:	c0 27 bf e0 	clr  [ %fp + -32 ]
    99b0:	c4 07 bf ec 	ld  [ %fp + -20 ], %g2
    99b4:	03 00 00 20 	sethi  %hi(0x8000), %g1
    99b8:	82 10 80 01 	or  %g2, %g1, %g1
    99bc:	c2 27 bf ec 	st  %g1, [ %fp + -20 ]
    99c0:	03 00 00 1f 	sethi  %hi(0x7c00), %g1
    99c4:	82 10 63 ff 	or  %g1, 0x3ff, %g1	! 7fff <_fpmaxtostr+0x5c7>
    99c8:	c4 07 bf e0 	ld  [ %fp + -32 ], %g2
    99cc:	c4 27 bf bc 	st  %g2, [ %fp + -68 ]
    99d0:	c4 07 bf e4 	ld  [ %fp + -28 ], %g2
    99d4:	c4 27 bf b8 	st  %g2, [ %fp + -72 ]
    99d8:	c4 07 bf e8 	ld  [ %fp + -24 ], %g2
    99dc:	c4 27 bf b4 	st  %g2, [ %fp + -76 ]
    99e0:	c4 07 bf ec 	ld  [ %fp + -20 ], %g2
    99e4:	c4 37 bf b2 	sth  %g2, [ %fp + -78 ]
    99e8:	05 3f ff e0 	sethi  %hi(0xffff8000), %g2
    99ec:	82 28 40 02 	andn  %g1, %g2, %g1
    99f0:	85 28 60 10 	sll  %g1, 0x10, %g2
    99f4:	09 1f ff c0 	sethi  %hi(0x7fff0000), %g4
    99f8:	c2 07 bf b0 	ld  [ %fp + -80 ], %g1
    99fc:	87 28 e0 1f 	sll  %g3, 0x1f, %g3
    9a00:	82 28 40 04 	andn  %g1, %g4, %g1
    9a04:	82 10 40 02 	or  %g1, %g2, %g1
    9a08:	05 20 00 00 	sethi  %hi(0x80000000), %g2
    9a0c:	82 28 40 02 	andn  %g1, %g2, %g1
    9a10:	86 10 40 03 	or  %g1, %g3, %g3
    9a14:	c6 27 bf b0 	st  %g3, [ %fp + -80 ]
    9a18:	f4 1f bf b8 	ldd  [ %fp + -72 ], %i2
    9a1c:	80 a7 20 00 	cmp  %i4, 0
    9a20:	12 80 00 09 	bne  9a44 <_Q_div+0x1038>
    9a24:	f0 1f bf b0 	ldd  [ %fp + -80 ], %i0
    9a28:	03 00 00 00 	sethi  %hi(0), %g1
    9a2c:	82 18 7f d4 	xor  %g1, -44, %g1
    9a30:	82 05 c0 01 	add  %l7, %g1, %g1
    9a34:	fd 18 40 00 	ldd  [ %g1 ], %f30
    9a38:	bd a7 88 5e 	faddd  %f30, %f30, %f30
    9a3c:	10 80 00 13 	b  9a88 <_Q_div+0x107c>
    9a40:	f0 3f 40 00 	std  %i0, [ %i5 ]
    9a44:	7f ff f6 b6 	call  751c <___Q_simulate_exceptions>
    9a48:	90 10 00 1c 	mov  %i4, %o0
    9a4c:	10 80 00 0f 	b  9a88 <_Q_div+0x107c>
    9a50:	f0 3f 40 00 	std  %i0, [ %i5 ]
    9a54:	c0 27 bf ec 	clr  [ %fp + -20 ]
    9a58:	c0 27 bf e8 	clr  [ %fp + -24 ]
    9a5c:	c0 27 bf e4 	clr  [ %fp + -28 ]
    9a60:	c0 27 bf e0 	clr  [ %fp + -32 ]
    9a64:	10 bf fe e8 	b  9604 <_Q_div+0xbf8>
    9a68:	82 10 63 ff 	or  %g1, 0x3ff, %g1
    9a6c:	c2 27 bf ec 	st  %g1, [ %fp + -20 ]
    9a70:	c2 27 bf e8 	st  %g1, [ %fp + -24 ]
    9a74:	c2 27 bf e4 	st  %g1, [ %fp + -28 ]
    9a78:	c2 27 bf e0 	st  %g1, [ %fp + -32 ]
    9a7c:	03 00 00 1f 	sethi  %hi(0x7c00), %g1
    9a80:	10 bf fe e1 	b  9604 <_Q_div+0xbf8>
    9a84:	82 10 63 fe 	or  %g1, 0x3fe, %g1	! 7ffe <_fpmaxtostr+0x5c6>
    9a88:	f4 3f 60 08 	std  %i2, [ %i5 + 8 ]
    9a8c:	81 c7 e0 0c 	jmp  %i7 + 0xc
    9a90:	91 e8 00 1d 	restore  %g0, %i5, %o0
    9a94:	00 00 05 3c 	unimp  0x53c
    9a98:	00 00 08 60 	unimp  0x860
    9a9c:	00 00 08 60 	unimp  0x860
    9aa0:	00 00 08 5c 	unimp  0x85c
    9aa4:	00 00 08 38 	unimp  0x838
    9aa8:	00 00 08 38 	unimp  0x838
    9aac:	00 00 08 88 	unimp  0x888
    9ab0:	00 00 08 5c 	unimp  0x85c
    9ab4:	00 00 08 38 	unimp  0x838
    9ab8:	00 00 08 88 	unimp  0x888
    9abc:	00 00 08 38 	unimp  0x838
    9ac0:	00 00 08 5c 	unimp  0x85c
    9ac4:	00 00 08 34 	unimp  0x834
    9ac8:	00 00 08 34 	unimp  0x834
    9acc:	00 00 08 34 	unimp  0x834
    9ad0:	00 00 07 cc 	unimp  0x7cc

00009ad4 <_Q_mul>:
    9ad4:	9d e3 bf 10 	save  %sp, -240, %sp
    9ad8:	d0 1e 00 00 	ldd  [ %i0 ], %o0
    9adc:	d4 1e 20 08 	ldd  [ %i0 + 8 ], %o2
    9ae0:	d0 3f bf 80 	std  %o0, [ %fp + -128 ]
    9ae4:	d4 3f bf 88 	std  %o2, [ %fp + -120 ]
    9ae8:	c2 17 bf 82 	lduh  [ %fp + -126 ], %g1
    9aec:	d0 07 bf 8c 	ld  [ %fp + -116 ], %o0
    9af0:	c8 07 bf 88 	ld  [ %fp + -120 ], %g4
    9af4:	c6 07 bf 84 	ld  [ %fp + -124 ], %g3
    9af8:	d0 27 bf b0 	st  %o0, [ %fp + -80 ]
    9afc:	c8 27 bf b4 	st  %g4, [ %fp + -76 ]
    9b00:	c6 27 bf b8 	st  %g3, [ %fp + -72 ]
    9b04:	c2 27 bf bc 	st  %g1, [ %fp + -68 ]
    9b08:	e4 07 bf 80 	ld  [ %fp + -128 ], %l2
    9b0c:	2f 00 00 32 	sethi  %hi(0xc800), %l7
    9b10:	40 00 19 3c 	call  10000 <__sparc_get_pc_thunk.l7>
    9b14:	ae 05 e2 0c 	add  %l7, 0x20c, %l7	! ca0c <_Q_fne+0x16c>
    9b18:	a7 34 a0 10 	srl  %l2, 0x10, %l3
    9b1c:	f4 1e 60 08 	ldd  [ %i1 + 8 ], %i2
    9b20:	3b 00 00 1f 	sethi  %hi(0x7c00), %i5
    9b24:	a5 34 a0 1f 	srl  %l2, 0x1f, %l2
    9b28:	ba 17 63 ff 	or  %i5, 0x3ff, %i5
    9b2c:	e2 07 a0 40 	ld  [ %fp + 0x40 ], %l1
    9b30:	f0 1e 40 00 	ldd  [ %i1 ], %i0
    9b34:	c1 2f bf 7c 	st  %fsr, [ %fp + -132 ]
    9b38:	84 10 00 01 	mov  %g1, %g2
    9b3c:	a6 8c c0 1d 	andcc  %l3, %i5, %l3
    9b40:	02 80 00 1d 	be  9bb4 <_Q_mul+0xe0>
    9b44:	b8 10 00 12 	mov  %l2, %i4
    9b48:	80 a4 c0 1d 	cmp  %l3, %i5
    9b4c:	02 80 00 74 	be  9d1c <_Q_mul+0x248>
    9b50:	88 11 00 08 	or  %g4, %o0, %g4
    9b54:	03 00 00 40 	sethi  %hi(0x10000), %g1
    9b58:	84 10 80 01 	or  %g2, %g1, %g2
    9b5c:	82 10 20 03 	mov  3, %g1
    9b60:	c4 27 bf bc 	st  %g2, [ %fp + -68 ]
    9b64:	85 28 60 02 	sll  %g1, 2, %g2
    9b68:	82 00 7f ff 	add  %g1, -1, %g1
    9b6c:	87 28 60 02 	sll  %g1, 2, %g3
    9b70:	86 07 80 03 	add  %fp, %g3, %g3
    9b74:	84 07 80 02 	add  %fp, %g2, %g2
    9b78:	c8 00 ff b0 	ld  [ %g3 + -80 ], %g4
    9b7c:	c6 00 bf b0 	ld  [ %g2 + -80 ], %g3
    9b80:	89 31 20 1d 	srl  %g4, 0x1d, %g4
    9b84:	87 28 e0 03 	sll  %g3, 3, %g3
    9b88:	86 11 00 03 	or  %g4, %g3, %g3
    9b8c:	80 a0 60 00 	cmp  %g1, 0
    9b90:	12 bf ff f5 	bne  9b64 <_Q_mul+0x90>
    9b94:	c6 20 bf b0 	st  %g3, [ %g2 + -80 ]
    9b98:	c2 07 bf b0 	ld  [ %fp + -80 ], %g1
    9b9c:	83 28 60 03 	sll  %g1, 3, %g1
    9ba0:	c2 27 bf b0 	st  %g1, [ %fp + -80 ]
    9ba4:	03 3f ff f0 	sethi  %hi(0xffffc000), %g1
    9ba8:	82 10 60 01 	or  %g1, 1, %g1	! ffffc001 <_custom_printf_handler+0xfffe4d2d>
    9bac:	10 80 00 5a 	b  9d14 <_Q_mul+0x240>
    9bb0:	a6 04 c0 01 	add  %l3, %g1, %l3
    9bb4:	82 11 00 08 	or  %g4, %o0, %g1
    9bb8:	82 10 40 03 	or  %g1, %g3, %g1
    9bbc:	80 90 40 02 	orcc  %g1, %g2, %g0
    9bc0:	02 80 00 62 	be  9d48 <_Q_mul+0x274>
    9bc4:	a6 10 20 00 	clr  %l3
    9bc8:	80 a0 a0 00 	cmp  %g2, 0
    9bcc:	02 80 00 06 	be  9be4 <_Q_mul+0x110>
    9bd0:	80 a0 e0 00 	cmp  %g3, 0
    9bd4:	40 00 0e 3c 	call  d4c4 <__clzsi2>
    9bd8:	90 10 00 02 	mov  %g2, %o0
    9bdc:	10 80 00 12 	b  9c24 <_Q_mul+0x150>
    9be0:	84 02 3f f4 	add  %o0, -12, %g2
    9be4:	02 80 00 06 	be  9bfc <_Q_mul+0x128>
    9be8:	80 a1 20 00 	cmp  %g4, 0
    9bec:	40 00 0e 36 	call  d4c4 <__clzsi2>
    9bf0:	90 10 00 03 	mov  %g3, %o0
    9bf4:	10 80 00 0b 	b  9c20 <_Q_mul+0x14c>
    9bf8:	90 02 20 20 	add  %o0, 0x20, %o0
    9bfc:	02 80 00 06 	be  9c14 <_Q_mul+0x140>
    9c00:	01 00 00 00 	nop 
    9c04:	40 00 0e 30 	call  d4c4 <__clzsi2>
    9c08:	90 10 00 04 	mov  %g4, %o0
    9c0c:	10 80 00 05 	b  9c20 <_Q_mul+0x14c>
    9c10:	90 02 20 40 	add  %o0, 0x40, %o0
    9c14:	40 00 0e 2c 	call  d4c4 <__clzsi2>
    9c18:	01 00 00 00 	nop 
    9c1c:	90 02 20 60 	add  %o0, 0x60, %o0
    9c20:	84 02 3f f4 	add  %o0, -12, %g2
    9c24:	07 20 00 00 	sethi  %hi(0x80000000), %g3
    9c28:	83 38 a0 1f 	sra  %g2, 0x1f, %g1
    9c2c:	86 10 e0 1f 	or  %g3, 0x1f, %g3
    9c30:	82 08 60 1f 	and  %g1, 0x1f, %g1
    9c34:	86 88 80 03 	andcc  %g2, %g3, %g3
    9c38:	82 00 40 02 	add  %g1, %g2, %g1
    9c3c:	16 80 00 05 	bge  9c50 <_Q_mul+0x17c>
    9c40:	83 38 60 05 	sra  %g1, 5, %g1
    9c44:	86 00 ff ff 	add  %g3, -1, %g3
    9c48:	86 10 ff e0 	or  %g3, -32, %g3
    9c4c:	86 00 e0 01 	inc  %g3
    9c50:	80 a0 e0 00 	cmp  %g3, 0
    9c54:	02 80 00 0c 	be  9c84 <_Q_mul+0x1b0>
    9c58:	84 10 20 03 	mov  3, %g2
    9c5c:	9e 10 20 20 	mov  0x20, %o7
    9c60:	10 80 00 1c 	b  9cd0 <_Q_mul+0x1fc>
    9c64:	9e 23 c0 03 	sub  %o7, %g3, %o7
    9c68:	87 28 e0 02 	sll  %g3, 2, %g3
    9c6c:	86 07 80 03 	add  %fp, %g3, %g3
    9c70:	c8 00 ff b0 	ld  [ %g3 + -80 ], %g4
    9c74:	87 28 a0 02 	sll  %g2, 2, %g3
    9c78:	84 00 bf ff 	add  %g2, -1, %g2
    9c7c:	86 07 80 03 	add  %fp, %g3, %g3
    9c80:	c8 20 ff b0 	st  %g4, [ %g3 + -80 ]
    9c84:	80 a0 80 01 	cmp  %g2, %g1
    9c88:	16 bf ff f8 	bge  9c68 <_Q_mul+0x194>
    9c8c:	86 20 80 01 	sub  %g2, %g1, %g3
    9c90:	10 80 00 1c 	b  9d00 <_Q_mul+0x22c>
    9c94:	80 a0 a0 00 	cmp  %g2, 0
    9c98:	ba 20 80 01 	sub  %g2, %g1, %i5
    9c9c:	88 07 80 04 	add  %fp, %g4, %g4
    9ca0:	9a 07 7f ff 	add  %i5, -1, %o5
    9ca4:	84 00 bf ff 	add  %g2, -1, %g2
    9ca8:	9b 2b 60 02 	sll  %o5, 2, %o5
    9cac:	bb 2f 60 02 	sll  %i5, 2, %i5
    9cb0:	9a 07 80 0d 	add  %fp, %o5, %o5
    9cb4:	ba 07 80 1d 	add  %fp, %i5, %i5
    9cb8:	da 03 7f b0 	ld  [ %o5 + -80 ], %o5
    9cbc:	fa 07 7f b0 	ld  [ %i5 + -80 ], %i5
    9cc0:	9b 33 40 0f 	srl  %o5, %o7, %o5
    9cc4:	bb 2f 40 03 	sll  %i5, %g3, %i5
    9cc8:	ba 13 40 1d 	or  %o5, %i5, %i5
    9ccc:	fa 21 3f b0 	st  %i5, [ %g4 + -80 ]
    9cd0:	80 a0 80 01 	cmp  %g2, %g1
    9cd4:	14 bf ff f1 	bg  9c98 <_Q_mul+0x1c4>
    9cd8:	89 28 a0 02 	sll  %g2, 2, %g4
    9cdc:	c2 07 bf b0 	ld  [ %fp + -80 ], %g1
    9ce0:	88 07 80 04 	add  %fp, %g4, %g4
    9ce4:	87 28 40 03 	sll  %g1, %g3, %g3
    9ce8:	10 80 00 04 	b  9cf8 <_Q_mul+0x224>
    9cec:	c6 21 3f b0 	st  %g3, [ %g4 + -80 ]
    9cf0:	82 07 80 01 	add  %fp, %g1, %g1
    9cf4:	c0 20 7f b0 	clr  [ %g1 + -80 ]
    9cf8:	84 00 bf ff 	add  %g2, -1, %g2
    9cfc:	80 a0 a0 00 	cmp  %g2, 0
    9d00:	16 bf ff fc 	bge  9cf0 <_Q_mul+0x21c>
    9d04:	83 28 a0 02 	sll  %g2, 2, %g1
    9d08:	27 3f ff f0 	sethi  %hi(0xffffc000), %l3
    9d0c:	a6 14 e0 11 	or  %l3, 0x11, %l3	! ffffc011 <_custom_printf_handler+0xfffe4d3d>
    9d10:	a6 24 c0 08 	sub  %l3, %o0, %l3
    9d14:	10 80 00 0e 	b  9d4c <_Q_mul+0x278>
    9d18:	a8 10 20 00 	clr  %l4
    9d1c:	86 11 00 03 	or  %g4, %g3, %g3
    9d20:	80 90 c0 01 	orcc  %g3, %g1, %g0
    9d24:	02 80 00 0a 	be  9d4c <_Q_mul+0x278>
    9d28:	a8 10 20 02 	mov  2, %l4
    9d2c:	05 00 00 20 	sethi  %hi(0x8000), %g2
    9d30:	a8 10 20 03 	mov  3, %l4
    9d34:	80 88 80 01 	btst  %g2, %g1
    9d38:	02 80 00 07 	be  9d54 <_Q_mul+0x280>
    9d3c:	ba 10 20 10 	mov  0x10, %i5
    9d40:	10 80 00 05 	b  9d54 <_Q_mul+0x280>
    9d44:	ba 10 20 00 	clr  %i5
    9d48:	a8 10 20 01 	mov  1, %l4
    9d4c:	10 80 00 02 	b  9d54 <_Q_mul+0x280>
    9d50:	ba 10 20 00 	clr  %i5
    9d54:	f0 3f bf 90 	std  %i0, [ %fp + -112 ]
    9d58:	f4 3f bf 98 	std  %i2, [ %fp + -104 ]
    9d5c:	c6 07 bf 94 	ld  [ %fp + -108 ], %g3
    9d60:	d0 07 bf 9c 	ld  [ %fp + -100 ], %o0
    9d64:	c8 07 bf 98 	ld  [ %fp + -104 ], %g4
    9d68:	f0 17 bf 92 	lduh  [ %fp + -110 ], %i0
    9d6c:	d0 27 bf c0 	st  %o0, [ %fp + -64 ]
    9d70:	c8 27 bf c4 	st  %g4, [ %fp + -60 ]
    9d74:	c6 27 bf c8 	st  %g3, [ %fp + -56 ]
    9d78:	f0 27 bf cc 	st  %i0, [ %fp + -52 ]
    9d7c:	f4 07 bf 90 	ld  [ %fp + -112 ], %i2
    9d80:	33 00 00 1f 	sethi  %hi(0x7c00), %i1
    9d84:	83 36 a0 10 	srl  %i2, 0x10, %g1
    9d88:	b2 16 63 ff 	or  %i1, 0x3ff, %i1
    9d8c:	b5 36 a0 1f 	srl  %i2, 0x1f, %i2
    9d90:	82 88 40 19 	andcc  %g1, %i1, %g1
    9d94:	02 80 00 1d 	be  9e08 <_Q_mul+0x334>
    9d98:	b6 10 00 1a 	mov  %i2, %i3
    9d9c:	80 a0 40 19 	cmp  %g1, %i1
    9da0:	02 80 00 74 	be  9f70 <_Q_mul+0x49c>
    9da4:	88 11 00 08 	or  %g4, %o0, %g4
    9da8:	07 00 00 40 	sethi  %hi(0x10000), %g3
    9dac:	84 16 00 03 	or  %i0, %g3, %g2
    9db0:	c4 27 bf cc 	st  %g2, [ %fp + -52 ]
    9db4:	84 10 20 03 	mov  3, %g2
    9db8:	87 28 a0 02 	sll  %g2, 2, %g3
    9dbc:	84 00 bf ff 	add  %g2, -1, %g2
    9dc0:	89 28 a0 02 	sll  %g2, 2, %g4
    9dc4:	88 07 80 04 	add  %fp, %g4, %g4
    9dc8:	86 07 80 03 	add  %fp, %g3, %g3
    9dcc:	f2 01 3f c0 	ld  [ %g4 + -64 ], %i1
    9dd0:	c8 00 ff c0 	ld  [ %g3 + -64 ], %g4
    9dd4:	b3 36 60 1d 	srl  %i1, 0x1d, %i1
    9dd8:	89 29 20 03 	sll  %g4, 3, %g4
    9ddc:	88 16 40 04 	or  %i1, %g4, %g4
    9de0:	80 a0 a0 00 	cmp  %g2, 0
    9de4:	12 bf ff f5 	bne  9db8 <_Q_mul+0x2e4>
    9de8:	c8 20 ff c0 	st  %g4, [ %g3 + -64 ]
    9dec:	c4 07 bf c0 	ld  [ %fp + -64 ], %g2
    9df0:	11 3f ff f0 	sethi  %hi(0xffffc000), %o0
    9df4:	85 28 a0 03 	sll  %g2, 3, %g2
    9df8:	90 12 20 01 	or  %o0, 1, %o0
    9dfc:	c4 27 bf c0 	st  %g2, [ %fp + -64 ]
    9e00:	10 80 00 5a 	b  9f68 <_Q_mul+0x494>
    9e04:	90 00 40 08 	add  %g1, %o0, %o0
    9e08:	82 11 00 08 	or  %g4, %o0, %g1
    9e0c:	82 10 40 03 	or  %g1, %g3, %g1
    9e10:	80 90 40 18 	orcc  %g1, %i0, %g0
    9e14:	22 80 00 61 	be,a   9f98 <_Q_mul+0x4c4>
    9e18:	90 10 20 00 	clr  %o0
    9e1c:	80 a6 20 00 	cmp  %i0, 0
    9e20:	02 80 00 06 	be  9e38 <_Q_mul+0x364>
    9e24:	80 a0 e0 00 	cmp  %g3, 0
    9e28:	40 00 0d a7 	call  d4c4 <__clzsi2>
    9e2c:	90 10 00 18 	mov  %i0, %o0
    9e30:	10 80 00 12 	b  9e78 <_Q_mul+0x3a4>
    9e34:	84 02 3f f4 	add  %o0, -12, %g2
    9e38:	02 80 00 06 	be  9e50 <_Q_mul+0x37c>
    9e3c:	80 a1 20 00 	cmp  %g4, 0
    9e40:	40 00 0d a1 	call  d4c4 <__clzsi2>
    9e44:	90 10 00 03 	mov  %g3, %o0
    9e48:	10 80 00 0b 	b  9e74 <_Q_mul+0x3a0>
    9e4c:	90 02 20 20 	add  %o0, 0x20, %o0
    9e50:	02 80 00 06 	be  9e68 <_Q_mul+0x394>
    9e54:	01 00 00 00 	nop 
    9e58:	40 00 0d 9b 	call  d4c4 <__clzsi2>
    9e5c:	90 10 00 04 	mov  %g4, %o0
    9e60:	10 80 00 05 	b  9e74 <_Q_mul+0x3a0>
    9e64:	90 02 20 40 	add  %o0, 0x40, %o0
    9e68:	40 00 0d 97 	call  d4c4 <__clzsi2>
    9e6c:	01 00 00 00 	nop 
    9e70:	90 02 20 60 	add  %o0, 0x60, %o0
    9e74:	84 02 3f f4 	add  %o0, -12, %g2
    9e78:	07 20 00 00 	sethi  %hi(0x80000000), %g3
    9e7c:	83 38 a0 1f 	sra  %g2, 0x1f, %g1
    9e80:	86 10 e0 1f 	or  %g3, 0x1f, %g3
    9e84:	82 08 60 1f 	and  %g1, 0x1f, %g1
    9e88:	86 88 80 03 	andcc  %g2, %g3, %g3
    9e8c:	82 00 40 02 	add  %g1, %g2, %g1
    9e90:	16 80 00 05 	bge  9ea4 <_Q_mul+0x3d0>
    9e94:	83 38 60 05 	sra  %g1, 5, %g1
    9e98:	86 00 ff ff 	add  %g3, -1, %g3
    9e9c:	86 10 ff e0 	or  %g3, -32, %g3
    9ea0:	86 00 e0 01 	inc  %g3
    9ea4:	80 a0 e0 00 	cmp  %g3, 0
    9ea8:	02 80 00 0c 	be  9ed8 <_Q_mul+0x404>
    9eac:	84 10 20 03 	mov  3, %g2
    9eb0:	b0 10 20 20 	mov  0x20, %i0
    9eb4:	10 80 00 1c 	b  9f24 <_Q_mul+0x450>
    9eb8:	b0 26 00 03 	sub  %i0, %g3, %i0
    9ebc:	87 28 e0 02 	sll  %g3, 2, %g3
    9ec0:	86 07 80 03 	add  %fp, %g3, %g3
    9ec4:	c8 00 ff c0 	ld  [ %g3 + -64 ], %g4
    9ec8:	87 28 a0 02 	sll  %g2, 2, %g3
    9ecc:	84 00 bf ff 	add  %g2, -1, %g2
    9ed0:	86 07 80 03 	add  %fp, %g3, %g3
    9ed4:	c8 20 ff c0 	st  %g4, [ %g3 + -64 ]
    9ed8:	80 a0 80 01 	cmp  %g2, %g1
    9edc:	16 bf ff f8 	bge  9ebc <_Q_mul+0x3e8>
    9ee0:	86 20 80 01 	sub  %g2, %g1, %g3
    9ee4:	10 80 00 1c 	b  9f54 <_Q_mul+0x480>
    9ee8:	80 a0 a0 00 	cmp  %g2, 0
    9eec:	b2 20 80 01 	sub  %g2, %g1, %i1
    9ef0:	88 07 80 04 	add  %fp, %g4, %g4
    9ef4:	9e 06 7f ff 	add  %i1, -1, %o7
    9ef8:	84 00 bf ff 	add  %g2, -1, %g2
    9efc:	9f 2b e0 02 	sll  %o7, 2, %o7
    9f00:	b3 2e 60 02 	sll  %i1, 2, %i1
    9f04:	9e 07 80 0f 	add  %fp, %o7, %o7
    9f08:	b2 07 80 19 	add  %fp, %i1, %i1
    9f0c:	de 03 ff c0 	ld  [ %o7 + -64 ], %o7
    9f10:	f2 06 7f c0 	ld  [ %i1 + -64 ], %i1
    9f14:	9f 33 c0 18 	srl  %o7, %i0, %o7
    9f18:	b3 2e 40 03 	sll  %i1, %g3, %i1
    9f1c:	b2 13 c0 19 	or  %o7, %i1, %i1
    9f20:	f2 21 3f c0 	st  %i1, [ %g4 + -64 ]
    9f24:	80 a0 80 01 	cmp  %g2, %g1
    9f28:	14 bf ff f1 	bg  9eec <_Q_mul+0x418>
    9f2c:	89 28 a0 02 	sll  %g2, 2, %g4
    9f30:	c2 07 bf c0 	ld  [ %fp + -64 ], %g1
    9f34:	88 07 80 04 	add  %fp, %g4, %g4
    9f38:	87 28 40 03 	sll  %g1, %g3, %g3
    9f3c:	10 80 00 04 	b  9f4c <_Q_mul+0x478>
    9f40:	c6 21 3f c0 	st  %g3, [ %g4 + -64 ]
    9f44:	82 07 80 01 	add  %fp, %g1, %g1
    9f48:	c0 20 7f c0 	clr  [ %g1 + -64 ]
    9f4c:	84 00 bf ff 	add  %g2, -1, %g2
    9f50:	80 a0 a0 00 	cmp  %g2, 0
    9f54:	36 bf ff fc 	bge,a   9f44 <_Q_mul+0x470>
    9f58:	83 28 a0 02 	sll  %g2, 2, %g1
    9f5c:	03 3f ff f0 	sethi  %hi(0xffffc000), %g1
    9f60:	82 10 60 11 	or  %g1, 0x11, %g1	! ffffc011 <_custom_printf_handler+0xfffe4d3d>
    9f64:	90 20 40 08 	sub  %g1, %o0, %o0
    9f68:	10 80 00 11 	b  9fac <_Q_mul+0x4d8>
    9f6c:	84 10 20 00 	clr  %g2
    9f70:	86 11 00 03 	or  %g4, %g3, %g3
    9f74:	80 90 c0 18 	orcc  %g3, %i0, %g0
    9f78:	02 80 00 0a 	be  9fa0 <_Q_mul+0x4cc>
    9f7c:	90 10 00 01 	mov  %g1, %o0
    9f80:	05 00 00 20 	sethi  %hi(0x8000), %g2
    9f84:	80 88 80 18 	btst  %g2, %i0
    9f88:	02 80 00 08 	be  9fa8 <_Q_mul+0x4d4>
    9f8c:	84 10 20 03 	mov  3, %g2
    9f90:	10 80 00 08 	b  9fb0 <_Q_mul+0x4dc>
    9f94:	89 2d 20 02 	sll  %l4, 2, %g4
    9f98:	10 80 00 05 	b  9fac <_Q_mul+0x4d8>
    9f9c:	84 10 20 01 	mov  1, %g2
    9fa0:	10 80 00 03 	b  9fac <_Q_mul+0x4d8>
    9fa4:	84 10 20 02 	mov  2, %g2
    9fa8:	ba 10 20 10 	mov  0x10, %i5
    9fac:	89 2d 20 02 	sll  %l4, 2, %g4
    9fb0:	07 00 00 32 	sethi  %hi(0xc800), %g3
    9fb4:	88 10 80 04 	or  %g2, %g4, %g4
    9fb8:	86 10 e2 88 	or  %g3, 0x288, %g3
    9fbc:	89 29 20 02 	sll  %g4, 2, %g4
    9fc0:	86 25 c0 03 	sub  %l7, %g3, %g3
    9fc4:	c8 00 c0 04 	ld  [ %g3 + %g4 ], %g4
    9fc8:	81 c0 c0 04 	jmp  %g3 + %g4
    9fcc:	82 1e 80 12 	xor  %i2, %l2, %g1
    9fd0:	f6 07 bf c4 	ld  [ %fp + -60 ], %i3
    9fd4:	f8 07 bf b8 	ld  [ %fp + -72 ], %i4
    9fd8:	e4 07 bf b0 	ld  [ %fp + -80 ], %l2
    9fdc:	da 07 bf c0 	ld  [ %fp + -64 ], %o5
    9fe0:	94 54 80 1b 	umul  %l2, %i3, %o2
    9fe4:	a9 40 00 00 	rd  %y, %l4
    9fe8:	aa 54 80 0d 	umul  %l2, %o5, %l5
    9fec:	ad 40 00 00 	rd  %y, %l6
    9ff0:	b0 57 00 0d 	umul  %i4, %o5, %i0
    9ff4:	87 40 00 00 	rd  %y, %g3
    9ff8:	f4 07 bf b4 	ld  [ %fp + -76 ], %i2
    9ffc:	c8 07 bf c8 	ld  [ %fp + -56 ], %g4
    a000:	98 82 80 16 	addcc  %o2, %l6, %o4
    a004:	84 c5 20 00 	addxcc  %l4, 0, %g2
    a008:	94 40 20 00 	addx  %g0, 0, %o2
    a00c:	92 54 80 04 	umul  %l2, %g4, %o1
    a010:	97 40 00 00 	rd  %y, %o3
    a014:	a0 04 c0 08 	add  %l3, %o0, %l0
    a018:	ea 27 bf e0 	st  %l5, [ %fp + -32 ]
    a01c:	a6 56 80 1b 	umul  %i2, %i3, %l3
    a020:	b3 40 00 00 	rd  %y, %i1
    a024:	9e 56 80 0d 	umul  %i2, %o5, %o7
    a028:	91 40 00 00 	rd  %y, %o0
    a02c:	ac 83 c0 0c 	addcc  %o7, %o4, %l6
    a030:	a8 c2 00 02 	addxcc  %o0, %g2, %l4
    a034:	98 40 00 0a 	addx  %g0, %o2, %o4
    a038:	90 84 c0 14 	addcc  %l3, %l4, %o0
    a03c:	94 c6 40 0c 	addxcc  %i1, %o4, %o2
    a040:	9e 40 20 00 	addx  %g0, 0, %o7
    a044:	aa 15 80 15 	or  %l6, %l5, %l5
    a048:	98 82 40 08 	addcc  %o1, %o0, %o4
    a04c:	b2 c2 c0 0a 	addxcc  %o3, %o2, %i1
    a050:	84 40 00 0f 	addx  %g0, %o7, %g2
    a054:	ec 27 bf e4 	st  %l6, [ %fp + -28 ]
    a058:	a8 86 00 0c 	addcc  %i0, %o4, %l4
    a05c:	a6 c0 c0 19 	addxcc  %g3, %i1, %l3
    a060:	90 40 00 02 	addx  %g0, %g2, %o0
    a064:	c6 07 bf cc 	ld  [ %fp + -52 ], %g3
    a068:	c4 07 bf bc 	ld  [ %fp + -68 ], %g2
    a06c:	9e 56 80 04 	umul  %i2, %g4, %o7
    a070:	b1 40 00 00 	rd  %y, %i0
    a074:	b2 57 00 1b 	umul  %i4, %i3, %i1
    a078:	99 40 00 00 	rd  %y, %o4
    a07c:	96 50 80 0d 	umul  %g2, %o5, %o3
    a080:	9b 40 00 00 	rd  %y, %o5
    a084:	a4 54 80 03 	umul  %l2, %g3, %l2
    a088:	93 40 00 00 	rd  %y, %o1
    a08c:	d8 27 bf 74 	st  %o4, [ %fp + -140 ]
    a090:	e8 27 bf e8 	st  %l4, [ %fp + -24 ]
    a094:	94 84 80 13 	addcc  %l2, %l3, %o2
    a098:	98 c2 40 08 	addxcc  %o1, %o0, %o4
    a09c:	92 40 20 00 	addx  %g0, 0, %o1
    a0a0:	a8 15 40 14 	or  %l5, %l4, %l4
    a0a4:	a4 82 c0 0a 	addcc  %o3, %o2, %l2
    a0a8:	a6 c3 40 0c 	addxcc  %o5, %o4, %l3
    a0ac:	9a 40 00 09 	addx  %g0, %o1, %o5
    a0b0:	b4 56 80 03 	umul  %i2, %g3, %i2
    a0b4:	99 40 00 00 	rd  %y, %o4
    a0b8:	90 83 c0 12 	addcc  %o7, %l2, %o0
    a0bc:	92 c6 00 13 	addxcc  %i0, %l3, %o1
    a0c0:	b0 40 00 0d 	addx  %g0, %o5, %i0
    a0c4:	de 07 bf 74 	ld  [ %fp + -140 ], %o7
    a0c8:	a6 86 40 08 	addcc  %i1, %o0, %l3
    a0cc:	94 c3 c0 09 	addxcc  %o7, %o1, %o2
    a0d0:	b2 40 00 18 	addx  %g0, %i0, %i1
    a0d4:	9e 50 80 1b 	umul  %g2, %i3, %o7
    a0d8:	9b 40 00 00 	rd  %y, %o5
    a0dc:	b0 57 00 04 	umul  %i4, %g4, %i0
    a0e0:	97 40 00 00 	rd  %y, %o3
    a0e4:	a4 57 00 03 	umul  %i4, %g3, %l2
    a0e8:	91 40 00 00 	rd  %y, %o0
    a0ec:	88 50 80 04 	umul  %g2, %g4, %g4
    a0f0:	93 40 00 00 	rd  %y, %o1
    a0f4:	b6 86 00 0a 	addcc  %i0, %o2, %i3
    a0f8:	b8 c2 c0 19 	addxcc  %o3, %i1, %i4
    a0fc:	b2 40 20 00 	addx  %g0, 0, %i1
    a100:	e6 27 bf ec 	st  %l3, [ %fp + -20 ]
    a104:	94 86 80 1b 	addcc  %i2, %i3, %o2
    a108:	b0 c3 00 1c 	addxcc  %o4, %i4, %i0
    a10c:	b4 40 00 19 	addx  %g0, %i1, %i2
    a110:	a7 2c e0 0d 	sll  %l3, 0xd, %l3
    a114:	b2 83 c0 0a 	addcc  %o7, %o2, %i1
    a118:	b8 c3 40 18 	addxcc  %o5, %i0, %i4
    a11c:	b6 40 00 1a 	addx  %g0, %i2, %i3
    a120:	a6 15 00 13 	or  %l4, %l3, %l3
    a124:	f2 27 bf f0 	st  %i1, [ %fp + -16 ]
    a128:	9e 84 80 1c 	addcc  %l2, %i4, %o7
    a12c:	b0 c2 00 1b 	addxcc  %o0, %i3, %i0
    a130:	b8 40 20 00 	addx  %g0, 0, %i4
    a134:	b4 81 00 0f 	addcc  %g4, %o7, %i2
    a138:	b6 c2 40 18 	addxcc  %o1, %i0, %i3
    a13c:	88 40 00 1c 	addx  %g0, %i4, %g4
    a140:	f4 27 bf f4 	st  %i2, [ %fp + -12 ]
    a144:	84 50 80 03 	umul  %g2, %g3, %g2
    a148:	b5 40 00 00 	rd  %y, %i2
    a14c:	b2 80 80 1b 	addcc  %g2, %i3, %i1
    a150:	84 46 80 04 	addx  %i2, %g4, %g2
    a154:	c4 27 bf fc 	st  %g2, [ %fp + -4 ]
    a158:	f2 27 bf f8 	st  %i1, [ %fp + -8 ]
    a15c:	84 10 20 00 	clr  %g2
    a160:	88 00 a0 04 	add  %g2, 4, %g4
    a164:	89 29 20 02 	sll  %g4, 2, %g4
    a168:	88 07 80 04 	add  %fp, %g4, %g4
    a16c:	87 28 a0 02 	sll  %g2, 2, %g3
    a170:	f8 01 3f e0 	ld  [ %g4 + -32 ], %i4
    a174:	86 07 80 03 	add  %fp, %g3, %g3
    a178:	88 00 a0 03 	add  %g2, 3, %g4
    a17c:	b9 2f 20 0d 	sll  %i4, 0xd, %i4
    a180:	89 29 20 02 	sll  %g4, 2, %g4
    a184:	88 07 80 04 	add  %fp, %g4, %g4
    a188:	c8 01 3f e0 	ld  [ %g4 + -32 ], %g4
    a18c:	89 31 20 13 	srl  %g4, 0x13, %g4
    a190:	88 17 00 04 	or  %i4, %g4, %g4
    a194:	84 00 a0 01 	inc  %g2
    a198:	80 a0 a0 04 	cmp  %g2, 4
    a19c:	12 bf ff f1 	bne  a160 <_Q_mul+0x68c>
    a1a0:	c8 20 ff e0 	st  %g4, [ %g3 + -32 ]
    a1a4:	84 10 20 05 	mov  5, %g2
    a1a8:	87 28 a0 02 	sll  %g2, 2, %g3
    a1ac:	86 07 80 03 	add  %fp, %g3, %g3
    a1b0:	84 00 a0 01 	inc  %g2
    a1b4:	80 a0 a0 08 	cmp  %g2, 8
    a1b8:	12 bf ff fc 	bne  a1a8 <_Q_mul+0x6d4>
    a1bc:	c0 20 ff e0 	clr  [ %g3 + -32 ]
    a1c0:	80 a0 00 13 	cmp  %g0, %l3
    a1c4:	c8 07 bf e8 	ld  [ %fp + -24 ], %g4
    a1c8:	86 40 20 00 	addx  %g0, 0, %g3
    a1cc:	c4 07 bf e0 	ld  [ %fp + -32 ], %g2
    a1d0:	c8 27 bf d8 	st  %g4, [ %fp + -40 ]
    a1d4:	84 10 c0 02 	or  %g3, %g2, %g2
    a1d8:	c8 07 bf e4 	ld  [ %fp + -28 ], %g4
    a1dc:	c6 07 bf ec 	ld  [ %fp + -20 ], %g3
    a1e0:	c8 27 bf d4 	st  %g4, [ %fp + -44 ]
    a1e4:	c6 27 bf dc 	st  %g3, [ %fp + -36 ]
    a1e8:	09 00 04 00 	sethi  %hi(0x100000), %g4
    a1ec:	80 88 c0 04 	btst  %g3, %g4
    a1f0:	02 80 00 5c 	be  a360 <_Q_mul+0x88c>
    a1f4:	c4 27 bf d0 	st  %g2, [ %fp + -48 ]
    a1f8:	89 28 a0 1f 	sll  %g2, 0x1f, %g4
    a1fc:	84 10 20 00 	clr  %g2
    a200:	86 00 a0 01 	add  %g2, 1, %g3
    a204:	b9 28 e0 02 	sll  %g3, 2, %i4
    a208:	b8 07 80 1c 	add  %fp, %i4, %i4
    a20c:	85 28 a0 02 	sll  %g2, 2, %g2
    a210:	f6 07 3f d0 	ld  [ %i4 + -48 ], %i3
    a214:	84 07 80 02 	add  %fp, %g2, %g2
    a218:	b7 2e e0 1f 	sll  %i3, 0x1f, %i3
    a21c:	f8 00 bf d0 	ld  [ %g2 + -48 ], %i4
    a220:	b9 37 20 01 	srl  %i4, 1, %i4
    a224:	b8 16 c0 1c 	or  %i3, %i4, %i4
    a228:	f8 20 bf d0 	st  %i4, [ %g2 + -48 ]
    a22c:	80 a0 e0 03 	cmp  %g3, 3
    a230:	12 bf ff f4 	bne  a200 <_Q_mul+0x72c>
    a234:	84 10 00 03 	mov  %g3, %g2
    a238:	c4 07 bf dc 	ld  [ %fp + -36 ], %g2
    a23c:	85 30 a0 01 	srl  %g2, 1, %g2
    a240:	c6 07 bf d0 	ld  [ %fp + -48 ], %g3
    a244:	c4 27 bf dc 	st  %g2, [ %fp + -36 ]
    a248:	80 a0 00 04 	cmp  %g0, %g4
    a24c:	a0 04 20 01 	inc  %l0
    a250:	84 40 20 00 	addx  %g0, 0, %g2
    a254:	84 10 c0 02 	or  %g3, %g2, %g2
    a258:	10 80 00 42 	b  a360 <_Q_mul+0x88c>
    a25c:	c4 27 bf d0 	st  %g2, [ %fp + -48 ]
    a260:	c2 07 bf bc 	ld  [ %fp + -68 ], %g1
    a264:	07 00 00 20 	sethi  %hi(0x8000), %g3
    a268:	80 88 40 03 	btst  %g1, %g3
    a26c:	02 80 00 0f 	be  a2a8 <_Q_mul+0x7d4>
    a270:	c4 07 bf b0 	ld  [ %fp + -80 ], %g2
    a274:	c4 07 bf cc 	ld  [ %fp + -52 ], %g2
    a278:	80 88 80 03 	btst  %g2, %g3
    a27c:	32 80 00 0b 	bne,a   a2a8 <_Q_mul+0x7d4>
    a280:	c4 07 bf b0 	ld  [ %fp + -80 ], %g2
    a284:	c2 07 bf c0 	ld  [ %fp + -64 ], %g1
    a288:	c2 27 bf d0 	st  %g1, [ %fp + -48 ]
    a28c:	c2 07 bf c4 	ld  [ %fp + -60 ], %g1
    a290:	c2 27 bf d4 	st  %g1, [ %fp + -44 ]
    a294:	c2 07 bf c8 	ld  [ %fp + -56 ], %g1
    a298:	c4 27 bf dc 	st  %g2, [ %fp + -36 ]
    a29c:	c2 27 bf d8 	st  %g1, [ %fp + -40 ]
    a2a0:	10 80 01 86 	b  a8b8 <_Q_mul+0xde4>
    a2a4:	82 10 00 1b 	mov  %i3, %g1
    a2a8:	c4 27 bf d0 	st  %g2, [ %fp + -48 ]
    a2ac:	c4 07 bf b4 	ld  [ %fp + -76 ], %g2
    a2b0:	c2 27 bf dc 	st  %g1, [ %fp + -36 ]
    a2b4:	c4 27 bf d4 	st  %g2, [ %fp + -44 ]
    a2b8:	82 10 00 1c 	mov  %i4, %g1
    a2bc:	c4 07 bf b8 	ld  [ %fp + -72 ], %g2
    a2c0:	10 80 01 7e 	b  a8b8 <_Q_mul+0xde4>
    a2c4:	c4 27 bf d8 	st  %g2, [ %fp + -40 ]
    a2c8:	82 10 00 1c 	mov  %i4, %g1
    a2cc:	c4 07 bf b0 	ld  [ %fp + -80 ], %g2
    a2d0:	c4 27 bf d0 	st  %g2, [ %fp + -48 ]
    a2d4:	c4 07 bf b4 	ld  [ %fp + -76 ], %g2
    a2d8:	c4 27 bf d4 	st  %g2, [ %fp + -44 ]
    a2dc:	c4 07 bf b8 	ld  [ %fp + -72 ], %g2
    a2e0:	c4 27 bf d8 	st  %g2, [ %fp + -40 ]
    a2e4:	c4 07 bf bc 	ld  [ %fp + -68 ], %g2
    a2e8:	10 80 00 17 	b  a344 <_Q_mul+0x870>
    a2ec:	c4 27 bf dc 	st  %g2, [ %fp + -36 ]
    a2f0:	82 10 00 1b 	mov  %i3, %g1
    a2f4:	c6 07 bf c0 	ld  [ %fp + -64 ], %g3
    a2f8:	c6 27 bf d0 	st  %g3, [ %fp + -48 ]
    a2fc:	c6 07 bf c4 	ld  [ %fp + -60 ], %g3
    a300:	c6 27 bf d4 	st  %g3, [ %fp + -44 ]
    a304:	c6 07 bf c8 	ld  [ %fp + -56 ], %g3
    a308:	a8 10 00 02 	mov  %g2, %l4
    a30c:	c6 27 bf d8 	st  %g3, [ %fp + -40 ]
    a310:	c6 07 bf cc 	ld  [ %fp + -52 ], %g3
    a314:	10 80 00 0c 	b  a344 <_Q_mul+0x870>
    a318:	c6 27 bf dc 	st  %g3, [ %fp + -36 ]
    a31c:	03 00 00 3f 	sethi  %hi(0xfc00), %g1
    a320:	82 10 63 ff 	or  %g1, 0x3ff, %g1	! ffff <SW_trap_0xfe+0x1f>
    a324:	b6 10 3f ff 	mov  -1, %i3
    a328:	c2 27 bf dc 	st  %g1, [ %fp + -36 ]
    a32c:	f6 27 bf d8 	st  %i3, [ %fp + -40 ]
    a330:	f6 27 bf d4 	st  %i3, [ %fp + -44 ]
    a334:	f6 27 bf d0 	st  %i3, [ %fp + -48 ]
    a338:	82 10 20 00 	clr  %g1
    a33c:	10 80 01 5f 	b  a8b8 <_Q_mul+0xde4>
    a340:	ba 10 20 10 	mov  0x10, %i5
    a344:	80 a5 20 02 	cmp  %l4, 2
    a348:	02 80 01 57 	be  a8a4 <_Q_mul+0xdd0>
    a34c:	80 a5 20 03 	cmp  %l4, 3
    a350:	02 80 01 5a 	be  a8b8 <_Q_mul+0xde4>
    a354:	80 a5 20 01 	cmp  %l4, 1
    a358:	22 80 01 4e 	be,a   a890 <_Q_mul+0xdbc>
    a35c:	c0 27 bf dc 	clr  [ %fp + -36 ]
    a360:	05 00 00 0f 	sethi  %hi(0x3c00), %g2
    a364:	84 10 a3 ff 	or  %g2, 0x3ff, %g2	! 3fff <vfctprintf+0x7>
    a368:	84 04 00 02 	add  %l0, %g2, %g2
    a36c:	80 a0 a0 00 	cmp  %g2, 0
    a370:	04 80 00 64 	ble  a500 <_Q_mul+0xa2c>
    a374:	c6 07 bf d0 	ld  [ %fp + -48 ], %g3
    a378:	b8 88 e0 07 	andcc  %g3, 7, %i4
    a37c:	32 80 00 02 	bne,a   a384 <_Q_mul+0x8b0>
    a380:	ba 17 60 01 	or  %i5, 1, %i5
    a384:	c8 07 bf 7c 	ld  [ %fp + -132 ], %g4
    a388:	89 31 20 1e 	srl  %g4, 0x1e, %g4
    a38c:	80 a1 20 02 	cmp  %g4, 2
    a390:	02 80 00 12 	be  a3d8 <_Q_mul+0x904>
    a394:	80 a1 20 03 	cmp  %g4, 3
    a398:	02 80 00 15 	be  a3ec <_Q_mul+0x918>
    a39c:	80 a1 20 00 	cmp  %g4, 0
    a3a0:	32 80 00 25 	bne,a   a434 <_Q_mul+0x960>
    a3a4:	c6 07 bf dc 	ld  [ %fp + -36 ], %g3
    a3a8:	88 08 e0 0f 	and  %g3, 0xf, %g4
    a3ac:	80 a1 20 04 	cmp  %g4, 4
    a3b0:	02 80 00 20 	be  a430 <_Q_mul+0x95c>
    a3b4:	f6 07 bf dc 	ld  [ %fp + -36 ], %i3
    a3b8:	f8 07 bf d8 	ld  [ %fp + -40 ], %i4
    a3bc:	c8 07 bf d4 	ld  [ %fp + -44 ], %g4
    a3c0:	86 80 e0 04 	addcc  %g3, 4, %g3
    a3c4:	88 c1 00 00 	addxcc  %g4, %g0, %g4
    a3c8:	b8 c7 00 00 	addxcc  %i4, %g0, %i4
    a3cc:	b6 46 c0 00 	addx  %i3, %g0, %i3
    a3d0:	10 80 00 15 	b  a424 <_Q_mul+0x950>
    a3d4:	f6 27 bf dc 	st  %i3, [ %fp + -36 ]
    a3d8:	80 a0 60 00 	cmp  %g1, 0
    a3dc:	32 80 00 16 	bne,a   a434 <_Q_mul+0x960>
    a3e0:	c6 07 bf dc 	ld  [ %fp + -36 ], %g3
    a3e4:	10 80 00 06 	b  a3fc <_Q_mul+0x928>
    a3e8:	80 a7 20 00 	cmp  %i4, 0
    a3ec:	80 a0 60 00 	cmp  %g1, 0
    a3f0:	22 80 00 11 	be,a   a434 <_Q_mul+0x960>
    a3f4:	c6 07 bf dc 	ld  [ %fp + -36 ], %g3
    a3f8:	80 a7 20 00 	cmp  %i4, 0
    a3fc:	22 80 00 0e 	be,a   a434 <_Q_mul+0x960>
    a400:	c6 07 bf dc 	ld  [ %fp + -36 ], %g3
    a404:	f6 07 bf dc 	ld  [ %fp + -36 ], %i3
    a408:	f8 07 bf d8 	ld  [ %fp + -40 ], %i4
    a40c:	c8 07 bf d4 	ld  [ %fp + -44 ], %g4
    a410:	86 80 e0 08 	addcc  %g3, 8, %g3
    a414:	88 c1 00 00 	addxcc  %g4, %g0, %g4
    a418:	b8 c7 00 00 	addxcc  %i4, %g0, %i4
    a41c:	b6 46 c0 00 	addx  %i3, %g0, %i3
    a420:	f6 27 bf dc 	st  %i3, [ %fp + -36 ]
    a424:	f8 27 bf d8 	st  %i4, [ %fp + -40 ]
    a428:	c8 27 bf d4 	st  %g4, [ %fp + -44 ]
    a42c:	c6 27 bf d0 	st  %g3, [ %fp + -48 ]
    a430:	c6 07 bf dc 	ld  [ %fp + -36 ], %g3
    a434:	09 00 04 00 	sethi  %hi(0x100000), %g4
    a438:	80 88 c0 04 	btst  %g3, %g4
    a43c:	22 80 00 07 	be,a   a458 <_Q_mul+0x984>
    a440:	86 10 20 00 	clr  %g3
    a444:	86 28 c0 04 	andn  %g3, %g4, %g3
    a448:	05 00 00 10 	sethi  %hi(0x4000), %g2
    a44c:	c6 27 bf dc 	st  %g3, [ %fp + -36 ]
    a450:	84 04 00 02 	add  %l0, %g2, %g2
    a454:	86 10 20 00 	clr  %g3
    a458:	88 00 e0 01 	add  %g3, 1, %g4
    a45c:	b9 29 20 02 	sll  %g4, 2, %i4
    a460:	b8 07 80 1c 	add  %fp, %i4, %i4
    a464:	87 28 e0 02 	sll  %g3, 2, %g3
    a468:	f6 07 3f d0 	ld  [ %i4 + -48 ], %i3
    a46c:	86 07 80 03 	add  %fp, %g3, %g3
    a470:	b7 2e e0 1d 	sll  %i3, 0x1d, %i3
    a474:	f8 00 ff d0 	ld  [ %g3 + -48 ], %i4
    a478:	b9 37 20 03 	srl  %i4, 3, %i4
    a47c:	b8 16 c0 1c 	or  %i3, %i4, %i4
    a480:	f8 20 ff d0 	st  %i4, [ %g3 + -48 ]
    a484:	80 a1 20 03 	cmp  %g4, 3
    a488:	12 bf ff f4 	bne  a458 <_Q_mul+0x984>
    a48c:	86 10 00 04 	mov  %g4, %g3
    a490:	c6 07 bf dc 	ld  [ %fp + -36 ], %g3
    a494:	87 30 e0 03 	srl  %g3, 3, %g3
    a498:	c6 27 bf dc 	st  %g3, [ %fp + -36 ]
    a49c:	07 00 00 1f 	sethi  %hi(0x7c00), %g3
    a4a0:	86 10 e3 fe 	or  %g3, 0x3fe, %g3	! 7ffe <_fpmaxtostr+0x5c6>
    a4a4:	80 a0 80 03 	cmp  %g2, %g3
    a4a8:	24 80 01 0b 	ble,a   a8d4 <_Q_mul+0xe00>
    a4ac:	c6 07 bf d0 	ld  [ %fp + -48 ], %g3
    a4b0:	c4 07 bf 7c 	ld  [ %fp + -132 ], %g2
    a4b4:	85 30 a0 1e 	srl  %g2, 0x1e, %g2
    a4b8:	80 a0 a0 02 	cmp  %g2, 2
    a4bc:	02 80 00 05 	be  a4d0 <_Q_mul+0x9fc>
    a4c0:	80 a0 a0 03 	cmp  %g2, 3
    a4c4:	02 80 00 08 	be  a4e4 <_Q_mul+0xa10>
    a4c8:	80 a0 a0 00 	cmp  %g2, 0
    a4cc:	30 80 00 02 	b,a   a4d4 <_Q_mul+0xa00>
    a4d0:	80 a0 60 00 	cmp  %g1, 0
    a4d4:	22 80 01 22 	be,a   a95c <_Q_mul+0xe88>
    a4d8:	05 00 00 1f 	sethi  %hi(0x7c00), %g2
    a4dc:	10 80 01 26 	b  a974 <_Q_mul+0xea0>
    a4e0:	84 10 3f ff 	mov  -1, %g2
    a4e4:	80 a0 60 00 	cmp  %g1, 0
    a4e8:	32 80 01 1d 	bne,a   a95c <_Q_mul+0xe88>
    a4ec:	05 00 00 1f 	sethi  %hi(0x7c00), %g2
    a4f0:	10 80 01 21 	b  a974 <_Q_mul+0xea0>
    a4f4:	84 10 3f ff 	mov  -1, %g2
    a4f8:	10 80 00 f6 	b  a8d0 <_Q_mul+0xdfc>
    a4fc:	ba 17 60 09 	or  %i5, 9, %i5
    a500:	05 3f ff f0 	sethi  %hi(0xffffc000), %g2
    a504:	84 10 a0 02 	or  %g2, 2, %g2	! ffffc002 <_custom_printf_handler+0xfffe4d2e>
    a508:	a0 20 80 10 	sub  %g2, %l0, %l0
    a50c:	80 a4 20 74 	cmp  %l0, 0x74
    a510:	14 80 00 a0 	bg  a790 <_Q_mul+0xcbc>
    a514:	c4 1f bf d0 	ldd  [ %fp + -48 ], %g2
    a518:	89 3c 20 1f 	sra  %l0, 0x1f, %g4
    a51c:	05 20 00 00 	sethi  %hi(0x80000000), %g2
    a520:	88 09 20 1f 	and  %g4, 0x1f, %g4
    a524:	84 10 a0 1f 	or  %g2, 0x1f, %g2
    a528:	88 01 00 10 	add  %g4, %l0, %g4
    a52c:	a0 8c 00 02 	andcc  %l0, %g2, %l0
    a530:	16 80 00 05 	bge  a544 <_Q_mul+0xa70>
    a534:	89 39 20 05 	sra  %g4, 5, %g4
    a538:	a0 04 3f ff 	add  %l0, -1, %l0
    a53c:	a0 14 3f e0 	or  %l0, -32, %l0
    a540:	a0 04 20 01 	inc  %l0
    a544:	86 10 20 00 	clr  %g3
    a548:	10 80 00 06 	b  a560 <_Q_mul+0xa8c>
    a54c:	84 10 20 00 	clr  %g2
    a550:	84 00 a0 01 	inc  %g2
    a554:	b8 07 80 1c 	add  %fp, %i4, %i4
    a558:	f8 07 3f d0 	ld  [ %i4 + -48 ], %i4
    a55c:	86 10 c0 1c 	or  %g3, %i4, %g3
    a560:	80 a0 80 04 	cmp  %g2, %g4
    a564:	06 bf ff fb 	bl  a550 <_Q_mul+0xa7c>
    a568:	b9 28 a0 02 	sll  %g2, 2, %i4
    a56c:	80 a4 20 00 	cmp  %l0, 0
    a570:	22 80 00 0c 	be,a   a5a0 <_Q_mul+0xacc>
    a574:	b8 10 20 03 	mov  3, %i4
    a578:	10 80 00 11 	b  a5bc <_Q_mul+0xae8>
    a57c:	b6 10 20 20 	mov  0x20, %i3
    a580:	b7 2e e0 02 	sll  %i3, 2, %i3
    a584:	b6 07 80 1b 	add  %fp, %i3, %i3
    a588:	f4 06 ff d0 	ld  [ %i3 + -48 ], %i2
    a58c:	b7 28 a0 02 	sll  %g2, 2, %i3
    a590:	84 00 a0 01 	inc  %g2
    a594:	b6 07 80 1b 	add  %fp, %i3, %i3
    a598:	10 80 00 04 	b  a5a8 <_Q_mul+0xad4>
    a59c:	f4 26 ff d0 	st  %i2, [ %i3 + -48 ]
    a5a0:	84 10 20 00 	clr  %g2
    a5a4:	b8 27 00 04 	sub  %i4, %g4, %i4
    a5a8:	80 a0 80 1c 	cmp  %g2, %i4
    a5ac:	04 bf ff f5 	ble  a580 <_Q_mul+0xaac>
    a5b0:	b6 00 80 04 	add  %g2, %g4, %i3
    a5b4:	10 80 00 26 	b  a64c <_Q_mul+0xb78>
    a5b8:	80 a0 a0 03 	cmp  %g2, 3
    a5bc:	85 28 a0 02 	sll  %g2, 2, %g2
    a5c0:	b6 26 c0 10 	sub  %i3, %l0, %i3
    a5c4:	84 07 80 02 	add  %fp, %g2, %g2
    a5c8:	c4 00 bf d0 	ld  [ %g2 + -48 ], %g2
    a5cc:	85 28 80 1b 	sll  %g2, %i3, %g2
    a5d0:	b2 10 20 03 	mov  3, %i1
    a5d4:	86 10 c0 02 	or  %g3, %g2, %g3
    a5d8:	b2 26 40 04 	sub  %i1, %g4, %i1
    a5dc:	10 80 00 10 	b  a61c <_Q_mul+0xb48>
    a5e0:	84 10 20 00 	clr  %g2
    a5e4:	b4 00 80 04 	add  %g2, %g4, %i2
    a5e8:	b8 07 80 1c 	add  %fp, %i4, %i4
    a5ec:	b0 06 a0 01 	add  %i2, 1, %i0
    a5f0:	84 00 a0 01 	inc  %g2
    a5f4:	b1 2e 20 02 	sll  %i0, 2, %i0
    a5f8:	b5 2e a0 02 	sll  %i2, 2, %i2
    a5fc:	b0 07 80 18 	add  %fp, %i0, %i0
    a600:	b4 07 80 1a 	add  %fp, %i2, %i2
    a604:	f0 06 3f d0 	ld  [ %i0 + -48 ], %i0
    a608:	f4 06 bf d0 	ld  [ %i2 + -48 ], %i2
    a60c:	b1 2e 00 1b 	sll  %i0, %i3, %i0
    a610:	b5 36 80 10 	srl  %i2, %l0, %i2
    a614:	b4 16 00 1a 	or  %i0, %i2, %i2
    a618:	f4 27 3f d0 	st  %i2, [ %i4 + -48 ]
    a61c:	80 a0 80 19 	cmp  %g2, %i1
    a620:	06 bf ff f1 	bl  a5e4 <_Q_mul+0xb10>
    a624:	b9 28 a0 02 	sll  %g2, 2, %i4
    a628:	c8 07 bf dc 	ld  [ %fp + -36 ], %g4
    a62c:	b8 07 80 1c 	add  %fp, %i4, %i4
    a630:	a1 31 00 10 	srl  %g4, %l0, %l0
    a634:	10 80 00 04 	b  a644 <_Q_mul+0xb70>
    a638:	e0 27 3f d0 	st  %l0, [ %i4 + -48 ]
    a63c:	88 07 80 04 	add  %fp, %g4, %g4
    a640:	c0 21 3f d0 	clr  [ %g4 + -48 ]
    a644:	84 00 a0 01 	inc  %g2
    a648:	80 a0 a0 03 	cmp  %g2, 3
    a64c:	04 bf ff fc 	ble  a63c <_Q_mul+0xb68>
    a650:	89 28 a0 02 	sll  %g2, 2, %g4
    a654:	80 a0 00 03 	cmp  %g0, %g3
    a658:	c4 07 bf d0 	ld  [ %fp + -48 ], %g2
    a65c:	86 40 20 00 	addx  %g0, 0, %g3
    a660:	84 10 c0 02 	or  %g3, %g2, %g2
    a664:	88 88 a0 07 	andcc  %g2, 7, %g4
    a668:	02 80 00 03 	be  a674 <_Q_mul+0xba0>
    a66c:	c4 27 bf d0 	st  %g2, [ %fp + -48 ]
    a670:	ba 17 60 01 	or  %i5, 1, %i5
    a674:	c6 07 bf 7c 	ld  [ %fp + -132 ], %g3
    a678:	87 30 e0 1e 	srl  %g3, 0x1e, %g3
    a67c:	80 a0 e0 02 	cmp  %g3, 2
    a680:	02 80 00 12 	be  a6c8 <_Q_mul+0xbf4>
    a684:	80 a0 e0 03 	cmp  %g3, 3
    a688:	02 80 00 15 	be  a6dc <_Q_mul+0xc08>
    a68c:	80 a0 e0 00 	cmp  %g3, 0
    a690:	32 80 00 24 	bne,a   a720 <_Q_mul+0xc4c>
    a694:	05 00 02 00 	sethi  %hi(0x80000), %g2
    a698:	86 08 a0 0f 	and  %g2, 0xf, %g3
    a69c:	80 a0 e0 04 	cmp  %g3, 4
    a6a0:	02 80 00 1f 	be  a71c <_Q_mul+0xc48>
    a6a4:	f8 07 bf dc 	ld  [ %fp + -36 ], %i4
    a6a8:	c8 07 bf d8 	ld  [ %fp + -40 ], %g4
    a6ac:	c6 07 bf d4 	ld  [ %fp + -44 ], %g3
    a6b0:	84 80 a0 04 	addcc  %g2, 4, %g2
    a6b4:	86 c0 c0 00 	addxcc  %g3, %g0, %g3
    a6b8:	88 c1 00 00 	addxcc  %g4, %g0, %g4
    a6bc:	b8 47 00 00 	addx  %i4, %g0, %i4
    a6c0:	10 80 00 15 	b  a714 <_Q_mul+0xc40>
    a6c4:	f8 27 bf dc 	st  %i4, [ %fp + -36 ]
    a6c8:	80 a0 60 00 	cmp  %g1, 0
    a6cc:	32 80 00 15 	bne,a   a720 <_Q_mul+0xc4c>
    a6d0:	05 00 02 00 	sethi  %hi(0x80000), %g2
    a6d4:	10 80 00 06 	b  a6ec <_Q_mul+0xc18>
    a6d8:	80 a1 20 00 	cmp  %g4, 0
    a6dc:	80 a0 60 00 	cmp  %g1, 0
    a6e0:	22 80 00 10 	be,a   a720 <_Q_mul+0xc4c>
    a6e4:	05 00 02 00 	sethi  %hi(0x80000), %g2
    a6e8:	80 a1 20 00 	cmp  %g4, 0
    a6ec:	22 80 00 0d 	be,a   a720 <_Q_mul+0xc4c>
    a6f0:	05 00 02 00 	sethi  %hi(0x80000), %g2
    a6f4:	f8 07 bf dc 	ld  [ %fp + -36 ], %i4
    a6f8:	c8 07 bf d8 	ld  [ %fp + -40 ], %g4
    a6fc:	c6 07 bf d4 	ld  [ %fp + -44 ], %g3
    a700:	84 80 a0 08 	addcc  %g2, 8, %g2
    a704:	86 c0 c0 00 	addxcc  %g3, %g0, %g3
    a708:	88 c1 00 00 	addxcc  %g4, %g0, %g4
    a70c:	b8 47 00 00 	addx  %i4, %g0, %i4
    a710:	f8 27 bf dc 	st  %i4, [ %fp + -36 ]
    a714:	c8 27 bf d8 	st  %g4, [ %fp + -40 ]
    a718:	c4 3f bf d0 	std  %g2, [ %fp + -48 ]
    a71c:	05 00 02 00 	sethi  %hi(0x80000), %g2
    a720:	c6 07 bf dc 	ld  [ %fp + -36 ], %g3
    a724:	80 88 c0 02 	btst  %g3, %g2
    a728:	22 80 00 08 	be,a   a748 <_Q_mul+0xc74>
    a72c:	84 10 20 00 	clr  %g2
    a730:	c0 27 bf dc 	clr  [ %fp + -36 ]
    a734:	c0 27 bf d8 	clr  [ %fp + -40 ]
    a738:	c0 27 bf d4 	clr  [ %fp + -44 ]
    a73c:	c0 27 bf d0 	clr  [ %fp + -48 ]
    a740:	10 80 00 64 	b  a8d0 <_Q_mul+0xdfc>
    a744:	84 10 20 01 	mov  1, %g2
    a748:	86 00 a0 01 	add  %g2, 1, %g3
    a74c:	89 28 e0 02 	sll  %g3, 2, %g4
    a750:	88 07 80 04 	add  %fp, %g4, %g4
    a754:	85 28 a0 02 	sll  %g2, 2, %g2
    a758:	f8 01 3f d0 	ld  [ %g4 + -48 ], %i4
    a75c:	84 07 80 02 	add  %fp, %g2, %g2
    a760:	b9 2f 20 1d 	sll  %i4, 0x1d, %i4
    a764:	c8 00 bf d0 	ld  [ %g2 + -48 ], %g4
    a768:	89 31 20 03 	srl  %g4, 3, %g4
    a76c:	88 17 00 04 	or  %i4, %g4, %g4
    a770:	c8 20 bf d0 	st  %g4, [ %g2 + -48 ]
    a774:	80 a0 e0 03 	cmp  %g3, 3
    a778:	12 bf ff f4 	bne  a748 <_Q_mul+0xc74>
    a77c:	84 10 00 03 	mov  %g3, %g2
    a780:	c4 07 bf dc 	ld  [ %fp + -36 ], %g2
    a784:	85 30 a0 03 	srl  %g2, 3, %g2
    a788:	10 80 00 40 	b  a888 <_Q_mul+0xdb4>
    a78c:	c4 27 bf dc 	st  %g2, [ %fp + -36 ]
    a790:	86 10 c0 02 	or  %g3, %g2, %g3
    a794:	c4 07 bf d8 	ld  [ %fp + -40 ], %g2
    a798:	86 10 c0 02 	or  %g3, %g2, %g3
    a79c:	c4 07 bf dc 	ld  [ %fp + -36 ], %g2
    a7a0:	80 90 c0 02 	orcc  %g3, %g2, %g0
    a7a4:	22 80 00 3e 	be,a   a89c <_Q_mul+0xdc8>
    a7a8:	ba 17 60 04 	or  %i5, 4, %i5
    a7ac:	86 10 20 01 	mov  1, %g3
    a7b0:	c0 27 bf dc 	clr  [ %fp + -36 ]
    a7b4:	c0 27 bf d8 	clr  [ %fp + -40 ]
    a7b8:	c0 27 bf d4 	clr  [ %fp + -44 ]
    a7bc:	c6 27 bf d0 	st  %g3, [ %fp + -48 ]
    a7c0:	c4 07 bf 7c 	ld  [ %fp + -132 ], %g2
    a7c4:	85 30 a0 1e 	srl  %g2, 0x1e, %g2
    a7c8:	80 a0 a0 02 	cmp  %g2, 2
    a7cc:	02 80 00 10 	be  a80c <_Q_mul+0xd38>
    a7d0:	ba 17 60 01 	or  %i5, 1, %i5
    a7d4:	80 a0 a0 03 	cmp  %g2, 3
    a7d8:	02 80 00 19 	be  a83c <_Q_mul+0xd68>
    a7dc:	80 a0 a0 00 	cmp  %g2, 0
    a7e0:	32 80 00 28 	bne,a   a880 <_Q_mul+0xdac>
    a7e4:	c4 07 bf d0 	ld  [ %fp + -48 ], %g2
    a7e8:	98 10 00 02 	mov  %g2, %o4
    a7ec:	b8 10 00 02 	mov  %g2, %i4
    a7f0:	88 10 00 02 	mov  %g2, %g4
    a7f4:	86 80 e0 04 	addcc  %g3, 4, %g3
    a7f8:	88 c1 00 00 	addxcc  %g4, %g0, %g4
    a7fc:	b8 c7 00 00 	addxcc  %i4, %g0, %i4
    a800:	98 43 00 00 	addx  %o4, %g0, %o4
    a804:	10 80 00 1a 	b  a86c <_Q_mul+0xd98>
    a808:	84 10 00 0c 	mov  %o4, %g2
    a80c:	80 a0 60 00 	cmp  %g1, 0
    a810:	32 80 00 1c 	bne,a   a880 <_Q_mul+0xdac>
    a814:	c4 07 bf d0 	ld  [ %fp + -48 ], %g2
    a818:	9e 10 00 01 	mov  %g1, %o7
    a81c:	b8 10 00 01 	mov  %g1, %i4
    a820:	88 10 00 01 	mov  %g1, %g4
    a824:	86 80 e0 08 	addcc  %g3, 8, %g3
    a828:	88 c1 00 00 	addxcc  %g4, %g0, %g4
    a82c:	b8 c7 00 00 	addxcc  %i4, %g0, %i4
    a830:	9e 43 c0 00 	addx  %o7, %g0, %o7
    a834:	10 80 00 0e 	b  a86c <_Q_mul+0xd98>
    a838:	84 10 00 0f 	mov  %o7, %g2
    a83c:	80 a0 60 00 	cmp  %g1, 0
    a840:	22 80 00 10 	be,a   a880 <_Q_mul+0xdac>
    a844:	c4 07 bf d0 	ld  [ %fp + -48 ], %g2
    a848:	84 10 20 00 	clr  %g2
    a84c:	b6 10 00 02 	mov  %g2, %i3
    a850:	b8 10 00 02 	mov  %g2, %i4
    a854:	88 10 00 02 	mov  %g2, %g4
    a858:	86 80 e0 08 	addcc  %g3, 8, %g3
    a85c:	88 c1 00 00 	addxcc  %g4, %g0, %g4
    a860:	b8 c7 00 00 	addxcc  %i4, %g0, %i4
    a864:	b6 46 c0 00 	addx  %i3, %g0, %i3
    a868:	84 10 00 1b 	mov  %i3, %g2
    a86c:	c4 27 bf dc 	st  %g2, [ %fp + -36 ]
    a870:	f8 27 bf d8 	st  %i4, [ %fp + -40 ]
    a874:	c8 27 bf d4 	st  %g4, [ %fp + -44 ]
    a878:	c6 27 bf d0 	st  %g3, [ %fp + -48 ]
    a87c:	c4 07 bf d0 	ld  [ %fp + -48 ], %g2
    a880:	85 30 a0 03 	srl  %g2, 3, %g2
    a884:	c4 27 bf d0 	st  %g2, [ %fp + -48 ]
    a888:	10 80 00 05 	b  a89c <_Q_mul+0xdc8>
    a88c:	ba 17 60 04 	or  %i5, 4, %i5
    a890:	c0 27 bf d8 	clr  [ %fp + -40 ]
    a894:	c0 27 bf d4 	clr  [ %fp + -44 ]
    a898:	c0 27 bf d0 	clr  [ %fp + -48 ]
    a89c:	10 80 00 0d 	b  a8d0 <_Q_mul+0xdfc>
    a8a0:	84 10 20 00 	clr  %g2
    a8a4:	c0 27 bf dc 	clr  [ %fp + -36 ]
    a8a8:	c0 27 bf d8 	clr  [ %fp + -40 ]
    a8ac:	c0 27 bf d4 	clr  [ %fp + -44 ]
    a8b0:	10 80 00 06 	b  a8c8 <_Q_mul+0xdf4>
    a8b4:	c0 27 bf d0 	clr  [ %fp + -48 ]
    a8b8:	c6 07 bf dc 	ld  [ %fp + -36 ], %g3
    a8bc:	05 00 00 20 	sethi  %hi(0x8000), %g2
    a8c0:	84 10 c0 02 	or  %g3, %g2, %g2
    a8c4:	c4 27 bf dc 	st  %g2, [ %fp + -36 ]
    a8c8:	05 00 00 1f 	sethi  %hi(0x7c00), %g2
    a8cc:	84 10 a3 ff 	or  %g2, 0x3ff, %g2	! 7fff <_fpmaxtostr+0x5c7>
    a8d0:	c6 07 bf d0 	ld  [ %fp + -48 ], %g3
    a8d4:	c6 27 bf ac 	st  %g3, [ %fp + -84 ]
    a8d8:	c6 07 bf d4 	ld  [ %fp + -44 ], %g3
    a8dc:	c6 27 bf a8 	st  %g3, [ %fp + -88 ]
    a8e0:	c6 07 bf d8 	ld  [ %fp + -40 ], %g3
    a8e4:	c6 27 bf a4 	st  %g3, [ %fp + -92 ]
    a8e8:	c6 07 bf dc 	ld  [ %fp + -36 ], %g3
    a8ec:	c6 37 bf a2 	sth  %g3, [ %fp + -94 ]
    a8f0:	07 3f ff e0 	sethi  %hi(0xffff8000), %g3
    a8f4:	84 28 80 03 	andn  %g2, %g3, %g2
    a8f8:	87 28 a0 10 	sll  %g2, 0x10, %g3
    a8fc:	09 1f ff c0 	sethi  %hi(0x7fff0000), %g4
    a900:	c4 07 bf a0 	ld  [ %fp + -96 ], %g2
    a904:	83 28 60 1f 	sll  %g1, 0x1f, %g1
    a908:	84 28 80 04 	andn  %g2, %g4, %g2
    a90c:	84 10 80 03 	or  %g2, %g3, %g2
    a910:	07 20 00 00 	sethi  %hi(0x80000000), %g3
    a914:	84 28 80 03 	andn  %g2, %g3, %g2
    a918:	82 10 80 01 	or  %g2, %g1, %g1
    a91c:	c2 27 bf a0 	st  %g1, [ %fp + -96 ]
    a920:	f4 1f bf a8 	ldd  [ %fp + -88 ], %i2
    a924:	80 a7 60 00 	cmp  %i5, 0
    a928:	12 80 00 09 	bne  a94c <_Q_mul+0xe78>
    a92c:	f0 1f bf a0 	ldd  [ %fp + -96 ], %i0
    a930:	03 00 00 00 	sethi  %hi(0), %g1
    a934:	82 18 7f d4 	xor  %g1, -44, %g1
    a938:	82 05 c0 01 	add  %l7, %g1, %g1
    a93c:	fd 18 40 00 	ldd  [ %g1 ], %f30
    a940:	bd a7 88 5e 	faddd  %f30, %f30, %f30
    a944:	10 80 00 13 	b  a990 <_Q_mul+0xebc>
    a948:	f0 3c 40 00 	std  %i0, [ %l1 ]
    a94c:	7f ff f2 f4 	call  751c <___Q_simulate_exceptions>
    a950:	90 10 00 1d 	mov  %i5, %o0
    a954:	10 80 00 0f 	b  a990 <_Q_mul+0xebc>
    a958:	f0 3c 40 00 	std  %i0, [ %l1 ]
    a95c:	c0 27 bf dc 	clr  [ %fp + -36 ]
    a960:	c0 27 bf d8 	clr  [ %fp + -40 ]
    a964:	c0 27 bf d4 	clr  [ %fp + -44 ]
    a968:	c0 27 bf d0 	clr  [ %fp + -48 ]
    a96c:	10 bf fe e3 	b  a4f8 <_Q_mul+0xa24>
    a970:	84 10 a3 ff 	or  %g2, 0x3ff, %g2
    a974:	c4 27 bf dc 	st  %g2, [ %fp + -36 ]
    a978:	c4 27 bf d8 	st  %g2, [ %fp + -40 ]
    a97c:	c4 27 bf d4 	st  %g2, [ %fp + -44 ]
    a980:	c4 27 bf d0 	st  %g2, [ %fp + -48 ]
    a984:	05 00 00 1f 	sethi  %hi(0x7c00), %g2
    a988:	10 bf fe dc 	b  a4f8 <_Q_mul+0xa24>
    a98c:	84 10 a3 fe 	or  %g2, 0x3fe, %g2	! 7ffe <_fpmaxtostr+0x5c6>
    a990:	f4 3c 60 08 	std  %i2, [ %l1 + 8 ]
    a994:	81 c7 e0 0c 	jmp  %i7 + 0xc
    a998:	91 e8 00 11 	restore  %g0, %l1, %o0

0000a99c <_Q_flt>:
    a99c:	9d e3 bf 80 	save  %sp, -128, %sp
    a9a0:	2f 00 00 2e 	sethi  %hi(0xb800), %l7
    a9a4:	40 00 15 97 	call  10000 <__sparc_get_pc_thunk.l7>
    a9a8:	ae 05 e3 78 	add  %l7, 0x378, %l7	! bb78 <_Q_sub+0xf98>
    a9ac:	d4 1e 20 08 	ldd  [ %i0 + 8 ], %o2
    a9b0:	f4 1e 60 08 	ldd  [ %i1 + 8 ], %i2
    a9b4:	d4 3f bf e8 	std  %o2, [ %fp + -24 ]
    a9b8:	f4 3f bf f8 	std  %i2, [ %fp + -8 ]
    a9bc:	d0 1e 00 00 	ldd  [ %i0 ], %o0
    a9c0:	f0 1e 40 00 	ldd  [ %i1 ], %i0
    a9c4:	d0 3f bf e0 	std  %o0, [ %fp + -32 ]
    a9c8:	f0 3f bf f0 	std  %i0, [ %fp + -16 ]
    a9cc:	d4 07 bf e0 	ld  [ %fp + -32 ], %o2
    a9d0:	c4 07 bf f0 	ld  [ %fp + -16 ], %g2
    a9d4:	99 32 a0 10 	srl  %o2, 0x10, %o4
    a9d8:	b1 30 a0 10 	srl  %g2, 0x10, %i0
    a9dc:	17 00 00 1f 	sethi  %hi(0x7c00), %o3
    a9e0:	96 12 e3 ff 	or  %o3, 0x3ff, %o3	! 7fff <_fpmaxtostr+0x5c7>
    a9e4:	da 07 bf ec 	ld  [ %fp + -20 ], %o5
    a9e8:	b0 0e 00 0b 	and  %i0, %o3, %i0
    a9ec:	c8 07 bf e8 	ld  [ %fp + -24 ], %g4
    a9f0:	f8 07 bf e4 	ld  [ %fp + -28 ], %i4
    a9f4:	de 17 bf e2 	lduh  [ %fp + -30 ], %o7
    a9f8:	98 0b 00 0b 	and  %o4, %o3, %o4
    a9fc:	95 32 a0 1f 	srl  %o2, 0x1f, %o2
    aa00:	f4 07 bf fc 	ld  [ %fp + -4 ], %i2
    aa04:	c6 07 bf f8 	ld  [ %fp + -8 ], %g3
    aa08:	fa 07 bf f4 	ld  [ %fp + -12 ], %i5
    aa0c:	f6 17 bf f2 	lduh  [ %fp + -14 ], %i3
    aa10:	80 a6 00 0b 	cmp  %i0, %o3
    aa14:	12 80 00 07 	bne  aa30 <_Q_flt+0x94>
    aa18:	85 30 a0 1f 	srl  %g2, 0x1f, %g2
    aa1c:	82 10 c0 1a 	or  %g3, %i2, %g1
    aa20:	82 10 40 1d 	or  %g1, %i5, %g1
    aa24:	80 90 40 1b 	orcc  %g1, %i3, %g0
    aa28:	12 80 00 6a 	bne  abd0 <_Q_flt+0x234>
    aa2c:	01 00 00 00 	nop 
    aa30:	03 00 00 1f 	sethi  %hi(0x7c00), %g1
    aa34:	82 10 63 ff 	or  %g1, 0x3ff, %g1	! 7fff <_fpmaxtostr+0x5c7>
    aa38:	80 a3 00 01 	cmp  %o4, %g1
    aa3c:	12 80 00 07 	bne  aa58 <_Q_flt+0xbc>
    aa40:	80 a6 20 00 	cmp  %i0, 0
    aa44:	82 11 00 0d 	or  %g4, %o5, %g1
    aa48:	82 10 40 1c 	or  %g1, %i4, %g1
    aa4c:	80 90 40 0f 	orcc  %g1, %o7, %g0
    aa50:	12 80 00 60 	bne  abd0 <_Q_flt+0x234>
    aa54:	80 a6 20 00 	cmp  %i0, 0
    aa58:	12 80 00 07 	bne  aa74 <_Q_flt+0xd8>
    aa5c:	b2 10 20 00 	clr  %i1
    aa60:	82 10 c0 1a 	or  %g3, %i2, %g1
    aa64:	82 10 40 1d 	or  %g1, %i5, %g1
    aa68:	82 10 40 1b 	or  %g1, %i3, %g1
    aa6c:	80 a0 00 01 	cmp  %g0, %g1
    aa70:	b2 60 3f ff 	subx  %g0, -1, %i1
    aa74:	80 a3 20 00 	cmp  %o4, 0
    aa78:	12 80 00 07 	bne  aa94 <_Q_flt+0xf8>
    aa7c:	96 10 20 00 	clr  %o3
    aa80:	82 11 00 0d 	or  %g4, %o5, %g1
    aa84:	82 10 40 1c 	or  %g1, %i4, %g1
    aa88:	82 10 40 0f 	or  %g1, %o7, %g1
    aa8c:	80 a0 00 01 	cmp  %g0, %g1
    aa90:	96 60 3f ff 	subx  %g0, -1, %o3
    aa94:	80 8a c0 19 	btst  %o3, %i1
    aa98:	12 80 00 47 	bne  abb4 <_Q_flt+0x218>
    aa9c:	82 10 20 00 	clr  %g1
    aaa0:	80 a6 60 00 	cmp  %i1, 0
    aaa4:	02 80 00 04 	be  aab4 <_Q_flt+0x118>
    aaa8:	94 0a a0 ff 	and  %o2, 0xff, %o2
    aaac:	10 80 00 3a 	b  ab94 <_Q_flt+0x1f8>
    aab0:	80 a0 00 0a 	cmp  %g0, %o2
    aab4:	80 a2 e0 00 	cmp  %o3, 0
    aab8:	02 80 00 04 	be  aac8 <_Q_flt+0x12c>
    aabc:	84 08 a0 ff 	and  %g2, 0xff, %g2
    aac0:	10 80 00 36 	b  ab98 <_Q_flt+0x1fc>
    aac4:	82 20 00 02 	neg  %g2, %g1
    aac8:	80 a0 80 0a 	cmp  %g2, %o2
    aacc:	12 80 00 33 	bne  ab98 <_Q_flt+0x1fc>
    aad0:	82 20 00 02 	neg  %g2, %g1
    aad4:	80 a6 00 0c 	cmp  %i0, %o4
    aad8:	34 80 00 37 	bg,a   abb4 <_Q_flt+0x218>
    aadc:	82 10 60 01 	or  %g1, 1, %g1
    aae0:	36 80 00 04 	bge,a   aaf0 <_Q_flt+0x154>
    aae4:	80 a6 c0 0f 	cmp  %i3, %o7
    aae8:	10 80 00 2b 	b  ab94 <_Q_flt+0x1f8>
    aaec:	80 a0 00 02 	cmp  %g0, %g2
    aaf0:	18 80 00 2a 	bgu  ab98 <_Q_flt+0x1fc>
    aaf4:	82 20 00 02 	neg  %g2, %g1
    aaf8:	80 a6 c0 0f 	cmp  %i3, %o7
    aafc:	12 80 00 11 	bne  ab40 <_Q_flt+0x1a4>
    ab00:	80 a3 c0 1b 	cmp  %o7, %i3
    ab04:	80 a7 40 1c 	cmp  %i5, %i4
    ab08:	38 80 00 2b 	bgu,a   abb4 <_Q_flt+0x218>
    ab0c:	82 10 60 01 	or  %g1, 1, %g1
    ab10:	12 80 00 12 	bne  ab58 <_Q_flt+0x1bc>
    ab14:	80 a7 00 1d 	cmp  %i4, %i5
    ab18:	80 a0 c0 04 	cmp  %g3, %g4
    ab1c:	38 80 00 26 	bgu,a   abb4 <_Q_flt+0x218>
    ab20:	82 10 60 01 	or  %g1, 1, %g1
    ab24:	12 80 00 0d 	bne  ab58 <_Q_flt+0x1bc>
    ab28:	80 a7 00 1d 	cmp  %i4, %i5
    ab2c:	80 a6 80 0d 	cmp  %i2, %o5
    ab30:	08 80 00 0a 	bleu  ab58 <_Q_flt+0x1bc>
    ab34:	80 a7 00 1d 	cmp  %i4, %i5
    ab38:	10 80 00 1f 	b  abb4 <_Q_flt+0x218>
    ab3c:	82 10 60 01 	or  %g1, 1, %g1
    ab40:	18 80 00 15 	bgu  ab94 <_Q_flt+0x1f8>
    ab44:	80 a0 00 02 	cmp  %g0, %g2
    ab48:	80 a3 c0 1b 	cmp  %o7, %i3
    ab4c:	12 80 00 1a 	bne  abb4 <_Q_flt+0x218>
    ab50:	82 10 00 19 	mov  %i1, %g1
    ab54:	80 a7 00 1d 	cmp  %i4, %i5
    ab58:	18 80 00 0f 	bgu  ab94 <_Q_flt+0x1f8>
    ab5c:	80 a0 00 02 	cmp  %g0, %g2
    ab60:	80 a7 00 1d 	cmp  %i4, %i5
    ab64:	12 80 00 14 	bne  abb4 <_Q_flt+0x218>
    ab68:	82 10 20 00 	clr  %g1
    ab6c:	80 a1 00 03 	cmp  %g4, %g3
    ab70:	18 80 00 09 	bgu  ab94 <_Q_flt+0x1f8>
    ab74:	80 a0 00 02 	cmp  %g0, %g2
    ab78:	80 a1 00 03 	cmp  %g4, %g3
    ab7c:	32 80 00 0f 	bne,a   abb8 <_Q_flt+0x21c>
    ab80:	05 00 00 00 	sethi  %hi(0), %g2
    ab84:	80 a3 40 1a 	cmp  %o5, %i2
    ab88:	28 80 00 0c 	bleu,a   abb8 <_Q_flt+0x21c>
    ab8c:	05 00 00 00 	sethi  %hi(0), %g2
    ab90:	80 a0 00 02 	cmp  %g0, %g2
    ab94:	82 40 3f ff 	addx  %g0, -1, %g1
    ab98:	10 80 00 07 	b  abb4 <_Q_flt+0x218>
    ab9c:	82 10 60 01 	or  %g1, 1, %g1
    aba0:	82 18 60 01 	xor  %g1, 1, %g1
    aba4:	80 a0 00 01 	cmp  %g0, %g1
    aba8:	b0 60 3f ff 	subx  %g0, -1, %i0
    abac:	81 c7 e0 08 	ret 
    abb0:	81 e8 00 00 	restore 
    abb4:	05 00 00 00 	sethi  %hi(0), %g2
    abb8:	84 18 bf d4 	xor  %g2, -44, %g2
    abbc:	84 05 c0 02 	add  %l7, %g2, %g2
    abc0:	fd 18 80 00 	ldd  [ %g2 ], %f30
    abc4:	bd a7 88 5e 	faddd  %f30, %f30, %f30
    abc8:	10 bf ff f7 	b  aba4 <_Q_flt+0x208>
    abcc:	82 18 60 01 	xor  %g1, 1, %g1
    abd0:	7f ff f2 53 	call  751c <___Q_simulate_exceptions>
    abd4:	90 10 20 10 	mov  0x10, %o0
    abd8:	10 bf ff f2 	b  aba0 <_Q_flt+0x204>
    abdc:	82 10 20 03 	mov  3, %g1

0000abe0 <_Q_sub>:
    abe0:	9d e3 bf 38 	save  %sp, -200, %sp
    abe4:	d4 1e 20 08 	ldd  [ %i0 + 8 ], %o2
    abe8:	d4 3f bf a8 	std  %o2, [ %fp + -88 ]
    abec:	c2 07 bf ac 	ld  [ %fp + -84 ], %g1
    abf0:	c2 27 bf d0 	st  %g1, [ %fp + -48 ]
    abf4:	c2 07 bf a8 	ld  [ %fp + -88 ], %g1
    abf8:	d0 1e 00 00 	ldd  [ %i0 ], %o0
    abfc:	c2 27 bf d4 	st  %g1, [ %fp + -44 ]
    ac00:	d0 3f bf a0 	std  %o0, [ %fp + -96 ]
    ac04:	c2 07 bf a4 	ld  [ %fp + -92 ], %g1
    ac08:	2f 00 00 2e 	sethi  %hi(0xb800), %l7
    ac0c:	40 00 14 fd 	call  10000 <__sparc_get_pc_thunk.l7>
    ac10:	ae 05 e1 10 	add  %l7, 0x110, %l7	! b910 <_Q_sub+0xd30>
    ac14:	c2 27 bf d8 	st  %g1, [ %fp + -40 ]
    ac18:	c2 17 bf a2 	lduh  [ %fp + -94 ], %g1
    ac1c:	de 07 bf a0 	ld  [ %fp + -96 ], %o7
    ac20:	f4 1e 60 08 	ldd  [ %i1 + 8 ], %i2
    ac24:	9b 2b e0 01 	sll  %o7, 1, %o5
    ac28:	c2 27 bf dc 	st  %g1, [ %fp + -36 ]
    ac2c:	fa 07 a0 40 	ld  [ %fp + 0x40 ], %i5
    ac30:	f0 1e 40 00 	ldd  [ %i1 ], %i0
    ac34:	c1 2f bf 9c 	st  %fsr, [ %fp + -100 ]
    ac38:	9b 33 60 11 	srl  %o5, 0x11, %o5
    ac3c:	9f 33 e0 1f 	srl  %o7, 0x1f, %o7
    ac40:	82 10 20 03 	mov  3, %g1
    ac44:	85 28 60 02 	sll  %g1, 2, %g2
    ac48:	82 00 7f ff 	add  %g1, -1, %g1
    ac4c:	87 28 60 02 	sll  %g1, 2, %g3
    ac50:	86 07 80 03 	add  %fp, %g3, %g3
    ac54:	84 07 80 02 	add  %fp, %g2, %g2
    ac58:	c8 00 ff d0 	ld  [ %g3 + -48 ], %g4
    ac5c:	c6 00 bf d0 	ld  [ %g2 + -48 ], %g3
    ac60:	89 31 20 1d 	srl  %g4, 0x1d, %g4
    ac64:	87 28 e0 03 	sll  %g3, 3, %g3
    ac68:	86 11 00 03 	or  %g4, %g3, %g3
    ac6c:	80 a0 60 00 	cmp  %g1, 0
    ac70:	12 bf ff f5 	bne  ac44 <_Q_sub+0x64>
    ac74:	c6 20 bf d0 	st  %g3, [ %g2 + -48 ]
    ac78:	f4 3f bf b8 	std  %i2, [ %fp + -72 ]
    ac7c:	c2 07 bf bc 	ld  [ %fp + -68 ], %g1
    ac80:	c2 27 bf e0 	st  %g1, [ %fp + -32 ]
    ac84:	c2 07 bf b8 	ld  [ %fp + -72 ], %g1
    ac88:	f0 3f bf b0 	std  %i0, [ %fp + -80 ]
    ac8c:	c2 27 bf e4 	st  %g1, [ %fp + -28 ]
    ac90:	c2 07 bf b4 	ld  [ %fp + -76 ], %g1
    ac94:	c2 27 bf e8 	st  %g1, [ %fp + -24 ]
    ac98:	c2 17 bf b2 	lduh  [ %fp + -78 ], %g1
    ac9c:	c8 07 bf d0 	ld  [ %fp + -48 ], %g4
    aca0:	f6 07 bf b0 	ld  [ %fp + -80 ], %i3
    aca4:	89 29 20 03 	sll  %g4, 3, %g4
    aca8:	b5 2e e0 01 	sll  %i3, 1, %i2
    acac:	c2 27 bf ec 	st  %g1, [ %fp + -20 ]
    acb0:	b7 36 e0 1f 	srl  %i3, 0x1f, %i3
    acb4:	c8 27 bf d0 	st  %g4, [ %fp + -48 ]
    acb8:	b5 36 a0 11 	srl  %i2, 0x11, %i2
    acbc:	b8 10 00 1b 	mov  %i3, %i4
    acc0:	82 10 20 03 	mov  3, %g1
    acc4:	85 28 60 02 	sll  %g1, 2, %g2
    acc8:	82 00 7f ff 	add  %g1, -1, %g1
    accc:	87 28 60 02 	sll  %g1, 2, %g3
    acd0:	86 07 80 03 	add  %fp, %g3, %g3
    acd4:	84 07 80 02 	add  %fp, %g2, %g2
    acd8:	f2 00 ff e0 	ld  [ %g3 + -32 ], %i1
    acdc:	c6 00 bf e0 	ld  [ %g2 + -32 ], %g3
    ace0:	b3 36 60 1d 	srl  %i1, 0x1d, %i1
    ace4:	87 28 e0 03 	sll  %g3, 3, %g3
    ace8:	86 16 40 03 	or  %i1, %g3, %g3
    acec:	80 a0 60 00 	cmp  %g1, 0
    acf0:	12 bf ff f5 	bne  acc4 <_Q_sub+0xe4>
    acf4:	c6 20 bf e0 	st  %g3, [ %g2 + -32 ]
    acf8:	c6 07 bf e0 	ld  [ %fp + -32 ], %g3
    acfc:	87 28 e0 03 	sll  %g3, 3, %g3
    ad00:	03 00 00 1f 	sethi  %hi(0x7c00), %g1
    ad04:	82 10 63 ff 	or  %g1, 0x3ff, %g1	! 7fff <_fpmaxtostr+0x5c7>
    ad08:	80 a6 80 01 	cmp  %i2, %g1
    ad0c:	12 80 00 0c 	bne  ad3c <_Q_sub+0x15c>
    ad10:	c6 27 bf e0 	st  %g3, [ %fp + -32 ]
    ad14:	c4 07 bf e8 	ld  [ %fp + -24 ], %g2
    ad18:	c2 07 bf e4 	ld  [ %fp + -28 ], %g1
    ad1c:	82 10 80 01 	or  %g2, %g1, %g1
    ad20:	c4 07 bf ec 	ld  [ %fp + -20 ], %g2
    ad24:	82 10 40 02 	or  %g1, %g2, %g1
    ad28:	80 90 40 03 	orcc  %g1, %g3, %g0
    ad2c:	22 80 00 05 	be,a   ad40 <_Q_sub+0x160>
    ad30:	b6 1e e0 01 	xor  %i3, 1, %i3
    ad34:	10 80 00 03 	b  ad40 <_Q_sub+0x160>
    ad38:	b6 0f 20 ff 	and  %i4, 0xff, %i3
    ad3c:	b6 1e e0 01 	xor  %i3, 1, %i3
    ad40:	82 23 40 1a 	sub  %o5, %i2, %g1
    ad44:	80 a3 c0 1b 	cmp  %o7, %i3
    ad48:	12 80 02 71 	bne  b70c <_Q_sub+0xb2c>
    ad4c:	84 10 00 01 	mov  %g1, %g2
    ad50:	80 a0 60 00 	cmp  %g1, 0
    ad54:	04 80 00 93 	ble  afa0 <_Q_sub+0x3c0>
    ad58:	80 a6 a0 00 	cmp  %i2, 0
    ad5c:	32 80 00 1c 	bne,a   adcc <_Q_sub+0x1ec>
    ad60:	03 00 00 1f 	sethi  %hi(0x7c00), %g1
    ad64:	f4 07 bf e4 	ld  [ %fp + -28 ], %i2
    ad68:	f6 07 bf e8 	ld  [ %fp + -24 ], %i3
    ad6c:	f8 07 bf ec 	ld  [ %fp + -20 ], %i4
    ad70:	84 16 c0 1a 	or  %i3, %i2, %g2
    ad74:	84 10 80 1c 	or  %g2, %i4, %g2
    ad78:	80 90 80 03 	orcc  %g2, %g3, %g0
    ad7c:	12 80 00 04 	bne  ad8c <_Q_sub+0x1ac>
    ad80:	84 80 7f ff 	addcc  %g1, -1, %g2
    ad84:	10 80 02 70 	b  b744 <_Q_sub+0xb64>
    ad88:	03 00 00 1f 	sethi  %hi(0x7c00), %g1
    ad8c:	12 80 00 0a 	bne  adb4 <_Q_sub+0x1d4>
    ad90:	03 00 00 1f 	sethi  %hi(0x7c00), %g1
    ad94:	d8 07 bf d4 	ld  [ %fp + -44 ], %o4
    ad98:	f0 1f bf d8 	ldd  [ %fp + -40 ], %i0
    ad9c:	96 81 00 03 	addcc  %g4, %g3, %o3
    ada0:	94 c3 00 1a 	addxcc  %o4, %i2, %o2
    ada4:	84 c6 00 1b 	addxcc  %i0, %i3, %g2
    ada8:	82 46 40 1c 	addx  %i1, %i4, %g1
    adac:	10 80 00 78 	b  af8c <_Q_sub+0x3ac>
    adb0:	d4 27 bf f4 	st  %o2, [ %fp + -12 ]
    adb4:	82 10 63 ff 	or  %g1, 0x3ff, %g1
    adb8:	80 a3 40 01 	cmp  %o5, %g1
    adbc:	12 80 00 0e 	bne  adf4 <_Q_sub+0x214>
    adc0:	80 a0 a0 74 	cmp  %g2, 0x74
    adc4:	10 80 02 8f 	b  b800 <_Q_sub+0xc20>
    adc8:	c6 07 bf d4 	ld  [ %fp + -44 ], %g3
    adcc:	82 10 63 ff 	or  %g1, 0x3ff, %g1
    add0:	80 a3 40 01 	cmp  %o5, %g1
    add4:	32 80 00 04 	bne,a   ade4 <_Q_sub+0x204>
    add8:	c8 07 bf ec 	ld  [ %fp + -20 ], %g4
    addc:	10 80 02 89 	b  b800 <_Q_sub+0xc20>
    ade0:	c6 07 bf d4 	ld  [ %fp + -44 ], %g3
    ade4:	03 00 02 00 	sethi  %hi(0x80000), %g1
    ade8:	82 11 00 01 	or  %g4, %g1, %g1
    adec:	c2 27 bf ec 	st  %g1, [ %fp + -20 ]
    adf0:	80 a0 a0 74 	cmp  %g2, 0x74
    adf4:	34 80 00 4d 	bg,a   af28 <_Q_sub+0x348>
    adf8:	c4 07 bf e8 	ld  [ %fp + -24 ], %g2
    adfc:	87 38 a0 05 	sra  %g2, 5, %g3
    ae00:	88 08 a0 1f 	and  %g2, 0x1f, %g4
    ae04:	82 10 20 00 	clr  %g1
    ae08:	10 80 00 06 	b  ae20 <_Q_sub+0x240>
    ae0c:	84 10 20 00 	clr  %g2
    ae10:	82 00 60 01 	inc  %g1
    ae14:	b8 07 80 1c 	add  %fp, %i4, %i4
    ae18:	f8 07 3f e0 	ld  [ %i4 + -32 ], %i4
    ae1c:	84 10 80 1c 	or  %g2, %i4, %g2
    ae20:	80 a0 40 03 	cmp  %g1, %g3
    ae24:	06 bf ff fb 	bl  ae10 <_Q_sub+0x230>
    ae28:	b9 28 60 02 	sll  %g1, 2, %i4
    ae2c:	80 a1 20 00 	cmp  %g4, 0
    ae30:	22 80 00 0c 	be,a   ae60 <_Q_sub+0x280>
    ae34:	88 10 20 03 	mov  3, %g4
    ae38:	10 80 00 11 	b  ae7c <_Q_sub+0x29c>
    ae3c:	b6 10 20 20 	mov  0x20, %i3
    ae40:	b9 2f 20 02 	sll  %i4, 2, %i4
    ae44:	b8 07 80 1c 	add  %fp, %i4, %i4
    ae48:	f6 07 3f e0 	ld  [ %i4 + -32 ], %i3
    ae4c:	b9 28 60 02 	sll  %g1, 2, %i4
    ae50:	82 00 60 01 	inc  %g1
    ae54:	b8 07 80 1c 	add  %fp, %i4, %i4
    ae58:	10 80 00 04 	b  ae68 <_Q_sub+0x288>
    ae5c:	f6 27 3f e0 	st  %i3, [ %i4 + -32 ]
    ae60:	82 10 20 00 	clr  %g1
    ae64:	88 21 00 03 	sub  %g4, %g3, %g4
    ae68:	80 a0 40 04 	cmp  %g1, %g4
    ae6c:	04 bf ff f5 	ble  ae40 <_Q_sub+0x260>
    ae70:	b8 00 40 03 	add  %g1, %g3, %i4
    ae74:	10 80 00 26 	b  af0c <_Q_sub+0x32c>
    ae78:	80 a0 60 03 	cmp  %g1, 3
    ae7c:	83 28 60 02 	sll  %g1, 2, %g1
    ae80:	b6 26 c0 04 	sub  %i3, %g4, %i3
    ae84:	82 07 80 01 	add  %fp, %g1, %g1
    ae88:	c2 00 7f e0 	ld  [ %g1 + -32 ], %g1
    ae8c:	83 28 40 1b 	sll  %g1, %i3, %g1
    ae90:	b2 10 20 03 	mov  3, %i1
    ae94:	84 10 80 01 	or  %g2, %g1, %g2
    ae98:	b2 26 40 03 	sub  %i1, %g3, %i1
    ae9c:	10 80 00 10 	b  aedc <_Q_sub+0x2fc>
    aea0:	82 10 20 00 	clr  %g1
    aea4:	b4 00 40 03 	add  %g1, %g3, %i2
    aea8:	b8 07 80 1c 	add  %fp, %i4, %i4
    aeac:	b0 06 a0 01 	add  %i2, 1, %i0
    aeb0:	82 00 60 01 	inc  %g1
    aeb4:	b1 2e 20 02 	sll  %i0, 2, %i0
    aeb8:	b5 2e a0 02 	sll  %i2, 2, %i2
    aebc:	b0 07 80 18 	add  %fp, %i0, %i0
    aec0:	b4 07 80 1a 	add  %fp, %i2, %i2
    aec4:	f0 06 3f e0 	ld  [ %i0 + -32 ], %i0
    aec8:	f4 06 bf e0 	ld  [ %i2 + -32 ], %i2
    aecc:	b1 2e 00 1b 	sll  %i0, %i3, %i0
    aed0:	b5 36 80 04 	srl  %i2, %g4, %i2
    aed4:	b4 16 00 1a 	or  %i0, %i2, %i2
    aed8:	f4 27 3f e0 	st  %i2, [ %i4 + -32 ]
    aedc:	80 a0 40 19 	cmp  %g1, %i1
    aee0:	06 bf ff f1 	bl  aea4 <_Q_sub+0x2c4>
    aee4:	b9 28 60 02 	sll  %g1, 2, %i4
    aee8:	c6 07 bf ec 	ld  [ %fp + -20 ], %g3
    aeec:	b8 07 80 1c 	add  %fp, %i4, %i4
    aef0:	89 30 c0 04 	srl  %g3, %g4, %g4
    aef4:	10 80 00 04 	b  af04 <_Q_sub+0x324>
    aef8:	c8 27 3f e0 	st  %g4, [ %i4 + -32 ]
    aefc:	86 07 80 03 	add  %fp, %g3, %g3
    af00:	c0 20 ff e0 	clr  [ %g3 + -32 ]
    af04:	82 00 60 01 	inc  %g1
    af08:	80 a0 60 03 	cmp  %g1, 3
    af0c:	04 bf ff fc 	ble  aefc <_Q_sub+0x31c>
    af10:	87 28 60 02 	sll  %g1, 2, %g3
    af14:	80 a0 00 02 	cmp  %g0, %g2
    af18:	c4 07 bf e0 	ld  [ %fp + -32 ], %g2
    af1c:	82 40 20 00 	addx  %g0, 0, %g1
    af20:	10 80 00 0d 	b  af54 <_Q_sub+0x374>
    af24:	82 10 80 01 	or  %g2, %g1, %g1
    af28:	c2 07 bf e4 	ld  [ %fp + -28 ], %g1
    af2c:	82 10 80 01 	or  %g2, %g1, %g1
    af30:	c4 07 bf ec 	ld  [ %fp + -20 ], %g2
    af34:	82 10 40 02 	or  %g1, %g2, %g1
    af38:	80 90 40 03 	orcc  %g1, %g3, %g0
    af3c:	02 80 00 08 	be  af5c <_Q_sub+0x37c>
    af40:	d8 07 bf e0 	ld  [ %fp + -32 ], %o4
    af44:	c0 27 bf ec 	clr  [ %fp + -20 ]
    af48:	c0 27 bf e8 	clr  [ %fp + -24 ]
    af4c:	c0 27 bf e4 	clr  [ %fp + -28 ]
    af50:	82 10 20 01 	mov  1, %g1
    af54:	c2 27 bf e0 	st  %g1, [ %fp + -32 ]
    af58:	d8 07 bf e0 	ld  [ %fp + -32 ], %o4
    af5c:	f0 07 bf d0 	ld  [ %fp + -48 ], %i0
    af60:	f2 07 bf e4 	ld  [ %fp + -28 ], %i1
    af64:	f4 07 bf d4 	ld  [ %fp + -44 ], %i2
    af68:	f6 07 bf e8 	ld  [ %fp + -24 ], %i3
    af6c:	f8 07 bf d8 	ld  [ %fp + -40 ], %i4
    af70:	c8 07 bf ec 	ld  [ %fp + -20 ], %g4
    af74:	c6 07 bf dc 	ld  [ %fp + -36 ], %g3
    af78:	96 86 00 0c 	addcc  %i0, %o4, %o3
    af7c:	94 c6 80 19 	addxcc  %i2, %i1, %o2
    af80:	84 c7 00 1b 	addxcc  %i4, %i3, %g2
    af84:	82 40 c0 04 	addx  %g3, %g4, %g1
    af88:	d4 27 bf f4 	st  %o2, [ %fp + -12 ]
    af8c:	d6 27 bf f0 	st  %o3, [ %fp + -16 ]
    af90:	c2 27 bf fc 	st  %g1, [ %fp + -4 ]
    af94:	c4 27 bf f8 	st  %g2, [ %fp + -8 ]
    af98:	10 80 01 94 	b  b5e8 <_Q_sub+0xa08>
    af9c:	b8 10 00 0d 	mov  %o5, %i4
    afa0:	80 a0 60 00 	cmp  %g1, 0
    afa4:	02 80 00 c3 	be  b2b0 <_Q_sub+0x6d0>
    afa8:	b8 03 60 01 	add  %o5, 1, %i4
    afac:	80 a3 60 00 	cmp  %o5, 0
    afb0:	12 80 00 4a 	bne  b0d8 <_Q_sub+0x4f8>
    afb4:	82 20 00 01 	neg  %g1
    afb8:	f2 07 bf d4 	ld  [ %fp + -44 ], %i1
    afbc:	f6 07 bf d8 	ld  [ %fp + -40 ], %i3
    afc0:	f8 07 bf dc 	ld  [ %fp + -36 ], %i4
    afc4:	84 16 c0 19 	or  %i3, %i1, %g2
    afc8:	84 10 80 1c 	or  %g2, %i4, %g2
    afcc:	80 90 80 04 	orcc  %g2, %g4, %g0
    afd0:	12 80 00 1e 	bne  b048 <_Q_sub+0x468>
    afd4:	82 80 7f ff 	addcc  %g1, -1, %g1
    afd8:	03 00 00 1f 	sethi  %hi(0x7c00), %g1
    afdc:	82 10 63 ff 	or  %g1, 0x3ff, %g1	! 7fff <_fpmaxtostr+0x5c7>
    afe0:	80 a6 80 01 	cmp  %i2, %g1
    afe4:	12 80 00 0f 	bne  b020 <_Q_sub+0x440>
    afe8:	90 10 20 00 	clr  %o0
    afec:	c2 07 bf ec 	ld  [ %fp + -20 ], %g1
    aff0:	c4 07 bf e4 	ld  [ %fp + -28 ], %g2
    aff4:	c8 07 bf e8 	ld  [ %fp + -24 ], %g4
    aff8:	84 11 00 02 	or  %g4, %g2, %g2
    affc:	84 10 80 01 	or  %g2, %g1, %g2
    b000:	80 90 80 03 	orcc  %g2, %g3, %g0
    b004:	22 80 00 08 	be,a   b024 <_Q_sub+0x444>
    b008:	c2 07 bf e4 	ld  [ %fp + -28 ], %g1
    b00c:	05 00 01 00 	sethi  %hi(0x40000), %g2
    b010:	82 08 40 02 	and  %g1, %g2, %g1
    b014:	80 a0 00 01 	cmp  %g0, %g1
    b018:	90 60 3f ff 	subx  %g0, -1, %o0
    b01c:	91 2a 20 04 	sll  %o0, 4, %o0
    b020:	c2 07 bf e4 	ld  [ %fp + -28 ], %g1
    b024:	c2 27 bf f4 	st  %g1, [ %fp + -12 ]
    b028:	c2 07 bf e8 	ld  [ %fp + -24 ], %g1
    b02c:	c6 27 bf f0 	st  %g3, [ %fp + -16 ]
    b030:	c2 27 bf f8 	st  %g1, [ %fp + -8 ]
    b034:	b8 10 00 1a 	mov  %i2, %i4
    b038:	c2 07 bf ec 	ld  [ %fp + -20 ], %g1
    b03c:	c2 27 bf fc 	st  %g1, [ %fp + -4 ]
    b040:	10 80 04 f8 	b  c420 <_Q_sub+0x1840>
    b044:	b6 10 00 0f 	mov  %o7, %i3
    b048:	12 80 00 0b 	bne  b074 <_Q_sub+0x494>
    b04c:	05 00 00 1f 	sethi  %hi(0x7c00), %g2
    b050:	d8 07 bf e4 	ld  [ %fp + -28 ], %o4
    b054:	da 07 bf e8 	ld  [ %fp + -24 ], %o5
    b058:	f0 07 bf ec 	ld  [ %fp + -20 ], %i0
    b05c:	96 80 c0 04 	addcc  %g3, %g4, %o3
    b060:	94 c3 00 19 	addxcc  %o4, %i1, %o2
    b064:	84 c3 40 1b 	addxcc  %o5, %i3, %g2
    b068:	82 46 00 1c 	addx  %i0, %i4, %g1
    b06c:	10 80 00 8c 	b  b29c <_Q_sub+0x6bc>
    b070:	d4 27 bf f4 	st  %o2, [ %fp + -12 ]
    b074:	84 10 a3 ff 	or  %g2, 0x3ff, %g2
    b078:	80 a6 80 02 	cmp  %i2, %g2
    b07c:	12 80 00 22 	bne  b104 <_Q_sub+0x524>
    b080:	80 a0 60 74 	cmp  %g1, 0x74
    b084:	c8 07 bf e4 	ld  [ %fp + -28 ], %g4
    b088:	c4 07 bf e8 	ld  [ %fp + -24 ], %g2
    b08c:	c2 07 bf ec 	ld  [ %fp + -20 ], %g1
    b090:	b8 10 80 04 	or  %g2, %g4, %i4
    b094:	b8 17 00 01 	or  %i4, %g1, %i4
    b098:	80 97 00 03 	orcc  %i4, %g3, %g0
    b09c:	02 80 00 07 	be  b0b8 <_Q_sub+0x4d8>
    b0a0:	90 10 20 00 	clr  %o0
    b0a4:	39 00 01 00 	sethi  %hi(0x40000), %i4
    b0a8:	b8 08 40 1c 	and  %g1, %i4, %i4
    b0ac:	80 a0 00 1c 	cmp  %g0, %i4
    b0b0:	90 60 3f ff 	subx  %g0, -1, %o0
    b0b4:	91 2a 20 04 	sll  %o0, 4, %o0
    b0b8:	c6 27 bf f0 	st  %g3, [ %fp + -16 ]
    b0bc:	c8 27 bf f4 	st  %g4, [ %fp + -12 ]
    b0c0:	c4 27 bf f8 	st  %g2, [ %fp + -8 ]
    b0c4:	c2 27 bf fc 	st  %g1, [ %fp + -4 ]
    b0c8:	b6 10 00 0f 	mov  %o7, %i3
    b0cc:	39 00 00 1f 	sethi  %hi(0x7c00), %i4
    b0d0:	10 80 04 d4 	b  c420 <_Q_sub+0x1840>
    b0d4:	b8 17 23 ff 	or  %i4, 0x3ff, %i4	! 7fff <_fpmaxtostr+0x5c7>
    b0d8:	05 00 00 1f 	sethi  %hi(0x7c00), %g2
    b0dc:	84 10 a3 ff 	or  %g2, 0x3ff, %g2	! 7fff <_fpmaxtostr+0x5c7>
    b0e0:	80 a6 80 02 	cmp  %i2, %g2
    b0e4:	32 80 00 04 	bne,a   b0f4 <_Q_sub+0x514>
    b0e8:	c6 07 bf dc 	ld  [ %fp + -36 ], %g3
    b0ec:	10 bf ff e7 	b  b088 <_Q_sub+0x4a8>
    b0f0:	c8 07 bf e4 	ld  [ %fp + -28 ], %g4
    b0f4:	05 00 02 00 	sethi  %hi(0x80000), %g2
    b0f8:	84 10 c0 02 	or  %g3, %g2, %g2
    b0fc:	c4 27 bf dc 	st  %g2, [ %fp + -36 ]
    b100:	80 a0 60 74 	cmp  %g1, 0x74
    b104:	34 80 00 4d 	bg,a   b238 <_Q_sub+0x658>
    b108:	c4 07 bf d8 	ld  [ %fp + -40 ], %g2
    b10c:	87 38 60 05 	sra  %g1, 5, %g3
    b110:	b8 08 60 1f 	and  %g1, 0x1f, %i4
    b114:	84 10 20 00 	clr  %g2
    b118:	10 80 00 06 	b  b130 <_Q_sub+0x550>
    b11c:	88 10 20 00 	clr  %g4
    b120:	88 01 20 01 	inc  %g4
    b124:	82 07 80 01 	add  %fp, %g1, %g1
    b128:	c2 00 7f d0 	ld  [ %g1 + -48 ], %g1
    b12c:	84 10 80 01 	or  %g2, %g1, %g2
    b130:	80 a1 00 03 	cmp  %g4, %g3
    b134:	06 bf ff fb 	bl  b120 <_Q_sub+0x540>
    b138:	83 29 20 02 	sll  %g4, 2, %g1
    b13c:	80 a7 20 00 	cmp  %i4, 0
    b140:	22 80 00 0c 	be,a   b170 <_Q_sub+0x590>
    b144:	88 10 20 03 	mov  3, %g4
    b148:	10 80 00 11 	b  b18c <_Q_sub+0x5ac>
    b14c:	b6 10 20 20 	mov  0x20, %i3
    b150:	b9 2f 20 02 	sll  %i4, 2, %i4
    b154:	b8 07 80 1c 	add  %fp, %i4, %i4
    b158:	f6 07 3f d0 	ld  [ %i4 + -48 ], %i3
    b15c:	b9 28 60 02 	sll  %g1, 2, %i4
    b160:	82 00 60 01 	inc  %g1
    b164:	b8 07 80 1c 	add  %fp, %i4, %i4
    b168:	10 80 00 04 	b  b178 <_Q_sub+0x598>
    b16c:	f6 27 3f d0 	st  %i3, [ %i4 + -48 ]
    b170:	82 10 20 00 	clr  %g1
    b174:	88 21 00 03 	sub  %g4, %g3, %g4
    b178:	80 a0 40 04 	cmp  %g1, %g4
    b17c:	04 bf ff f5 	ble  b150 <_Q_sub+0x570>
    b180:	b8 00 40 03 	add  %g1, %g3, %i4
    b184:	10 80 00 26 	b  b21c <_Q_sub+0x63c>
    b188:	80 a0 60 03 	cmp  %g1, 3
    b18c:	89 29 20 02 	sll  %g4, 2, %g4
    b190:	b6 26 c0 1c 	sub  %i3, %i4, %i3
    b194:	88 07 80 04 	add  %fp, %g4, %g4
    b198:	c2 01 3f d0 	ld  [ %g4 + -48 ], %g1
    b19c:	83 28 40 1b 	sll  %g1, %i3, %g1
    b1a0:	b0 10 20 03 	mov  3, %i0
    b1a4:	84 10 80 01 	or  %g2, %g1, %g2
    b1a8:	b0 26 00 03 	sub  %i0, %g3, %i0
    b1ac:	10 80 00 10 	b  b1ec <_Q_sub+0x60c>
    b1b0:	82 10 20 00 	clr  %g1
    b1b4:	b2 00 40 03 	add  %g1, %g3, %i1
    b1b8:	88 07 80 04 	add  %fp, %g4, %g4
    b1bc:	9a 06 60 01 	add  %i1, 1, %o5
    b1c0:	82 00 60 01 	inc  %g1
    b1c4:	9b 2b 60 02 	sll  %o5, 2, %o5
    b1c8:	b3 2e 60 02 	sll  %i1, 2, %i1
    b1cc:	9a 07 80 0d 	add  %fp, %o5, %o5
    b1d0:	b2 07 80 19 	add  %fp, %i1, %i1
    b1d4:	da 03 7f d0 	ld  [ %o5 + -48 ], %o5
    b1d8:	f2 06 7f d0 	ld  [ %i1 + -48 ], %i1
    b1dc:	9b 2b 40 1b 	sll  %o5, %i3, %o5
    b1e0:	b3 36 40 1c 	srl  %i1, %i4, %i1
    b1e4:	b2 13 40 19 	or  %o5, %i1, %i1
    b1e8:	f2 21 3f d0 	st  %i1, [ %g4 + -48 ]
    b1ec:	80 a0 40 18 	cmp  %g1, %i0
    b1f0:	06 bf ff f1 	bl  b1b4 <_Q_sub+0x5d4>
    b1f4:	89 28 60 02 	sll  %g1, 2, %g4
    b1f8:	c6 07 bf dc 	ld  [ %fp + -36 ], %g3
    b1fc:	88 07 80 04 	add  %fp, %g4, %g4
    b200:	b9 30 c0 1c 	srl  %g3, %i4, %i4
    b204:	10 80 00 04 	b  b214 <_Q_sub+0x634>
    b208:	f8 21 3f d0 	st  %i4, [ %g4 + -48 ]
    b20c:	86 07 80 03 	add  %fp, %g3, %g3
    b210:	c0 20 ff d0 	clr  [ %g3 + -48 ]
    b214:	82 00 60 01 	inc  %g1
    b218:	80 a0 60 03 	cmp  %g1, 3
    b21c:	04 bf ff fc 	ble  b20c <_Q_sub+0x62c>
    b220:	87 28 60 02 	sll  %g1, 2, %g3
    b224:	80 a0 00 02 	cmp  %g0, %g2
    b228:	c4 07 bf d0 	ld  [ %fp + -48 ], %g2
    b22c:	82 40 20 00 	addx  %g0, 0, %g1
    b230:	10 80 00 0d 	b  b264 <_Q_sub+0x684>
    b234:	82 10 80 01 	or  %g2, %g1, %g1
    b238:	c2 07 bf d4 	ld  [ %fp + -44 ], %g1
    b23c:	82 10 80 01 	or  %g2, %g1, %g1
    b240:	c4 07 bf dc 	ld  [ %fp + -36 ], %g2
    b244:	82 10 40 02 	or  %g1, %g2, %g1
    b248:	80 90 40 04 	orcc  %g1, %g4, %g0
    b24c:	02 80 00 08 	be  b26c <_Q_sub+0x68c>
    b250:	d8 07 bf d0 	ld  [ %fp + -48 ], %o4
    b254:	c0 27 bf dc 	clr  [ %fp + -36 ]
    b258:	c0 27 bf d8 	clr  [ %fp + -40 ]
    b25c:	c0 27 bf d4 	clr  [ %fp + -44 ]
    b260:	82 10 20 01 	mov  1, %g1
    b264:	c2 27 bf d0 	st  %g1, [ %fp + -48 ]
    b268:	d8 07 bf d0 	ld  [ %fp + -48 ], %o4
    b26c:	da 07 bf e0 	ld  [ %fp + -32 ], %o5
    b270:	f0 07 bf d4 	ld  [ %fp + -44 ], %i0
    b274:	f2 07 bf e4 	ld  [ %fp + -28 ], %i1
    b278:	f6 07 bf d8 	ld  [ %fp + -40 ], %i3
    b27c:	f8 07 bf e8 	ld  [ %fp + -24 ], %i4
    b280:	c8 07 bf dc 	ld  [ %fp + -36 ], %g4
    b284:	c6 07 bf ec 	ld  [ %fp + -20 ], %g3
    b288:	96 83 40 0c 	addcc  %o5, %o4, %o3
    b28c:	94 c6 40 18 	addxcc  %i1, %i0, %o2
    b290:	84 c7 00 1b 	addxcc  %i4, %i3, %g2
    b294:	82 40 c0 04 	addx  %g3, %g4, %g1
    b298:	d4 27 bf f4 	st  %o2, [ %fp + -12 ]
    b29c:	d6 27 bf f0 	st  %o3, [ %fp + -16 ]
    b2a0:	c2 27 bf fc 	st  %g1, [ %fp + -4 ]
    b2a4:	c4 27 bf f8 	st  %g2, [ %fp + -8 ]
    b2a8:	10 80 00 d0 	b  b5e8 <_Q_sub+0xa08>
    b2ac:	b8 10 00 1a 	mov  %i2, %i4
    b2b0:	03 00 00 1f 	sethi  %hi(0x7c00), %g1
    b2b4:	82 10 63 ff 	or  %g1, 0x3ff, %g1	! 7fff <_fpmaxtostr+0x5c7>
    b2b8:	84 0f 00 01 	and  %i4, %g1, %g2
    b2bc:	80 a0 a0 01 	cmp  %g2, 1
    b2c0:	14 80 00 a8 	bg  b560 <_Q_sub+0x980>
    b2c4:	f2 07 bf d8 	ld  [ %fp + -40 ], %i1
    b2c8:	80 a3 60 00 	cmp  %o5, 0
    b2cc:	12 80 00 28 	bne  b36c <_Q_sub+0x78c>
    b2d0:	f8 07 bf dc 	ld  [ %fp + -36 ], %i4
    b2d4:	f0 07 bf d4 	ld  [ %fp + -44 ], %i0
    b2d8:	f4 07 bf e8 	ld  [ %fp + -24 ], %i2
    b2dc:	82 16 40 18 	or  %i1, %i0, %g1
    b2e0:	da 07 bf e4 	ld  [ %fp + -28 ], %o5
    b2e4:	82 10 40 1c 	or  %g1, %i4, %g1
    b2e8:	80 90 40 04 	orcc  %g1, %g4, %g0
    b2ec:	12 80 00 06 	bne  b304 <_Q_sub+0x724>
    b2f0:	f6 07 bf ec 	ld  [ %fp + -20 ], %i3
    b2f4:	c6 27 bf f0 	st  %g3, [ %fp + -16 ]
    b2f8:	da 27 bf f4 	st  %o5, [ %fp + -12 ]
    b2fc:	10 80 04 46 	b  c414 <_Q_sub+0x1834>
    b300:	f4 3f bf f8 	std  %i2, [ %fp + -8 ]
    b304:	82 16 80 0d 	or  %i2, %o5, %g1
    b308:	82 10 40 1b 	or  %g1, %i3, %g1
    b30c:	80 90 40 03 	orcc  %g1, %g3, %g0
    b310:	12 80 00 07 	bne  b32c <_Q_sub+0x74c>
    b314:	01 00 00 00 	nop 
    b318:	c8 27 bf f0 	st  %g4, [ %fp + -16 ]
    b31c:	f0 27 bf f4 	st  %i0, [ %fp + -12 ]
    b320:	f2 27 bf f8 	st  %i1, [ %fp + -8 ]
    b324:	10 80 04 3c 	b  c414 <_Q_sub+0x1834>
    b328:	f8 27 bf fc 	st  %i4, [ %fp + -4 ]
    b32c:	98 81 00 03 	addcc  %g4, %g3, %o4
    b330:	96 c6 00 0d 	addxcc  %i0, %o5, %o3
    b334:	84 c6 40 1a 	addxcc  %i1, %i2, %g2
    b338:	82 47 00 1b 	addx  %i4, %i3, %g1
    b33c:	d6 27 bf f4 	st  %o3, [ %fp + -12 ]
    b340:	d8 27 bf f0 	st  %o4, [ %fp + -16 ]
    b344:	c4 27 bf f8 	st  %g2, [ %fp + -8 ]
    b348:	05 00 02 00 	sethi  %hi(0x80000), %g2
    b34c:	80 88 40 02 	btst  %g1, %g2
    b350:	02 80 04 31 	be  c414 <_Q_sub+0x1834>
    b354:	c2 27 bf fc 	st  %g1, [ %fp + -4 ]
    b358:	82 28 40 02 	andn  %g1, %g2, %g1
    b35c:	b6 10 00 0f 	mov  %o7, %i3
    b360:	c2 27 bf fc 	st  %g1, [ %fp + -4 ]
    b364:	10 80 04 2e 	b  c41c <_Q_sub+0x183c>
    b368:	b8 10 20 01 	mov  1, %i4
    b36c:	80 a3 40 01 	cmp  %o5, %g1
    b370:	12 80 00 0d 	bne  b3a4 <_Q_sub+0x7c4>
    b374:	90 10 20 00 	clr  %o0
    b378:	c2 07 bf d4 	ld  [ %fp + -44 ], %g1
    b37c:	b2 16 40 01 	or  %i1, %g1, %i1
    b380:	b2 16 40 1c 	or  %i1, %i4, %i1
    b384:	80 96 40 04 	orcc  %i1, %g4, %g0
    b388:	02 80 00 08 	be  b3a8 <_Q_sub+0x7c8>
    b38c:	03 00 00 1f 	sethi  %hi(0x7c00), %g1
    b390:	03 00 01 00 	sethi  %hi(0x40000), %g1
    b394:	b8 0f 00 01 	and  %i4, %g1, %i4
    b398:	80 a0 00 1c 	cmp  %g0, %i4
    b39c:	90 60 3f ff 	subx  %g0, -1, %o0
    b3a0:	91 2a 20 04 	sll  %o0, 4, %o0
    b3a4:	03 00 00 1f 	sethi  %hi(0x7c00), %g1
    b3a8:	82 10 63 ff 	or  %g1, 0x3ff, %g1	! 7fff <_fpmaxtostr+0x5c7>
    b3ac:	80 a6 80 01 	cmp  %i2, %g1
    b3b0:	12 80 00 0f 	bne  b3ec <_Q_sub+0x80c>
    b3b4:	f8 07 bf d4 	ld  [ %fp + -44 ], %i4
    b3b8:	c2 07 bf ec 	ld  [ %fp + -20 ], %g1
    b3bc:	c4 07 bf e4 	ld  [ %fp + -28 ], %g2
    b3c0:	f8 07 bf e8 	ld  [ %fp + -24 ], %i4
    b3c4:	84 17 00 02 	or  %i4, %g2, %g2
    b3c8:	84 10 80 01 	or  %g2, %g1, %g2
    b3cc:	80 90 80 03 	orcc  %g2, %g3, %g0
    b3d0:	02 80 00 07 	be  b3ec <_Q_sub+0x80c>
    b3d4:	f8 07 bf d4 	ld  [ %fp + -44 ], %i4
    b3d8:	05 00 01 00 	sethi  %hi(0x40000), %g2
    b3dc:	80 88 40 02 	btst  %g1, %g2
    b3e0:	22 80 00 03 	be,a   b3ec <_Q_sub+0x80c>
    b3e4:	90 10 20 10 	mov  0x10, %o0
    b3e8:	f8 07 bf d4 	ld  [ %fp + -44 ], %i4
    b3ec:	c4 07 bf d8 	ld  [ %fp + -40 ], %g2
    b3f0:	c2 07 bf dc 	ld  [ %fp + -36 ], %g1
    b3f4:	b4 10 80 1c 	or  %g2, %i4, %i2
    b3f8:	b4 16 80 01 	or  %i2, %g1, %i2
    b3fc:	f2 07 bf e8 	ld  [ %fp + -24 ], %i1
    b400:	80 96 80 04 	orcc  %i2, %g4, %g0
    b404:	12 80 00 07 	bne  b420 <_Q_sub+0x840>
    b408:	f4 07 bf e4 	ld  [ %fp + -28 ], %i2
    b40c:	c6 27 bf f0 	st  %g3, [ %fp + -16 ]
    b410:	f4 27 bf f4 	st  %i2, [ %fp + -12 ]
    b414:	f2 27 bf f8 	st  %i1, [ %fp + -8 ]
    b418:	10 bf ff 2b 	b  b0c4 <_Q_sub+0x4e4>
    b41c:	c2 07 bf ec 	ld  [ %fp + -20 ], %g1
    b420:	b4 16 40 1a 	or  %i1, %i2, %i2
    b424:	f0 07 bf ec 	ld  [ %fp + -20 ], %i0
    b428:	b4 16 80 18 	or  %i2, %i0, %i2
    b42c:	80 96 80 03 	orcc  %i2, %g3, %g0
    b430:	32 80 00 05 	bne,a   b444 <_Q_sub+0x864>
    b434:	82 10 20 00 	clr  %g1
    b438:	c8 27 bf f0 	st  %g4, [ %fp + -16 ]
    b43c:	10 bf ff 21 	b  b0c0 <_Q_sub+0x4e0>
    b440:	f8 27 bf f4 	st  %i4, [ %fp + -12 ]
    b444:	84 00 60 01 	add  %g1, 1, %g2
    b448:	87 28 a0 02 	sll  %g2, 2, %g3
    b44c:	86 07 80 03 	add  %fp, %g3, %g3
    b450:	83 28 60 02 	sll  %g1, 2, %g1
    b454:	c8 00 ff d0 	ld  [ %g3 + -48 ], %g4
    b458:	82 07 80 01 	add  %fp, %g1, %g1
    b45c:	89 29 20 1d 	sll  %g4, 0x1d, %g4
    b460:	c6 00 7f d0 	ld  [ %g1 + -48 ], %g3
    b464:	87 30 e0 03 	srl  %g3, 3, %g3
    b468:	86 11 00 03 	or  %g4, %g3, %g3
    b46c:	c6 20 7f d0 	st  %g3, [ %g1 + -48 ]
    b470:	80 a0 a0 03 	cmp  %g2, 3
    b474:	12 bf ff f4 	bne  b444 <_Q_sub+0x864>
    b478:	82 10 00 02 	mov  %g2, %g1
    b47c:	c4 07 bf dc 	ld  [ %fp + -36 ], %g2
    b480:	82 10 20 00 	clr  %g1
    b484:	85 30 a0 03 	srl  %g2, 3, %g2
    b488:	86 00 60 01 	add  %g1, 1, %g3
    b48c:	89 28 e0 02 	sll  %g3, 2, %g4
    b490:	88 07 80 04 	add  %fp, %g4, %g4
    b494:	83 28 60 02 	sll  %g1, 2, %g1
    b498:	f8 01 3f e0 	ld  [ %g4 + -32 ], %i4
    b49c:	82 07 80 01 	add  %fp, %g1, %g1
    b4a0:	b9 2f 20 1d 	sll  %i4, 0x1d, %i4
    b4a4:	c8 00 7f e0 	ld  [ %g1 + -32 ], %g4
    b4a8:	89 31 20 03 	srl  %g4, 3, %g4
    b4ac:	88 17 00 04 	or  %i4, %g4, %g4
    b4b0:	c8 20 7f e0 	st  %g4, [ %g1 + -32 ]
    b4b4:	80 a0 e0 03 	cmp  %g3, 3
    b4b8:	12 bf ff f4 	bne  b488 <_Q_sub+0x8a8>
    b4bc:	82 10 00 03 	mov  %g3, %g1
    b4c0:	c2 07 bf ec 	ld  [ %fp + -20 ], %g1
    b4c4:	07 00 00 20 	sethi  %hi(0x8000), %g3
    b4c8:	80 88 80 03 	btst  %g2, %g3
    b4cc:	02 80 00 0d 	be  b500 <_Q_sub+0x920>
    b4d0:	83 30 60 03 	srl  %g1, 3, %g1
    b4d4:	80 88 40 03 	btst  %g1, %g3
    b4d8:	32 80 00 0b 	bne,a   b504 <_Q_sub+0x924>
    b4dc:	c2 07 bf d0 	ld  [ %fp + -48 ], %g1
    b4e0:	c4 07 bf e0 	ld  [ %fp + -32 ], %g2
    b4e4:	c4 27 bf f0 	st  %g2, [ %fp + -16 ]
    b4e8:	c4 07 bf e4 	ld  [ %fp + -28 ], %g2
    b4ec:	c2 27 bf fc 	st  %g1, [ %fp + -4 ]
    b4f0:	c4 27 bf f4 	st  %g2, [ %fp + -12 ]
    b4f4:	c4 07 bf e8 	ld  [ %fp + -24 ], %g2
    b4f8:	10 80 00 0a 	b  b520 <_Q_sub+0x940>
    b4fc:	c4 27 bf f8 	st  %g2, [ %fp + -8 ]
    b500:	c2 07 bf d0 	ld  [ %fp + -48 ], %g1
    b504:	c2 27 bf f0 	st  %g1, [ %fp + -16 ]
    b508:	c2 07 bf d4 	ld  [ %fp + -44 ], %g1
    b50c:	c4 27 bf fc 	st  %g2, [ %fp + -4 ]
    b510:	c2 27 bf f4 	st  %g1, [ %fp + -12 ]
    b514:	b6 10 00 0f 	mov  %o7, %i3
    b518:	c2 07 bf d8 	ld  [ %fp + -40 ], %g1
    b51c:	c2 27 bf f8 	st  %g1, [ %fp + -8 ]
    b520:	82 10 20 03 	mov  3, %g1
    b524:	85 28 60 02 	sll  %g1, 2, %g2
    b528:	82 00 7f ff 	add  %g1, -1, %g1
    b52c:	87 28 60 02 	sll  %g1, 2, %g3
    b530:	86 07 80 03 	add  %fp, %g3, %g3
    b534:	84 07 80 02 	add  %fp, %g2, %g2
    b538:	c8 00 ff f0 	ld  [ %g3 + -16 ], %g4
    b53c:	c6 00 bf f0 	ld  [ %g2 + -16 ], %g3
    b540:	89 31 20 1d 	srl  %g4, 0x1d, %g4
    b544:	87 28 e0 03 	sll  %g3, 3, %g3
    b548:	86 11 00 03 	or  %g4, %g3, %g3
    b54c:	80 a0 60 00 	cmp  %g1, 0
    b550:	12 bf ff f5 	bne  b524 <_Q_sub+0x944>
    b554:	c6 20 bf f0 	st  %g3, [ %g2 + -16 ]
    b558:	10 80 02 c9 	b  c07c <_Q_sub+0x149c>
    b55c:	c2 07 bf f0 	ld  [ %fp + -16 ], %g1
    b560:	d6 07 bf e4 	ld  [ %fp + -28 ], %o3
    b564:	d8 07 bf d4 	ld  [ %fp + -44 ], %o4
    b568:	da 07 bf e8 	ld  [ %fp + -24 ], %o5
    b56c:	f0 07 bf ec 	ld  [ %fp + -20 ], %i0
    b570:	f4 07 bf dc 	ld  [ %fp + -36 ], %i2
    b574:	b6 81 00 03 	addcc  %g4, %g3, %i3
    b578:	94 c3 00 0b 	addxcc  %o4, %o3, %o2
    b57c:	84 c6 40 0d 	addxcc  %i1, %o5, %g2
    b580:	82 46 80 18 	addx  %i2, %i0, %g1
    b584:	d4 27 bf f4 	st  %o2, [ %fp + -12 ]
    b588:	f6 27 bf f0 	st  %i3, [ %fp + -16 ]
    b58c:	c2 27 bf fc 	st  %g1, [ %fp + -4 ]
    b590:	c4 27 bf f8 	st  %g2, [ %fp + -8 ]
    b594:	b7 2e e0 1f 	sll  %i3, 0x1f, %i3
    b598:	82 10 20 00 	clr  %g1
    b59c:	84 00 60 01 	add  %g1, 1, %g2
    b5a0:	87 28 a0 02 	sll  %g2, 2, %g3
    b5a4:	86 07 80 03 	add  %fp, %g3, %g3
    b5a8:	83 28 60 02 	sll  %g1, 2, %g1
    b5ac:	c8 00 ff f0 	ld  [ %g3 + -16 ], %g4
    b5b0:	82 07 80 01 	add  %fp, %g1, %g1
    b5b4:	89 29 20 1f 	sll  %g4, 0x1f, %g4
    b5b8:	c6 00 7f f0 	ld  [ %g1 + -16 ], %g3
    b5bc:	87 30 e0 01 	srl  %g3, 1, %g3
    b5c0:	86 11 00 03 	or  %g4, %g3, %g3
    b5c4:	c6 20 7f f0 	st  %g3, [ %g1 + -16 ]
    b5c8:	80 a0 a0 03 	cmp  %g2, 3
    b5cc:	12 bf ff f4 	bne  b59c <_Q_sub+0x9bc>
    b5d0:	82 10 00 02 	mov  %g2, %g1
    b5d4:	c2 07 bf fc 	ld  [ %fp + -4 ], %g1
    b5d8:	80 a0 00 1b 	cmp  %g0, %i3
    b5dc:	83 30 60 01 	srl  %g1, 1, %g1
    b5e0:	10 80 00 1f 	b  b65c <_Q_sub+0xa7c>
    b5e4:	c2 27 bf fc 	st  %g1, [ %fp + -4 ]
    b5e8:	c2 07 bf fc 	ld  [ %fp + -4 ], %g1
    b5ec:	05 00 02 00 	sethi  %hi(0x80000), %g2
    b5f0:	80 88 40 02 	btst  %g1, %g2
    b5f4:	02 80 03 8a 	be  c41c <_Q_sub+0x183c>
    b5f8:	b6 10 00 0f 	mov  %o7, %i3
    b5fc:	82 28 40 02 	andn  %g1, %g2, %g1
    b600:	c6 07 bf f0 	ld  [ %fp + -16 ], %g3
    b604:	c2 27 bf fc 	st  %g1, [ %fp + -4 ]
    b608:	b8 07 20 01 	inc  %i4
    b60c:	87 28 e0 1f 	sll  %g3, 0x1f, %g3
    b610:	82 10 20 00 	clr  %g1
    b614:	84 00 60 01 	add  %g1, 1, %g2
    b618:	89 28 a0 02 	sll  %g2, 2, %g4
    b61c:	88 07 80 04 	add  %fp, %g4, %g4
    b620:	83 28 60 02 	sll  %g1, 2, %g1
    b624:	f6 01 3f f0 	ld  [ %g4 + -16 ], %i3
    b628:	82 07 80 01 	add  %fp, %g1, %g1
    b62c:	b7 2e e0 1f 	sll  %i3, 0x1f, %i3
    b630:	c8 00 7f f0 	ld  [ %g1 + -16 ], %g4
    b634:	89 31 20 01 	srl  %g4, 1, %g4
    b638:	88 16 c0 04 	or  %i3, %g4, %g4
    b63c:	c8 20 7f f0 	st  %g4, [ %g1 + -16 ]
    b640:	80 a0 a0 03 	cmp  %g2, 3
    b644:	12 bf ff f4 	bne  b614 <_Q_sub+0xa34>
    b648:	82 10 00 02 	mov  %g2, %g1
    b64c:	c2 07 bf fc 	ld  [ %fp + -4 ], %g1
    b650:	80 a0 00 03 	cmp  %g0, %g3
    b654:	83 30 60 01 	srl  %g1, 1, %g1
    b658:	c2 27 bf fc 	st  %g1, [ %fp + -4 ]
    b65c:	82 40 20 00 	addx  %g0, 0, %g1
    b660:	c4 07 bf f0 	ld  [ %fp + -16 ], %g2
    b664:	82 10 80 01 	or  %g2, %g1, %g1
    b668:	c2 27 bf f0 	st  %g1, [ %fp + -16 ]
    b66c:	b6 10 00 0f 	mov  %o7, %i3
    b670:	03 00 00 1f 	sethi  %hi(0x7c00), %g1
    b674:	82 10 63 ff 	or  %g1, 0x3ff, %g1	! 7fff <_fpmaxtostr+0x5c7>
    b678:	80 a7 00 01 	cmp  %i4, %g1
    b67c:	12 80 03 69 	bne  c420 <_Q_sub+0x1840>
    b680:	90 10 20 00 	clr  %o0
    b684:	c2 07 bf 9c 	ld  [ %fp + -100 ], %g1
    b688:	83 30 60 1e 	srl  %g1, 0x1e, %g1
    b68c:	80 a0 60 00 	cmp  %g1, 0
    b690:	22 80 00 0f 	be,a   b6cc <_Q_sub+0xaec>
    b694:	39 00 00 1f 	sethi  %hi(0x7c00), %i4
    b698:	80 a0 60 02 	cmp  %g1, 2
    b69c:	12 80 00 07 	bne  b6b8 <_Q_sub+0xad8>
    b6a0:	80 a0 60 03 	cmp  %g1, 3
    b6a4:	80 a3 e0 00 	cmp  %o7, 0
    b6a8:	22 80 00 09 	be,a   b6cc <_Q_sub+0xaec>
    b6ac:	39 00 00 1f 	sethi  %hi(0x7c00), %i4
    b6b0:	10 80 00 0e 	b  b6e8 <_Q_sub+0xb08>
    b6b4:	82 10 3f ff 	mov  -1, %g1
    b6b8:	12 80 00 0c 	bne  b6e8 <_Q_sub+0xb08>
    b6bc:	82 10 3f ff 	mov  -1, %g1
    b6c0:	80 a3 e0 00 	cmp  %o7, 0
    b6c4:	02 80 00 0a 	be  b6ec <_Q_sub+0xb0c>
    b6c8:	39 00 00 1f 	sethi  %hi(0x7c00), %i4
    b6cc:	c0 27 bf fc 	clr  [ %fp + -4 ]
    b6d0:	c0 27 bf f8 	clr  [ %fp + -8 ]
    b6d4:	c0 27 bf f4 	clr  [ %fp + -12 ]
    b6d8:	c0 27 bf f0 	clr  [ %fp + -16 ]
    b6dc:	b6 10 00 0f 	mov  %o7, %i3
    b6e0:	10 80 00 09 	b  b704 <_Q_sub+0xb24>
    b6e4:	b8 17 23 ff 	or  %i4, 0x3ff, %i4
    b6e8:	39 00 00 1f 	sethi  %hi(0x7c00), %i4
    b6ec:	c2 27 bf fc 	st  %g1, [ %fp + -4 ]
    b6f0:	c2 27 bf f8 	st  %g1, [ %fp + -8 ]
    b6f4:	c2 27 bf f4 	st  %g1, [ %fp + -12 ]
    b6f8:	c2 27 bf f0 	st  %g1, [ %fp + -16 ]
    b6fc:	b6 10 00 0f 	mov  %o7, %i3
    b700:	b8 17 23 fe 	or  %i4, 0x3fe, %i4
    b704:	10 80 03 47 	b  c420 <_Q_sub+0x1840>
    b708:	90 10 20 09 	mov  9, %o0
    b70c:	80 a0 60 00 	cmp  %g1, 0
    b710:	04 80 00 bb 	ble  b9fc <_Q_sub+0xe1c>
    b714:	80 a6 a0 00 	cmp  %i2, 0
    b718:	32 80 00 35 	bne,a   b7ec <_Q_sub+0xc0c>
    b71c:	03 00 00 1f 	sethi  %hi(0x7c00), %g1
    b720:	f4 07 bf e4 	ld  [ %fp + -28 ], %i2
    b724:	f6 07 bf e8 	ld  [ %fp + -24 ], %i3
    b728:	f8 07 bf ec 	ld  [ %fp + -20 ], %i4
    b72c:	84 16 c0 1a 	or  %i3, %i2, %g2
    b730:	84 10 80 1c 	or  %g2, %i4, %g2
    b734:	80 90 80 03 	orcc  %g2, %g3, %g0
    b738:	12 80 00 1d 	bne  b7ac <_Q_sub+0xbcc>
    b73c:	84 80 7f ff 	addcc  %g1, -1, %g2
    b740:	03 00 00 1f 	sethi  %hi(0x7c00), %g1
    b744:	82 10 63 ff 	or  %g1, 0x3ff, %g1	! 7fff <_fpmaxtostr+0x5c7>
    b748:	80 a3 40 01 	cmp  %o5, %g1
    b74c:	12 80 00 0f 	bne  b788 <_Q_sub+0xba8>
    b750:	90 10 20 00 	clr  %o0
    b754:	c2 07 bf dc 	ld  [ %fp + -36 ], %g1
    b758:	c4 07 bf d4 	ld  [ %fp + -44 ], %g2
    b75c:	c6 07 bf d8 	ld  [ %fp + -40 ], %g3
    b760:	84 10 c0 02 	or  %g3, %g2, %g2
    b764:	84 10 80 01 	or  %g2, %g1, %g2
    b768:	80 90 80 04 	orcc  %g2, %g4, %g0
    b76c:	22 80 00 08 	be,a   b78c <_Q_sub+0xbac>
    b770:	c2 07 bf d4 	ld  [ %fp + -44 ], %g1
    b774:	05 00 01 00 	sethi  %hi(0x40000), %g2
    b778:	82 08 40 02 	and  %g1, %g2, %g1
    b77c:	80 a0 00 01 	cmp  %g0, %g1
    b780:	90 60 3f ff 	subx  %g0, -1, %o0
    b784:	91 2a 20 04 	sll  %o0, 4, %o0
    b788:	c2 07 bf d4 	ld  [ %fp + -44 ], %g1
    b78c:	c2 27 bf f4 	st  %g1, [ %fp + -12 ]
    b790:	c2 07 bf d8 	ld  [ %fp + -40 ], %g1
    b794:	c8 27 bf f0 	st  %g4, [ %fp + -16 ]
    b798:	c2 27 bf f8 	st  %g1, [ %fp + -8 ]
    b79c:	b8 10 00 0d 	mov  %o5, %i4
    b7a0:	c2 07 bf dc 	ld  [ %fp + -36 ], %g1
    b7a4:	10 bf fe 27 	b  b040 <_Q_sub+0x460>
    b7a8:	c2 27 bf fc 	st  %g1, [ %fp + -4 ]
    b7ac:	12 80 00 0a 	bne  b7d4 <_Q_sub+0xbf4>
    b7b0:	03 00 00 1f 	sethi  %hi(0x7c00), %g1
    b7b4:	d8 07 bf d4 	ld  [ %fp + -44 ], %o4
    b7b8:	f0 1f bf d8 	ldd  [ %fp + -40 ], %i0
    b7bc:	96 a1 00 03 	subcc  %g4, %g3, %o3
    b7c0:	94 e3 00 1a 	subxcc  %o4, %i2, %o2
    b7c4:	84 e6 00 1b 	subxcc  %i0, %i3, %g2
    b7c8:	82 66 40 1c 	subx  %i1, %i4, %g1
    b7cc:	10 80 00 86 	b  b9e4 <_Q_sub+0xe04>
    b7d0:	d4 27 bf f4 	st  %o2, [ %fp + -12 ]
    b7d4:	82 10 63 ff 	or  %g1, 0x3ff, %g1
    b7d8:	80 a3 40 01 	cmp  %o5, %g1
    b7dc:	12 80 00 1c 	bne  b84c <_Q_sub+0xc6c>
    b7e0:	80 a0 a0 74 	cmp  %g2, 0x74
    b7e4:	10 80 00 07 	b  b800 <_Q_sub+0xc20>
    b7e8:	c6 07 bf d4 	ld  [ %fp + -44 ], %g3
    b7ec:	82 10 63 ff 	or  %g1, 0x3ff, %g1
    b7f0:	80 a3 40 01 	cmp  %o5, %g1
    b7f4:	32 80 00 12 	bne,a   b83c <_Q_sub+0xc5c>
    b7f8:	c8 07 bf ec 	ld  [ %fp + -20 ], %g4
    b7fc:	c6 07 bf d4 	ld  [ %fp + -44 ], %g3
    b800:	c4 07 bf d8 	ld  [ %fp + -40 ], %g2
    b804:	c2 07 bf dc 	ld  [ %fp + -36 ], %g1
    b808:	b8 10 80 03 	or  %g2, %g3, %i4
    b80c:	b8 17 00 01 	or  %i4, %g1, %i4
    b810:	80 97 00 04 	orcc  %i4, %g4, %g0
    b814:	02 80 00 07 	be  b830 <_Q_sub+0xc50>
    b818:	90 10 20 00 	clr  %o0
    b81c:	39 00 01 00 	sethi  %hi(0x40000), %i4
    b820:	b8 08 40 1c 	and  %g1, %i4, %i4
    b824:	80 a0 00 1c 	cmp  %g0, %i4
    b828:	90 60 3f ff 	subx  %g0, -1, %o0
    b82c:	91 2a 20 04 	sll  %o0, 4, %o0
    b830:	c8 27 bf f0 	st  %g4, [ %fp + -16 ]
    b834:	10 bf fe 23 	b  b0c0 <_Q_sub+0x4e0>
    b838:	c6 27 bf f4 	st  %g3, [ %fp + -12 ]
    b83c:	03 00 02 00 	sethi  %hi(0x80000), %g1
    b840:	82 11 00 01 	or  %g4, %g1, %g1
    b844:	c2 27 bf ec 	st  %g1, [ %fp + -20 ]
    b848:	80 a0 a0 74 	cmp  %g2, 0x74
    b84c:	34 80 00 4d 	bg,a   b980 <_Q_sub+0xda0>
    b850:	c4 07 bf e8 	ld  [ %fp + -24 ], %g2
    b854:	87 38 a0 05 	sra  %g2, 5, %g3
    b858:	88 08 a0 1f 	and  %g2, 0x1f, %g4
    b85c:	82 10 20 00 	clr  %g1
    b860:	10 80 00 06 	b  b878 <_Q_sub+0xc98>
    b864:	84 10 20 00 	clr  %g2
    b868:	82 00 60 01 	inc  %g1
    b86c:	b8 07 80 1c 	add  %fp, %i4, %i4
    b870:	f8 07 3f e0 	ld  [ %i4 + -32 ], %i4
    b874:	84 10 80 1c 	or  %g2, %i4, %g2
    b878:	80 a0 40 03 	cmp  %g1, %g3
    b87c:	06 bf ff fb 	bl  b868 <_Q_sub+0xc88>
    b880:	b9 28 60 02 	sll  %g1, 2, %i4
    b884:	80 a1 20 00 	cmp  %g4, 0
    b888:	22 80 00 0c 	be,a   b8b8 <_Q_sub+0xcd8>
    b88c:	88 10 20 03 	mov  3, %g4
    b890:	10 80 00 11 	b  b8d4 <_Q_sub+0xcf4>
    b894:	b6 10 20 20 	mov  0x20, %i3
    b898:	b9 2f 20 02 	sll  %i4, 2, %i4
    b89c:	b8 07 80 1c 	add  %fp, %i4, %i4
    b8a0:	f6 07 3f e0 	ld  [ %i4 + -32 ], %i3
    b8a4:	b9 28 60 02 	sll  %g1, 2, %i4
    b8a8:	82 00 60 01 	inc  %g1
    b8ac:	b8 07 80 1c 	add  %fp, %i4, %i4
    b8b0:	10 80 00 04 	b  b8c0 <_Q_sub+0xce0>
    b8b4:	f6 27 3f e0 	st  %i3, [ %i4 + -32 ]
    b8b8:	82 10 20 00 	clr  %g1
    b8bc:	88 21 00 03 	sub  %g4, %g3, %g4
    b8c0:	80 a0 40 04 	cmp  %g1, %g4
    b8c4:	04 bf ff f5 	ble  b898 <_Q_sub+0xcb8>
    b8c8:	b8 00 40 03 	add  %g1, %g3, %i4
    b8cc:	10 80 00 26 	b  b964 <_Q_sub+0xd84>
    b8d0:	80 a0 60 03 	cmp  %g1, 3
    b8d4:	83 28 60 02 	sll  %g1, 2, %g1
    b8d8:	b6 26 c0 04 	sub  %i3, %g4, %i3
    b8dc:	82 07 80 01 	add  %fp, %g1, %g1
    b8e0:	c2 00 7f e0 	ld  [ %g1 + -32 ], %g1
    b8e4:	83 28 40 1b 	sll  %g1, %i3, %g1
    b8e8:	b2 10 20 03 	mov  3, %i1
    b8ec:	84 10 80 01 	or  %g2, %g1, %g2
    b8f0:	b2 26 40 03 	sub  %i1, %g3, %i1
    b8f4:	10 80 00 10 	b  b934 <_Q_sub+0xd54>
    b8f8:	82 10 20 00 	clr  %g1
    b8fc:	b4 00 40 03 	add  %g1, %g3, %i2
    b900:	b8 07 80 1c 	add  %fp, %i4, %i4
    b904:	b0 06 a0 01 	add  %i2, 1, %i0
    b908:	82 00 60 01 	inc  %g1
    b90c:	b1 2e 20 02 	sll  %i0, 2, %i0
    b910:	b5 2e a0 02 	sll  %i2, 2, %i2
    b914:	b0 07 80 18 	add  %fp, %i0, %i0
    b918:	b4 07 80 1a 	add  %fp, %i2, %i2
    b91c:	f0 06 3f e0 	ld  [ %i0 + -32 ], %i0
    b920:	f4 06 bf e0 	ld  [ %i2 + -32 ], %i2
    b924:	b1 2e 00 1b 	sll  %i0, %i3, %i0
    b928:	b5 36 80 04 	srl  %i2, %g4, %i2
    b92c:	b4 16 00 1a 	or  %i0, %i2, %i2
    b930:	f4 27 3f e0 	st  %i2, [ %i4 + -32 ]
    b934:	80 a0 40 19 	cmp  %g1, %i1
    b938:	06 bf ff f1 	bl  b8fc <_Q_sub+0xd1c>
    b93c:	b9 28 60 02 	sll  %g1, 2, %i4
    b940:	c6 07 bf ec 	ld  [ %fp + -20 ], %g3
    b944:	b8 07 80 1c 	add  %fp, %i4, %i4
    b948:	89 30 c0 04 	srl  %g3, %g4, %g4
    b94c:	10 80 00 04 	b  b95c <_Q_sub+0xd7c>
    b950:	c8 27 3f e0 	st  %g4, [ %i4 + -32 ]
    b954:	86 07 80 03 	add  %fp, %g3, %g3
    b958:	c0 20 ff e0 	clr  [ %g3 + -32 ]
    b95c:	82 00 60 01 	inc  %g1
    b960:	80 a0 60 03 	cmp  %g1, 3
    b964:	04 bf ff fc 	ble  b954 <_Q_sub+0xd74>
    b968:	87 28 60 02 	sll  %g1, 2, %g3
    b96c:	80 a0 00 02 	cmp  %g0, %g2
    b970:	c4 07 bf e0 	ld  [ %fp + -32 ], %g2
    b974:	82 40 20 00 	addx  %g0, 0, %g1
    b978:	10 80 00 0d 	b  b9ac <_Q_sub+0xdcc>
    b97c:	82 10 80 01 	or  %g2, %g1, %g1
    b980:	c2 07 bf e4 	ld  [ %fp + -28 ], %g1
    b984:	82 10 80 01 	or  %g2, %g1, %g1
    b988:	c4 07 bf ec 	ld  [ %fp + -20 ], %g2
    b98c:	82 10 40 02 	or  %g1, %g2, %g1
    b990:	80 90 40 03 	orcc  %g1, %g3, %g0
    b994:	02 80 00 08 	be  b9b4 <_Q_sub+0xdd4>
    b998:	d8 07 bf e0 	ld  [ %fp + -32 ], %o4
    b99c:	c0 27 bf ec 	clr  [ %fp + -20 ]
    b9a0:	c0 27 bf e8 	clr  [ %fp + -24 ]
    b9a4:	c0 27 bf e4 	clr  [ %fp + -28 ]
    b9a8:	82 10 20 01 	mov  1, %g1
    b9ac:	c2 27 bf e0 	st  %g1, [ %fp + -32 ]
    b9b0:	d8 07 bf e0 	ld  [ %fp + -32 ], %o4
    b9b4:	f0 07 bf d0 	ld  [ %fp + -48 ], %i0
    b9b8:	f2 07 bf e4 	ld  [ %fp + -28 ], %i1
    b9bc:	f4 07 bf d4 	ld  [ %fp + -44 ], %i2
    b9c0:	f6 07 bf e8 	ld  [ %fp + -24 ], %i3
    b9c4:	f8 07 bf d8 	ld  [ %fp + -40 ], %i4
    b9c8:	c8 07 bf ec 	ld  [ %fp + -20 ], %g4
    b9cc:	c6 07 bf dc 	ld  [ %fp + -36 ], %g3
    b9d0:	96 a6 00 0c 	subcc  %i0, %o4, %o3
    b9d4:	94 e6 80 19 	subxcc  %i2, %i1, %o2
    b9d8:	84 e7 00 1b 	subxcc  %i4, %i3, %g2
    b9dc:	82 60 c0 04 	subx  %g3, %g4, %g1
    b9e0:	d4 27 bf f4 	st  %o2, [ %fp + -12 ]
    b9e4:	d6 27 bf f0 	st  %o3, [ %fp + -16 ]
    b9e8:	c2 27 bf fc 	st  %g1, [ %fp + -4 ]
    b9ec:	c4 27 bf f8 	st  %g2, [ %fp + -8 ]
    b9f0:	b8 10 00 0d 	mov  %o5, %i4
    b9f4:	10 80 01 cc 	b  c124 <_Q_sub+0x1544>
    b9f8:	b6 10 00 0f 	mov  %o7, %i3
    b9fc:	80 a0 60 00 	cmp  %g1, 0
    ba00:	02 80 00 be 	be  bcf8 <_Q_sub+0x1118>
    ba04:	84 03 60 01 	add  %o5, 1, %g2
    ba08:	80 a3 60 00 	cmp  %o5, 0
    ba0c:	12 80 00 36 	bne  bae4 <_Q_sub+0xf04>
    ba10:	82 20 00 01 	neg  %g1
    ba14:	f0 07 bf d4 	ld  [ %fp + -44 ], %i0
    ba18:	f2 07 bf d8 	ld  [ %fp + -40 ], %i1
    ba1c:	f8 07 bf dc 	ld  [ %fp + -36 ], %i4
    ba20:	84 16 40 18 	or  %i1, %i0, %g2
    ba24:	84 10 80 1c 	or  %g2, %i4, %g2
    ba28:	80 90 80 04 	orcc  %g2, %g4, %g0
    ba2c:	12 80 00 1d 	bne  baa0 <_Q_sub+0xec0>
    ba30:	82 80 7f ff 	addcc  %g1, -1, %g1
    ba34:	03 00 00 1f 	sethi  %hi(0x7c00), %g1
    ba38:	82 10 63 ff 	or  %g1, 0x3ff, %g1	! 7fff <_fpmaxtostr+0x5c7>
    ba3c:	80 a6 80 01 	cmp  %i2, %g1
    ba40:	12 80 00 0f 	bne  ba7c <_Q_sub+0xe9c>
    ba44:	90 10 20 00 	clr  %o0
    ba48:	c2 07 bf ec 	ld  [ %fp + -20 ], %g1
    ba4c:	c4 07 bf e4 	ld  [ %fp + -28 ], %g2
    ba50:	c8 07 bf e8 	ld  [ %fp + -24 ], %g4
    ba54:	84 11 00 02 	or  %g4, %g2, %g2
    ba58:	84 10 80 01 	or  %g2, %g1, %g2
    ba5c:	80 90 80 03 	orcc  %g2, %g3, %g0
    ba60:	22 80 00 08 	be,a   ba80 <_Q_sub+0xea0>
    ba64:	c2 07 bf e4 	ld  [ %fp + -28 ], %g1
    ba68:	05 00 01 00 	sethi  %hi(0x40000), %g2
    ba6c:	82 08 40 02 	and  %g1, %g2, %g1
    ba70:	80 a0 00 01 	cmp  %g0, %g1
    ba74:	90 60 3f ff 	subx  %g0, -1, %o0
    ba78:	91 2a 20 04 	sll  %o0, 4, %o0
    ba7c:	c2 07 bf e4 	ld  [ %fp + -28 ], %g1
    ba80:	c2 27 bf f4 	st  %g1, [ %fp + -12 ]
    ba84:	c2 07 bf e8 	ld  [ %fp + -24 ], %g1
    ba88:	c6 27 bf f0 	st  %g3, [ %fp + -16 ]
    ba8c:	c2 27 bf f8 	st  %g1, [ %fp + -8 ]
    ba90:	b8 10 00 1a 	mov  %i2, %i4
    ba94:	c2 07 bf ec 	ld  [ %fp + -20 ], %g1
    ba98:	10 80 02 62 	b  c420 <_Q_sub+0x1840>
    ba9c:	c2 27 bf fc 	st  %g1, [ %fp + -4 ]
    baa0:	12 80 00 0b 	bne  bacc <_Q_sub+0xeec>
    baa4:	05 00 00 1f 	sethi  %hi(0x7c00), %g2
    baa8:	d8 07 bf e4 	ld  [ %fp + -28 ], %o4
    baac:	da 07 bf e8 	ld  [ %fp + -24 ], %o5
    bab0:	de 07 bf ec 	ld  [ %fp + -20 ], %o7
    bab4:	96 a0 c0 04 	subcc  %g3, %g4, %o3
    bab8:	94 e3 00 18 	subxcc  %o4, %i0, %o2
    babc:	84 e3 40 19 	subxcc  %o5, %i1, %g2
    bac0:	82 63 c0 1c 	subx  %o7, %i4, %g1
    bac4:	10 80 00 88 	b  bce4 <_Q_sub+0x1104>
    bac8:	d4 27 bf f4 	st  %o2, [ %fp + -12 ]
    bacc:	84 10 a3 ff 	or  %g2, 0x3ff, %g2
    bad0:	80 a6 80 02 	cmp  %i2, %g2
    bad4:	12 80 00 1e 	bne  bb4c <_Q_sub+0xf6c>
    bad8:	80 a0 60 74 	cmp  %g1, 0x74
    badc:	10 80 00 08 	b  bafc <_Q_sub+0xf1c>
    bae0:	c8 07 bf e4 	ld  [ %fp + -28 ], %g4
    bae4:	05 00 00 1f 	sethi  %hi(0x7c00), %g2
    bae8:	84 10 a3 ff 	or  %g2, 0x3ff, %g2	! 7fff <_fpmaxtostr+0x5c7>
    baec:	80 a6 80 02 	cmp  %i2, %g2
    baf0:	32 80 00 13 	bne,a   bb3c <_Q_sub+0xf5c>
    baf4:	c6 07 bf dc 	ld  [ %fp + -36 ], %g3
    baf8:	c8 07 bf e4 	ld  [ %fp + -28 ], %g4
    bafc:	c4 07 bf e8 	ld  [ %fp + -24 ], %g2
    bb00:	c2 07 bf ec 	ld  [ %fp + -20 ], %g1
    bb04:	b8 10 80 04 	or  %g2, %g4, %i4
    bb08:	b8 17 00 01 	or  %i4, %g1, %i4
    bb0c:	80 97 00 03 	orcc  %i4, %g3, %g0
    bb10:	02 80 00 07 	be  bb2c <_Q_sub+0xf4c>
    bb14:	90 10 20 00 	clr  %o0
    bb18:	39 00 01 00 	sethi  %hi(0x40000), %i4
    bb1c:	b8 08 40 1c 	and  %g1, %i4, %i4
    bb20:	80 a0 00 1c 	cmp  %g0, %i4
    bb24:	90 60 3f ff 	subx  %g0, -1, %o0
    bb28:	91 2a 20 04 	sll  %o0, 4, %o0
    bb2c:	c6 27 bf f0 	st  %g3, [ %fp + -16 ]
    bb30:	c8 27 bf f4 	st  %g4, [ %fp + -12 ]
    bb34:	10 80 01 00 	b  bf34 <_Q_sub+0x1354>
    bb38:	c4 27 bf f8 	st  %g2, [ %fp + -8 ]
    bb3c:	05 00 02 00 	sethi  %hi(0x80000), %g2
    bb40:	84 10 c0 02 	or  %g3, %g2, %g2
    bb44:	c4 27 bf dc 	st  %g2, [ %fp + -36 ]
    bb48:	80 a0 60 74 	cmp  %g1, 0x74
    bb4c:	34 80 00 4d 	bg,a   bc80 <_Q_sub+0x10a0>
    bb50:	c4 07 bf d8 	ld  [ %fp + -40 ], %g2
    bb54:	87 38 60 05 	sra  %g1, 5, %g3
    bb58:	b8 08 60 1f 	and  %g1, 0x1f, %i4
    bb5c:	84 10 20 00 	clr  %g2
    bb60:	10 80 00 06 	b  bb78 <_Q_sub+0xf98>
    bb64:	88 10 20 00 	clr  %g4
    bb68:	88 01 20 01 	inc  %g4
    bb6c:	82 07 80 01 	add  %fp, %g1, %g1
    bb70:	c2 00 7f d0 	ld  [ %g1 + -48 ], %g1
    bb74:	84 10 80 01 	or  %g2, %g1, %g2
    bb78:	80 a1 00 03 	cmp  %g4, %g3
    bb7c:	06 bf ff fb 	bl  bb68 <_Q_sub+0xf88>
    bb80:	83 29 20 02 	sll  %g4, 2, %g1
    bb84:	80 a7 20 00 	cmp  %i4, 0
    bb88:	22 80 00 0c 	be,a   bbb8 <_Q_sub+0xfd8>
    bb8c:	88 10 20 03 	mov  3, %g4
    bb90:	10 80 00 11 	b  bbd4 <_Q_sub+0xff4>
    bb94:	b2 10 20 20 	mov  0x20, %i1
    bb98:	b9 2f 20 02 	sll  %i4, 2, %i4
    bb9c:	b8 07 80 1c 	add  %fp, %i4, %i4
    bba0:	f2 07 3f d0 	ld  [ %i4 + -48 ], %i1
    bba4:	b9 28 60 02 	sll  %g1, 2, %i4
    bba8:	82 00 60 01 	inc  %g1
    bbac:	b8 07 80 1c 	add  %fp, %i4, %i4
    bbb0:	10 80 00 04 	b  bbc0 <_Q_sub+0xfe0>
    bbb4:	f2 27 3f d0 	st  %i1, [ %i4 + -48 ]
    bbb8:	82 10 20 00 	clr  %g1
    bbbc:	88 21 00 03 	sub  %g4, %g3, %g4
    bbc0:	80 a0 40 04 	cmp  %g1, %g4
    bbc4:	04 bf ff f5 	ble  bb98 <_Q_sub+0xfb8>
    bbc8:	b8 00 40 03 	add  %g1, %g3, %i4
    bbcc:	10 80 00 26 	b  bc64 <_Q_sub+0x1084>
    bbd0:	80 a0 60 03 	cmp  %g1, 3
    bbd4:	89 29 20 02 	sll  %g4, 2, %g4
    bbd8:	b2 26 40 1c 	sub  %i1, %i4, %i1
    bbdc:	88 07 80 04 	add  %fp, %g4, %g4
    bbe0:	c2 01 3f d0 	ld  [ %g4 + -48 ], %g1
    bbe4:	83 28 40 19 	sll  %g1, %i1, %g1
    bbe8:	9e 10 20 03 	mov  3, %o7
    bbec:	84 10 80 01 	or  %g2, %g1, %g2
    bbf0:	9e 23 c0 03 	sub  %o7, %g3, %o7
    bbf4:	10 80 00 10 	b  bc34 <_Q_sub+0x1054>
    bbf8:	82 10 20 00 	clr  %g1
    bbfc:	b0 00 40 03 	add  %g1, %g3, %i0
    bc00:	88 07 80 04 	add  %fp, %g4, %g4
    bc04:	9a 06 20 01 	add  %i0, 1, %o5
    bc08:	82 00 60 01 	inc  %g1
    bc0c:	9b 2b 60 02 	sll  %o5, 2, %o5
    bc10:	b1 2e 20 02 	sll  %i0, 2, %i0
    bc14:	9a 07 80 0d 	add  %fp, %o5, %o5
    bc18:	b0 07 80 18 	add  %fp, %i0, %i0
    bc1c:	da 03 7f d0 	ld  [ %o5 + -48 ], %o5
    bc20:	f0 06 3f d0 	ld  [ %i0 + -48 ], %i0
    bc24:	9b 2b 40 19 	sll  %o5, %i1, %o5
    bc28:	b1 36 00 1c 	srl  %i0, %i4, %i0
    bc2c:	b0 13 40 18 	or  %o5, %i0, %i0
    bc30:	f0 21 3f d0 	st  %i0, [ %g4 + -48 ]
    bc34:	80 a0 40 0f 	cmp  %g1, %o7
    bc38:	06 bf ff f1 	bl  bbfc <_Q_sub+0x101c>
    bc3c:	89 28 60 02 	sll  %g1, 2, %g4
    bc40:	c6 07 bf dc 	ld  [ %fp + -36 ], %g3
    bc44:	88 07 80 04 	add  %fp, %g4, %g4
    bc48:	b9 30 c0 1c 	srl  %g3, %i4, %i4
    bc4c:	10 80 00 04 	b  bc5c <_Q_sub+0x107c>
    bc50:	f8 21 3f d0 	st  %i4, [ %g4 + -48 ]
    bc54:	86 07 80 03 	add  %fp, %g3, %g3
    bc58:	c0 20 ff d0 	clr  [ %g3 + -48 ]
    bc5c:	82 00 60 01 	inc  %g1
    bc60:	80 a0 60 03 	cmp  %g1, 3
    bc64:	04 bf ff fc 	ble  bc54 <_Q_sub+0x1074>
    bc68:	87 28 60 02 	sll  %g1, 2, %g3
    bc6c:	80 a0 00 02 	cmp  %g0, %g2
    bc70:	c4 07 bf d0 	ld  [ %fp + -48 ], %g2
    bc74:	82 40 20 00 	addx  %g0, 0, %g1
    bc78:	10 80 00 0d 	b  bcac <_Q_sub+0x10cc>
    bc7c:	82 10 80 01 	or  %g2, %g1, %g1
    bc80:	c2 07 bf d4 	ld  [ %fp + -44 ], %g1
    bc84:	82 10 80 01 	or  %g2, %g1, %g1
    bc88:	c4 07 bf dc 	ld  [ %fp + -36 ], %g2
    bc8c:	82 10 40 02 	or  %g1, %g2, %g1
    bc90:	80 90 40 04 	orcc  %g1, %g4, %g0
    bc94:	02 80 00 08 	be  bcb4 <_Q_sub+0x10d4>
    bc98:	d8 07 bf d0 	ld  [ %fp + -48 ], %o4
    bc9c:	c0 27 bf dc 	clr  [ %fp + -36 ]
    bca0:	c0 27 bf d8 	clr  [ %fp + -40 ]
    bca4:	c0 27 bf d4 	clr  [ %fp + -44 ]
    bca8:	82 10 20 01 	mov  1, %g1
    bcac:	c2 27 bf d0 	st  %g1, [ %fp + -48 ]
    bcb0:	d8 07 bf d0 	ld  [ %fp + -48 ], %o4
    bcb4:	da 07 bf e0 	ld  [ %fp + -32 ], %o5
    bcb8:	de 07 bf d4 	ld  [ %fp + -44 ], %o7
    bcbc:	f0 07 bf e4 	ld  [ %fp + -28 ], %i0
    bcc0:	f2 07 bf d8 	ld  [ %fp + -40 ], %i1
    bcc4:	f8 07 bf e8 	ld  [ %fp + -24 ], %i4
    bcc8:	c8 07 bf dc 	ld  [ %fp + -36 ], %g4
    bccc:	c6 07 bf ec 	ld  [ %fp + -20 ], %g3
    bcd0:	96 a3 40 0c 	subcc  %o5, %o4, %o3
    bcd4:	94 e6 00 0f 	subxcc  %i0, %o7, %o2
    bcd8:	84 e7 00 19 	subxcc  %i4, %i1, %g2
    bcdc:	82 60 c0 04 	subx  %g3, %g4, %g1
    bce0:	d4 27 bf f4 	st  %o2, [ %fp + -12 ]
    bce4:	d6 27 bf f0 	st  %o3, [ %fp + -16 ]
    bce8:	c2 27 bf fc 	st  %g1, [ %fp + -4 ]
    bcec:	c4 27 bf f8 	st  %g2, [ %fp + -8 ]
    bcf0:	10 80 01 0d 	b  c124 <_Q_sub+0x1544>
    bcf4:	b8 10 00 1a 	mov  %i2, %i4
    bcf8:	03 00 00 1f 	sethi  %hi(0x7c00), %g1
    bcfc:	82 10 63 ff 	or  %g1, 0x3ff, %g1	! 7fff <_fpmaxtostr+0x5c7>
    bd00:	84 08 80 01 	and  %g2, %g1, %g2
    bd04:	80 a0 a0 01 	cmp  %g2, 1
    bd08:	14 80 00 e0 	bg  c088 <_Q_sub+0x14a8>
    bd0c:	f8 07 bf d8 	ld  [ %fp + -40 ], %i4
    bd10:	80 a3 60 00 	cmp  %o5, 0
    bd14:	12 80 00 3b 	bne  be00 <_Q_sub+0x1220>
    bd18:	f2 07 bf dc 	ld  [ %fp + -36 ], %i1
    bd1c:	da 07 bf d4 	ld  [ %fp + -44 ], %o5
    bd20:	f4 07 bf e8 	ld  [ %fp + -24 ], %i2
    bd24:	82 17 00 0d 	or  %i4, %o5, %g1
    bd28:	82 10 40 19 	or  %g1, %i1, %g1
    bd2c:	80 90 40 04 	orcc  %g1, %g4, %g0
    bd30:	12 80 00 0d 	bne  bd64 <_Q_sub+0x1184>
    bd34:	f0 07 bf e4 	ld  [ %fp + -28 ], %i0
    bd38:	c2 07 bf ec 	ld  [ %fp + -20 ], %g1
    bd3c:	f4 27 bf f8 	st  %i2, [ %fp + -8 ]
    bd40:	c2 27 bf fc 	st  %g1, [ %fp + -4 ]
    bd44:	c6 27 bf f0 	st  %g3, [ %fp + -16 ]
    bd48:	b4 16 80 18 	or  %i2, %i0, %i2
    bd4c:	82 16 80 01 	or  %i2, %g1, %g1
    bd50:	80 90 40 03 	orcc  %g1, %g3, %g0
    bd54:	12 80 01 b1 	bne  c418 <_Q_sub+0x1838>
    bd58:	f0 27 bf f4 	st  %i0, [ %fp + -12 ]
    bd5c:	10 80 00 ed 	b  c110 <_Q_sub+0x1530>
    bd60:	c2 07 bf 9c 	ld  [ %fp + -100 ], %g1
    bd64:	d8 07 bf ec 	ld  [ %fp + -20 ], %o4
    bd68:	82 16 80 18 	or  %i2, %i0, %g1
    bd6c:	82 10 40 0c 	or  %g1, %o4, %g1
    bd70:	80 90 40 03 	orcc  %g1, %g3, %g0
    bd74:	12 80 00 07 	bne  bd90 <_Q_sub+0x11b0>
    bd78:	01 00 00 00 	nop 
    bd7c:	c8 27 bf f0 	st  %g4, [ %fp + -16 ]
    bd80:	da 27 bf f4 	st  %o5, [ %fp + -12 ]
    bd84:	f8 27 bf f8 	st  %i4, [ %fp + -8 ]
    bd88:	10 80 01 a3 	b  c414 <_Q_sub+0x1834>
    bd8c:	f2 27 bf fc 	st  %i1, [ %fp + -4 ]
    bd90:	94 a1 00 03 	subcc  %g4, %g3, %o2
    bd94:	96 e3 40 18 	subxcc  %o5, %i0, %o3
    bd98:	84 e7 00 1a 	subxcc  %i4, %i2, %g2
    bd9c:	82 66 40 0c 	subx  %i1, %o4, %g1
    bda0:	d4 3f bf f0 	std  %o2, [ %fp + -16 ]
    bda4:	c2 27 bf fc 	st  %g1, [ %fp + -4 ]
    bda8:	07 00 02 00 	sethi  %hi(0x80000), %g3
    bdac:	80 88 40 03 	btst  %g1, %g3
    bdb0:	02 80 00 0d 	be  bde4 <_Q_sub+0x1204>
    bdb4:	c4 27 bf f8 	st  %g2, [ %fp + -8 ]
    bdb8:	c8 07 bf d0 	ld  [ %fp + -48 ], %g4
    bdbc:	c6 07 bf e0 	ld  [ %fp + -32 ], %g3
    bdc0:	9e a0 c0 04 	subcc  %g3, %g4, %o7
    bdc4:	96 e6 00 0d 	subxcc  %i0, %o5, %o3
    bdc8:	84 e6 80 1c 	subxcc  %i2, %i4, %g2
    bdcc:	82 63 00 19 	subx  %o4, %i1, %g1
    bdd0:	d6 27 bf f4 	st  %o3, [ %fp + -12 ]
    bdd4:	de 27 bf f0 	st  %o7, [ %fp + -16 ]
    bdd8:	c2 27 bf fc 	st  %g1, [ %fp + -4 ]
    bddc:	10 80 01 8f 	b  c418 <_Q_sub+0x1838>
    bde0:	c4 27 bf f8 	st  %g2, [ %fp + -8 ]
    bde4:	82 10 80 01 	or  %g2, %g1, %g1
    bde8:	94 10 40 0a 	or  %g1, %o2, %o2
    bdec:	80 92 80 0b 	orcc  %o2, %o3, %g0
    bdf0:	32 80 01 8a 	bne,a   c418 <_Q_sub+0x1838>
    bdf4:	b6 10 00 0f 	mov  %o7, %i3
    bdf8:	10 80 00 c6 	b  c110 <_Q_sub+0x1530>
    bdfc:	c2 07 bf 9c 	ld  [ %fp + -100 ], %g1
    be00:	80 a3 40 01 	cmp  %o5, %g1
    be04:	12 80 00 0d 	bne  be38 <_Q_sub+0x1258>
    be08:	90 10 20 00 	clr  %o0
    be0c:	c2 07 bf d4 	ld  [ %fp + -44 ], %g1
    be10:	b8 17 00 01 	or  %i4, %g1, %i4
    be14:	b8 17 00 19 	or  %i4, %i1, %i4
    be18:	80 97 00 04 	orcc  %i4, %g4, %g0
    be1c:	02 80 00 08 	be  be3c <_Q_sub+0x125c>
    be20:	03 00 00 1f 	sethi  %hi(0x7c00), %g1
    be24:	03 00 01 00 	sethi  %hi(0x40000), %g1
    be28:	b2 0e 40 01 	and  %i1, %g1, %i1
    be2c:	80 a0 00 19 	cmp  %g0, %i1
    be30:	90 60 3f ff 	subx  %g0, -1, %o0
    be34:	91 2a 20 04 	sll  %o0, 4, %o0
    be38:	03 00 00 1f 	sethi  %hi(0x7c00), %g1
    be3c:	82 10 63 ff 	or  %g1, 0x3ff, %g1	! 7fff <_fpmaxtostr+0x5c7>
    be40:	80 a6 80 01 	cmp  %i2, %g1
    be44:	12 80 00 0f 	bne  be80 <_Q_sub+0x12a0>
    be48:	f0 07 bf d4 	ld  [ %fp + -44 ], %i0
    be4c:	c2 07 bf ec 	ld  [ %fp + -20 ], %g1
    be50:	c4 07 bf e4 	ld  [ %fp + -28 ], %g2
    be54:	f8 07 bf e8 	ld  [ %fp + -24 ], %i4
    be58:	84 17 00 02 	or  %i4, %g2, %g2
    be5c:	84 10 80 01 	or  %g2, %g1, %g2
    be60:	80 90 80 03 	orcc  %g2, %g3, %g0
    be64:	02 80 00 08 	be  be84 <_Q_sub+0x12a4>
    be68:	f2 07 bf d8 	ld  [ %fp + -40 ], %i1
    be6c:	05 00 01 00 	sethi  %hi(0x40000), %g2
    be70:	80 88 40 02 	btst  %g1, %g2
    be74:	22 80 00 03 	be,a   be80 <_Q_sub+0x12a0>
    be78:	90 10 20 10 	mov  0x10, %o0
    be7c:	f0 07 bf d4 	ld  [ %fp + -44 ], %i0
    be80:	f2 07 bf d8 	ld  [ %fp + -40 ], %i1
    be84:	f4 07 bf dc 	ld  [ %fp + -36 ], %i2
    be88:	82 16 40 18 	or  %i1, %i0, %g1
    be8c:	82 10 40 1a 	or  %g1, %i2, %g1
    be90:	f8 07 bf e8 	ld  [ %fp + -24 ], %i4
    be94:	80 90 40 04 	orcc  %g1, %g4, %g0
    be98:	c4 07 bf e4 	ld  [ %fp + -28 ], %g2
    be9c:	12 80 00 28 	bne  bf3c <_Q_sub+0x135c>
    bea0:	c2 07 bf ec 	ld  [ %fp + -20 ], %g1
    bea4:	88 17 00 02 	or  %i4, %g2, %g4
    bea8:	88 11 00 01 	or  %g4, %g1, %g4
    beac:	80 91 00 03 	orcc  %g4, %g3, %g0
    beb0:	32 80 00 1f 	bne,a   bf2c <_Q_sub+0x134c>
    beb4:	c6 27 bf f0 	st  %g3, [ %fp + -16 ]
    beb8:	03 00 00 3f 	sethi  %hi(0xfc00), %g1
    bebc:	82 10 63 ff 	or  %g1, 0x3ff, %g1	! ffff <SW_trap_0xfe+0x1f>
    bec0:	c2 27 bf fc 	st  %g1, [ %fp + -4 ]
    bec4:	82 10 3f ff 	mov  -1, %g1
    bec8:	c2 27 bf f8 	st  %g1, [ %fp + -8 ]
    becc:	c2 27 bf f4 	st  %g1, [ %fp + -12 ]
    bed0:	c2 27 bf f0 	st  %g1, [ %fp + -16 ]
    bed4:	82 10 20 03 	mov  3, %g1
    bed8:	85 28 60 02 	sll  %g1, 2, %g2
    bedc:	82 00 7f ff 	add  %g1, -1, %g1
    bee0:	87 28 60 02 	sll  %g1, 2, %g3
    bee4:	86 07 80 03 	add  %fp, %g3, %g3
    bee8:	84 07 80 02 	add  %fp, %g2, %g2
    beec:	c8 00 ff f0 	ld  [ %g3 + -16 ], %g4
    bef0:	c6 00 bf f0 	ld  [ %g2 + -16 ], %g3
    bef4:	89 31 20 1d 	srl  %g4, 0x1d, %g4
    bef8:	87 28 e0 03 	sll  %g3, 3, %g3
    befc:	86 11 00 03 	or  %g4, %g3, %g3
    bf00:	80 a0 60 00 	cmp  %g1, 0
    bf04:	12 bf ff f5 	bne  bed8 <_Q_sub+0x12f8>
    bf08:	c6 20 bf f0 	st  %g3, [ %g2 + -16 ]
    bf0c:	c2 07 bf f0 	ld  [ %fp + -16 ], %g1
    bf10:	39 00 00 1f 	sethi  %hi(0x7c00), %i4
    bf14:	83 28 60 03 	sll  %g1, 3, %g1
    bf18:	b8 17 23 ff 	or  %i4, 0x3ff, %i4
    bf1c:	c2 27 bf f0 	st  %g1, [ %fp + -16 ]
    bf20:	b6 10 20 00 	clr  %i3
    bf24:	10 80 01 3f 	b  c420 <_Q_sub+0x1840>
    bf28:	90 10 20 10 	mov  0x10, %o0
    bf2c:	c4 27 bf f4 	st  %g2, [ %fp + -12 ]
    bf30:	f8 27 bf f8 	st  %i4, [ %fp + -8 ]
    bf34:	10 bf fc 66 	b  b0cc <_Q_sub+0x4ec>
    bf38:	c2 27 bf fc 	st  %g1, [ %fp + -4 ]
    bf3c:	84 17 00 02 	or  %i4, %g2, %g2
    bf40:	82 10 80 01 	or  %g2, %g1, %g1
    bf44:	80 90 40 03 	orcc  %g1, %g3, %g0
    bf48:	12 80 00 07 	bne  bf64 <_Q_sub+0x1384>
    bf4c:	82 10 20 00 	clr  %g1
    bf50:	c8 27 bf f0 	st  %g4, [ %fp + -16 ]
    bf54:	f0 27 bf f4 	st  %i0, [ %fp + -12 ]
    bf58:	f2 27 bf f8 	st  %i1, [ %fp + -8 ]
    bf5c:	10 bf fc 5b 	b  b0c8 <_Q_sub+0x4e8>
    bf60:	f4 27 bf fc 	st  %i2, [ %fp + -4 ]
    bf64:	84 00 60 01 	add  %g1, 1, %g2
    bf68:	87 28 a0 02 	sll  %g2, 2, %g3
    bf6c:	86 07 80 03 	add  %fp, %g3, %g3
    bf70:	83 28 60 02 	sll  %g1, 2, %g1
    bf74:	c8 00 ff d0 	ld  [ %g3 + -48 ], %g4
    bf78:	82 07 80 01 	add  %fp, %g1, %g1
    bf7c:	89 29 20 1d 	sll  %g4, 0x1d, %g4
    bf80:	c6 00 7f d0 	ld  [ %g1 + -48 ], %g3
    bf84:	87 30 e0 03 	srl  %g3, 3, %g3
    bf88:	86 11 00 03 	or  %g4, %g3, %g3
    bf8c:	c6 20 7f d0 	st  %g3, [ %g1 + -48 ]
    bf90:	80 a0 a0 03 	cmp  %g2, 3
    bf94:	12 bf ff f4 	bne  bf64 <_Q_sub+0x1384>
    bf98:	82 10 00 02 	mov  %g2, %g1
    bf9c:	c4 07 bf dc 	ld  [ %fp + -36 ], %g2
    bfa0:	82 10 20 00 	clr  %g1
    bfa4:	85 30 a0 03 	srl  %g2, 3, %g2
    bfa8:	86 00 60 01 	add  %g1, 1, %g3
    bfac:	89 28 e0 02 	sll  %g3, 2, %g4
    bfb0:	88 07 80 04 	add  %fp, %g4, %g4
    bfb4:	83 28 60 02 	sll  %g1, 2, %g1
    bfb8:	f8 01 3f e0 	ld  [ %g4 + -32 ], %i4
    bfbc:	82 07 80 01 	add  %fp, %g1, %g1
    bfc0:	b9 2f 20 1d 	sll  %i4, 0x1d, %i4
    bfc4:	c8 00 7f e0 	ld  [ %g1 + -32 ], %g4
    bfc8:	89 31 20 03 	srl  %g4, 3, %g4
    bfcc:	88 17 00 04 	or  %i4, %g4, %g4
    bfd0:	c8 20 7f e0 	st  %g4, [ %g1 + -32 ]
    bfd4:	80 a0 e0 03 	cmp  %g3, 3
    bfd8:	12 bf ff f4 	bne  bfa8 <_Q_sub+0x13c8>
    bfdc:	82 10 00 03 	mov  %g3, %g1
    bfe0:	c2 07 bf ec 	ld  [ %fp + -20 ], %g1
    bfe4:	07 00 00 20 	sethi  %hi(0x8000), %g3
    bfe8:	80 88 80 03 	btst  %g2, %g3
    bfec:	02 80 00 0d 	be  c020 <_Q_sub+0x1440>
    bff0:	83 30 60 03 	srl  %g1, 3, %g1
    bff4:	80 88 40 03 	btst  %g1, %g3
    bff8:	32 80 00 0b 	bne,a   c024 <_Q_sub+0x1444>
    bffc:	c2 07 bf d0 	ld  [ %fp + -48 ], %g1
    c000:	c4 07 bf e0 	ld  [ %fp + -32 ], %g2
    c004:	c4 27 bf f0 	st  %g2, [ %fp + -16 ]
    c008:	c4 07 bf e4 	ld  [ %fp + -28 ], %g2
    c00c:	c2 27 bf fc 	st  %g1, [ %fp + -4 ]
    c010:	c4 27 bf f4 	st  %g2, [ %fp + -12 ]
    c014:	c4 07 bf e8 	ld  [ %fp + -24 ], %g2
    c018:	10 80 00 0a 	b  c040 <_Q_sub+0x1460>
    c01c:	c4 27 bf f8 	st  %g2, [ %fp + -8 ]
    c020:	c2 07 bf d0 	ld  [ %fp + -48 ], %g1
    c024:	c2 27 bf f0 	st  %g1, [ %fp + -16 ]
    c028:	c2 07 bf d4 	ld  [ %fp + -44 ], %g1
    c02c:	c4 27 bf fc 	st  %g2, [ %fp + -4 ]
    c030:	c2 27 bf f4 	st  %g1, [ %fp + -12 ]
    c034:	b6 10 00 0f 	mov  %o7, %i3
    c038:	c2 07 bf d8 	ld  [ %fp + -40 ], %g1
    c03c:	c2 27 bf f8 	st  %g1, [ %fp + -8 ]
    c040:	82 10 20 03 	mov  3, %g1
    c044:	85 28 60 02 	sll  %g1, 2, %g2
    c048:	82 00 7f ff 	add  %g1, -1, %g1
    c04c:	87 28 60 02 	sll  %g1, 2, %g3
    c050:	86 07 80 03 	add  %fp, %g3, %g3
    c054:	84 07 80 02 	add  %fp, %g2, %g2
    c058:	c8 00 ff f0 	ld  [ %g3 + -16 ], %g4
    c05c:	c6 00 bf f0 	ld  [ %g2 + -16 ], %g3
    c060:	89 31 20 1d 	srl  %g4, 0x1d, %g4
    c064:	87 28 e0 03 	sll  %g3, 3, %g3
    c068:	86 11 00 03 	or  %g4, %g3, %g3
    c06c:	80 a0 60 00 	cmp  %g1, 0
    c070:	12 bf ff f5 	bne  c044 <_Q_sub+0x1464>
    c074:	c6 20 bf f0 	st  %g3, [ %g2 + -16 ]
    c078:	c2 07 bf f0 	ld  [ %fp + -16 ], %g1
    c07c:	83 28 60 03 	sll  %g1, 3, %g1
    c080:	10 bf fc 13 	b  b0cc <_Q_sub+0x4ec>
    c084:	c2 27 bf f0 	st  %g1, [ %fp + -16 ]
    c088:	f2 07 bf dc 	ld  [ %fp + -36 ], %i1
    c08c:	f4 07 bf ec 	ld  [ %fp + -20 ], %i2
    c090:	f0 07 bf e8 	ld  [ %fp + -24 ], %i0
    c094:	d6 07 bf d4 	ld  [ %fp + -44 ], %o3
    c098:	d8 07 bf e4 	ld  [ %fp + -28 ], %o4
    c09c:	92 a1 00 03 	subcc  %g4, %g3, %o1
    c0a0:	94 e2 c0 0c 	subxcc  %o3, %o4, %o2
    c0a4:	84 e7 00 18 	subxcc  %i4, %i0, %g2
    c0a8:	82 66 40 1a 	subx  %i1, %i2, %g1
    c0ac:	d4 27 bf f4 	st  %o2, [ %fp + -12 ]
    c0b0:	d2 27 bf f0 	st  %o1, [ %fp + -16 ]
    c0b4:	c2 27 bf fc 	st  %g1, [ %fp + -4 ]
    c0b8:	07 00 02 00 	sethi  %hi(0x80000), %g3
    c0bc:	80 88 40 03 	btst  %g1, %g3
    c0c0:	02 80 00 0e 	be  c0f8 <_Q_sub+0x1518>
    c0c4:	c4 27 bf f8 	st  %g2, [ %fp + -8 ]
    c0c8:	c8 07 bf d0 	ld  [ %fp + -48 ], %g4
    c0cc:	c6 07 bf e0 	ld  [ %fp + -32 ], %g3
    c0d0:	9e a0 c0 04 	subcc  %g3, %g4, %o7
    c0d4:	94 e3 00 0b 	subxcc  %o4, %o3, %o2
    c0d8:	84 e6 00 1c 	subxcc  %i0, %i4, %g2
    c0dc:	82 66 80 19 	subx  %i2, %i1, %g1
    c0e0:	d4 27 bf f4 	st  %o2, [ %fp + -12 ]
    c0e4:	de 27 bf f0 	st  %o7, [ %fp + -16 ]
    c0e8:	c2 27 bf fc 	st  %g1, [ %fp + -4 ]
    c0ec:	c4 27 bf f8 	st  %g2, [ %fp + -8 ]
    c0f0:	10 80 00 17 	b  c14c <_Q_sub+0x156c>
    c0f4:	b8 10 00 0d 	mov  %o5, %i4
    c0f8:	82 10 80 01 	or  %g2, %g1, %g1
    c0fc:	92 10 40 09 	or  %g1, %o1, %o1
    c100:	80 92 40 0a 	orcc  %o1, %o2, %g0
    c104:	12 80 00 11 	bne  c148 <_Q_sub+0x1568>
    c108:	b8 10 00 0d 	mov  %o5, %i4
    c10c:	c2 07 bf 9c 	ld  [ %fp + -100 ], %g1
    c110:	83 30 60 1e 	srl  %g1, 0x1e, %g1
    c114:	82 18 60 03 	xor  %g1, 3, %g1
    c118:	80 a0 00 01 	cmp  %g0, %g1
    c11c:	10 80 00 bf 	b  c418 <_Q_sub+0x1838>
    c120:	b6 60 3f ff 	subx  %g0, -1, %i3
    c124:	c2 07 bf fc 	ld  [ %fp + -4 ], %g1
    c128:	05 00 02 00 	sethi  %hi(0x80000), %g2
    c12c:	80 88 40 02 	btst  %g1, %g2
    c130:	02 80 00 bc 	be  c420 <_Q_sub+0x1840>
    c134:	90 10 20 00 	clr  %o0
    c138:	05 3f fe 00 	sethi  %hi(0xfff80000), %g2
    c13c:	82 28 40 02 	andn  %g1, %g2, %g1
    c140:	10 80 00 03 	b  c14c <_Q_sub+0x156c>
    c144:	c2 27 bf fc 	st  %g1, [ %fp + -4 ]
    c148:	b6 10 00 0f 	mov  %o7, %i3
    c14c:	d0 07 bf fc 	ld  [ %fp + -4 ], %o0
    c150:	80 a2 20 00 	cmp  %o0, 0
    c154:	22 80 00 06 	be,a   c16c <_Q_sub+0x158c>
    c158:	d0 07 bf f8 	ld  [ %fp + -8 ], %o0
    c15c:	40 00 04 da 	call  d4c4 <__clzsi2>
    c160:	01 00 00 00 	nop 
    c164:	10 80 00 14 	b  c1b4 <_Q_sub+0x15d4>
    c168:	90 02 3f f4 	add  %o0, -12, %o0
    c16c:	80 a2 20 00 	cmp  %o0, 0
    c170:	22 80 00 06 	be,a   c188 <_Q_sub+0x15a8>
    c174:	d0 07 bf f4 	ld  [ %fp + -12 ], %o0
    c178:	40 00 04 d3 	call  d4c4 <__clzsi2>
    c17c:	01 00 00 00 	nop 
    c180:	10 80 00 0c 	b  c1b0 <_Q_sub+0x15d0>
    c184:	90 02 20 20 	add  %o0, 0x20, %o0
    c188:	80 a2 20 00 	cmp  %o0, 0
    c18c:	02 80 00 06 	be  c1a4 <_Q_sub+0x15c4>
    c190:	01 00 00 00 	nop 
    c194:	40 00 04 cc 	call  d4c4 <__clzsi2>
    c198:	01 00 00 00 	nop 
    c19c:	10 80 00 05 	b  c1b0 <_Q_sub+0x15d0>
    c1a0:	90 02 20 40 	add  %o0, 0x40, %o0
    c1a4:	40 00 04 c8 	call  d4c4 <__clzsi2>
    c1a8:	d0 07 bf f0 	ld  [ %fp + -16 ], %o0
    c1ac:	90 02 20 60 	add  %o0, 0x60, %o0
    c1b0:	90 02 3f f4 	add  %o0, -12, %o0
    c1b4:	05 20 00 00 	sethi  %hi(0x80000000), %g2
    c1b8:	87 3a 20 1f 	sra  %o0, 0x1f, %g3
    c1bc:	84 10 a0 1f 	or  %g2, 0x1f, %g2
    c1c0:	86 08 e0 1f 	and  %g3, 0x1f, %g3
    c1c4:	84 8a 00 02 	andcc  %o0, %g2, %g2
    c1c8:	86 00 c0 08 	add  %g3, %o0, %g3
    c1cc:	16 80 00 05 	bge  c1e0 <_Q_sub+0x1600>
    c1d0:	87 38 e0 05 	sra  %g3, 5, %g3
    c1d4:	84 00 bf ff 	add  %g2, -1, %g2
    c1d8:	84 10 bf e0 	or  %g2, -32, %g2
    c1dc:	84 00 a0 01 	inc  %g2
    c1e0:	80 a0 a0 00 	cmp  %g2, 0
    c1e4:	02 80 00 0c 	be  c214 <_Q_sub+0x1634>
    c1e8:	82 10 20 03 	mov  3, %g1
    c1ec:	b2 10 20 20 	mov  0x20, %i1
    c1f0:	10 80 00 1c 	b  c260 <_Q_sub+0x1680>
    c1f4:	b2 26 40 02 	sub  %i1, %g2, %i1
    c1f8:	85 28 a0 02 	sll  %g2, 2, %g2
    c1fc:	84 07 80 02 	add  %fp, %g2, %g2
    c200:	c8 00 bf f0 	ld  [ %g2 + -16 ], %g4
    c204:	85 28 60 02 	sll  %g1, 2, %g2
    c208:	82 00 7f ff 	add  %g1, -1, %g1
    c20c:	84 07 80 02 	add  %fp, %g2, %g2
    c210:	c8 20 bf f0 	st  %g4, [ %g2 + -16 ]
    c214:	80 a0 40 03 	cmp  %g1, %g3
    c218:	16 bf ff f8 	bge  c1f8 <_Q_sub+0x1618>
    c21c:	84 20 40 03 	sub  %g1, %g3, %g2
    c220:	10 80 00 1c 	b  c290 <_Q_sub+0x16b0>
    c224:	80 a0 60 00 	cmp  %g1, 0
    c228:	b4 20 40 03 	sub  %g1, %g3, %i2
    c22c:	88 07 80 04 	add  %fp, %g4, %g4
    c230:	b0 06 bf ff 	add  %i2, -1, %i0
    c234:	82 00 7f ff 	add  %g1, -1, %g1
    c238:	b1 2e 20 02 	sll  %i0, 2, %i0
    c23c:	b5 2e a0 02 	sll  %i2, 2, %i2
    c240:	b0 07 80 18 	add  %fp, %i0, %i0
    c244:	b4 07 80 1a 	add  %fp, %i2, %i2
    c248:	f0 06 3f f0 	ld  [ %i0 + -16 ], %i0
    c24c:	f4 06 bf f0 	ld  [ %i2 + -16 ], %i2
    c250:	b1 36 00 19 	srl  %i0, %i1, %i0
    c254:	b5 2e 80 02 	sll  %i2, %g2, %i2
    c258:	b4 16 00 1a 	or  %i0, %i2, %i2
    c25c:	f4 21 3f f0 	st  %i2, [ %g4 + -16 ]
    c260:	80 a0 40 03 	cmp  %g1, %g3
    c264:	14 bf ff f1 	bg  c228 <_Q_sub+0x1648>
    c268:	89 28 60 02 	sll  %g1, 2, %g4
    c26c:	c6 07 bf f0 	ld  [ %fp + -16 ], %g3
    c270:	88 07 80 04 	add  %fp, %g4, %g4
    c274:	85 28 c0 02 	sll  %g3, %g2, %g2
    c278:	10 80 00 04 	b  c288 <_Q_sub+0x16a8>
    c27c:	c4 21 3f f0 	st  %g2, [ %g4 + -16 ]
    c280:	84 07 80 02 	add  %fp, %g2, %g2
    c284:	c0 20 bf f0 	clr  [ %g2 + -16 ]
    c288:	82 00 7f ff 	add  %g1, -1, %g1
    c28c:	80 a0 60 00 	cmp  %g1, 0
    c290:	16 bf ff fc 	bge  c280 <_Q_sub+0x16a0>
    c294:	85 28 60 02 	sll  %g1, 2, %g2
    c298:	80 a7 00 08 	cmp  %i4, %o0
    c29c:	34 80 00 59 	bg,a   c400 <_Q_sub+0x1820>
    c2a0:	c2 07 bf fc 	ld  [ %fp + -4 ], %g1
    c2a4:	90 22 00 1c 	sub  %o0, %i4, %o0
    c2a8:	39 20 00 00 	sethi  %hi(0x80000000), %i4
    c2ac:	90 02 20 01 	inc  %o0
    c2b0:	b8 17 20 1f 	or  %i4, 0x1f, %i4
    c2b4:	87 3a 20 1f 	sra  %o0, 0x1f, %g3
    c2b8:	b8 8a 00 1c 	andcc  %o0, %i4, %i4
    c2bc:	86 08 e0 1f 	and  %g3, 0x1f, %g3
    c2c0:	86 00 c0 08 	add  %g3, %o0, %g3
    c2c4:	16 80 00 05 	bge  c2d8 <_Q_sub+0x16f8>
    c2c8:	87 38 e0 05 	sra  %g3, 5, %g3
    c2cc:	b8 07 3f ff 	add  %i4, -1, %i4
    c2d0:	b8 17 3f e0 	or  %i4, -32, %i4
    c2d4:	b8 07 20 01 	inc  %i4
    c2d8:	84 10 20 00 	clr  %g2
    c2dc:	10 80 00 06 	b  c2f4 <_Q_sub+0x1714>
    c2e0:	82 10 20 00 	clr  %g1
    c2e4:	82 00 60 01 	inc  %g1
    c2e8:	88 07 80 04 	add  %fp, %g4, %g4
    c2ec:	c8 01 3f f0 	ld  [ %g4 + -16 ], %g4
    c2f0:	84 10 80 04 	or  %g2, %g4, %g2
    c2f4:	80 a0 40 03 	cmp  %g1, %g3
    c2f8:	06 bf ff fb 	bl  c2e4 <_Q_sub+0x1704>
    c2fc:	89 28 60 02 	sll  %g1, 2, %g4
    c300:	80 a7 20 00 	cmp  %i4, 0
    c304:	22 80 00 0c 	be,a   c334 <_Q_sub+0x1754>
    c308:	88 10 20 03 	mov  3, %g4
    c30c:	10 80 00 11 	b  c350 <_Q_sub+0x1770>
    c310:	b4 10 20 20 	mov  0x20, %i2
    c314:	b9 2f 20 02 	sll  %i4, 2, %i4
    c318:	b8 07 80 1c 	add  %fp, %i4, %i4
    c31c:	f4 07 3f f0 	ld  [ %i4 + -16 ], %i2
    c320:	b9 28 60 02 	sll  %g1, 2, %i4
    c324:	82 00 60 01 	inc  %g1
    c328:	b8 07 80 1c 	add  %fp, %i4, %i4
    c32c:	10 80 00 04 	b  c33c <_Q_sub+0x175c>
    c330:	f4 27 3f f0 	st  %i2, [ %i4 + -16 ]
    c334:	82 10 20 00 	clr  %g1
    c338:	88 21 00 03 	sub  %g4, %g3, %g4
    c33c:	80 a0 40 04 	cmp  %g1, %g4
    c340:	04 bf ff f5 	ble  c314 <_Q_sub+0x1734>
    c344:	b8 00 40 03 	add  %g1, %g3, %i4
    c348:	10 80 00 26 	b  c3e0 <_Q_sub+0x1800>
    c34c:	80 a0 60 03 	cmp  %g1, 3
    c350:	83 28 60 02 	sll  %g1, 2, %g1
    c354:	b4 26 80 1c 	sub  %i2, %i4, %i2
    c358:	82 07 80 01 	add  %fp, %g1, %g1
    c35c:	c2 00 7f f0 	ld  [ %g1 + -16 ], %g1
    c360:	83 28 40 1a 	sll  %g1, %i2, %g1
    c364:	b0 10 20 03 	mov  3, %i0
    c368:	84 10 80 01 	or  %g2, %g1, %g2
    c36c:	b0 26 00 03 	sub  %i0, %g3, %i0
    c370:	10 80 00 10 	b  c3b0 <_Q_sub+0x17d0>
    c374:	82 10 20 00 	clr  %g1
    c378:	b2 00 40 03 	add  %g1, %g3, %i1
    c37c:	88 07 80 04 	add  %fp, %g4, %g4
    c380:	9e 06 60 01 	add  %i1, 1, %o7
    c384:	82 00 60 01 	inc  %g1
    c388:	9f 2b e0 02 	sll  %o7, 2, %o7
    c38c:	b3 2e 60 02 	sll  %i1, 2, %i1
    c390:	9e 07 80 0f 	add  %fp, %o7, %o7
    c394:	b2 07 80 19 	add  %fp, %i1, %i1
    c398:	de 03 ff f0 	ld  [ %o7 + -16 ], %o7
    c39c:	f2 06 7f f0 	ld  [ %i1 + -16 ], %i1
    c3a0:	9f 2b c0 1a 	sll  %o7, %i2, %o7
    c3a4:	b3 36 40 1c 	srl  %i1, %i4, %i1
    c3a8:	b2 13 c0 19 	or  %o7, %i1, %i1
    c3ac:	f2 21 3f f0 	st  %i1, [ %g4 + -16 ]
    c3b0:	80 a0 40 18 	cmp  %g1, %i0
    c3b4:	06 bf ff f1 	bl  c378 <_Q_sub+0x1798>
    c3b8:	89 28 60 02 	sll  %g1, 2, %g4
    c3bc:	c6 07 bf fc 	ld  [ %fp + -4 ], %g3
    c3c0:	88 07 80 04 	add  %fp, %g4, %g4
    c3c4:	b9 30 c0 1c 	srl  %g3, %i4, %i4
    c3c8:	10 80 00 04 	b  c3d8 <_Q_sub+0x17f8>
    c3cc:	f8 21 3f f0 	st  %i4, [ %g4 + -16 ]
    c3d0:	86 07 80 03 	add  %fp, %g3, %g3
    c3d4:	c0 20 ff f0 	clr  [ %g3 + -16 ]
    c3d8:	82 00 60 01 	inc  %g1
    c3dc:	80 a0 60 03 	cmp  %g1, 3
    c3e0:	04 bf ff fc 	ble  c3d0 <_Q_sub+0x17f0>
    c3e4:	87 28 60 02 	sll  %g1, 2, %g3
    c3e8:	80 a0 00 02 	cmp  %g0, %g2
    c3ec:	c4 07 bf f0 	ld  [ %fp + -16 ], %g2
    c3f0:	82 40 20 00 	addx  %g0, 0, %g1
    c3f4:	82 10 80 01 	or  %g2, %g1, %g1
    c3f8:	10 80 00 08 	b  c418 <_Q_sub+0x1838>
    c3fc:	c2 27 bf f0 	st  %g1, [ %fp + -16 ]
    c400:	05 00 02 00 	sethi  %hi(0x80000), %g2
    c404:	b8 27 00 08 	sub  %i4, %o0, %i4
    c408:	82 28 40 02 	andn  %g1, %g2, %g1
    c40c:	10 80 00 04 	b  c41c <_Q_sub+0x183c>
    c410:	c2 27 bf fc 	st  %g1, [ %fp + -4 ]
    c414:	b6 10 00 0f 	mov  %o7, %i3
    c418:	b8 10 20 00 	clr  %i4
    c41c:	90 10 20 00 	clr  %o0
    c420:	c2 07 bf f0 	ld  [ %fp + -16 ], %g1
    c424:	86 88 60 07 	andcc  %g1, 7, %g3
    c428:	32 80 00 02 	bne,a   c430 <_Q_sub+0x1850>
    c42c:	90 12 20 01 	or  %o0, 1, %o0
    c430:	c4 07 bf 9c 	ld  [ %fp + -100 ], %g2
    c434:	85 30 a0 1e 	srl  %g2, 0x1e, %g2
    c438:	80 a0 a0 02 	cmp  %g2, 2
    c43c:	02 80 00 12 	be  c484 <_Q_sub+0x18a4>
    c440:	80 a0 a0 03 	cmp  %g2, 3
    c444:	02 80 00 15 	be  c498 <_Q_sub+0x18b8>
    c448:	80 a0 a0 00 	cmp  %g2, 0
    c44c:	32 80 00 25 	bne,a   c4e0 <_Q_sub+0x1900>
    c450:	c2 07 bf fc 	ld  [ %fp + -4 ], %g1
    c454:	84 08 60 0f 	and  %g1, 0xf, %g2
    c458:	80 a0 a0 04 	cmp  %g2, 4
    c45c:	02 80 00 20 	be  c4dc <_Q_sub+0x18fc>
    c460:	c8 07 bf fc 	ld  [ %fp + -4 ], %g4
    c464:	c6 07 bf f8 	ld  [ %fp + -8 ], %g3
    c468:	c4 07 bf f4 	ld  [ %fp + -12 ], %g2
    c46c:	82 80 60 04 	addcc  %g1, 4, %g1
    c470:	84 c0 80 00 	addxcc  %g2, %g0, %g2
    c474:	86 c0 c0 00 	addxcc  %g3, %g0, %g3
    c478:	88 41 00 00 	addx  %g4, %g0, %g4
    c47c:	10 80 00 15 	b  c4d0 <_Q_sub+0x18f0>
    c480:	c8 27 bf fc 	st  %g4, [ %fp + -4 ]
    c484:	80 a6 e0 00 	cmp  %i3, 0
    c488:	32 80 00 16 	bne,a   c4e0 <_Q_sub+0x1900>
    c48c:	c2 07 bf fc 	ld  [ %fp + -4 ], %g1
    c490:	10 80 00 06 	b  c4a8 <_Q_sub+0x18c8>
    c494:	80 a0 e0 00 	cmp  %g3, 0
    c498:	80 a6 e0 00 	cmp  %i3, 0
    c49c:	22 80 00 11 	be,a   c4e0 <_Q_sub+0x1900>
    c4a0:	c2 07 bf fc 	ld  [ %fp + -4 ], %g1
    c4a4:	80 a0 e0 00 	cmp  %g3, 0
    c4a8:	22 80 00 0e 	be,a   c4e0 <_Q_sub+0x1900>
    c4ac:	c2 07 bf fc 	ld  [ %fp + -4 ], %g1
    c4b0:	c8 07 bf fc 	ld  [ %fp + -4 ], %g4
    c4b4:	c6 07 bf f8 	ld  [ %fp + -8 ], %g3
    c4b8:	c4 07 bf f4 	ld  [ %fp + -12 ], %g2
    c4bc:	82 80 60 08 	addcc  %g1, 8, %g1
    c4c0:	84 c0 80 00 	addxcc  %g2, %g0, %g2
    c4c4:	86 c0 c0 00 	addxcc  %g3, %g0, %g3
    c4c8:	88 41 00 00 	addx  %g4, %g0, %g4
    c4cc:	c8 27 bf fc 	st  %g4, [ %fp + -4 ]
    c4d0:	c6 27 bf f8 	st  %g3, [ %fp + -8 ]
    c4d4:	c4 27 bf f4 	st  %g2, [ %fp + -12 ]
    c4d8:	c2 27 bf f0 	st  %g1, [ %fp + -16 ]
    c4dc:	c2 07 bf fc 	ld  [ %fp + -4 ], %g1
    c4e0:	05 00 02 00 	sethi  %hi(0x80000), %g2
    c4e4:	80 88 40 02 	btst  %g1, %g2
    c4e8:	22 80 00 2b 	be,a   c594 <_Q_sub+0x19b4>
    c4ec:	82 10 20 00 	clr  %g1
    c4f0:	82 28 40 02 	andn  %g1, %g2, %g1
    c4f4:	c2 27 bf fc 	st  %g1, [ %fp + -4 ]
    c4f8:	b8 07 20 01 	inc  %i4
    c4fc:	03 00 00 1f 	sethi  %hi(0x7c00), %g1
    c500:	82 10 63 ff 	or  %g1, 0x3ff, %g1	! 7fff <_fpmaxtostr+0x5c7>
    c504:	80 a7 00 01 	cmp  %i4, %g1
    c508:	12 80 00 23 	bne  c594 <_Q_sub+0x19b4>
    c50c:	82 10 20 00 	clr  %g1
    c510:	c2 07 bf 9c 	ld  [ %fp + -100 ], %g1
    c514:	83 30 60 1e 	srl  %g1, 0x1e, %g1
    c518:	80 a0 60 00 	cmp  %g1, 0
    c51c:	22 80 00 10 	be,a   c55c <_Q_sub+0x197c>
    c520:	39 00 00 1f 	sethi  %hi(0x7c00), %i4
    c524:	80 a0 60 02 	cmp  %g1, 2
    c528:	12 80 00 07 	bne  c544 <_Q_sub+0x1964>
    c52c:	80 a0 60 03 	cmp  %g1, 3
    c530:	80 a6 e0 00 	cmp  %i3, 0
    c534:	02 80 00 0a 	be  c55c <_Q_sub+0x197c>
    c538:	39 00 00 1f 	sethi  %hi(0x7c00), %i4
    c53c:	10 80 00 0f 	b  c578 <_Q_sub+0x1998>
    c540:	82 10 3f ff 	mov  -1, %g1
    c544:	32 80 00 0c 	bne,a   c574 <_Q_sub+0x1994>
    c548:	82 10 3f ff 	mov  -1, %g1
    c54c:	80 a6 e0 00 	cmp  %i3, 0
    c550:	22 80 00 09 	be,a   c574 <_Q_sub+0x1994>
    c554:	82 10 3f ff 	mov  -1, %g1
    c558:	39 00 00 1f 	sethi  %hi(0x7c00), %i4
    c55c:	c0 27 bf fc 	clr  [ %fp + -4 ]
    c560:	c0 27 bf f8 	clr  [ %fp + -8 ]
    c564:	c0 27 bf f4 	clr  [ %fp + -12 ]
    c568:	c0 27 bf f0 	clr  [ %fp + -16 ]
    c56c:	10 80 00 08 	b  c58c <_Q_sub+0x19ac>
    c570:	b8 17 23 ff 	or  %i4, 0x3ff, %i4
    c574:	39 00 00 1f 	sethi  %hi(0x7c00), %i4
    c578:	c2 27 bf fc 	st  %g1, [ %fp + -4 ]
    c57c:	c2 27 bf f8 	st  %g1, [ %fp + -8 ]
    c580:	c2 27 bf f4 	st  %g1, [ %fp + -12 ]
    c584:	c2 27 bf f0 	st  %g1, [ %fp + -16 ]
    c588:	b8 17 23 fe 	or  %i4, 0x3fe, %i4
    c58c:	90 12 20 09 	or  %o0, 9, %o0
    c590:	82 10 20 00 	clr  %g1
    c594:	84 00 60 01 	add  %g1, 1, %g2
    c598:	87 28 a0 02 	sll  %g2, 2, %g3
    c59c:	86 07 80 03 	add  %fp, %g3, %g3
    c5a0:	83 28 60 02 	sll  %g1, 2, %g1
    c5a4:	c8 00 ff f0 	ld  [ %g3 + -16 ], %g4
    c5a8:	82 07 80 01 	add  %fp, %g1, %g1
    c5ac:	89 29 20 1d 	sll  %g4, 0x1d, %g4
    c5b0:	c6 00 7f f0 	ld  [ %g1 + -16 ], %g3
    c5b4:	87 30 e0 03 	srl  %g3, 3, %g3
    c5b8:	86 11 00 03 	or  %g4, %g3, %g3
    c5bc:	c6 20 7f f0 	st  %g3, [ %g1 + -16 ]
    c5c0:	80 a0 a0 03 	cmp  %g2, 3
    c5c4:	12 bf ff f4 	bne  c594 <_Q_sub+0x19b4>
    c5c8:	82 10 00 02 	mov  %g2, %g1
    c5cc:	c2 07 bf fc 	ld  [ %fp + -4 ], %g1
    c5d0:	83 30 60 03 	srl  %g1, 3, %g1
    c5d4:	84 07 20 01 	add  %i4, 1, %g2
    c5d8:	07 3f ff e0 	sethi  %hi(0xffff8000), %g3
    c5dc:	84 28 80 03 	andn  %g2, %g3, %g2
    c5e0:	80 a0 a0 01 	cmp  %g2, 1
    c5e4:	14 80 00 10 	bg  c624 <_Q_sub+0x1a44>
    c5e8:	c2 27 bf fc 	st  %g1, [ %fp + -4 ]
    c5ec:	c4 1f bf f0 	ldd  [ %fp + -16 ], %g2
    c5f0:	84 10 c0 02 	or  %g3, %g2, %g2
    c5f4:	c6 07 bf f8 	ld  [ %fp + -8 ], %g3
    c5f8:	84 10 80 03 	or  %g2, %g3, %g2
    c5fc:	80 90 80 01 	orcc  %g2, %g1, %g0
    c600:	22 80 00 0a 	be,a   c628 <_Q_sub+0x1a48>
    c604:	c2 07 bf f0 	ld  [ %fp + -16 ], %g1
    c608:	80 a7 20 00 	cmp  %i4, 0
    c60c:	12 80 00 04 	bne  c61c <_Q_sub+0x1a3c>
    c610:	05 00 00 20 	sethi  %hi(0x8000), %g2
    c614:	10 80 00 04 	b  c624 <_Q_sub+0x1a44>
    c618:	90 12 20 04 	or  %o0, 4, %o0
    c61c:	82 10 40 02 	or  %g1, %g2, %g1
    c620:	c2 27 bf fc 	st  %g1, [ %fp + -4 ]
    c624:	c2 07 bf f0 	ld  [ %fp + -16 ], %g1
    c628:	c2 27 bf cc 	st  %g1, [ %fp + -52 ]
    c62c:	c2 07 bf f4 	ld  [ %fp + -12 ], %g1
    c630:	c2 27 bf c8 	st  %g1, [ %fp + -56 ]
    c634:	c2 07 bf f8 	ld  [ %fp + -8 ], %g1
    c638:	c2 27 bf c4 	st  %g1, [ %fp + -60 ]
    c63c:	c2 07 bf fc 	ld  [ %fp + -4 ], %g1
    c640:	c2 37 bf c2 	sth  %g1, [ %fp + -62 ]
    c644:	03 3f ff e0 	sethi  %hi(0xffff8000), %g1
    c648:	b8 2f 00 01 	andn  %i4, %g1, %i4
    c64c:	83 2f 20 10 	sll  %i4, 0x10, %g1
    c650:	c4 07 bf c0 	ld  [ %fp + -64 ], %g2
    c654:	39 1f ff c0 	sethi  %hi(0x7fff0000), %i4
    c658:	b7 2e e0 1f 	sll  %i3, 0x1f, %i3
    c65c:	b8 28 80 1c 	andn  %g2, %i4, %i4
    c660:	b8 17 00 01 	or  %i4, %g1, %i4
    c664:	03 20 00 00 	sethi  %hi(0x80000000), %g1
    c668:	b8 2f 00 01 	andn  %i4, %g1, %i4
    c66c:	b6 17 00 1b 	or  %i4, %i3, %i3
    c670:	f6 27 bf c0 	st  %i3, [ %fp + -64 ]
    c674:	e4 1f bf c8 	ldd  [ %fp + -56 ], %l2
    c678:	80 a2 20 00 	cmp  %o0, 0
    c67c:	12 80 00 09 	bne  c6a0 <_Q_sub+0x1ac0>
    c680:	e0 1f bf c0 	ldd  [ %fp + -64 ], %l0
    c684:	03 00 00 00 	sethi  %hi(0), %g1
    c688:	82 18 7f d4 	xor  %g1, -44, %g1
    c68c:	82 05 c0 01 	add  %l7, %g1, %g1
    c690:	fd 18 40 00 	ldd  [ %g1 ], %f30
    c694:	bd a7 88 5e 	faddd  %f30, %f30, %f30
    c698:	10 80 00 05 	b  c6ac <_Q_sub+0x1acc>
    c69c:	e0 3f 40 00 	std  %l0, [ %i5 ]
    c6a0:	7f ff eb 9f 	call  751c <___Q_simulate_exceptions>
    c6a4:	01 00 00 00 	nop 
    c6a8:	e0 3f 40 00 	std  %l0, [ %i5 ]
    c6ac:	e4 3f 60 08 	std  %l2, [ %i5 + 8 ]
    c6b0:	81 c7 e0 0c 	jmp  %i7 + 0xc
    c6b4:	91 e8 00 1d 	restore  %g0, %i5, %o0

0000c6b8 <_Q_feq>:
    c6b8:	9d e3 bf 80 	save  %sp, -128, %sp
    c6bc:	2f 00 00 27 	sethi  %hi(0x9c00), %l7
    c6c0:	40 00 0e 50 	call  10000 <__sparc_get_pc_thunk.l7>
    c6c4:	ae 05 e2 5c 	add  %l7, 0x25c, %l7	! 9e5c <_Q_mul+0x388>
    c6c8:	d4 1e 20 08 	ldd  [ %i0 + 8 ], %o2
    c6cc:	f4 1e 60 08 	ldd  [ %i1 + 8 ], %i2
    c6d0:	d4 3f bf e8 	std  %o2, [ %fp + -24 ]
    c6d4:	d0 1e 00 00 	ldd  [ %i0 ], %o0
    c6d8:	f4 3f bf f8 	std  %i2, [ %fp + -8 ]
    c6dc:	f0 1e 40 00 	ldd  [ %i1 ], %i0
    c6e0:	d0 3f bf e0 	std  %o0, [ %fp + -32 ]
    c6e4:	f0 3f bf f0 	std  %i0, [ %fp + -16 ]
    c6e8:	f8 07 bf e0 	ld  [ %fp + -32 ], %i4
    c6ec:	da 07 bf f0 	ld  [ %fp + -16 ], %o5
    c6f0:	83 37 20 10 	srl  %i4, 0x10, %g1
    c6f4:	d6 17 bf e2 	lduh  [ %fp + -30 ], %o3
    c6f8:	1f 00 00 1f 	sethi  %hi(0x7c00), %o7
    c6fc:	95 37 20 1f 	srl  %i4, 0x1f, %o2
    c700:	9e 13 e3 ff 	or  %o7, 0x3ff, %o7
    c704:	b9 33 60 10 	srl  %o5, 0x10, %i4
    c708:	82 08 40 0f 	and  %g1, %o7, %g1
    c70c:	d8 17 bf f2 	lduh  [ %fp + -14 ], %o4
    c710:	c4 07 bf ec 	ld  [ %fp + -20 ], %g2
    c714:	c6 07 bf e8 	ld  [ %fp + -24 ], %g3
    c718:	c8 07 bf e4 	ld  [ %fp + -28 ], %g4
    c71c:	ba 10 00 0b 	mov  %o3, %i5
    c720:	f4 1f bf f8 	ldd  [ %fp + -8 ], %i2
    c724:	f2 07 bf f4 	ld  [ %fp + -12 ], %i1
    c728:	b0 10 00 0c 	mov  %o4, %i0
    c72c:	b8 0f 00 0f 	and  %i4, %o7, %i4
    c730:	80 a0 40 0f 	cmp  %g1, %o7
    c734:	12 80 00 07 	bne  c750 <_Q_feq+0x98>
    c738:	9b 33 60 1f 	srl  %o5, 0x1f, %o5
    c73c:	9e 10 c0 02 	or  %g3, %g2, %o7
    c740:	9e 13 c0 04 	or  %o7, %g4, %o7
    c744:	80 93 c0 0b 	orcc  %o7, %o3, %g0
    c748:	32 80 00 2a 	bne,a   c7f0 <_Q_feq+0x138>
    c74c:	84 10 c0 02 	or  %g3, %g2, %g2
    c750:	1f 00 00 1f 	sethi  %hi(0x7c00), %o7
    c754:	9e 13 e3 ff 	or  %o7, 0x3ff, %o7	! 7fff <_fpmaxtostr+0x5c7>
    c758:	80 a7 00 0f 	cmp  %i4, %o7
    c75c:	12 80 00 08 	bne  c77c <_Q_feq+0xc4>
    c760:	80 a0 40 1c 	cmp  %g1, %i4
    c764:	9e 16 80 1b 	or  %i2, %i3, %o7
    c768:	9e 13 c0 19 	or  %o7, %i1, %o7
    c76c:	80 93 c0 18 	orcc  %o7, %i0, %g0
    c770:	12 80 00 34 	bne  c840 <_Q_feq+0x188>
    c774:	1f 00 00 1f 	sethi  %hi(0x7c00), %o7
    c778:	80 a0 40 1c 	cmp  %g1, %i4
    c77c:	12 80 00 31 	bne  c840 <_Q_feq+0x188>
    c780:	1f 00 00 1f 	sethi  %hi(0x7c00), %o7
    c784:	80 a0 80 1b 	cmp  %g2, %i3
    c788:	12 80 00 2f 	bne  c844 <_Q_feq+0x18c>
    c78c:	9e 13 e3 ff 	or  %o7, 0x3ff, %o7
    c790:	80 a0 c0 1a 	cmp  %g3, %i2
    c794:	12 80 00 2b 	bne  c840 <_Q_feq+0x188>
    c798:	1f 00 00 1f 	sethi  %hi(0x7c00), %o7
    c79c:	80 a1 00 19 	cmp  %g4, %i1
    c7a0:	12 80 00 29 	bne  c844 <_Q_feq+0x18c>
    c7a4:	9e 13 e3 ff 	or  %o7, 0x3ff, %o7
    c7a8:	80 a7 40 18 	cmp  %i5, %i0
    c7ac:	12 80 00 26 	bne  c844 <_Q_feq+0x18c>
    c7b0:	01 00 00 00 	nop 
    c7b4:	9e 0a a0 ff 	and  %o2, 0xff, %o7
    c7b8:	9a 0b 60 ff 	and  %o5, 0xff, %o5
    c7bc:	80 a3 c0 0d 	cmp  %o7, %o5
    c7c0:	02 80 00 2a 	be  c868 <_Q_feq+0x1b0>
    c7c4:	80 a0 60 00 	cmp  %g1, 0
    c7c8:	12 80 00 1e 	bne  c840 <_Q_feq+0x188>
    c7cc:	1f 00 00 1f 	sethi  %hi(0x7c00), %o7
    c7d0:	9e 10 c0 02 	or  %g3, %g2, %o7
    c7d4:	9e 13 c0 04 	or  %o7, %g4, %o7
    c7d8:	80 93 c0 1d 	orcc  %o7, %i5, %g0
    c7dc:	12 80 00 19 	bne  c840 <_Q_feq+0x188>
    c7e0:	1f 00 00 1f 	sethi  %hi(0x7c00), %o7
    c7e4:	10 80 00 22 	b  c86c <_Q_feq+0x1b4>
    c7e8:	b0 10 20 00 	clr  %i0
    c7ec:	84 10 c0 02 	or  %g3, %g2, %g2
    c7f0:	88 10 80 04 	or  %g2, %g4, %g4
    c7f4:	80 91 00 1d 	orcc  %g4, %i5, %g0
    c7f8:	02 80 00 16 	be  c850 <_Q_feq+0x198>
    c7fc:	03 00 00 1f 	sethi  %hi(0x7c00), %g1
    c800:	03 00 00 20 	sethi  %hi(0x8000), %g1
    c804:	80 88 40 0b 	btst  %g1, %o3
    c808:	02 80 00 21 	be  c88c <_Q_feq+0x1d4>
    c80c:	90 10 20 10 	mov  0x10, %o0
    c810:	10 80 00 10 	b  c850 <_Q_feq+0x198>
    c814:	03 00 00 1f 	sethi  %hi(0x7c00), %g1
    c818:	b2 16 c0 19 	or  %i3, %i1, %i1
    c81c:	80 96 40 18 	orcc  %i1, %i0, %g0
    c820:	22 80 00 13 	be,a   c86c <_Q_feq+0x1b4>
    c824:	b0 10 20 01 	mov  1, %i0
    c828:	03 00 00 20 	sethi  %hi(0x8000), %g1
    c82c:	80 88 40 0c 	btst  %g1, %o4
    c830:	02 80 00 17 	be  c88c <_Q_feq+0x1d4>
    c834:	90 10 20 10 	mov  0x10, %o0
    c838:	10 80 00 0d 	b  c86c <_Q_feq+0x1b4>
    c83c:	b0 10 20 01 	mov  1, %i0
    c840:	9e 13 e3 ff 	or  %o7, 0x3ff, %o7
    c844:	80 a0 40 0f 	cmp  %g1, %o7
    c848:	02 bf ff e9 	be  c7ec <_Q_feq+0x134>
    c84c:	03 00 00 1f 	sethi  %hi(0x7c00), %g1
    c850:	82 10 63 ff 	or  %g1, 0x3ff, %g1	! 7fff <_fpmaxtostr+0x5c7>
    c854:	80 a7 00 01 	cmp  %i4, %g1
    c858:	22 bf ff f0 	be,a   c818 <_Q_feq+0x160>
    c85c:	b6 16 80 1b 	or  %i2, %i3, %i3
    c860:	10 80 00 03 	b  c86c <_Q_feq+0x1b4>
    c864:	b0 10 20 01 	mov  1, %i0
    c868:	b0 10 20 00 	clr  %i0
    c86c:	03 00 00 00 	sethi  %hi(0), %g1
    c870:	82 18 7f d4 	xor  %g1, -44, %g1
    c874:	82 05 c0 01 	add  %l7, %g1, %g1
    c878:	fd 18 40 00 	ldd  [ %g1 ], %f30
    c87c:	bd a7 88 5e 	faddd  %f30, %f30, %f30
    c880:	b0 1e 20 01 	xor  %i0, 1, %i0
    c884:	81 c7 e0 08 	ret 
    c888:	81 e8 00 00 	restore 
    c88c:	7f ff eb 24 	call  751c <___Q_simulate_exceptions>
    c890:	b0 10 20 01 	mov  1, %i0
    c894:	b0 1e 20 01 	xor  %i0, 1, %i0
    c898:	81 c7 e0 08 	ret 
    c89c:	81 e8 00 00 	restore 

0000c8a0 <_Q_fne>:
    c8a0:	9d e3 bf 80 	save  %sp, -128, %sp
    c8a4:	2f 00 00 27 	sethi  %hi(0x9c00), %l7
    c8a8:	40 00 0d d6 	call  10000 <__sparc_get_pc_thunk.l7>
    c8ac:	ae 05 e0 74 	add  %l7, 0x74, %l7	! 9c74 <_Q_mul+0x1a0>
    c8b0:	d4 1e 20 08 	ldd  [ %i0 + 8 ], %o2
    c8b4:	f4 1e 60 08 	ldd  [ %i1 + 8 ], %i2
    c8b8:	d4 3f bf e8 	std  %o2, [ %fp + -24 ]
    c8bc:	d0 1e 00 00 	ldd  [ %i0 ], %o0
    c8c0:	f4 3f bf f8 	std  %i2, [ %fp + -8 ]
    c8c4:	f0 1e 40 00 	ldd  [ %i1 ], %i0
    c8c8:	d0 3f bf e0 	std  %o0, [ %fp + -32 ]
    c8cc:	f0 3f bf f0 	std  %i0, [ %fp + -16 ]
    c8d0:	f8 07 bf e0 	ld  [ %fp + -32 ], %i4
    c8d4:	da 07 bf f0 	ld  [ %fp + -16 ], %o5
    c8d8:	83 37 20 10 	srl  %i4, 0x10, %g1
    c8dc:	d6 17 bf e2 	lduh  [ %fp + -30 ], %o3
    c8e0:	1f 00 00 1f 	sethi  %hi(0x7c00), %o7
    c8e4:	95 37 20 1f 	srl  %i4, 0x1f, %o2
    c8e8:	9e 13 e3 ff 	or  %o7, 0x3ff, %o7
    c8ec:	b9 33 60 10 	srl  %o5, 0x10, %i4
    c8f0:	82 08 40 0f 	and  %g1, %o7, %g1
    c8f4:	d8 17 bf f2 	lduh  [ %fp + -14 ], %o4
    c8f8:	c4 07 bf ec 	ld  [ %fp + -20 ], %g2
    c8fc:	c6 07 bf e8 	ld  [ %fp + -24 ], %g3
    c900:	c8 07 bf e4 	ld  [ %fp + -28 ], %g4
    c904:	ba 10 00 0b 	mov  %o3, %i5
    c908:	f4 1f bf f8 	ldd  [ %fp + -8 ], %i2
    c90c:	f2 07 bf f4 	ld  [ %fp + -12 ], %i1
    c910:	b0 10 00 0c 	mov  %o4, %i0
    c914:	b8 0f 00 0f 	and  %i4, %o7, %i4
    c918:	80 a0 40 0f 	cmp  %g1, %o7
    c91c:	12 80 00 07 	bne  c938 <_Q_fne+0x98>
    c920:	9b 33 60 1f 	srl  %o5, 0x1f, %o5
    c924:	9e 10 c0 02 	or  %g3, %g2, %o7
    c928:	9e 13 c0 04 	or  %o7, %g4, %o7
    c92c:	80 93 c0 0b 	orcc  %o7, %o3, %g0
    c930:	32 80 00 2a 	bne,a   c9d8 <_Q_fne+0x138>
    c934:	84 10 c0 02 	or  %g3, %g2, %g2
    c938:	1f 00 00 1f 	sethi  %hi(0x7c00), %o7
    c93c:	9e 13 e3 ff 	or  %o7, 0x3ff, %o7	! 7fff <_fpmaxtostr+0x5c7>
    c940:	80 a7 00 0f 	cmp  %i4, %o7
    c944:	12 80 00 08 	bne  c964 <_Q_fne+0xc4>
    c948:	80 a0 40 1c 	cmp  %g1, %i4
    c94c:	9e 16 80 1b 	or  %i2, %i3, %o7
    c950:	9e 13 c0 19 	or  %o7, %i1, %o7
    c954:	80 93 c0 18 	orcc  %o7, %i0, %g0
    c958:	12 80 00 34 	bne  ca28 <_Q_fne+0x188>
    c95c:	1f 00 00 1f 	sethi  %hi(0x7c00), %o7
    c960:	80 a0 40 1c 	cmp  %g1, %i4
    c964:	12 80 00 31 	bne  ca28 <_Q_fne+0x188>
    c968:	1f 00 00 1f 	sethi  %hi(0x7c00), %o7
    c96c:	80 a0 80 1b 	cmp  %g2, %i3
    c970:	12 80 00 2f 	bne  ca2c <_Q_fne+0x18c>
    c974:	9e 13 e3 ff 	or  %o7, 0x3ff, %o7
    c978:	80 a0 c0 1a 	cmp  %g3, %i2
    c97c:	12 80 00 2b 	bne  ca28 <_Q_fne+0x188>
    c980:	1f 00 00 1f 	sethi  %hi(0x7c00), %o7
    c984:	80 a1 00 19 	cmp  %g4, %i1
    c988:	12 80 00 29 	bne  ca2c <_Q_fne+0x18c>
    c98c:	9e 13 e3 ff 	or  %o7, 0x3ff, %o7
    c990:	80 a7 40 18 	cmp  %i5, %i0
    c994:	12 80 00 26 	bne  ca2c <_Q_fne+0x18c>
    c998:	01 00 00 00 	nop 
    c99c:	9e 0a a0 ff 	and  %o2, 0xff, %o7
    c9a0:	9a 0b 60 ff 	and  %o5, 0xff, %o5
    c9a4:	80 a3 c0 0d 	cmp  %o7, %o5
    c9a8:	02 80 00 2a 	be  ca50 <_Q_fne+0x1b0>
    c9ac:	80 a0 60 00 	cmp  %g1, 0
    c9b0:	12 80 00 1e 	bne  ca28 <_Q_fne+0x188>
    c9b4:	1f 00 00 1f 	sethi  %hi(0x7c00), %o7
    c9b8:	9e 10 c0 02 	or  %g3, %g2, %o7
    c9bc:	9e 13 c0 04 	or  %o7, %g4, %o7
    c9c0:	80 93 c0 1d 	orcc  %o7, %i5, %g0
    c9c4:	12 80 00 19 	bne  ca28 <_Q_fne+0x188>
    c9c8:	1f 00 00 1f 	sethi  %hi(0x7c00), %o7
    c9cc:	10 80 00 22 	b  ca54 <_Q_fne+0x1b4>
    c9d0:	b0 10 20 00 	clr  %i0
    c9d4:	84 10 c0 02 	or  %g3, %g2, %g2
    c9d8:	88 10 80 04 	or  %g2, %g4, %g4
    c9dc:	80 91 00 1d 	orcc  %g4, %i5, %g0
    c9e0:	02 80 00 16 	be  ca38 <_Q_fne+0x198>
    c9e4:	03 00 00 1f 	sethi  %hi(0x7c00), %g1
    c9e8:	03 00 00 20 	sethi  %hi(0x8000), %g1
    c9ec:	80 88 40 0b 	btst  %g1, %o3
    c9f0:	02 80 00 20 	be  ca70 <_Q_fne+0x1d0>
    c9f4:	90 10 20 10 	mov  0x10, %o0
    c9f8:	10 80 00 10 	b  ca38 <_Q_fne+0x198>
    c9fc:	03 00 00 1f 	sethi  %hi(0x7c00), %g1
    ca00:	b2 16 c0 19 	or  %i3, %i1, %i1
    ca04:	80 96 40 18 	orcc  %i1, %i0, %g0
    ca08:	22 80 00 13 	be,a   ca54 <_Q_fne+0x1b4>
    ca0c:	b0 10 20 01 	mov  1, %i0
    ca10:	03 00 00 20 	sethi  %hi(0x8000), %g1
    ca14:	80 88 40 0c 	btst  %g1, %o4
    ca18:	02 80 00 16 	be  ca70 <_Q_fne+0x1d0>
    ca1c:	90 10 20 10 	mov  0x10, %o0
    ca20:	10 80 00 0d 	b  ca54 <_Q_fne+0x1b4>
    ca24:	b0 10 20 01 	mov  1, %i0
    ca28:	9e 13 e3 ff 	or  %o7, 0x3ff, %o7
    ca2c:	80 a0 40 0f 	cmp  %g1, %o7
    ca30:	02 bf ff e9 	be  c9d4 <_Q_fne+0x134>
    ca34:	03 00 00 1f 	sethi  %hi(0x7c00), %g1
    ca38:	82 10 63 ff 	or  %g1, 0x3ff, %g1	! 7fff <_fpmaxtostr+0x5c7>
    ca3c:	80 a7 00 01 	cmp  %i4, %g1
    ca40:	22 bf ff f0 	be,a   ca00 <_Q_fne+0x160>
    ca44:	b6 16 80 1b 	or  %i2, %i3, %i3
    ca48:	10 80 00 03 	b  ca54 <_Q_fne+0x1b4>
    ca4c:	b0 10 20 01 	mov  1, %i0
    ca50:	b0 10 20 00 	clr  %i0
    ca54:	03 00 00 00 	sethi  %hi(0), %g1
    ca58:	82 18 7f d4 	xor  %g1, -44, %g1
    ca5c:	82 05 c0 01 	add  %l7, %g1, %g1
    ca60:	fd 18 40 00 	ldd  [ %g1 ], %f30
    ca64:	bd a7 88 5e 	faddd  %f30, %f30, %f30
    ca68:	81 c7 e0 08 	ret 
    ca6c:	81 e8 00 00 	restore 
    ca70:	7f ff ea ab 	call  751c <___Q_simulate_exceptions>
    ca74:	b0 10 20 01 	mov  1, %i0
    ca78:	81 c7 e0 08 	ret 
    ca7c:	81 e8 00 00 	restore 

0000ca80 <_Q_qtou>:
    ca80:	9d e3 bf 80 	save  %sp, -128, %sp
    ca84:	f4 1e 20 08 	ldd  [ %i0 + 8 ], %i2
    ca88:	f0 1e 00 00 	ldd  [ %i0 ], %i0
    ca8c:	f4 3f bf e8 	std  %i2, [ %fp + -24 ]
    ca90:	f0 3f bf e0 	std  %i0, [ %fp + -32 ]
    ca94:	fa 07 bf ec 	ld  [ %fp + -20 ], %i5
    ca98:	f8 07 bf e8 	ld  [ %fp + -24 ], %i4
    ca9c:	c4 07 bf e4 	ld  [ %fp + -28 ], %g2
    caa0:	fa 27 bf f0 	st  %i5, [ %fp + -16 ]
    caa4:	f8 27 bf f4 	st  %i4, [ %fp + -12 ]
    caa8:	c4 27 bf f8 	st  %g2, [ %fp + -8 ]
    caac:	c8 07 bf e0 	ld  [ %fp + -32 ], %g4
    cab0:	2f 00 00 26 	sethi  %hi(0x9800), %l7
    cab4:	40 00 0d 53 	call  10000 <__sparc_get_pc_thunk.l7>
    cab8:	ae 05 e2 68 	add  %l7, 0x268, %l7	! 9a68 <_Q_div+0x105c>
    cabc:	83 29 20 01 	sll  %g4, 1, %g1
    cac0:	37 00 00 0f 	sethi  %hi(0x3c00), %i3
    cac4:	83 30 60 11 	srl  %g1, 0x11, %g1
    cac8:	b6 16 e3 fe 	or  %i3, 0x3fe, %i3
    cacc:	c6 17 bf e2 	lduh  [ %fp + -30 ], %g3
    cad0:	80 a0 40 1b 	cmp  %g1, %i3
    cad4:	14 80 00 09 	bg  caf8 <_Q_qtou+0x78>
    cad8:	89 31 20 1f 	srl  %g4, 0x1f, %g4
    cadc:	80 a0 60 00 	cmp  %g1, 0
    cae0:	12 80 00 75 	bne  ccb4 <_Q_qtou+0x234>
    cae4:	b0 10 20 00 	clr  %i0
    cae8:	ba 17 00 1d 	or  %i4, %i5, %i5
    caec:	84 17 40 02 	or  %i5, %g2, %g2
    caf0:	10 80 00 69 	b  cc94 <_Q_qtou+0x214>
    caf4:	80 90 80 03 	orcc  %g2, %g3, %g0
    caf8:	b4 89 20 ff 	andcc  %g4, 0xff, %i2
    cafc:	02 80 00 04 	be  cb0c <_Q_qtou+0x8c>
    cb00:	37 00 00 10 	sethi  %hi(0x4000), %i3
    cb04:	10 80 00 03 	b  cb10 <_Q_qtou+0x90>
    cb08:	b6 16 e0 1e 	or  %i3, 0x1e, %i3	! 401e <vfctprintf+0x26>
    cb0c:	b6 16 e0 1f 	or  %i3, 0x1f, %i3
    cb10:	80 a0 40 1b 	cmp  %g1, %i3
    cb14:	26 80 00 15 	bl,a   cb68 <_Q_qtou+0xe8>
    cb18:	3b 00 00 40 	sethi  %hi(0x10000), %i5
    cb1c:	88 09 20 ff 	and  %g4, 0xff, %g4
    cb20:	31 1f ff ff 	sethi  %hi(0x7ffffc00), %i0
    cb24:	37 00 00 10 	sethi  %hi(0x4000), %i3
    cb28:	b0 16 23 ff 	or  %i0, 0x3ff, %i0
    cb2c:	b6 16 e0 1e 	or  %i3, 0x1e, %i3
    cb30:	80 a0 40 1b 	cmp  %g1, %i3
    cb34:	12 80 00 65 	bne  ccc8 <_Q_qtou+0x248>
    cb38:	b0 01 00 18 	add  %g4, %i0, %i0
    cb3c:	80 a1 20 00 	cmp  %g4, 0
    cb40:	02 80 00 5e 	be  ccb8 <_Q_qtou+0x238>
    cb44:	90 10 20 10 	mov  0x10, %o0
    cb48:	87 28 e0 0f 	sll  %g3, 0xf, %g3
    cb4c:	83 30 a0 11 	srl  %g2, 0x11, %g1
    cb50:	80 90 c0 01 	orcc  %g3, %g1, %g0
    cb54:	12 80 00 59 	bne  ccb8 <_Q_qtou+0x238>
    cb58:	ba 17 00 1d 	or  %i4, %i5, %i5
    cb5c:	85 28 a0 0f 	sll  %g2, 0xf, %g2
    cb60:	10 80 00 4d 	b  cc94 <_Q_qtou+0x214>
    cb64:	80 97 40 02 	orcc  %i5, %g2, %g0
    cb68:	09 00 00 10 	sethi  %hi(0x4000), %g4
    cb6c:	ba 10 c0 1d 	or  %g3, %i5, %i5
    cb70:	88 11 20 6f 	or  %g4, 0x6f, %g4
    cb74:	fa 27 bf fc 	st  %i5, [ %fp + -4 ]
    cb78:	88 21 00 01 	sub  %g4, %g1, %g4
    cb7c:	86 10 20 00 	clr  %g3
    cb80:	85 39 20 05 	sra  %g4, 5, %g2
    cb84:	82 10 20 00 	clr  %g1
    cb88:	b9 28 60 02 	sll  %g1, 2, %i4
    cb8c:	82 00 60 01 	inc  %g1
    cb90:	b8 07 80 1c 	add  %fp, %i4, %i4
    cb94:	80 a0 40 02 	cmp  %g1, %g2
    cb98:	f8 07 3f f0 	ld  [ %i4 + -16 ], %i4
    cb9c:	06 bf ff fb 	bl  cb88 <_Q_qtou+0x108>
    cba0:	86 10 c0 1c 	or  %g3, %i4, %g3
    cba4:	88 89 20 1f 	andcc  %g4, 0x1f, %g4
    cba8:	22 80 00 0c 	be,a   cbd8 <_Q_qtou+0x158>
    cbac:	88 10 20 03 	mov  3, %g4
    cbb0:	10 80 00 11 	b  cbf4 <_Q_qtou+0x174>
    cbb4:	b8 10 20 20 	mov  0x20, %i4
    cbb8:	bb 2f 60 02 	sll  %i5, 2, %i5
    cbbc:	ba 07 80 1d 	add  %fp, %i5, %i5
    cbc0:	f8 07 7f f0 	ld  [ %i5 + -16 ], %i4
    cbc4:	bb 28 60 02 	sll  %g1, 2, %i5
    cbc8:	82 00 60 01 	inc  %g1
    cbcc:	ba 07 80 1d 	add  %fp, %i5, %i5
    cbd0:	10 80 00 04 	b  cbe0 <_Q_qtou+0x160>
    cbd4:	f8 27 7f f0 	st  %i4, [ %i5 + -16 ]
    cbd8:	82 10 20 00 	clr  %g1
    cbdc:	88 21 00 02 	sub  %g4, %g2, %g4
    cbe0:	80 a0 40 04 	cmp  %g1, %g4
    cbe4:	04 bf ff f5 	ble  cbb8 <_Q_qtou+0x138>
    cbe8:	ba 00 40 02 	add  %g1, %g2, %i5
    cbec:	10 80 00 23 	b  cc78 <_Q_qtou+0x1f8>
    cbf0:	80 a0 60 03 	cmp  %g1, 3
    cbf4:	83 28 60 02 	sll  %g1, 2, %g1
    cbf8:	b8 27 00 04 	sub  %i4, %g4, %i4
    cbfc:	82 07 80 01 	add  %fp, %g1, %g1
    cc00:	c2 00 7f f0 	ld  [ %g1 + -16 ], %g1
    cc04:	83 28 40 1c 	sll  %g1, %i4, %g1
    cc08:	b2 00 a0 01 	add  %g2, 1, %i1
    cc0c:	86 10 c0 01 	or  %g3, %g1, %g3
    cc10:	b6 10 20 03 	mov  3, %i3
    cc14:	82 10 20 00 	clr  %g1
    cc18:	b6 26 c0 02 	sub  %i3, %g2, %i3
    cc1c:	b3 2e 60 02 	sll  %i1, 2, %i1
    cc20:	10 80 00 0a 	b  cc48 <_Q_qtou+0x1c8>
    cc24:	85 28 a0 02 	sll  %g2, 2, %g2
    cc28:	f0 00 7f f0 	ld  [ %g1 + -16 ], %i0
    cc2c:	82 07 80 02 	add  %fp, %g2, %g1
    cc30:	b1 2e 00 1c 	sll  %i0, %i4, %i0
    cc34:	c2 00 7f f0 	ld  [ %g1 + -16 ], %g1
    cc38:	83 30 40 04 	srl  %g1, %g4, %g1
    cc3c:	82 16 00 01 	or  %i0, %g1, %g1
    cc40:	c2 27 bf f0 	st  %g1, [ %fp + -16 ]
    cc44:	82 10 20 01 	mov  1, %g1
    cc48:	80 a0 40 1b 	cmp  %g1, %i3
    cc4c:	26 bf ff f7 	bl,a   cc28 <_Q_qtou+0x1a8>
    cc50:	82 07 80 19 	add  %fp, %i1, %g1
    cc54:	85 28 60 02 	sll  %g1, 2, %g2
    cc58:	89 37 40 04 	srl  %i5, %g4, %g4
    cc5c:	84 07 80 02 	add  %fp, %g2, %g2
    cc60:	10 80 00 04 	b  cc70 <_Q_qtou+0x1f0>
    cc64:	c8 20 bf f0 	st  %g4, [ %g2 + -16 ]
    cc68:	84 07 80 02 	add  %fp, %g2, %g2
    cc6c:	c0 20 bf f0 	clr  [ %g2 + -16 ]
    cc70:	82 00 60 01 	inc  %g1
    cc74:	80 a0 60 03 	cmp  %g1, 3
    cc78:	04 bf ff fc 	ble  cc68 <_Q_qtou+0x1e8>
    cc7c:	85 28 60 02 	sll  %g1, 2, %g2
    cc80:	80 a6 a0 00 	cmp  %i2, 0
    cc84:	02 80 00 03 	be  cc90 <_Q_qtou+0x210>
    cc88:	f0 07 bf f0 	ld  [ %fp + -16 ], %i0
    cc8c:	b0 20 00 18 	neg  %i0
    cc90:	80 a0 e0 00 	cmp  %g3, 0
    cc94:	12 80 00 08 	bne  ccb4 <_Q_qtou+0x234>
    cc98:	03 00 00 00 	sethi  %hi(0), %g1
    cc9c:	82 18 7f d4 	xor  %g1, -44, %g1
    cca0:	82 05 c0 01 	add  %l7, %g1, %g1
    cca4:	fd 18 40 00 	ldd  [ %g1 ], %f30
    cca8:	bd a7 88 5e 	faddd  %f30, %f30, %f30
    ccac:	81 c7 e0 08 	ret 
    ccb0:	81 e8 00 00 	restore 
    ccb4:	90 10 20 01 	mov  1, %o0
    ccb8:	7f ff ea 19 	call  751c <___Q_simulate_exceptions>
    ccbc:	01 00 00 00 	nop 
    ccc0:	81 c7 e0 08 	ret 
    ccc4:	81 e8 00 00 	restore 
    ccc8:	10 bf ff fc 	b  ccb8 <_Q_qtou+0x238>
    cccc:	90 10 20 10 	mov  0x10, %o0

0000ccd0 <_Q_fge>:
    ccd0:	9d e3 bf 80 	save  %sp, -128, %sp
    ccd4:	2f 00 00 26 	sethi  %hi(0x9800), %l7
    ccd8:	40 00 0c ca 	call  10000 <__sparc_get_pc_thunk.l7>
    ccdc:	ae 05 e0 44 	add  %l7, 0x44, %l7	! 9844 <_Q_div+0xe38>
    cce0:	d4 1e 20 08 	ldd  [ %i0 + 8 ], %o2
    cce4:	f4 1e 60 08 	ldd  [ %i1 + 8 ], %i2
    cce8:	d4 3f bf e8 	std  %o2, [ %fp + -24 ]
    ccec:	f4 3f bf f8 	std  %i2, [ %fp + -8 ]
    ccf0:	d0 1e 00 00 	ldd  [ %i0 ], %o0
    ccf4:	f0 1e 40 00 	ldd  [ %i1 ], %i0
    ccf8:	d0 3f bf e0 	std  %o0, [ %fp + -32 ]
    ccfc:	f0 3f bf f0 	std  %i0, [ %fp + -16 ]
    cd00:	d4 07 bf e0 	ld  [ %fp + -32 ], %o2
    cd04:	c4 07 bf f0 	ld  [ %fp + -16 ], %g2
    cd08:	99 32 a0 10 	srl  %o2, 0x10, %o4
    cd0c:	b1 30 a0 10 	srl  %g2, 0x10, %i0
    cd10:	17 00 00 1f 	sethi  %hi(0x7c00), %o3
    cd14:	96 12 e3 ff 	or  %o3, 0x3ff, %o3	! 7fff <_fpmaxtostr+0x5c7>
    cd18:	da 07 bf ec 	ld  [ %fp + -20 ], %o5
    cd1c:	b0 0e 00 0b 	and  %i0, %o3, %i0
    cd20:	c8 07 bf e8 	ld  [ %fp + -24 ], %g4
    cd24:	f8 07 bf e4 	ld  [ %fp + -28 ], %i4
    cd28:	de 17 bf e2 	lduh  [ %fp + -30 ], %o7
    cd2c:	98 0b 00 0b 	and  %o4, %o3, %o4
    cd30:	95 32 a0 1f 	srl  %o2, 0x1f, %o2
    cd34:	f4 07 bf fc 	ld  [ %fp + -4 ], %i2
    cd38:	c6 07 bf f8 	ld  [ %fp + -8 ], %g3
    cd3c:	fa 07 bf f4 	ld  [ %fp + -12 ], %i5
    cd40:	f6 17 bf f2 	lduh  [ %fp + -14 ], %i3
    cd44:	80 a6 00 0b 	cmp  %i0, %o3
    cd48:	12 80 00 07 	bne  cd64 <_Q_fge+0x94>
    cd4c:	85 30 a0 1f 	srl  %g2, 0x1f, %g2
    cd50:	82 10 c0 1a 	or  %g3, %i2, %g1
    cd54:	82 10 40 1d 	or  %g1, %i5, %g1
    cd58:	80 90 40 1b 	orcc  %g1, %i3, %g0
    cd5c:	12 80 00 6a 	bne  cf04 <_Q_fge+0x234>
    cd60:	01 00 00 00 	nop 
    cd64:	03 00 00 1f 	sethi  %hi(0x7c00), %g1
    cd68:	82 10 63 ff 	or  %g1, 0x3ff, %g1	! 7fff <_fpmaxtostr+0x5c7>
    cd6c:	80 a3 00 01 	cmp  %o4, %g1
    cd70:	12 80 00 07 	bne  cd8c <_Q_fge+0xbc>
    cd74:	80 a6 20 00 	cmp  %i0, 0
    cd78:	82 11 00 0d 	or  %g4, %o5, %g1
    cd7c:	82 10 40 1c 	or  %g1, %i4, %g1
    cd80:	80 90 40 0f 	orcc  %g1, %o7, %g0
    cd84:	12 80 00 60 	bne  cf04 <_Q_fge+0x234>
    cd88:	80 a6 20 00 	cmp  %i0, 0
    cd8c:	12 80 00 07 	bne  cda8 <_Q_fge+0xd8>
    cd90:	b2 10 20 00 	clr  %i1
    cd94:	82 10 c0 1a 	or  %g3, %i2, %g1
    cd98:	82 10 40 1d 	or  %g1, %i5, %g1
    cd9c:	82 10 40 1b 	or  %g1, %i3, %g1
    cda0:	80 a0 00 01 	cmp  %g0, %g1
    cda4:	b2 60 3f ff 	subx  %g0, -1, %i1
    cda8:	80 a3 20 00 	cmp  %o4, 0
    cdac:	12 80 00 07 	bne  cdc8 <_Q_fge+0xf8>
    cdb0:	96 10 20 00 	clr  %o3
    cdb4:	82 11 00 0d 	or  %g4, %o5, %g1
    cdb8:	82 10 40 1c 	or  %g1, %i4, %g1
    cdbc:	82 10 40 0f 	or  %g1, %o7, %g1
    cdc0:	80 a0 00 01 	cmp  %g0, %g1
    cdc4:	96 60 3f ff 	subx  %g0, -1, %o3
    cdc8:	80 8a c0 19 	btst  %o3, %i1
    cdcc:	12 80 00 47 	bne  cee8 <_Q_fge+0x218>
    cdd0:	82 10 20 00 	clr  %g1
    cdd4:	80 a6 60 00 	cmp  %i1, 0
    cdd8:	02 80 00 04 	be  cde8 <_Q_fge+0x118>
    cddc:	94 0a a0 ff 	and  %o2, 0xff, %o2
    cde0:	10 80 00 3a 	b  cec8 <_Q_fge+0x1f8>
    cde4:	80 a0 00 0a 	cmp  %g0, %o2
    cde8:	80 a2 e0 00 	cmp  %o3, 0
    cdec:	02 80 00 04 	be  cdfc <_Q_fge+0x12c>
    cdf0:	84 08 a0 ff 	and  %g2, 0xff, %g2
    cdf4:	10 80 00 36 	b  cecc <_Q_fge+0x1fc>
    cdf8:	82 20 00 02 	neg  %g2, %g1
    cdfc:	80 a0 80 0a 	cmp  %g2, %o2
    ce00:	12 80 00 33 	bne  cecc <_Q_fge+0x1fc>
    ce04:	82 20 00 02 	neg  %g2, %g1
    ce08:	80 a6 00 0c 	cmp  %i0, %o4
    ce0c:	34 80 00 37 	bg,a   cee8 <_Q_fge+0x218>
    ce10:	82 10 60 01 	or  %g1, 1, %g1
    ce14:	36 80 00 04 	bge,a   ce24 <_Q_fge+0x154>
    ce18:	80 a6 c0 0f 	cmp  %i3, %o7
    ce1c:	10 80 00 2b 	b  cec8 <_Q_fge+0x1f8>
    ce20:	80 a0 00 02 	cmp  %g0, %g2
    ce24:	18 80 00 2a 	bgu  cecc <_Q_fge+0x1fc>
    ce28:	82 20 00 02 	neg  %g2, %g1
    ce2c:	80 a6 c0 0f 	cmp  %i3, %o7
    ce30:	12 80 00 11 	bne  ce74 <_Q_fge+0x1a4>
    ce34:	80 a3 c0 1b 	cmp  %o7, %i3
    ce38:	80 a7 40 1c 	cmp  %i5, %i4
    ce3c:	38 80 00 2b 	bgu,a   cee8 <_Q_fge+0x218>
    ce40:	82 10 60 01 	or  %g1, 1, %g1
    ce44:	12 80 00 12 	bne  ce8c <_Q_fge+0x1bc>
    ce48:	80 a7 00 1d 	cmp  %i4, %i5
    ce4c:	80 a0 c0 04 	cmp  %g3, %g4
    ce50:	38 80 00 26 	bgu,a   cee8 <_Q_fge+0x218>
    ce54:	82 10 60 01 	or  %g1, 1, %g1
    ce58:	12 80 00 0d 	bne  ce8c <_Q_fge+0x1bc>
    ce5c:	80 a7 00 1d 	cmp  %i4, %i5
    ce60:	80 a6 80 0d 	cmp  %i2, %o5
    ce64:	08 80 00 0a 	bleu  ce8c <_Q_fge+0x1bc>
    ce68:	80 a7 00 1d 	cmp  %i4, %i5
    ce6c:	10 80 00 1f 	b  cee8 <_Q_fge+0x218>
    ce70:	82 10 60 01 	or  %g1, 1, %g1
    ce74:	18 80 00 15 	bgu  cec8 <_Q_fge+0x1f8>
    ce78:	80 a0 00 02 	cmp  %g0, %g2
    ce7c:	80 a3 c0 1b 	cmp  %o7, %i3
    ce80:	12 80 00 1a 	bne  cee8 <_Q_fge+0x218>
    ce84:	82 10 00 19 	mov  %i1, %g1
    ce88:	80 a7 00 1d 	cmp  %i4, %i5
    ce8c:	18 80 00 0f 	bgu  cec8 <_Q_fge+0x1f8>
    ce90:	80 a0 00 02 	cmp  %g0, %g2
    ce94:	80 a7 00 1d 	cmp  %i4, %i5
    ce98:	12 80 00 14 	bne  cee8 <_Q_fge+0x218>
    ce9c:	82 10 20 00 	clr  %g1
    cea0:	80 a1 00 03 	cmp  %g4, %g3
    cea4:	18 80 00 09 	bgu  cec8 <_Q_fge+0x1f8>
    cea8:	80 a0 00 02 	cmp  %g0, %g2
    ceac:	80 a1 00 03 	cmp  %g4, %g3
    ceb0:	32 80 00 0f 	bne,a   ceec <_Q_fge+0x21c>
    ceb4:	05 00 00 00 	sethi  %hi(0), %g2
    ceb8:	80 a3 40 1a 	cmp  %o5, %i2
    cebc:	28 80 00 0c 	bleu,a   ceec <_Q_fge+0x21c>
    cec0:	05 00 00 00 	sethi  %hi(0), %g2
    cec4:	80 a0 00 02 	cmp  %g0, %g2
    cec8:	82 40 3f ff 	addx  %g0, -1, %g1
    cecc:	10 80 00 07 	b  cee8 <_Q_fge+0x218>
    ced0:	82 10 60 01 	or  %g1, 1, %g1
    ced4:	b0 00 7f ff 	add  %g1, -1, %i0
    ced8:	82 10 40 18 	or  %g1, %i0, %g1
    cedc:	b1 30 60 1f 	srl  %g1, 0x1f, %i0
    cee0:	81 c7 e0 08 	ret 
    cee4:	81 e8 00 00 	restore 
    cee8:	05 00 00 00 	sethi  %hi(0), %g2
    ceec:	84 18 bf d4 	xor  %g2, -44, %g2
    cef0:	84 05 c0 02 	add  %l7, %g2, %g2
    cef4:	fd 18 80 00 	ldd  [ %g2 ], %f30
    cef8:	bd a7 88 5e 	faddd  %f30, %f30, %f30
    cefc:	10 bf ff f7 	b  ced8 <_Q_fge+0x208>
    cf00:	b0 00 7f ff 	add  %g1, -1, %i0
    cf04:	7f ff e9 86 	call  751c <___Q_simulate_exceptions>
    cf08:	90 10 20 10 	mov  0x10, %o0
    cf0c:	10 bf ff f2 	b  ced4 <_Q_fge+0x204>
    cf10:	82 10 20 03 	mov  3, %g1

0000cf14 <_Q_utoq>:
    cf14:	9d e3 bf 80 	save  %sp, -128, %sp
    cf18:	2f 00 00 25 	sethi  %hi(0x9400), %l7
    cf1c:	40 00 0c 39 	call  10000 <__sparc_get_pc_thunk.l7>
    cf20:	ae 05 e2 00 	add  %l7, 0x200, %l7	! 9600 <_Q_div+0xbf4>
    cf24:	80 a6 20 00 	cmp  %i0, 0
    cf28:	02 80 00 47 	be  d044 <_Q_utoq+0x130>
    cf2c:	f8 07 a0 40 	ld  [ %fp + 0x40 ], %i4
    cf30:	40 00 01 65 	call  d4c4 <__clzsi2>
    cf34:	90 10 00 18 	mov  %i0, %o0
    cf38:	f0 27 bf f0 	st  %i0, [ %fp + -16 ]
    cf3c:	c0 27 bf f4 	clr  [ %fp + -12 ]
    cf40:	c0 27 bf f8 	clr  [ %fp + -8 ]
    cf44:	c0 27 bf fc 	clr  [ %fp + -4 ]
    cf48:	82 02 20 51 	add  %o0, 0x51, %g1
    cf4c:	07 00 00 10 	sethi  %hi(0x4000), %g3
    cf50:	85 38 60 1f 	sra  %g1, 0x1f, %g2
    cf54:	86 10 e0 1e 	or  %g3, 0x1e, %g3
    cf58:	84 08 a0 1f 	and  %g2, 0x1f, %g2
    cf5c:	86 20 c0 08 	sub  %g3, %o0, %g3
    cf60:	84 00 80 01 	add  %g2, %g1, %g2
    cf64:	11 20 00 00 	sethi  %hi(0x80000000), %o0
    cf68:	90 12 20 1f 	or  %o0, 0x1f, %o0	! 8000001f <_custom_printf_handler+0x7ffe8d4b>
    cf6c:	90 88 40 08 	andcc  %g1, %o0, %o0
    cf70:	16 80 00 05 	bge  cf84 <_Q_utoq+0x70>
    cf74:	85 38 a0 05 	sra  %g2, 5, %g2
    cf78:	90 02 3f ff 	add  %o0, -1, %o0
    cf7c:	90 12 3f e0 	or  %o0, -32, %o0
    cf80:	90 02 20 01 	inc  %o0
    cf84:	80 a2 20 00 	cmp  %o0, 0
    cf88:	02 80 00 0c 	be  cfb8 <_Q_utoq+0xa4>
    cf8c:	82 10 20 03 	mov  3, %g1
    cf90:	b6 10 20 20 	mov  0x20, %i3
    cf94:	10 80 00 1c 	b  d004 <_Q_utoq+0xf0>
    cf98:	b6 26 c0 08 	sub  %i3, %o0, %i3
    cf9c:	89 29 20 02 	sll  %g4, 2, %g4
    cfa0:	88 07 80 04 	add  %fp, %g4, %g4
    cfa4:	fa 01 3f f0 	ld  [ %g4 + -16 ], %i5
    cfa8:	89 28 60 02 	sll  %g1, 2, %g4
    cfac:	82 00 7f ff 	add  %g1, -1, %g1
    cfb0:	88 07 80 04 	add  %fp, %g4, %g4
    cfb4:	fa 21 3f f0 	st  %i5, [ %g4 + -16 ]
    cfb8:	80 a0 40 02 	cmp  %g1, %g2
    cfbc:	16 bf ff f8 	bge  cf9c <_Q_utoq+0x88>
    cfc0:	88 20 40 02 	sub  %g1, %g2, %g4
    cfc4:	10 80 00 1c 	b  d034 <_Q_utoq+0x120>
    cfc8:	80 a0 60 00 	cmp  %g1, 0
    cfcc:	ba 20 40 02 	sub  %g1, %g2, %i5
    cfd0:	88 07 80 04 	add  %fp, %g4, %g4
    cfd4:	b4 07 7f ff 	add  %i5, -1, %i2
    cfd8:	82 00 7f ff 	add  %g1, -1, %g1
    cfdc:	b5 2e a0 02 	sll  %i2, 2, %i2
    cfe0:	bb 2f 60 02 	sll  %i5, 2, %i5
    cfe4:	b4 07 80 1a 	add  %fp, %i2, %i2
    cfe8:	ba 07 80 1d 	add  %fp, %i5, %i5
    cfec:	f4 06 bf f0 	ld  [ %i2 + -16 ], %i2
    cff0:	fa 07 7f f0 	ld  [ %i5 + -16 ], %i5
    cff4:	b5 36 80 1b 	srl  %i2, %i3, %i2
    cff8:	bb 2f 40 08 	sll  %i5, %o0, %i5
    cffc:	ba 16 80 1d 	or  %i2, %i5, %i5
    d000:	fa 21 3f f0 	st  %i5, [ %g4 + -16 ]
    d004:	80 a0 40 02 	cmp  %g1, %g2
    d008:	14 bf ff f1 	bg  cfcc <_Q_utoq+0xb8>
    d00c:	89 28 60 02 	sll  %g1, 2, %g4
    d010:	c4 07 bf f0 	ld  [ %fp + -16 ], %g2
    d014:	88 07 80 04 	add  %fp, %g4, %g4
    d018:	91 28 80 08 	sll  %g2, %o0, %o0
    d01c:	10 80 00 04 	b  d02c <_Q_utoq+0x118>
    d020:	d0 21 3f f0 	st  %o0, [ %g4 + -16 ]
    d024:	84 07 80 02 	add  %fp, %g2, %g2
    d028:	c0 20 bf f0 	clr  [ %g2 + -16 ]
    d02c:	82 00 7f ff 	add  %g1, -1, %g1
    d030:	80 a0 60 00 	cmp  %g1, 0
    d034:	16 bf ff fc 	bge  d024 <_Q_utoq+0x110>
    d038:	85 28 60 02 	sll  %g1, 2, %g2
    d03c:	10 80 00 08 	b  d05c <_Q_utoq+0x148>
    d040:	c2 07 bf f0 	ld  [ %fp + -16 ], %g1
    d044:	c0 27 bf fc 	clr  [ %fp + -4 ]
    d048:	c0 27 bf f8 	clr  [ %fp + -8 ]
    d04c:	c0 27 bf f4 	clr  [ %fp + -12 ]
    d050:	c0 27 bf f0 	clr  [ %fp + -16 ]
    d054:	86 10 20 00 	clr  %g3
    d058:	c2 07 bf f0 	ld  [ %fp + -16 ], %g1
    d05c:	c2 27 bf ec 	st  %g1, [ %fp + -20 ]
    d060:	c2 07 bf f4 	ld  [ %fp + -12 ], %g1
    d064:	c2 27 bf e8 	st  %g1, [ %fp + -24 ]
    d068:	c2 07 bf f8 	ld  [ %fp + -8 ], %g1
    d06c:	c2 27 bf e4 	st  %g1, [ %fp + -28 ]
    d070:	c2 07 bf fc 	ld  [ %fp + -4 ], %g1
    d074:	c2 37 bf e2 	sth  %g1, [ %fp + -30 ]
    d078:	03 3f ff e0 	sethi  %hi(0xffff8000), %g1
    d07c:	86 28 c0 01 	andn  %g3, %g1, %g3
    d080:	83 28 e0 10 	sll  %g3, 0x10, %g1
    d084:	c4 07 bf e0 	ld  [ %fp + -32 ], %g2
    d088:	07 1f ff c0 	sethi  %hi(0x7fff0000), %g3
    d08c:	86 28 80 03 	andn  %g2, %g3, %g3
    d090:	86 10 c0 01 	or  %g3, %g1, %g3
    d094:	03 20 00 00 	sethi  %hi(0x80000000), %g1
    d098:	86 28 c0 01 	andn  %g3, %g1, %g3
    d09c:	03 00 00 00 	sethi  %hi(0), %g1
    d0a0:	c6 27 bf e0 	st  %g3, [ %fp + -32 ]
    d0a4:	82 18 7f d4 	xor  %g1, -44, %g1
    d0a8:	82 05 c0 01 	add  %l7, %g1, %g1
    d0ac:	fd 18 40 00 	ldd  [ %g1 ], %f30
    d0b0:	bd a7 88 5e 	faddd  %f30, %f30, %f30
    d0b4:	d0 1f bf e0 	ldd  [ %fp + -32 ], %o0
    d0b8:	d4 1f bf e8 	ldd  [ %fp + -24 ], %o2
    d0bc:	d0 3f 00 00 	std  %o0, [ %i4 ]
    d0c0:	d4 3f 20 08 	std  %o2, [ %i4 + 8 ]
    d0c4:	81 c7 e0 0c 	jmp  %i7 + 0xc
    d0c8:	91 e8 00 1c 	restore  %g0, %i4, %o0

0000d0cc <__GI_fseek>:
    d0cc:	9d e3 bf 98 	save  %sp, -104, %sp
    d0d0:	f2 27 bf fc 	st  %i1, [ %fp + -4 ]
    d0d4:	2f 00 00 25 	sethi  %hi(0x9400), %l7
    d0d8:	40 00 0b ca 	call  10000 <__sparc_get_pc_thunk.l7>
    d0dc:	ae 05 e0 44 	add  %l7, 0x44, %l7	! 9444 <_Q_div+0xa38>
    d0e0:	80 a6 a0 02 	cmp  %i2, 2
    d0e4:	08 80 00 09 	bleu  d108 <__GI_fseek+0x3c>
    d0e8:	ba 10 00 18 	mov  %i0, %i5
    d0ec:	84 10 20 16 	mov  0x16, %g2
    d0f0:	03 00 00 00 	sethi  %hi(0), %g1
    d0f4:	82 18 7f fc 	xor  %g1, -4, %g1
    d0f8:	01 00 00 00 	nop 
    d0fc:	c4 21 c0 01 	st  %g2, [ %g7 + %g1 ]
    d100:	81 c7 e0 08 	ret 
    d104:	91 e8 3f ff 	restore  %g0, -1, %o0
    d108:	f8 06 20 30 	ld  [ %i0 + 0x30 ], %i4
    d10c:	80 a7 20 00 	cmp  %i4, 0
    d110:	32 80 00 1c 	bne,a   d180 <__GI_fseek+0xb4>
    d114:	c2 17 40 00 	lduh  [ %i5 ], %g1
    d118:	c2 06 20 3c 	ld  [ %i0 + 0x3c ], %g1
    d11c:	80 a0 40 07 	cmp  %g1, %g7
    d120:	02 80 00 14 	be  d170 <__GI_fseek+0xa4>
    d124:	b6 10 00 07 	mov  %g7, %i3
    d128:	90 06 20 34 	add  %i0, 0x34, %o0
    d12c:	c2 6a 00 00 	ldstub  [ %o0 ], %g1
    d130:	80 a0 60 00 	cmp  %g1, 0
    d134:	12 bf ff fe 	bne  d12c <__GI_fseek+0x60>
    d138:	05 3f c0 00 	sethi  %hi(0xff000000), %g2
    d13c:	c2 07 60 34 	ld  [ %i5 + 0x34 ], %g1
    d140:	82 a8 40 02 	andncc  %g1, %g2, %g1
    d144:	32 80 00 05 	bne,a   d158 <__GI_fseek+0x8c>
    d148:	c0 2f 60 34 	clrb  [ %i5 + 0x34 ]
    d14c:	84 10 20 01 	mov  1, %g2
    d150:	10 80 00 02 	b  d158 <__GI_fseek+0x8c>
    d154:	c4 27 60 34 	st  %g2, [ %i5 + 0x34 ]
    d158:	80 a0 60 00 	cmp  %g1, 0
    d15c:	22 80 00 05 	be,a   d170 <__GI_fseek+0xa4>
    d160:	f6 27 60 3c 	st  %i3, [ %i5 + 0x3c ]
    d164:	40 00 00 ae 	call  d41c <__lll_lock_wait_private>
    d168:	01 00 00 00 	nop 
    d16c:	f6 27 60 3c 	st  %i3, [ %i5 + 0x3c ]
    d170:	c2 07 60 38 	ld  [ %i5 + 0x38 ], %g1
    d174:	82 00 60 01 	inc  %g1
    d178:	c2 27 60 38 	st  %g1, [ %i5 + 0x38 ]
    d17c:	c2 17 40 00 	lduh  [ %i5 ], %g1
    d180:	80 88 60 40 	btst  0x40, %g1
    d184:	12 80 00 06 	bne  d19c <__GI_fseek+0xd0>
    d188:	80 a6 a0 01 	cmp  %i2, 1
    d18c:	32 80 00 0b 	bne,a   d1b8 <__GI_fseek+0xec>
    d190:	c2 07 60 28 	ld  [ %i5 + 0x28 ], %g1
    d194:	10 80 00 0e 	b  d1cc <__GI_fseek+0x100>
    d198:	90 10 00 1d 	mov  %i5, %o0
    d19c:	7f ff e9 9e 	call  7814 <__stdio_wcommit>
    d1a0:	90 10 00 1d 	mov  %i5, %o0
    d1a4:	80 a2 20 00 	cmp  %o0, 0
    d1a8:	02 bf ff f9 	be  d18c <__GI_fseek+0xc0>
    d1ac:	80 a6 a0 01 	cmp  %i2, 1
    d1b0:	10 80 00 1b 	b  d21c <__GI_fseek+0x150>
    d1b4:	b0 10 3f ff 	mov  -1, %i0
    d1b8:	80 a0 60 00 	cmp  %g1, 0
    d1bc:	32 80 00 0b 	bne,a   d1e8 <__GI_fseek+0x11c>
    d1c0:	d0 07 60 1c 	ld  [ %i5 + 0x1c ], %o0
    d1c4:	10 80 00 16 	b  d21c <__GI_fseek+0x150>
    d1c8:	b0 10 3f ff 	mov  -1, %i0
    d1cc:	40 00 00 75 	call  d3a0 <__stdio_adjust_position>
    d1d0:	92 07 bf fc 	add  %fp, -4, %o1
    d1d4:	80 a2 20 00 	cmp  %o0, 0
    d1d8:	36 bf ff f8 	bge,a   d1b8 <__GI_fseek+0xec>
    d1dc:	c2 07 60 28 	ld  [ %i5 + 0x28 ], %g1
    d1e0:	10 80 00 0f 	b  d21c <__GI_fseek+0x150>
    d1e4:	b0 10 3f ff 	mov  -1, %i0
    d1e8:	92 07 bf fc 	add  %fp, -4, %o1
    d1ec:	9f c0 40 00 	call  %g1
    d1f0:	94 10 00 1a 	mov  %i2, %o2
    d1f4:	80 a2 20 00 	cmp  %o0, 0
    d1f8:	06 80 00 09 	bl  d21c <__GI_fseek+0x150>
    d1fc:	b0 10 3f ff 	mov  -1, %i0
    d200:	c2 17 40 00 	lduh  [ %i5 ], %g1
    d204:	82 08 7f b8 	and  %g1, -72, %g1
    d208:	b0 10 20 00 	clr  %i0
    d20c:	c2 37 40 00 	sth  %g1, [ %i5 ]
    d210:	c2 07 60 08 	ld  [ %i5 + 8 ], %g1
    d214:	c2 27 60 10 	st  %g1, [ %i5 + 0x10 ]
    d218:	c2 27 60 14 	st  %g1, [ %i5 + 0x14 ]
    d21c:	80 a7 20 00 	cmp  %i4, 0
    d220:	12 80 00 1b 	bne  d28c <__GI_fseek+0x1c0>
    d224:	01 00 00 00 	nop 
    d228:	c2 07 60 38 	ld  [ %i5 + 0x38 ], %g1
    d22c:	82 00 7f ff 	add  %g1, -1, %g1
    d230:	80 a0 60 00 	cmp  %g1, 0
    d234:	12 80 00 16 	bne  d28c <__GI_fseek+0x1c0>
    d238:	c2 27 60 38 	st  %g1, [ %i5 + 0x38 ]
    d23c:	c0 27 60 3c 	clr  [ %i5 + 0x3c ]
    d240:	90 07 60 34 	add  %i5, 0x34, %o0
    d244:	c2 6a 00 00 	ldstub  [ %o0 ], %g1
    d248:	80 a0 60 00 	cmp  %g1, 0
    d24c:	12 bf ff fe 	bne  d244 <__GI_fseek+0x178>
    d250:	05 3f c0 00 	sethi  %hi(0xff000000), %g2
    d254:	c2 07 60 34 	ld  [ %i5 + 0x34 ], %g1
    d258:	c0 27 60 34 	clr  [ %i5 + 0x34 ]
    d25c:	82 28 40 02 	andn  %g1, %g2, %g1
    d260:	80 a0 60 01 	cmp  %g1, 1
    d264:	04 80 00 0a 	ble  d28c <__GI_fseek+0x1c0>
    d268:	82 10 20 8e 	mov  0x8e, %g1
    d26c:	96 10 20 00 	clr  %o3
    d270:	94 10 20 01 	mov  1, %o2
    d274:	92 10 20 81 	mov  0x81, %o1
    d278:	84 10 00 08 	mov  %o0, %g2
    d27c:	91 d0 20 10 	ta  0x10
    d280:	1a 80 00 03 	bcc  d28c <__GI_fseek+0x1c0>
    d284:	82 10 00 08 	mov  %o0, %g1
    d288:	82 20 00 08 	neg  %o0, %g1
    d28c:	81 c7 e0 08 	ret 
    d290:	81 e8 00 00 	restore 

0000d294 <__stdio_WRITE>:
    d294:	9d e3 bf a0 	save  %sp, -96, %sp
    d298:	2f 00 00 24 	sethi  %hi(0x9000), %l7
    d29c:	40 00 0b 59 	call  10000 <__sparc_get_pc_thunk.l7>
    d2a0:	ae 05 e2 80 	add  %l7, 0x280, %l7	! 9280 <_Q_div+0x874>
    d2a4:	b8 10 00 18 	mov  %i0, %i4
    d2a8:	31 1f ff ff 	sethi  %hi(0x7ffffc00), %i0
    d2ac:	ba 10 00 1a 	mov  %i2, %i5
    d2b0:	10 80 00 37 	b  d38c <__stdio_WRITE+0xf8>
    d2b4:	b0 16 23 ff 	or  %i0, 0x3ff, %i0
    d2b8:	16 80 00 03 	bge  d2c4 <__stdio_WRITE+0x30>
    d2bc:	b6 10 00 1d 	mov  %i5, %i3
    d2c0:	94 10 00 18 	mov  %i0, %o2
    d2c4:	c2 07 20 24 	ld  [ %i4 + 0x24 ], %g1
    d2c8:	80 a0 60 00 	cmp  %g1, 0
    d2cc:	22 80 00 0b 	be,a   d2f8 <__stdio_WRITE+0x64>
    d2d0:	c2 17 00 00 	lduh  [ %i4 ], %g1
    d2d4:	d0 07 20 1c 	ld  [ %i4 + 0x1c ], %o0
    d2d8:	9f c0 40 00 	call  %g1
    d2dc:	92 10 00 19 	mov  %i1, %o1
    d2e0:	80 a2 20 00 	cmp  %o0, 0
    d2e4:	26 80 00 05 	bl,a   d2f8 <__stdio_WRITE+0x64>
    d2e8:	c2 17 00 00 	lduh  [ %i4 ], %g1
    d2ec:	ba 27 40 08 	sub  %i5, %o0, %i5
    d2f0:	10 80 00 27 	b  d38c <__stdio_WRITE+0xf8>
    d2f4:	b2 06 40 08 	add  %i1, %o0, %i1
    d2f8:	82 10 60 08 	or  %g1, 8, %g1
    d2fc:	c2 37 00 00 	sth  %g1, [ %i4 ]
    d300:	03 00 00 00 	sethi  %hi(0), %g1
    d304:	82 18 7f fc 	xor  %g1, -4, %g1
    d308:	01 00 00 00 	nop 
    d30c:	c2 01 c0 01 	ld  [ %g7 + %g1 ], %g1
    d310:	80 a0 60 0b 	cmp  %g1, 0xb
    d314:	22 80 00 06 	be,a   d32c <__stdio_WRITE+0x98>
    d318:	c2 07 20 08 	ld  [ %i4 + 8 ], %g1
    d31c:	80 a0 60 04 	cmp  %g1, 4
    d320:	12 80 00 1e 	bne  d398 <__stdio_WRITE+0x104>
    d324:	01 00 00 00 	nop 
    d328:	c2 07 20 08 	ld  [ %i4 + 8 ], %g1
    d32c:	c4 07 20 0c 	ld  [ %i4 + 0xc ], %g2
    d330:	84 a0 80 01 	subcc  %g2, %g1, %g2
    d334:	02 80 00 14 	be  d384 <__stdio_WRITE+0xf0>
    d338:	80 a0 80 1d 	cmp  %g2, %i5
    d33c:	28 80 00 02 	bleu,a   d344 <__stdio_WRITE+0xb0>
    d340:	b6 10 00 02 	mov  %g2, %i3
    d344:	c4 0e 40 00 	ldub  [ %i1 ], %g2
    d348:	80 a0 a0 0a 	cmp  %g2, 0xa
    d34c:	12 80 00 06 	bne  d364 <__stdio_WRITE+0xd0>
    d350:	c4 28 40 00 	stb  %g2, [ %g1 ]
    d354:	c4 17 00 00 	lduh  [ %i4 ], %g2
    d358:	80 88 a1 00 	btst  0x100, %g2
    d35c:	32 80 00 07 	bne,a   d378 <__stdio_WRITE+0xe4>
    d360:	c2 27 20 10 	st  %g1, [ %i4 + 0x10 ]
    d364:	82 00 60 01 	inc  %g1
    d368:	b6 86 ff ff 	addcc  %i3, -1, %i3
    d36c:	12 bf ff f6 	bne  d344 <__stdio_WRITE+0xb0>
    d370:	b2 06 60 01 	inc  %i1
    d374:	c2 27 20 10 	st  %g1, [ %i4 + 0x10 ]
    d378:	c4 07 20 08 	ld  [ %i4 + 8 ], %g2
    d37c:	82 20 80 01 	sub  %g2, %g1, %g1
    d380:	ba 07 40 01 	add  %i5, %g1, %i5
    d384:	10 80 00 05 	b  d398 <__stdio_WRITE+0x104>
    d388:	b4 26 80 1d 	sub  %i2, %i5, %i2
    d38c:	80 a7 60 00 	cmp  %i5, 0
    d390:	12 bf ff ca 	bne  d2b8 <__stdio_WRITE+0x24>
    d394:	94 97 60 00 	orcc  %i5, 0, %o2
    d398:	81 c7 e0 08 	ret 
    d39c:	91 e8 00 1a 	restore  %g0, %i2, %o0

0000d3a0 <__stdio_adjust_position>:
    d3a0:	9d e3 bf a0 	save  %sp, -96, %sp
    d3a4:	2f 00 00 24 	sethi  %hi(0x9000), %l7
    d3a8:	40 00 0b 16 	call  10000 <__sparc_get_pc_thunk.l7>
    d3ac:	ae 05 e1 74 	add  %l7, 0x174, %l7	! 9174 <_Q_div+0x768>
    d3b0:	c2 16 00 00 	lduh  [ %i0 ], %g1
    d3b4:	86 88 60 03 	andcc  %g1, 3, %g3
    d3b8:	02 80 00 03 	be  d3c4 <__stdio_adjust_position+0x24>
    d3bc:	84 10 20 00 	clr  %g2
    d3c0:	84 00 ff ff 	add  %g3, -1, %g2
    d3c4:	80 88 60 40 	btst  0x40, %g1
    d3c8:	22 80 00 03 	be,a   d3d4 <__stdio_adjust_position+0x34>
    d3cc:	c2 06 20 14 	ld  [ %i0 + 0x14 ], %g1
    d3d0:	c2 06 20 08 	ld  [ %i0 + 8 ], %g1
    d3d4:	f0 06 20 10 	ld  [ %i0 + 0x10 ], %i0
    d3d8:	b0 20 40 18 	sub  %g1, %i0, %i0
    d3dc:	c2 06 40 00 	ld  [ %i1 ], %g1
    d3e0:	b0 00 80 18 	add  %g2, %i0, %i0
    d3e4:	84 20 40 18 	sub  %g1, %i0, %g2
    d3e8:	80 a0 80 01 	cmp  %g2, %g1
    d3ec:	04 80 00 03 	ble  d3f8 <__stdio_adjust_position+0x58>
    d3f0:	c4 26 40 00 	st  %g2, [ %i1 ]
    d3f4:	b0 20 00 18 	neg  %i0
    d3f8:	80 a6 20 00 	cmp  %i0, 0
    d3fc:	16 80 00 06 	bge  d414 <__stdio_adjust_position+0x74>
    d400:	03 00 00 00 	sethi  %hi(0), %g1
    d404:	84 10 20 5c 	mov  0x5c, %g2
    d408:	82 18 7f fc 	xor  %g1, -4, %g1
    d40c:	01 00 00 00 	nop 
    d410:	c4 21 c0 01 	st  %g2, [ %g7 + %g1 ]
    d414:	81 c7 e0 08 	ret 
    d418:	81 e8 00 00 	restore 

0000d41c <__lll_lock_wait_private>:
    d41c:	9d e3 bf a0 	save  %sp, -96, %sp
    d420:	05 00 3f ff 	sethi  %hi(0xfffc00), %g2
    d424:	86 10 20 02 	mov  2, %g3
    d428:	84 10 a3 ff 	or  %g2, 0x3ff, %g2
    d42c:	c2 6e 00 00 	ldstub  [ %i0 ], %g1
    d430:	80 a0 60 00 	cmp  %g1, 0
    d434:	12 bf ff fe 	bne  d42c <__lll_lock_wait_private+0x10>
    d438:	01 00 00 00 	nop 
    d43c:	c2 06 00 00 	ld  [ %i0 ], %g1
    d440:	82 08 40 02 	and  %g1, %g2, %g1
    d444:	80 a0 60 01 	cmp  %g1, 1
    d448:	32 80 00 04 	bne,a   d458 <__lll_lock_wait_private+0x3c>
    d44c:	c0 2e 00 00 	clrb  [ %i0 ]
    d450:	10 80 00 02 	b  d458 <__lll_lock_wait_private+0x3c>
    d454:	c6 26 00 00 	st  %g3, [ %i0 ]
    d458:	80 a0 60 00 	cmp  %g1, 0
    d45c:	02 80 00 0b 	be  d488 <__lll_lock_wait_private+0x6c>
    d460:	82 10 20 8e 	mov  0x8e, %g1
    d464:	96 10 20 00 	clr  %o3
    d468:	94 10 20 02 	mov  2, %o2
    d46c:	92 10 20 80 	mov  0x80, %o1
    d470:	90 10 00 18 	mov  %i0, %o0
    d474:	88 10 00 18 	mov  %i0, %g4
    d478:	91 d0 20 10 	ta  0x10
    d47c:	1a 80 00 03 	bcc  d488 <__lll_lock_wait_private+0x6c>
    d480:	82 10 00 08 	mov  %o0, %g1
    d484:	82 20 00 08 	neg  %o0, %g1
    d488:	c2 6e 00 00 	ldstub  [ %i0 ], %g1
    d48c:	80 a0 60 00 	cmp  %g1, 0
    d490:	12 bf ff fe 	bne  d488 <__lll_lock_wait_private+0x6c>
    d494:	01 00 00 00 	nop 
    d498:	c2 06 00 00 	ld  [ %i0 ], %g1
    d49c:	82 88 40 02 	andcc  %g1, %g2, %g1
    d4a0:	32 80 00 04 	bne,a   d4b0 <__lll_lock_wait_private+0x94>
    d4a4:	c0 2e 00 00 	clrb  [ %i0 ]
    d4a8:	10 80 00 02 	b  d4b0 <__lll_lock_wait_private+0x94>
    d4ac:	c6 26 00 00 	st  %g3, [ %i0 ]
    d4b0:	80 a0 60 00 	cmp  %g1, 0
    d4b4:	12 bf ff de 	bne  d42c <__lll_lock_wait_private+0x10>
    d4b8:	01 00 00 00 	nop 
    d4bc:	81 c7 e0 08 	ret 
    d4c0:	81 e8 00 00 	restore 

0000d4c4 <__clzsi2>:
    d4c4:	9d e3 bf a0 	save  %sp, -96, %sp
    d4c8:	2f 00 00 24 	sethi  %hi(0x9000), %l7
    d4cc:	40 00 0a cd 	call  10000 <__sparc_get_pc_thunk.l7>
    d4d0:	ae 05 e0 50 	add  %l7, 0x50, %l7	! 9050 <_Q_div+0x644>
    d4d4:	03 00 00 3f 	sethi  %hi(0xfc00), %g1
    d4d8:	82 10 63 ff 	or  %g1, 0x3ff, %g1	! ffff <SW_trap_0xfe+0x1f>
    d4dc:	80 a6 00 01 	cmp  %i0, %g1
    d4e0:	38 80 00 07 	bgu,a   d4fc <__clzsi2+0x38>
    d4e4:	03 00 3f ff 	sethi  %hi(0xfffc00), %g1
    d4e8:	80 a6 20 ff 	cmp  %i0, 0xff
    d4ec:	18 80 00 09 	bgu  d510 <__clzsi2+0x4c>
    d4f0:	82 10 20 08 	mov  8, %g1
    d4f4:	10 80 00 07 	b  d510 <__clzsi2+0x4c>
    d4f8:	82 10 20 00 	clr  %g1
    d4fc:	82 10 63 ff 	or  %g1, 0x3ff, %g1
    d500:	80 a0 40 18 	cmp  %g1, %i0
    d504:	82 60 20 00 	subx  %g0, 0, %g1
    d508:	82 08 60 08 	and  %g1, 8, %g1
    d50c:	82 00 60 10 	add  %g1, 0x10, %g1
    d510:	86 10 20 20 	mov  0x20, %g3
    d514:	05 00 00 00 	sethi  %hi(0), %g2
    d518:	86 20 c0 01 	sub  %g3, %g1, %g3
    d51c:	84 18 bd 1c 	xor  %g2, -740, %g2
    d520:	83 36 00 01 	srl  %i0, %g1, %g1
    d524:	84 05 c0 02 	add  %l7, %g2, %g2
    d528:	f0 08 80 01 	ldub  [ %g2 + %g1 ], %i0
    d52c:	b0 20 c0 18 	sub  %g3, %i0, %i0
    d530:	81 c7 e0 08 	ret 
    d534:	81 e8 00 00 	restore 

0000d538 <__fixdfdi>:
    d538:	9d e3 bf 98 	save  %sp, -104, %sp
    d53c:	f0 3f bf f8 	std  %i0, [ %fp + -8 ]
    d540:	2f 00 00 23 	sethi  %hi(0x8c00), %l7
    d544:	40 00 0a af 	call  10000 <__sparc_get_pc_thunk.l7>
    d548:	ae 05 e3 d8 	add  %l7, 0x3d8, %l7	! 8fd8 <_Q_div+0x5cc>
    d54c:	d1 1f bf f8 	ldd  [ %fp + -8 ], %f8
    d550:	03 00 00 00 	sethi  %hi(0), %g1
    d554:	82 18 7e 5c 	xor  %g1, -420, %g1
    d558:	82 05 c0 01 	add  %l7, %g1, %g1
    d55c:	d5 18 40 00 	ldd  [ %g1 ], %f10
    d560:	81 aa 0a ca 	fcmped  %f8, %f10
    d564:	01 00 00 00 	nop 
    d568:	09 80 00 04 	fbl  d578 <__fixdfdi+0x40>
    d56c:	95 a0 00 a8 	fnegs  %f8, %f10
    d570:	40 00 00 0b 	call  d59c <__fixunsdfdi>
    d574:	81 e8 00 00 	restore 
    d578:	97 a0 00 29 	fmovs  %f9, %f11
    d57c:	d5 3f bf f8 	std  %f10, [ %fp + -8 ]
    d580:	40 00 00 07 	call  d59c <__fixunsdfdi>
    d584:	d0 1f bf f8 	ldd  [ %fp + -8 ], %o0
    d588:	92 a0 00 09 	subcc  %g0, %o1, %o1
    d58c:	90 60 00 08 	subx  %g0, %o0, %o0
    d590:	b2 10 00 09 	mov  %o1, %i1
    d594:	81 c7 e0 08 	ret 
    d598:	91 e8 00 08 	restore  %g0, %o0, %o0

0000d59c <__fixunsdfdi>:
    d59c:	9d e3 bf 90 	save  %sp, -112, %sp
    d5a0:	2f 00 00 23 	sethi  %hi(0x8c00), %l7
    d5a4:	40 00 0a 97 	call  10000 <__sparc_get_pc_thunk.l7>
    d5a8:	ae 05 e3 78 	add  %l7, 0x378, %l7	! 8f78 <_Q_div+0x56c>
    d5ac:	f0 3f bf f8 	std  %i0, [ %fp + -8 ]
    d5b0:	03 00 00 00 	sethi  %hi(0), %g1
    d5b4:	82 18 7f 84 	xor  %g1, -124, %g1
    d5b8:	82 05 c0 01 	add  %l7, %g1, %g1
    d5bc:	d9 1f bf f8 	ldd  [ %fp + -8 ], %f12
    d5c0:	d5 18 40 00 	ldd  [ %g1 ], %f10
    d5c4:	95 a3 09 4a 	fmuld  %f12, %f10, %f10
    d5c8:	03 00 00 00 	sethi  %hi(0), %g1
    d5cc:	82 18 7f 8c 	xor  %g1, -116, %g1
    d5d0:	82 05 c0 01 	add  %l7, %g1, %g1
    d5d4:	d1 18 40 00 	ldd  [ %g1 ], %f8
    d5d8:	81 aa 8a c8 	fcmped  %f10, %f8
    d5dc:	01 00 00 00 	nop 
    d5e0:	37 80 00 06 	fbge,a   d5f8 <__fixunsdfdi+0x5c>
    d5e4:	95 a2 88 c8 	fsubd  %f10, %f8, %f10
    d5e8:	91 a0 1a 4a 	fdtoi  %f10, %f8
    d5ec:	d1 27 bf f4 	st  %f8, [ %fp + -12 ]
    d5f0:	10 80 00 07 	b  d60c <__fixunsdfdi+0x70>
    d5f4:	c2 07 bf f4 	ld  [ %fp + -12 ], %g1
    d5f8:	05 20 00 00 	sethi  %hi(0x80000000), %g2
    d5fc:	91 a0 1a 4a 	fdtoi  %f10, %f8
    d600:	d1 27 bf f4 	st  %f8, [ %fp + -12 ]
    d604:	c2 07 bf f4 	ld  [ %fp + -12 ], %g1
    d608:	82 18 40 02 	xor  %g1, %g2, %g1
    d60c:	c2 27 bf f4 	st  %g1, [ %fp + -12 ]
    d610:	80 a0 60 00 	cmp  %g1, 0
    d614:	d1 07 bf f4 	ld  [ %fp + -12 ], %f8
    d618:	16 80 00 07 	bge  d634 <__fixunsdfdi+0x98>
    d61c:	95 a0 19 08 	fitod  %f8, %f10
    d620:	05 00 00 00 	sethi  %hi(0), %g2
    d624:	84 18 bf 94 	xor  %g2, -108, %g2
    d628:	84 05 c0 02 	add  %l7, %g2, %g2
    d62c:	dd 18 80 00 	ldd  [ %g2 ], %f14
    d630:	95 a2 88 4e 	faddd  %f10, %f14, %f10
    d634:	05 00 00 00 	sethi  %hi(0), %g2
    d638:	84 18 bf 94 	xor  %g2, -108, %g2
    d63c:	84 05 c0 02 	add  %l7, %g2, %g2
    d640:	d1 18 80 00 	ldd  [ %g2 ], %f8
    d644:	05 00 00 00 	sethi  %hi(0), %g2
    d648:	91 a2 89 48 	fmuld  %f10, %f8, %f8
    d64c:	84 18 bf 8c 	xor  %g2, -116, %g2
    d650:	91 a3 08 c8 	fsubd  %f12, %f8, %f8
    d654:	84 05 c0 02 	add  %l7, %g2, %g2
    d658:	d9 18 80 00 	ldd  [ %g2 ], %f12
    d65c:	81 aa 0a cc 	fcmped  %f8, %f12
    d660:	01 00 00 00 	nop 
    d664:	37 80 00 06 	fbge,a   d67c <__fixunsdfdi+0xe0>
    d668:	99 a2 08 cc 	fsubd  %f8, %f12, %f12
    d66c:	95 a0 1a 48 	fdtoi  %f8, %f10
    d670:	d5 27 bf f4 	st  %f10, [ %fp + -12 ]
    d674:	10 80 00 07 	b  d690 <__fixunsdfdi+0xf4>
    d678:	f8 07 bf f4 	ld  [ %fp + -12 ], %i4
    d67c:	05 20 00 00 	sethi  %hi(0x80000000), %g2
    d680:	91 a0 1a 4c 	fdtoi  %f12, %f8
    d684:	d1 27 bf f4 	st  %f8, [ %fp + -12 ]
    d688:	f8 07 bf f4 	ld  [ %fp + -12 ], %i4
    d68c:	b8 1f 00 02 	xor  %i4, %g2, %i4
    d690:	ba 10 00 1c 	mov  %i4, %i5
    d694:	86 10 20 00 	clr  %g3
    d698:	b8 10 20 00 	clr  %i4
    d69c:	86 17 40 03 	or  %i5, %g3, %g3
    d6a0:	84 17 00 01 	or  %i4, %g1, %g2
    d6a4:	b2 10 00 03 	mov  %g3, %i1
    d6a8:	81 c7 e0 08 	ret 
    d6ac:	91 e8 00 02 	restore  %g0, %g2, %o0

0000d6b0 <__floatdidf>:
    d6b0:	9d e3 bf 98 	save  %sp, -104, %sp
    d6b4:	f0 27 bf fc 	st  %i0, [ %fp + -4 ]
    d6b8:	d1 07 bf fc 	ld  [ %fp + -4 ], %f8
    d6bc:	f2 27 bf fc 	st  %i1, [ %fp + -4 ]
    d6c0:	2f 00 00 23 	sethi  %hi(0x8c00), %l7
    d6c4:	40 00 0a 4f 	call  10000 <__sparc_get_pc_thunk.l7>
    d6c8:	ae 05 e2 58 	add  %l7, 0x258, %l7	! 8e58 <_Q_div+0x44c>
    d6cc:	81 a0 19 08 	fitod  %f8, %f0
    d6d0:	03 00 00 00 	sethi  %hi(0), %g1
    d6d4:	d9 07 bf fc 	ld  [ %fp + -4 ], %f12
    d6d8:	82 18 7f 94 	xor  %g1, -108, %g1
    d6dc:	82 05 c0 01 	add  %l7, %g1, %g1
    d6e0:	91 a0 19 0c 	fitod  %f12, %f8
    d6e4:	d5 18 40 00 	ldd  [ %g1 ], %f10
    d6e8:	80 a6 60 00 	cmp  %i1, 0
    d6ec:	16 80 00 03 	bge  d6f8 <__floatdidf+0x48>
    d6f0:	81 a0 09 4a 	fmuld  %f0, %f10, %f0
    d6f4:	91 a2 08 4a 	faddd  %f8, %f10, %f8
    d6f8:	81 a0 08 48 	faddd  %f0, %f8, %f0
    d6fc:	81 c7 e0 08 	ret 
    d700:	81 e8 00 00 	restore 

0000d704 <__divdi3>:
    d704:	9d e3 bf a0 	save  %sp, -96, %sp
    d708:	2f 00 00 23 	sethi  %hi(0x8c00), %l7
    d70c:	40 00 0a 3d 	call  10000 <__sparc_get_pc_thunk.l7>
    d710:	ae 05 e2 10 	add  %l7, 0x210, %l7	! 8e10 <_Q_div+0x404>
    d714:	ba 10 00 18 	mov  %i0, %i5
    d718:	b8 10 00 19 	mov  %i1, %i4
    d71c:	82 10 00 1a 	mov  %i2, %g1
    d720:	84 10 00 1b 	mov  %i3, %g2
    d724:	80 a6 20 00 	cmp  %i0, 0
    d728:	16 80 00 07 	bge  d744 <__divdi3+0x40>
    d72c:	a0 10 20 00 	clr  %l0
    d730:	b2 a0 00 19 	subcc  %g0, %i1, %i1
    d734:	a0 10 3f ff 	mov  -1, %l0
    d738:	b0 60 00 18 	subx  %g0, %i0, %i0
    d73c:	b8 10 00 19 	mov  %i1, %i4
    d740:	ba 10 00 18 	mov  %i0, %i5
    d744:	80 a0 60 00 	cmp  %g1, 0
    d748:	16 80 00 08 	bge  d768 <__divdi3+0x64>
    d74c:	01 00 00 00 	nop 
    d750:	b6 a0 00 1b 	subcc  %g0, %i3, %i3
    d754:	a0 38 00 10 	xnor  %g0, %l0, %l0
    d758:	b4 60 00 1a 	subx  %g0, %i2, %i2
    d75c:	84 10 00 1b 	mov  %i3, %g2
    d760:	82 10 00 1a 	mov  %i2, %g1
    d764:	80 a0 60 00 	cmp  %g1, 0
    d768:	12 80 00 50 	bne  d8a8 <__divdi3+0x1a4>
    d76c:	90 10 00 02 	mov  %g2, %o0
    d770:	80 a0 80 1d 	cmp  %g2, %i5
    d774:	08 80 00 1a 	bleu  d7dc <__divdi3+0xd8>
    d778:	80 a0 a0 00 	cmp  %g2, 0
    d77c:	88 10 00 1c 	mov  %i4, %g4
    d780:	82 10 20 20 	mov  0x20, %g1
    d784:	80 a7 40 02 	cmp  %i5, %g2
    d788:	0a 80 00 0c 	bcs  d7b8 <__divdi3+0xb4>
    d78c:	88 c1 00 04 	addxcc  %g4, %g4, %g4
    d790:	ba 27 40 02 	sub  %i5, %g2, %i5
    d794:	ba 47 40 1d 	addx  %i5, %i5, %i5
    d798:	82 a0 60 01 	deccc  %g1
    d79c:	12 bf ff fb 	bne  d788 <__divdi3+0x84>
    d7a0:	80 a7 40 02 	cmp  %i5, %g2
    d7a4:	0a 80 00 0b 	bcs  d7d0 <__divdi3+0xcc>
    d7a8:	88 c1 00 04 	addxcc  %g4, %g4, %g4
    d7ac:	10 80 00 09 	b  d7d0 <__divdi3+0xcc>
    d7b0:	ba 27 40 02 	sub  %i5, %g2, %i5
    d7b4:	ba 27 40 02 	sub  %i5, %g2, %i5
    d7b8:	ba c7 40 1d 	addxcc  %i5, %i5, %i5
    d7bc:	1a bf ff f8 	bcc  d79c <__divdi3+0x98>
    d7c0:	82 a0 60 01 	deccc  %g1
    d7c4:	12 bf ff fc 	bne  d7b4 <__divdi3+0xb0>
    d7c8:	88 81 00 04 	addcc  %g4, %g4, %g4
    d7cc:	ba 27 40 02 	sub  %i5, %g2, %i5
    d7d0:	88 39 20 00 	xnor  %g4, 0, %g4
    d7d4:	10 80 00 ab 	b  da80 <__divdi3+0x37c>
    d7d8:	ba 10 20 00 	clr  %i5
    d7dc:	32 80 00 06 	bne,a   d7f4 <__divdi3+0xf0>
    d7e0:	84 10 20 00 	clr  %g2
    d7e4:	90 10 20 01 	mov  1, %o0
    d7e8:	40 00 03 29 	call  e48c <.udiv>
    d7ec:	92 10 20 00 	clr  %o1
    d7f0:	84 10 20 00 	clr  %g2
    d7f4:	88 10 00 1c 	mov  %i4, %g4
    d7f8:	82 10 20 20 	mov  0x20, %g1
    d7fc:	80 a0 80 08 	cmp  %g2, %o0
    d800:	0a 80 00 0c 	bcs  d830 <__divdi3+0x12c>
    d804:	ba c7 40 1d 	addxcc  %i5, %i5, %i5
    d808:	84 20 80 08 	sub  %g2, %o0, %g2
    d80c:	84 40 80 02 	addx  %g2, %g2, %g2
    d810:	82 a0 60 01 	deccc  %g1
    d814:	12 bf ff fb 	bne  d800 <__divdi3+0xfc>
    d818:	80 a0 80 08 	cmp  %g2, %o0
    d81c:	0a 80 00 0b 	bcs  d848 <__divdi3+0x144>
    d820:	ba c7 40 1d 	addxcc  %i5, %i5, %i5
    d824:	10 80 00 09 	b  d848 <__divdi3+0x144>
    d828:	84 20 80 08 	sub  %g2, %o0, %g2
    d82c:	84 20 80 08 	sub  %g2, %o0, %g2
    d830:	84 c0 80 02 	addxcc  %g2, %g2, %g2
    d834:	1a bf ff f8 	bcc  d814 <__divdi3+0x110>
    d838:	82 a0 60 01 	deccc  %g1
    d83c:	12 bf ff fc 	bne  d82c <__divdi3+0x128>
    d840:	ba 87 40 1d 	addcc  %i5, %i5, %i5
    d844:	84 20 80 08 	sub  %g2, %o0, %g2
    d848:	ba 3f 60 00 	xnor  %i5, 0, %i5
    d84c:	82 10 20 20 	mov  0x20, %g1
    d850:	80 a0 80 08 	cmp  %g2, %o0
    d854:	0a 80 00 0c 	bcs  d884 <__divdi3+0x180>
    d858:	88 c1 00 04 	addxcc  %g4, %g4, %g4
    d85c:	84 20 80 08 	sub  %g2, %o0, %g2
    d860:	84 40 80 02 	addx  %g2, %g2, %g2
    d864:	82 a0 60 01 	deccc  %g1
    d868:	12 bf ff fb 	bne  d854 <__divdi3+0x150>
    d86c:	80 a0 80 08 	cmp  %g2, %o0
    d870:	0a 80 00 0b 	bcs  d89c <__divdi3+0x198>
    d874:	88 c1 00 04 	addxcc  %g4, %g4, %g4
    d878:	10 80 00 09 	b  d89c <__divdi3+0x198>
    d87c:	84 20 80 08 	sub  %g2, %o0, %g2
    d880:	84 20 80 08 	sub  %g2, %o0, %g2
    d884:	84 c0 80 02 	addxcc  %g2, %g2, %g2
    d888:	1a bf ff f8 	bcc  d868 <__divdi3+0x164>
    d88c:	82 a0 60 01 	deccc  %g1
    d890:	12 bf ff fc 	bne  d880 <__divdi3+0x17c>
    d894:	88 81 00 04 	addcc  %g4, %g4, %g4
    d898:	84 20 80 08 	sub  %g2, %o0, %g2
    d89c:	88 39 20 00 	xnor  %g4, 0, %g4
    d8a0:	10 80 00 79 	b  da84 <__divdi3+0x380>
    d8a4:	84 10 00 1d 	mov  %i5, %g2
    d8a8:	80 a0 40 1d 	cmp  %g1, %i5
    d8ac:	38 80 00 72 	bgu,a   da74 <__divdi3+0x370>
    d8b0:	ba 10 20 00 	clr  %i5
    d8b4:	07 00 00 3f 	sethi  %hi(0xfc00), %g3
    d8b8:	86 10 e3 ff 	or  %g3, 0x3ff, %g3	! ffff <SW_trap_0xfe+0x1f>
    d8bc:	80 a0 40 03 	cmp  %g1, %g3
    d8c0:	38 80 00 07 	bgu,a   d8dc <__divdi3+0x1d8>
    d8c4:	07 00 3f ff 	sethi  %hi(0xfffc00), %g3
    d8c8:	80 a0 60 ff 	cmp  %g1, 0xff
    d8cc:	18 80 00 09 	bgu  d8f0 <__divdi3+0x1ec>
    d8d0:	86 10 20 08 	mov  8, %g3
    d8d4:	10 80 00 07 	b  d8f0 <__divdi3+0x1ec>
    d8d8:	86 10 20 00 	clr  %g3
    d8dc:	86 10 e3 ff 	or  %g3, 0x3ff, %g3
    d8e0:	80 a0 c0 01 	cmp  %g3, %g1
    d8e4:	86 60 20 00 	subx  %g0, 0, %g3
    d8e8:	86 08 e0 08 	and  %g3, 8, %g3
    d8ec:	86 00 e0 10 	add  %g3, 0x10, %g3
    d8f0:	b7 30 40 03 	srl  %g1, %g3, %i3
    d8f4:	09 00 00 00 	sethi  %hi(0), %g4
    d8f8:	b4 10 20 20 	mov  0x20, %i2
    d8fc:	88 19 3d 1c 	xor  %g4, -740, %g4
    d900:	88 05 c0 04 	add  %l7, %g4, %g4
    d904:	c8 09 00 1b 	ldub  [ %g4 + %i3 ], %g4
    d908:	86 01 00 03 	add  %g4, %g3, %g3
    d90c:	b4 a6 80 03 	subcc  %i2, %g3, %i2
    d910:	32 80 00 0a 	bne,a   d938 <__divdi3+0x234>
    d914:	83 28 40 1a 	sll  %g1, %i2, %g1
    d918:	80 a7 00 02 	cmp  %i4, %g2
    d91c:	3a 80 00 05 	bcc,a   d930 <__divdi3+0x22c>
    d920:	ba 10 20 00 	clr  %i5
    d924:	80 a0 40 1d 	cmp  %g1, %i5
    d928:	1a 80 00 53 	bcc  da74 <__divdi3+0x370>
    d92c:	ba 10 20 00 	clr  %i5
    d930:	10 80 00 54 	b  da80 <__divdi3+0x37c>
    d934:	88 10 20 01 	mov  1, %g4
    d938:	89 30 80 03 	srl  %g2, %g3, %g4
    d93c:	88 10 40 04 	or  %g1, %g4, %g4
    d940:	b7 37 40 03 	srl  %i5, %g3, %i3
    d944:	85 28 80 1a 	sll  %g2, %i2, %g2
    d948:	87 37 00 03 	srl  %i4, %g3, %g3
    d94c:	bb 2f 40 1a 	sll  %i5, %i2, %i5
    d950:	ba 17 40 03 	or  %i5, %g3, %i5
    d954:	82 10 20 20 	mov  0x20, %g1
    d958:	80 a6 c0 04 	cmp  %i3, %g4
    d95c:	0a 80 00 0c 	bcs  d98c <__divdi3+0x288>
    d960:	ba c7 40 1d 	addxcc  %i5, %i5, %i5
    d964:	b6 26 c0 04 	sub  %i3, %g4, %i3
    d968:	b6 46 c0 1b 	addx  %i3, %i3, %i3
    d96c:	82 a0 60 01 	deccc  %g1
    d970:	12 bf ff fb 	bne  d95c <__divdi3+0x258>
    d974:	80 a6 c0 04 	cmp  %i3, %g4
    d978:	0a 80 00 0b 	bcs  d9a4 <__divdi3+0x2a0>
    d97c:	ba c7 40 1d 	addxcc  %i5, %i5, %i5
    d980:	10 80 00 09 	b  d9a4 <__divdi3+0x2a0>
    d984:	b6 26 c0 04 	sub  %i3, %g4, %i3
    d988:	b6 26 c0 04 	sub  %i3, %g4, %i3
    d98c:	b6 c6 c0 1b 	addxcc  %i3, %i3, %i3
    d990:	1a bf ff f8 	bcc  d970 <__divdi3+0x26c>
    d994:	82 a0 60 01 	deccc  %g1
    d998:	12 bf ff fc 	bne  d988 <__divdi3+0x284>
    d99c:	ba 87 40 1d 	addcc  %i5, %i5, %i5
    d9a0:	b6 26 c0 04 	sub  %i3, %g4, %i3
    d9a4:	ba 3f 60 00 	xnor  %i5, 0, %i5
    d9a8:	81 80 00 1d 	mov  %i5, %y
    d9ac:	9b 38 a0 1f 	sra  %g2, 0x1f, %o5
    d9b0:	9a 0f 40 0d 	and  %i5, %o5, %o5
    d9b4:	82 88 20 00 	andcc  %g0, 0, %g1
    d9b8:	83 20 40 02 	mulscc  %g1, %g2, %g1
    d9bc:	83 20 40 02 	mulscc  %g1, %g2, %g1
    d9c0:	83 20 40 02 	mulscc  %g1, %g2, %g1
    d9c4:	83 20 40 02 	mulscc  %g1, %g2, %g1
    d9c8:	83 20 40 02 	mulscc  %g1, %g2, %g1
    d9cc:	83 20 40 02 	mulscc  %g1, %g2, %g1
    d9d0:	83 20 40 02 	mulscc  %g1, %g2, %g1
    d9d4:	83 20 40 02 	mulscc  %g1, %g2, %g1
    d9d8:	83 20 40 02 	mulscc  %g1, %g2, %g1
    d9dc:	83 20 40 02 	mulscc  %g1, %g2, %g1
    d9e0:	83 20 40 02 	mulscc  %g1, %g2, %g1
    d9e4:	83 20 40 02 	mulscc  %g1, %g2, %g1
    d9e8:	83 20 40 02 	mulscc  %g1, %g2, %g1
    d9ec:	83 20 40 02 	mulscc  %g1, %g2, %g1
    d9f0:	83 20 40 02 	mulscc  %g1, %g2, %g1
    d9f4:	83 20 40 02 	mulscc  %g1, %g2, %g1
    d9f8:	83 20 40 02 	mulscc  %g1, %g2, %g1
    d9fc:	83 20 40 02 	mulscc  %g1, %g2, %g1
    da00:	83 20 40 02 	mulscc  %g1, %g2, %g1
    da04:	83 20 40 02 	mulscc  %g1, %g2, %g1
    da08:	83 20 40 02 	mulscc  %g1, %g2, %g1
    da0c:	83 20 40 02 	mulscc  %g1, %g2, %g1
    da10:	83 20 40 02 	mulscc  %g1, %g2, %g1
    da14:	83 20 40 02 	mulscc  %g1, %g2, %g1
    da18:	83 20 40 02 	mulscc  %g1, %g2, %g1
    da1c:	83 20 40 02 	mulscc  %g1, %g2, %g1
    da20:	83 20 40 02 	mulscc  %g1, %g2, %g1
    da24:	83 20 40 02 	mulscc  %g1, %g2, %g1
    da28:	83 20 40 02 	mulscc  %g1, %g2, %g1
    da2c:	83 20 40 02 	mulscc  %g1, %g2, %g1
    da30:	83 20 40 02 	mulscc  %g1, %g2, %g1
    da34:	83 20 40 02 	mulscc  %g1, %g2, %g1
    da38:	83 20 60 00 	mulscc  %g1, 0, %g1
    da3c:	84 00 40 0d 	add  %g1, %o5, %g2
    da40:	87 40 00 00 	rd  %y, %g3
    da44:	80 a0 80 1b 	cmp  %g2, %i3
    da48:	18 80 00 09 	bgu  da6c <__divdi3+0x368>
    da4c:	88 10 00 1d 	mov  %i5, %g4
    da50:	b9 2f 00 1a 	sll  %i4, %i2, %i4
    da54:	80 a7 00 03 	cmp  %i4, %g3
    da58:	3a 80 00 0a 	bcc,a   da80 <__divdi3+0x37c>
    da5c:	ba 10 20 00 	clr  %i5
    da60:	80 a0 80 1b 	cmp  %g2, %i3
    da64:	32 80 00 07 	bne,a   da80 <__divdi3+0x37c>
    da68:	ba 10 20 00 	clr  %i5
    da6c:	10 80 00 04 	b  da7c <__divdi3+0x378>
    da70:	88 07 7f ff 	add  %i5, -1, %g4
    da74:	10 80 00 03 	b  da80 <__divdi3+0x37c>
    da78:	88 10 20 00 	clr  %g4
    da7c:	ba 10 20 00 	clr  %i5
    da80:	84 10 00 1d 	mov  %i5, %g2
    da84:	80 a4 20 00 	cmp  %l0, 0
    da88:	02 80 00 04 	be  da98 <__divdi3+0x394>
    da8c:	86 10 00 04 	mov  %g4, %g3
    da90:	86 a0 00 04 	subcc  %g0, %g4, %g3
    da94:	84 60 00 1d 	subx  %g0, %i5, %g2
    da98:	b0 10 00 02 	mov  %g2, %i0
    da9c:	b2 10 00 03 	mov  %g3, %i1
    daa0:	81 c7 e0 08 	ret 
    daa4:	81 e8 00 00 	restore 

0000daa8 <__moddi3>:
    daa8:	9d e3 bf a0 	save  %sp, -96, %sp
    daac:	2f 00 00 22 	sethi  %hi(0x8800), %l7
    dab0:	40 00 09 54 	call  10000 <__sparc_get_pc_thunk.l7>
    dab4:	ae 05 e2 6c 	add  %l7, 0x26c, %l7	! 8a6c <_Q_div+0x60>
    dab8:	ba 10 00 18 	mov  %i0, %i5
    dabc:	b8 10 00 19 	mov  %i1, %i4
    dac0:	82 10 00 1a 	mov  %i2, %g1
    dac4:	84 10 00 1b 	mov  %i3, %g2
    dac8:	80 a6 20 00 	cmp  %i0, 0
    dacc:	16 80 00 07 	bge  dae8 <__moddi3+0x40>
    dad0:	a0 10 20 00 	clr  %l0
    dad4:	b2 a0 00 19 	subcc  %g0, %i1, %i1
    dad8:	a0 10 3f ff 	mov  -1, %l0
    dadc:	b0 60 00 18 	subx  %g0, %i0, %i0
    dae0:	b8 10 00 19 	mov  %i1, %i4
    dae4:	ba 10 00 18 	mov  %i0, %i5
    dae8:	80 a0 60 00 	cmp  %g1, 0
    daec:	16 80 00 07 	bge  db08 <__moddi3+0x60>
    daf0:	90 10 00 02 	mov  %g2, %o0
    daf4:	b6 a0 00 1b 	subcc  %g0, %i3, %i3
    daf8:	b4 60 00 1a 	subx  %g0, %i2, %i2
    dafc:	84 10 00 1b 	mov  %i3, %g2
    db00:	82 10 00 1a 	mov  %i2, %g1
    db04:	90 10 00 02 	mov  %g2, %o0
    db08:	b4 10 00 1c 	mov  %i4, %i2
    db0c:	80 a0 60 00 	cmp  %g1, 0
    db10:	12 80 00 50 	bne  dc50 <__moddi3+0x1a8>
    db14:	b2 10 00 1d 	mov  %i5, %i1
    db18:	80 a0 80 1d 	cmp  %g2, %i5
    db1c:	08 80 00 19 	bleu  db80 <__moddi3+0xd8>
    db20:	80 a0 a0 00 	cmp  %g2, 0
    db24:	82 10 20 20 	mov  0x20, %g1
    db28:	80 a7 40 02 	cmp  %i5, %g2
    db2c:	0a 80 00 0c 	bcs  db5c <__moddi3+0xb4>
    db30:	b8 c7 00 1c 	addxcc  %i4, %i4, %i4
    db34:	ba 27 40 02 	sub  %i5, %g2, %i5
    db38:	ba 47 40 1d 	addx  %i5, %i5, %i5
    db3c:	82 a0 60 01 	deccc  %g1
    db40:	12 bf ff fb 	bne  db2c <__moddi3+0x84>
    db44:	80 a7 40 02 	cmp  %i5, %g2
    db48:	0a 80 00 0b 	bcs  db74 <__moddi3+0xcc>
    db4c:	b8 c7 00 1c 	addxcc  %i4, %i4, %i4
    db50:	10 80 00 09 	b  db74 <__moddi3+0xcc>
    db54:	ba 27 40 02 	sub  %i5, %g2, %i5
    db58:	ba 27 40 02 	sub  %i5, %g2, %i5
    db5c:	ba c7 40 1d 	addxcc  %i5, %i5, %i5
    db60:	1a bf ff f8 	bcc  db40 <__moddi3+0x98>
    db64:	82 a0 60 01 	deccc  %g1
    db68:	12 bf ff fc 	bne  db58 <__moddi3+0xb0>
    db6c:	b8 87 00 1c 	addcc  %i4, %i4, %i4
    db70:	ba 27 40 02 	sub  %i5, %g2, %i5
    db74:	b8 3f 20 00 	xnor  %i4, 0, %i4
    db78:	10 80 00 34 	b  dc48 <__moddi3+0x1a0>
    db7c:	84 10 20 00 	clr  %g2
    db80:	32 80 00 06 	bne,a   db98 <__moddi3+0xf0>
    db84:	84 10 20 00 	clr  %g2
    db88:	90 10 20 01 	mov  1, %o0
    db8c:	40 00 02 40 	call  e48c <.udiv>
    db90:	92 10 20 00 	clr  %o1
    db94:	84 10 20 00 	clr  %g2
    db98:	82 10 20 20 	mov  0x20, %g1
    db9c:	80 a0 80 08 	cmp  %g2, %o0
    dba0:	0a 80 00 0c 	bcs  dbd0 <__moddi3+0x128>
    dba4:	ba c7 40 1d 	addxcc  %i5, %i5, %i5
    dba8:	84 20 80 08 	sub  %g2, %o0, %g2
    dbac:	84 40 80 02 	addx  %g2, %g2, %g2
    dbb0:	82 a0 60 01 	deccc  %g1
    dbb4:	12 bf ff fb 	bne  dba0 <__moddi3+0xf8>
    dbb8:	80 a0 80 08 	cmp  %g2, %o0
    dbbc:	0a 80 00 0b 	bcs  dbe8 <__moddi3+0x140>
    dbc0:	ba c7 40 1d 	addxcc  %i5, %i5, %i5
    dbc4:	10 80 00 09 	b  dbe8 <__moddi3+0x140>
    dbc8:	84 20 80 08 	sub  %g2, %o0, %g2
    dbcc:	84 20 80 08 	sub  %g2, %o0, %g2
    dbd0:	84 c0 80 02 	addxcc  %g2, %g2, %g2
    dbd4:	1a bf ff f8 	bcc  dbb4 <__moddi3+0x10c>
    dbd8:	82 a0 60 01 	deccc  %g1
    dbdc:	12 bf ff fc 	bne  dbcc <__moddi3+0x124>
    dbe0:	ba 87 40 1d 	addcc  %i5, %i5, %i5
    dbe4:	84 20 80 08 	sub  %g2, %o0, %g2
    dbe8:	ba 3f 60 00 	xnor  %i5, 0, %i5
    dbec:	ba 10 00 02 	mov  %g2, %i5
    dbf0:	82 10 20 20 	mov  0x20, %g1
    dbf4:	80 a7 40 08 	cmp  %i5, %o0
    dbf8:	0a 80 00 0c 	bcs  dc28 <__moddi3+0x180>
    dbfc:	b8 c7 00 1c 	addxcc  %i4, %i4, %i4
    dc00:	ba 27 40 08 	sub  %i5, %o0, %i5
    dc04:	ba 47 40 1d 	addx  %i5, %i5, %i5
    dc08:	82 a0 60 01 	deccc  %g1
    dc0c:	12 bf ff fb 	bne  dbf8 <__moddi3+0x150>
    dc10:	80 a7 40 08 	cmp  %i5, %o0
    dc14:	0a 80 00 0b 	bcs  dc40 <__moddi3+0x198>
    dc18:	b8 c7 00 1c 	addxcc  %i4, %i4, %i4
    dc1c:	10 80 00 09 	b  dc40 <__moddi3+0x198>
    dc20:	ba 27 40 08 	sub  %i5, %o0, %i5
    dc24:	ba 27 40 08 	sub  %i5, %o0, %i5
    dc28:	ba c7 40 1d 	addxcc  %i5, %i5, %i5
    dc2c:	1a bf ff f8 	bcc  dc0c <__moddi3+0x164>
    dc30:	82 a0 60 01 	deccc  %g1
    dc34:	12 bf ff fc 	bne  dc24 <__moddi3+0x17c>
    dc38:	b8 87 00 1c 	addcc  %i4, %i4, %i4
    dc3c:	ba 27 40 08 	sub  %i5, %o0, %i5
    dc40:	b8 3f 20 00 	xnor  %i4, 0, %i4
    dc44:	84 10 20 00 	clr  %g2
    dc48:	10 80 00 7f 	b  de44 <__moddi3+0x39c>
    dc4c:	86 10 00 1d 	mov  %i5, %g3
    dc50:	80 a0 40 1d 	cmp  %g1, %i5
    dc54:	28 80 00 05 	bleu,a   dc68 <__moddi3+0x1c0>
    dc58:	07 00 00 3f 	sethi  %hi(0xfc00), %g3
    dc5c:	84 10 00 1d 	mov  %i5, %g2
    dc60:	10 80 00 79 	b  de44 <__moddi3+0x39c>
    dc64:	86 10 00 1c 	mov  %i4, %g3
    dc68:	86 10 e3 ff 	or  %g3, 0x3ff, %g3
    dc6c:	80 a0 40 03 	cmp  %g1, %g3
    dc70:	18 80 00 07 	bgu  dc8c <__moddi3+0x1e4>
    dc74:	07 00 3f ff 	sethi  %hi(0xfffc00), %g3
    dc78:	80 a0 60 ff 	cmp  %g1, 0xff
    dc7c:	18 80 00 09 	bgu  dca0 <__moddi3+0x1f8>
    dc80:	b6 10 20 08 	mov  8, %i3
    dc84:	10 80 00 07 	b  dca0 <__moddi3+0x1f8>
    dc88:	b6 10 20 00 	clr  %i3
    dc8c:	86 10 e3 ff 	or  %g3, 0x3ff, %g3
    dc90:	80 a0 c0 01 	cmp  %g3, %g1
    dc94:	b6 60 20 00 	subx  %g0, 0, %i3
    dc98:	b6 0e e0 08 	and  %i3, 8, %i3
    dc9c:	b6 06 e0 10 	add  %i3, 0x10, %i3
    dca0:	89 30 40 1b 	srl  %g1, %i3, %g4
    dca4:	07 00 00 00 	sethi  %hi(0), %g3
    dca8:	86 18 fd 1c 	xor  %g3, -740, %g3
    dcac:	86 05 c0 03 	add  %l7, %g3, %g3
    dcb0:	c6 08 c0 04 	ldub  [ %g3 + %g4 ], %g3
    dcb4:	88 10 20 20 	mov  0x20, %g4
    dcb8:	b6 00 c0 1b 	add  %g3, %i3, %i3
    dcbc:	88 a1 00 1b 	subcc  %g4, %i3, %g4
    dcc0:	32 80 00 0c 	bne,a   dcf0 <__moddi3+0x248>
    dcc4:	83 28 40 04 	sll  %g1, %g4, %g1
    dcc8:	80 a7 00 02 	cmp  %i4, %g2
    dccc:	1a 80 00 04 	bcc  dcdc <__moddi3+0x234>
    dcd0:	80 a0 40 1d 	cmp  %g1, %i5
    dcd4:	3a 80 00 05 	bcc,a   dce8 <__moddi3+0x240>
    dcd8:	84 10 00 19 	mov  %i1, %g2
    dcdc:	b4 a7 00 02 	subcc  %i4, %g2, %i2
    dce0:	b2 67 40 01 	subx  %i5, %g1, %i1
    dce4:	84 10 00 19 	mov  %i1, %g2
    dce8:	10 80 00 57 	b  de44 <__moddi3+0x39c>
    dcec:	86 10 00 1a 	mov  %i2, %g3
    dcf0:	87 30 80 1b 	srl  %g2, %i3, %g3
    dcf4:	b4 10 40 03 	or  %g1, %g3, %i2
    dcf8:	83 37 00 1b 	srl  %i4, %i3, %g1
    dcfc:	87 37 40 1b 	srl  %i5, %i3, %g3
    dd00:	85 28 80 04 	sll  %g2, %g4, %g2
    dd04:	bb 2f 40 04 	sll  %i5, %g4, %i5
    dd08:	b9 2f 00 04 	sll  %i4, %g4, %i4
    dd0c:	ba 17 40 01 	or  %i5, %g1, %i5
    dd10:	82 10 20 20 	mov  0x20, %g1
    dd14:	80 a0 c0 1a 	cmp  %g3, %i2
    dd18:	0a 80 00 0c 	bcs  dd48 <__moddi3+0x2a0>
    dd1c:	ba c7 40 1d 	addxcc  %i5, %i5, %i5
    dd20:	86 20 c0 1a 	sub  %g3, %i2, %g3
    dd24:	86 40 c0 03 	addx  %g3, %g3, %g3
    dd28:	82 a0 60 01 	deccc  %g1
    dd2c:	12 bf ff fb 	bne  dd18 <__moddi3+0x270>
    dd30:	80 a0 c0 1a 	cmp  %g3, %i2
    dd34:	0a 80 00 0b 	bcs  dd60 <__moddi3+0x2b8>
    dd38:	ba c7 40 1d 	addxcc  %i5, %i5, %i5
    dd3c:	10 80 00 09 	b  dd60 <__moddi3+0x2b8>
    dd40:	86 20 c0 1a 	sub  %g3, %i2, %g3
    dd44:	86 20 c0 1a 	sub  %g3, %i2, %g3
    dd48:	86 c0 c0 03 	addxcc  %g3, %g3, %g3
    dd4c:	1a bf ff f8 	bcc  dd2c <__moddi3+0x284>
    dd50:	82 a0 60 01 	deccc  %g1
    dd54:	12 bf ff fc 	bne  dd44 <__moddi3+0x29c>
    dd58:	ba 87 40 1d 	addcc  %i5, %i5, %i5
    dd5c:	86 20 c0 1a 	sub  %g3, %i2, %g3
    dd60:	ba 3f 60 00 	xnor  %i5, 0, %i5
    dd64:	81 80 00 1d 	mov  %i5, %y
    dd68:	9b 38 a0 1f 	sra  %g2, 0x1f, %o5
    dd6c:	9a 0f 40 0d 	and  %i5, %o5, %o5
    dd70:	82 88 20 00 	andcc  %g0, 0, %g1
    dd74:	83 20 40 02 	mulscc  %g1, %g2, %g1
    dd78:	83 20 40 02 	mulscc  %g1, %g2, %g1
    dd7c:	83 20 40 02 	mulscc  %g1, %g2, %g1
    dd80:	83 20 40 02 	mulscc  %g1, %g2, %g1
    dd84:	83 20 40 02 	mulscc  %g1, %g2, %g1
    dd88:	83 20 40 02 	mulscc  %g1, %g2, %g1
    dd8c:	83 20 40 02 	mulscc  %g1, %g2, %g1
    dd90:	83 20 40 02 	mulscc  %g1, %g2, %g1
    dd94:	83 20 40 02 	mulscc  %g1, %g2, %g1
    dd98:	83 20 40 02 	mulscc  %g1, %g2, %g1
    dd9c:	83 20 40 02 	mulscc  %g1, %g2, %g1
    dda0:	83 20 40 02 	mulscc  %g1, %g2, %g1
    dda4:	83 20 40 02 	mulscc  %g1, %g2, %g1
    dda8:	83 20 40 02 	mulscc  %g1, %g2, %g1
    ddac:	83 20 40 02 	mulscc  %g1, %g2, %g1
    ddb0:	83 20 40 02 	mulscc  %g1, %g2, %g1
    ddb4:	83 20 40 02 	mulscc  %g1, %g2, %g1
    ddb8:	83 20 40 02 	mulscc  %g1, %g2, %g1
    ddbc:	83 20 40 02 	mulscc  %g1, %g2, %g1
    ddc0:	83 20 40 02 	mulscc  %g1, %g2, %g1
    ddc4:	83 20 40 02 	mulscc  %g1, %g2, %g1
    ddc8:	83 20 40 02 	mulscc  %g1, %g2, %g1
    ddcc:	83 20 40 02 	mulscc  %g1, %g2, %g1
    ddd0:	83 20 40 02 	mulscc  %g1, %g2, %g1
    ddd4:	83 20 40 02 	mulscc  %g1, %g2, %g1
    ddd8:	83 20 40 02 	mulscc  %g1, %g2, %g1
    dddc:	83 20 40 02 	mulscc  %g1, %g2, %g1
    dde0:	83 20 40 02 	mulscc  %g1, %g2, %g1
    dde4:	83 20 40 02 	mulscc  %g1, %g2, %g1
    dde8:	83 20 40 02 	mulscc  %g1, %g2, %g1
    ddec:	83 20 40 02 	mulscc  %g1, %g2, %g1
    ddf0:	83 20 40 02 	mulscc  %g1, %g2, %g1
    ddf4:	83 20 60 00 	mulscc  %g1, 0, %g1
    ddf8:	ba 00 40 0d 	add  %g1, %o5, %i5
    ddfc:	b3 40 00 00 	rd  %y, %i1
    de00:	82 10 00 1d 	mov  %i5, %g1
    de04:	80 a7 40 03 	cmp  %i5, %g3
    de08:	18 80 00 07 	bgu  de24 <__moddi3+0x37c>
    de0c:	b0 10 00 19 	mov  %i1, %i0
    de10:	80 a7 00 19 	cmp  %i4, %i1
    de14:	1a 80 00 06 	bcc  de2c <__moddi3+0x384>
    de18:	80 a7 40 03 	cmp  %i5, %g3
    de1c:	12 80 00 04 	bne  de2c <__moddi3+0x384>
    de20:	01 00 00 00 	nop 
    de24:	b0 a6 40 02 	subcc  %i1, %g2, %i0
    de28:	82 67 40 1a 	subx  %i5, %i2, %g1
    de2c:	84 a7 00 18 	subcc  %i4, %i0, %g2
    de30:	b8 60 c0 01 	subx  %g3, %g1, %i4
    de34:	83 30 80 04 	srl  %g2, %g4, %g1
    de38:	b7 2f 00 1b 	sll  %i4, %i3, %i3
    de3c:	85 37 00 04 	srl  %i4, %g4, %g2
    de40:	86 10 40 1b 	or  %g1, %i3, %g3
    de44:	80 a4 20 00 	cmp  %l0, 0
    de48:	02 80 00 04 	be  de58 <__moddi3+0x3b0>
    de4c:	01 00 00 00 	nop 
    de50:	86 a0 00 03 	subcc  %g0, %g3, %g3
    de54:	84 60 00 02 	subx  %g0, %g2, %g2
    de58:	b0 10 00 02 	mov  %g2, %i0
    de5c:	b2 10 00 03 	mov  %g3, %i1
    de60:	81 c7 e0 08 	ret 
    de64:	81 e8 00 00 	restore 

0000de68 <__udivdi3>:
    de68:	9d e3 bf a0 	save  %sp, -96, %sp
    de6c:	2f 00 00 21 	sethi  %hi(0x8400), %l7
    de70:	40 00 08 64 	call  10000 <__sparc_get_pc_thunk.l7>
    de74:	ae 05 e2 ac 	add  %l7, 0x2ac, %l7	! 86ac <_fpmaxtostr+0xc74>
    de78:	80 a6 a0 00 	cmp  %i2, 0
    de7c:	12 80 00 50 	bne  dfbc <__udivdi3+0x154>
    de80:	84 10 00 1b 	mov  %i3, %g2
    de84:	80 a6 c0 18 	cmp  %i3, %i0
    de88:	08 80 00 1a 	bleu  def0 <__udivdi3+0x88>
    de8c:	80 a6 e0 00 	cmp  %i3, 0
    de90:	84 10 00 19 	mov  %i1, %g2
    de94:	82 10 20 20 	mov  0x20, %g1
    de98:	80 a6 00 1b 	cmp  %i0, %i3
    de9c:	0a 80 00 0c 	bcs  decc <__udivdi3+0x64>
    dea0:	84 c0 80 02 	addxcc  %g2, %g2, %g2
    dea4:	b0 26 00 1b 	sub  %i0, %i3, %i0
    dea8:	b0 46 00 18 	addx  %i0, %i0, %i0
    deac:	82 a0 60 01 	deccc  %g1
    deb0:	12 bf ff fb 	bne  de9c <__udivdi3+0x34>
    deb4:	80 a6 00 1b 	cmp  %i0, %i3
    deb8:	0a 80 00 0b 	bcs  dee4 <__udivdi3+0x7c>
    debc:	84 c0 80 02 	addxcc  %g2, %g2, %g2
    dec0:	10 80 00 09 	b  dee4 <__udivdi3+0x7c>
    dec4:	b0 26 00 1b 	sub  %i0, %i3, %i0
    dec8:	b0 26 00 1b 	sub  %i0, %i3, %i0
    decc:	b0 c6 00 18 	addxcc  %i0, %i0, %i0
    ded0:	1a bf ff f8 	bcc  deb0 <__udivdi3+0x48>
    ded4:	82 a0 60 01 	deccc  %g1
    ded8:	12 bf ff fc 	bne  dec8 <__udivdi3+0x60>
    dedc:	84 80 80 02 	addcc  %g2, %g2, %g2
    dee0:	b0 26 00 1b 	sub  %i0, %i3, %i0
    dee4:	84 38 a0 00 	xnor  %g2, 0, %g2
    dee8:	10 80 00 aa 	b  e190 <__udivdi3+0x328>
    deec:	b0 10 20 00 	clr  %i0
    def0:	12 80 00 05 	bne  df04 <__udivdi3+0x9c>
    def4:	90 10 20 01 	mov  1, %o0
    def8:	40 00 01 65 	call  e48c <.udiv>
    defc:	92 10 20 00 	clr  %o1
    df00:	b6 10 00 08 	mov  %o0, %i3
    df04:	84 10 20 00 	clr  %g2
    df08:	82 10 20 20 	mov  0x20, %g1
    df0c:	80 a0 80 1b 	cmp  %g2, %i3
    df10:	0a 80 00 0c 	bcs  df40 <__udivdi3+0xd8>
    df14:	b0 c6 00 18 	addxcc  %i0, %i0, %i0
    df18:	84 20 80 1b 	sub  %g2, %i3, %g2
    df1c:	84 40 80 02 	addx  %g2, %g2, %g2
    df20:	82 a0 60 01 	deccc  %g1
    df24:	12 bf ff fb 	bne  df10 <__udivdi3+0xa8>
    df28:	80 a0 80 1b 	cmp  %g2, %i3
    df2c:	0a 80 00 0b 	bcs  df58 <__udivdi3+0xf0>
    df30:	b0 c6 00 18 	addxcc  %i0, %i0, %i0
    df34:	10 80 00 09 	b  df58 <__udivdi3+0xf0>
    df38:	84 20 80 1b 	sub  %g2, %i3, %g2
    df3c:	84 20 80 1b 	sub  %g2, %i3, %g2
    df40:	84 c0 80 02 	addxcc  %g2, %g2, %g2
    df44:	1a bf ff f8 	bcc  df24 <__udivdi3+0xbc>
    df48:	82 a0 60 01 	deccc  %g1
    df4c:	12 bf ff fc 	bne  df3c <__udivdi3+0xd4>
    df50:	b0 86 00 18 	addcc  %i0, %i0, %i0
    df54:	84 20 80 1b 	sub  %g2, %i3, %g2
    df58:	b0 3e 20 00 	xnor  %i0, 0, %i0
    df5c:	86 10 00 02 	mov  %g2, %g3
    df60:	84 10 00 19 	mov  %i1, %g2
    df64:	82 10 20 20 	mov  0x20, %g1
    df68:	80 a0 c0 1b 	cmp  %g3, %i3
    df6c:	0a 80 00 0c 	bcs  df9c <__udivdi3+0x134>
    df70:	84 c0 80 02 	addxcc  %g2, %g2, %g2
    df74:	86 20 c0 1b 	sub  %g3, %i3, %g3
    df78:	86 40 c0 03 	addx  %g3, %g3, %g3
    df7c:	82 a0 60 01 	deccc  %g1
    df80:	12 bf ff fb 	bne  df6c <__udivdi3+0x104>
    df84:	80 a0 c0 1b 	cmp  %g3, %i3
    df88:	0a 80 00 0b 	bcs  dfb4 <__udivdi3+0x14c>
    df8c:	84 c0 80 02 	addxcc  %g2, %g2, %g2
    df90:	10 80 00 09 	b  dfb4 <__udivdi3+0x14c>
    df94:	86 20 c0 1b 	sub  %g3, %i3, %g3
    df98:	86 20 c0 1b 	sub  %g3, %i3, %g3
    df9c:	86 c0 c0 03 	addxcc  %g3, %g3, %g3
    dfa0:	1a bf ff f8 	bcc  df80 <__udivdi3+0x118>
    dfa4:	82 a0 60 01 	deccc  %g1
    dfa8:	12 bf ff fc 	bne  df98 <__udivdi3+0x130>
    dfac:	84 80 80 02 	addcc  %g2, %g2, %g2
    dfb0:	86 20 c0 1b 	sub  %g3, %i3, %g3
    dfb4:	84 38 a0 00 	xnor  %g2, 0, %g2
    dfb8:	30 80 00 76 	b,a   e190 <__udivdi3+0x328>
    dfbc:	80 a6 80 18 	cmp  %i2, %i0
    dfc0:	18 80 00 70 	bgu  e180 <__udivdi3+0x318>
    dfc4:	03 00 00 3f 	sethi  %hi(0xfc00), %g1
    dfc8:	82 10 63 ff 	or  %g1, 0x3ff, %g1	! ffff <SW_trap_0xfe+0x1f>
    dfcc:	80 a6 80 01 	cmp  %i2, %g1
    dfd0:	38 80 00 07 	bgu,a   dfec <__udivdi3+0x184>
    dfd4:	03 00 3f ff 	sethi  %hi(0xfffc00), %g1
    dfd8:	80 a6 a0 ff 	cmp  %i2, 0xff
    dfdc:	18 80 00 09 	bgu  e000 <__udivdi3+0x198>
    dfe0:	82 10 20 08 	mov  8, %g1
    dfe4:	10 80 00 07 	b  e000 <__udivdi3+0x198>
    dfe8:	82 10 20 00 	clr  %g1
    dfec:	82 10 63 ff 	or  %g1, 0x3ff, %g1
    dff0:	80 a0 40 1a 	cmp  %g1, %i2
    dff4:	82 60 20 00 	subx  %g0, 0, %g1
    dff8:	82 08 60 08 	and  %g1, 8, %g1
    dffc:	82 00 60 10 	add  %g1, 0x10, %g1
    e000:	89 36 80 01 	srl  %i2, %g1, %g4
    e004:	07 00 00 00 	sethi  %hi(0), %g3
    e008:	86 18 fd 1c 	xor  %g3, -740, %g3
    e00c:	86 05 c0 03 	add  %l7, %g3, %g3
    e010:	c6 08 c0 04 	ldub  [ %g3 + %g4 ], %g3
    e014:	88 10 20 20 	mov  0x20, %g4
    e018:	82 00 c0 01 	add  %g3, %g1, %g1
    e01c:	88 a1 00 01 	subcc  %g4, %g1, %g4
    e020:	32 80 00 0a 	bne,a   e048 <__udivdi3+0x1e0>
    e024:	87 30 80 01 	srl  %g2, %g1, %g3
    e028:	80 a6 40 02 	cmp  %i1, %g2
    e02c:	3a 80 00 05 	bcc,a   e040 <__udivdi3+0x1d8>
    e030:	b0 10 20 00 	clr  %i0
    e034:	80 a6 80 18 	cmp  %i2, %i0
    e038:	1a 80 00 53 	bcc  e184 <__udivdi3+0x31c>
    e03c:	b0 10 20 00 	clr  %i0
    e040:	10 80 00 54 	b  e190 <__udivdi3+0x328>
    e044:	84 10 20 01 	mov  1, %g2
    e048:	bb 28 80 04 	sll  %g2, %g4, %i5
    e04c:	b5 2e 80 04 	sll  %i2, %g4, %i2
    e050:	b4 16 80 03 	or  %i2, %g3, %i2
    e054:	87 36 00 01 	srl  %i0, %g1, %g3
    e058:	83 36 40 01 	srl  %i1, %g1, %g1
    e05c:	b1 2e 00 04 	sll  %i0, %g4, %i0
    e060:	b0 16 00 01 	or  %i0, %g1, %i0
    e064:	82 10 20 20 	mov  0x20, %g1
    e068:	80 a0 c0 1a 	cmp  %g3, %i2
    e06c:	0a 80 00 0c 	bcs  e09c <__udivdi3+0x234>
    e070:	b0 c6 00 18 	addxcc  %i0, %i0, %i0
    e074:	86 20 c0 1a 	sub  %g3, %i2, %g3
    e078:	86 40 c0 03 	addx  %g3, %g3, %g3
    e07c:	82 a0 60 01 	deccc  %g1
    e080:	12 bf ff fb 	bne  e06c <__udivdi3+0x204>
    e084:	80 a0 c0 1a 	cmp  %g3, %i2
    e088:	0a 80 00 0b 	bcs  e0b4 <__udivdi3+0x24c>
    e08c:	b0 c6 00 18 	addxcc  %i0, %i0, %i0
    e090:	10 80 00 09 	b  e0b4 <__udivdi3+0x24c>
    e094:	86 20 c0 1a 	sub  %g3, %i2, %g3
    e098:	86 20 c0 1a 	sub  %g3, %i2, %g3
    e09c:	86 c0 c0 03 	addxcc  %g3, %g3, %g3
    e0a0:	1a bf ff f8 	bcc  e080 <__udivdi3+0x218>
    e0a4:	82 a0 60 01 	deccc  %g1
    e0a8:	12 bf ff fc 	bne  e098 <__udivdi3+0x230>
    e0ac:	b0 86 00 18 	addcc  %i0, %i0, %i0
    e0b0:	86 20 c0 1a 	sub  %g3, %i2, %g3
    e0b4:	b0 3e 20 00 	xnor  %i0, 0, %i0
    e0b8:	81 80 00 18 	mov  %i0, %y
    e0bc:	9b 3f 60 1f 	sra  %i5, 0x1f, %o5
    e0c0:	9a 0e 00 0d 	and  %i0, %o5, %o5
    e0c4:	82 88 20 00 	andcc  %g0, 0, %g1
    e0c8:	83 20 40 1d 	mulscc  %g1, %i5, %g1
    e0cc:	83 20 40 1d 	mulscc  %g1, %i5, %g1
    e0d0:	83 20 40 1d 	mulscc  %g1, %i5, %g1
    e0d4:	83 20 40 1d 	mulscc  %g1, %i5, %g1
    e0d8:	83 20 40 1d 	mulscc  %g1, %i5, %g1
    e0dc:	83 20 40 1d 	mulscc  %g1, %i5, %g1
    e0e0:	83 20 40 1d 	mulscc  %g1, %i5, %g1
    e0e4:	83 20 40 1d 	mulscc  %g1, %i5, %g1
    e0e8:	83 20 40 1d 	mulscc  %g1, %i5, %g1
    e0ec:	83 20 40 1d 	mulscc  %g1, %i5, %g1
    e0f0:	83 20 40 1d 	mulscc  %g1, %i5, %g1
    e0f4:	83 20 40 1d 	mulscc  %g1, %i5, %g1
    e0f8:	83 20 40 1d 	mulscc  %g1, %i5, %g1
    e0fc:	83 20 40 1d 	mulscc  %g1, %i5, %g1
    e100:	83 20 40 1d 	mulscc  %g1, %i5, %g1
    e104:	83 20 40 1d 	mulscc  %g1, %i5, %g1
    e108:	83 20 40 1d 	mulscc  %g1, %i5, %g1
    e10c:	83 20 40 1d 	mulscc  %g1, %i5, %g1
    e110:	83 20 40 1d 	mulscc  %g1, %i5, %g1
    e114:	83 20 40 1d 	mulscc  %g1, %i5, %g1
    e118:	83 20 40 1d 	mulscc  %g1, %i5, %g1
    e11c:	83 20 40 1d 	mulscc  %g1, %i5, %g1
    e120:	83 20 40 1d 	mulscc  %g1, %i5, %g1
    e124:	83 20 40 1d 	mulscc  %g1, %i5, %g1
    e128:	83 20 40 1d 	mulscc  %g1, %i5, %g1
    e12c:	83 20 40 1d 	mulscc  %g1, %i5, %g1
    e130:	83 20 40 1d 	mulscc  %g1, %i5, %g1
    e134:	83 20 40 1d 	mulscc  %g1, %i5, %g1
    e138:	83 20 40 1d 	mulscc  %g1, %i5, %g1
    e13c:	83 20 40 1d 	mulscc  %g1, %i5, %g1
    e140:	83 20 40 1d 	mulscc  %g1, %i5, %g1
    e144:	83 20 40 1d 	mulscc  %g1, %i5, %g1
    e148:	83 20 60 00 	mulscc  %g1, 0, %g1
    e14c:	ba 00 40 0d 	add  %g1, %o5, %i5
    e150:	b9 40 00 00 	rd  %y, %i4
    e154:	80 a7 40 03 	cmp  %i5, %g3
    e158:	18 80 00 08 	bgu  e178 <__udivdi3+0x310>
    e15c:	84 10 00 18 	mov  %i0, %g2
    e160:	b3 2e 40 04 	sll  %i1, %g4, %i1
    e164:	80 a6 40 1c 	cmp  %i1, %i4
    e168:	1a 80 00 09 	bcc  e18c <__udivdi3+0x324>
    e16c:	80 a7 40 03 	cmp  %i5, %g3
    e170:	32 80 00 08 	bne,a   e190 <__udivdi3+0x328>
    e174:	b0 10 20 00 	clr  %i0
    e178:	10 80 00 05 	b  e18c <__udivdi3+0x324>
    e17c:	84 06 3f ff 	add  %i0, -1, %g2
    e180:	b0 10 20 00 	clr  %i0
    e184:	10 80 00 03 	b  e190 <__udivdi3+0x328>
    e188:	84 10 20 00 	clr  %g2
    e18c:	b0 10 20 00 	clr  %i0
    e190:	b2 10 00 02 	mov  %g2, %i1
    e194:	81 c7 e0 08 	ret 
    e198:	81 e8 00 00 	restore 

0000e19c <__umoddi3>:
    e19c:	9d e3 bf a0 	save  %sp, -96, %sp
    e1a0:	2f 00 00 20 	sethi  %hi(0x8000), %l7
    e1a4:	40 00 07 97 	call  10000 <__sparc_get_pc_thunk.l7>
    e1a8:	ae 05 e3 78 	add  %l7, 0x378, %l7	! 8378 <_fpmaxtostr+0x940>
    e1ac:	b8 10 00 1b 	mov  %i3, %i4
    e1b0:	84 10 00 19 	mov  %i1, %g2
    e1b4:	80 a6 a0 00 	cmp  %i2, 0
    e1b8:	12 80 00 39 	bne  e29c <__umoddi3+0x100>
    e1bc:	86 10 00 18 	mov  %i0, %g3
    e1c0:	80 a6 c0 18 	cmp  %i3, %i0
    e1c4:	18 80 00 1f 	bgu  e240 <__umoddi3+0xa4>
    e1c8:	84 10 00 18 	mov  %i0, %g2
    e1cc:	80 a6 e0 00 	cmp  %i3, 0
    e1d0:	32 80 00 07 	bne,a   e1ec <__umoddi3+0x50>
    e1d4:	84 10 20 00 	clr  %g2
    e1d8:	90 10 20 01 	mov  1, %o0
    e1dc:	40 00 00 ac 	call  e48c <.udiv>
    e1e0:	92 10 20 00 	clr  %o1
    e1e4:	b6 10 00 08 	mov  %o0, %i3
    e1e8:	84 10 20 00 	clr  %g2
    e1ec:	82 10 20 20 	mov  0x20, %g1
    e1f0:	80 a0 80 1b 	cmp  %g2, %i3
    e1f4:	0a 80 00 0c 	bcs  e224 <__umoddi3+0x88>
    e1f8:	b0 c6 00 18 	addxcc  %i0, %i0, %i0
    e1fc:	84 20 80 1b 	sub  %g2, %i3, %g2
    e200:	84 40 80 02 	addx  %g2, %g2, %g2
    e204:	82 a0 60 01 	deccc  %g1
    e208:	12 bf ff fb 	bne  e1f4 <__umoddi3+0x58>
    e20c:	80 a0 80 1b 	cmp  %g2, %i3
    e210:	0a 80 00 0b 	bcs  e23c <__umoddi3+0xa0>
    e214:	b0 c6 00 18 	addxcc  %i0, %i0, %i0
    e218:	10 80 00 09 	b  e23c <__umoddi3+0xa0>
    e21c:	84 20 80 1b 	sub  %g2, %i3, %g2
    e220:	84 20 80 1b 	sub  %g2, %i3, %g2
    e224:	84 c0 80 02 	addxcc  %g2, %g2, %g2
    e228:	1a bf ff f8 	bcc  e208 <__umoddi3+0x6c>
    e22c:	82 a0 60 01 	deccc  %g1
    e230:	12 bf ff fc 	bne  e220 <__umoddi3+0x84>
    e234:	b0 86 00 18 	addcc  %i0, %i0, %i0
    e238:	84 20 80 1b 	sub  %g2, %i3, %g2
    e23c:	b0 3e 20 00 	xnor  %i0, 0, %i0
    e240:	82 10 20 20 	mov  0x20, %g1
    e244:	80 a0 80 1b 	cmp  %g2, %i3
    e248:	0a 80 00 0c 	bcs  e278 <__umoddi3+0xdc>
    e24c:	b2 c6 40 19 	addxcc  %i1, %i1, %i1
    e250:	84 20 80 1b 	sub  %g2, %i3, %g2
    e254:	84 40 80 02 	addx  %g2, %g2, %g2
    e258:	82 a0 60 01 	deccc  %g1
    e25c:	12 bf ff fb 	bne  e248 <__umoddi3+0xac>
    e260:	80 a0 80 1b 	cmp  %g2, %i3
    e264:	0a 80 00 0b 	bcs  e290 <__umoddi3+0xf4>
    e268:	b2 c6 40 19 	addxcc  %i1, %i1, %i1
    e26c:	10 80 00 09 	b  e290 <__umoddi3+0xf4>
    e270:	84 20 80 1b 	sub  %g2, %i3, %g2
    e274:	84 20 80 1b 	sub  %g2, %i3, %g2
    e278:	84 c0 80 02 	addxcc  %g2, %g2, %g2
    e27c:	1a bf ff f8 	bcc  e25c <__umoddi3+0xc0>
    e280:	82 a0 60 01 	deccc  %g1
    e284:	12 bf ff fc 	bne  e274 <__umoddi3+0xd8>
    e288:	b2 86 40 19 	addcc  %i1, %i1, %i1
    e28c:	84 20 80 1b 	sub  %g2, %i3, %g2
    e290:	b2 3e 60 00 	xnor  %i1, 0, %i1
    e294:	10 80 00 25 	b  e328 <__umoddi3+0x18c>
    e298:	b0 10 20 00 	clr  %i0
    e29c:	80 a6 80 18 	cmp  %i2, %i0
    e2a0:	18 80 00 79 	bgu  e484 <__umoddi3+0x2e8>
    e2a4:	03 00 00 3f 	sethi  %hi(0xfc00), %g1
    e2a8:	82 10 63 ff 	or  %g1, 0x3ff, %g1	! ffff <SW_trap_0xfe+0x1f>
    e2ac:	80 a6 80 01 	cmp  %i2, %g1
    e2b0:	38 80 00 07 	bgu,a   e2cc <__umoddi3+0x130>
    e2b4:	03 00 3f ff 	sethi  %hi(0xfffc00), %g1
    e2b8:	80 a6 a0 ff 	cmp  %i2, 0xff
    e2bc:	18 80 00 09 	bgu  e2e0 <__umoddi3+0x144>
    e2c0:	82 10 20 08 	mov  8, %g1
    e2c4:	10 80 00 07 	b  e2e0 <__umoddi3+0x144>
    e2c8:	82 10 20 00 	clr  %g1
    e2cc:	82 10 63 ff 	or  %g1, 0x3ff, %g1
    e2d0:	80 a0 40 1a 	cmp  %g1, %i2
    e2d4:	82 60 20 00 	subx  %g0, 0, %g1
    e2d8:	82 08 60 08 	and  %g1, 8, %g1
    e2dc:	82 00 60 10 	add  %g1, 0x10, %g1
    e2e0:	89 36 80 01 	srl  %i2, %g1, %g4
    e2e4:	37 00 00 00 	sethi  %hi(0), %i3
    e2e8:	b6 1e fd 1c 	xor  %i3, -740, %i3
    e2ec:	b6 05 c0 1b 	add  %l7, %i3, %i3
    e2f0:	fa 0e c0 04 	ldub  [ %i3 + %g4 ], %i5
    e2f4:	88 10 20 20 	mov  0x20, %g4
    e2f8:	ba 07 40 01 	add  %i5, %g1, %i5
    e2fc:	88 a1 00 1d 	subcc  %g4, %i5, %g4
    e300:	32 80 00 0c 	bne,a   e330 <__umoddi3+0x194>
    e304:	83 37 00 1d 	srl  %i4, %i5, %g1
    e308:	80 a6 40 1c 	cmp  %i1, %i4
    e30c:	1a 80 00 04 	bcc  e31c <__umoddi3+0x180>
    e310:	80 a6 80 18 	cmp  %i2, %i0
    e314:	3a 80 00 05 	bcc,a   e328 <__umoddi3+0x18c>
    e318:	b0 10 00 03 	mov  %g3, %i0
    e31c:	84 a6 40 1c 	subcc  %i1, %i4, %g2
    e320:	86 66 00 1a 	subx  %i0, %i2, %g3
    e324:	b0 10 00 03 	mov  %g3, %i0
    e328:	10 80 00 57 	b  e484 <__umoddi3+0x2e8>
    e32c:	b2 10 00 02 	mov  %g2, %i1
    e330:	b5 2e 80 04 	sll  %i2, %g4, %i2
    e334:	b4 16 80 01 	or  %i2, %g1, %i2
    e338:	83 36 40 1d 	srl  %i1, %i5, %g1
    e33c:	87 36 00 1d 	srl  %i0, %i5, %g3
    e340:	85 2e 00 04 	sll  %i0, %g4, %g2
    e344:	b9 2f 00 04 	sll  %i4, %g4, %i4
    e348:	84 10 80 01 	or  %g2, %g1, %g2
    e34c:	b3 2e 40 04 	sll  %i1, %g4, %i1
    e350:	82 10 20 20 	mov  0x20, %g1
    e354:	80 a0 c0 1a 	cmp  %g3, %i2
    e358:	0a 80 00 0c 	bcs  e388 <__umoddi3+0x1ec>
    e35c:	84 c0 80 02 	addxcc  %g2, %g2, %g2
    e360:	86 20 c0 1a 	sub  %g3, %i2, %g3
    e364:	86 40 c0 03 	addx  %g3, %g3, %g3
    e368:	82 a0 60 01 	deccc  %g1
    e36c:	12 bf ff fb 	bne  e358 <__umoddi3+0x1bc>
    e370:	80 a0 c0 1a 	cmp  %g3, %i2
    e374:	0a 80 00 0b 	bcs  e3a0 <__umoddi3+0x204>
    e378:	84 c0 80 02 	addxcc  %g2, %g2, %g2
    e37c:	10 80 00 09 	b  e3a0 <__umoddi3+0x204>
    e380:	86 20 c0 1a 	sub  %g3, %i2, %g3
    e384:	86 20 c0 1a 	sub  %g3, %i2, %g3
    e388:	86 c0 c0 03 	addxcc  %g3, %g3, %g3
    e38c:	1a bf ff f8 	bcc  e36c <__umoddi3+0x1d0>
    e390:	82 a0 60 01 	deccc  %g1
    e394:	12 bf ff fc 	bne  e384 <__umoddi3+0x1e8>
    e398:	84 80 80 02 	addcc  %g2, %g2, %g2
    e39c:	86 20 c0 1a 	sub  %g3, %i2, %g3
    e3a0:	84 38 a0 00 	xnor  %g2, 0, %g2
    e3a4:	81 80 00 02 	mov  %g2, %y
    e3a8:	9b 3f 20 1f 	sra  %i4, 0x1f, %o5
    e3ac:	9a 08 80 0d 	and  %g2, %o5, %o5
    e3b0:	82 88 20 00 	andcc  %g0, 0, %g1
    e3b4:	83 20 40 1c 	mulscc  %g1, %i4, %g1
    e3b8:	83 20 40 1c 	mulscc  %g1, %i4, %g1
    e3bc:	83 20 40 1c 	mulscc  %g1, %i4, %g1
    e3c0:	83 20 40 1c 	mulscc  %g1, %i4, %g1
    e3c4:	83 20 40 1c 	mulscc  %g1, %i4, %g1
    e3c8:	83 20 40 1c 	mulscc  %g1, %i4, %g1
    e3cc:	83 20 40 1c 	mulscc  %g1, %i4, %g1
    e3d0:	83 20 40 1c 	mulscc  %g1, %i4, %g1
    e3d4:	83 20 40 1c 	mulscc  %g1, %i4, %g1
    e3d8:	83 20 40 1c 	mulscc  %g1, %i4, %g1
    e3dc:	83 20 40 1c 	mulscc  %g1, %i4, %g1
    e3e0:	83 20 40 1c 	mulscc  %g1, %i4, %g1
    e3e4:	83 20 40 1c 	mulscc  %g1, %i4, %g1
    e3e8:	83 20 40 1c 	mulscc  %g1, %i4, %g1
    e3ec:	83 20 40 1c 	mulscc  %g1, %i4, %g1
    e3f0:	83 20 40 1c 	mulscc  %g1, %i4, %g1
    e3f4:	83 20 40 1c 	mulscc  %g1, %i4, %g1
    e3f8:	83 20 40 1c 	mulscc  %g1, %i4, %g1
    e3fc:	83 20 40 1c 	mulscc  %g1, %i4, %g1
    e400:	83 20 40 1c 	mulscc  %g1, %i4, %g1
    e404:	83 20 40 1c 	mulscc  %g1, %i4, %g1
    e408:	83 20 40 1c 	mulscc  %g1, %i4, %g1
    e40c:	83 20 40 1c 	mulscc  %g1, %i4, %g1
    e410:	83 20 40 1c 	mulscc  %g1, %i4, %g1
    e414:	83 20 40 1c 	mulscc  %g1, %i4, %g1
    e418:	83 20 40 1c 	mulscc  %g1, %i4, %g1
    e41c:	83 20 40 1c 	mulscc  %g1, %i4, %g1
    e420:	83 20 40 1c 	mulscc  %g1, %i4, %g1
    e424:	83 20 40 1c 	mulscc  %g1, %i4, %g1
    e428:	83 20 40 1c 	mulscc  %g1, %i4, %g1
    e42c:	83 20 40 1c 	mulscc  %g1, %i4, %g1
    e430:	83 20 40 1c 	mulscc  %g1, %i4, %g1
    e434:	83 20 60 00 	mulscc  %g1, 0, %g1
    e438:	84 00 40 0d 	add  %g1, %o5, %g2
    e43c:	b7 40 00 00 	rd  %y, %i3
    e440:	82 10 00 02 	mov  %g2, %g1
    e444:	80 a0 80 03 	cmp  %g2, %g3
    e448:	18 80 00 07 	bgu  e464 <__umoddi3+0x2c8>
    e44c:	b0 10 00 1b 	mov  %i3, %i0
    e450:	80 a6 40 1b 	cmp  %i1, %i3
    e454:	1a 80 00 06 	bcc  e46c <__umoddi3+0x2d0>
    e458:	80 a0 80 03 	cmp  %g2, %g3
    e45c:	12 80 00 04 	bne  e46c <__umoddi3+0x2d0>
    e460:	01 00 00 00 	nop 
    e464:	b0 a6 c0 1c 	subcc  %i3, %i4, %i0
    e468:	82 60 80 1a 	subx  %g2, %i2, %g1
    e46c:	84 a6 40 18 	subcc  %i1, %i0, %g2
    e470:	b0 60 c0 01 	subx  %g3, %g1, %i0
    e474:	bb 2e 00 1d 	sll  %i0, %i5, %i5
    e478:	b3 30 80 04 	srl  %g2, %g4, %i1
    e47c:	b1 36 00 04 	srl  %i0, %g4, %i0
    e480:	b2 16 40 1d 	or  %i1, %i5, %i1
    e484:	81 c7 e0 08 	ret 
    e488:	81 e8 00 00 	restore 

0000e48c <.udiv>:
    e48c:	10 80 00 0b 	b  e4b8 <ready_to_divide>
    e490:	86 10 20 00 	clr  %g3

0000e494 <.div>:
    e494:	80 92 40 08 	orcc  %o1, %o0, %g0
    e498:	16 80 00 08 	bge  e4b8 <ready_to_divide>
    e49c:	86 1a 40 08 	xor  %o1, %o0, %g3
    e4a0:	80 92 40 00 	tst  %o1
    e4a4:	16 80 00 04 	bge  e4b4 <.div+0x20>
    e4a8:	80 92 00 00 	tst  %o0
    e4ac:	16 80 00 03 	bge  e4b8 <ready_to_divide>
    e4b0:	92 20 00 09 	neg  %o1
    e4b4:	90 20 00 08 	neg  %o0

0000e4b8 <ready_to_divide>:
    e4b8:	9a 92 40 00 	orcc  %o1, %g0, %o5
    e4bc:	12 80 00 05 	bne  e4d0 <ready_to_divide+0x18>
    e4c0:	96 10 00 08 	mov  %o0, %o3
    e4c4:	91 d0 20 02 	ta  2
    e4c8:	81 c3 e0 08 	retl 
    e4cc:	90 10 00 00 	mov  %g0, %o0
    e4d0:	80 a2 c0 0d 	cmp  %o3, %o5
    e4d4:	0a 80 00 95 	bcs  e728 <got_result>
    e4d8:	94 10 00 00 	mov  %g0, %o2
    e4dc:	03 02 00 00 	sethi  %hi(0x8000000), %g1
    e4e0:	80 a2 c0 01 	cmp  %o3, %g1
    e4e4:	0a 80 00 28 	bcs  e584 <not_really_big>
    e4e8:	98 10 00 00 	mov  %g0, %o4
    e4ec:	80 a3 40 01 	cmp  %o5, %g1
    e4f0:	1a 80 00 0d 	bcc  e524 <not_too_big>
    e4f4:	84 10 20 01 	mov  1, %g2
    e4f8:	9b 2b 60 04 	sll  %o5, 4, %o5
    e4fc:	10 bf ff fc 	b  e4ec <ready_to_divide+0x34>
    e500:	98 03 20 01 	inc  %o4
    e504:	9a 83 40 0d 	addcc  %o5, %o5, %o5
    e508:	1a 80 00 07 	bcc  e524 <not_too_big>
    e50c:	84 00 a0 01 	inc  %g2
    e510:	83 28 60 04 	sll  %g1, 4, %g1
    e514:	9b 33 60 01 	srl  %o5, 1, %o5
    e518:	9a 03 40 01 	add  %o5, %g1, %o5
    e51c:	10 80 00 07 	b  e538 <do_single_div>
    e520:	84 20 a0 01 	dec  %g2

0000e524 <not_too_big>:
    e524:	80 a3 40 0b 	cmp  %o5, %o3
    e528:	0a bf ff f7 	bcs  e504 <ready_to_divide+0x4c>
    e52c:	01 00 00 00 	nop 
    e530:	02 80 00 02 	be  e538 <do_single_div>
    e534:	01 00 00 00 	nop 

0000e538 <do_single_div>:
    e538:	84 a0 a0 01 	deccc  %g2
    e53c:	06 80 00 76 	bl  e714 <end_regular_divide>
    e540:	01 00 00 00 	nop 
    e544:	96 22 c0 0d 	sub  %o3, %o5, %o3
    e548:	94 10 20 01 	mov  1, %o2
    e54c:	10 80 00 0a 	b  e574 <end_single_divloop>
    e550:	01 00 00 00 	nop 

0000e554 <single_divloop>:
    e554:	95 2a a0 01 	sll  %o2, 1, %o2
    e558:	06 80 00 05 	bl  e56c <single_divloop+0x18>
    e55c:	9b 33 60 01 	srl  %o5, 1, %o5
    e560:	96 22 c0 0d 	sub  %o3, %o5, %o3
    e564:	10 80 00 04 	b  e574 <end_single_divloop>
    e568:	94 02 a0 01 	inc  %o2
    e56c:	96 02 c0 0d 	add  %o3, %o5, %o3
    e570:	94 22 a0 01 	dec  %o2

0000e574 <end_single_divloop>:
    e574:	84 a0 a0 01 	deccc  %g2
    e578:	16 bf ff f7 	bge  e554 <single_divloop>
    e57c:	80 92 c0 00 	tst  %o3
    e580:	30 80 00 65 	b,a   e714 <end_regular_divide>

0000e584 <not_really_big>:
    e584:	9b 2b 60 04 	sll  %o5, 4, %o5
    e588:	80 a3 40 0b 	cmp  %o5, %o3
    e58c:	08 bf ff fe 	bleu  e584 <not_really_big>
    e590:	98 83 20 01 	inccc  %o4
    e594:	02 80 00 65 	be  e728 <got_result>
    e598:	98 23 20 01 	dec  %o4
    e59c:	80 92 c0 00 	tst  %o3

0000e5a0 <divloop>:
    e5a0:	95 2a a0 04 	sll  %o2, 4, %o2
    e5a4:	06 80 00 2f 	bl  e660 <L1.16>
    e5a8:	9b 33 60 01 	srl  %o5, 1, %o5
    e5ac:	96 a2 c0 0d 	subcc  %o3, %o5, %o3
    e5b0:	06 80 00 17 	bl  e60c <L2.17>
    e5b4:	9b 33 60 01 	srl  %o5, 1, %o5
    e5b8:	96 a2 c0 0d 	subcc  %o3, %o5, %o3
    e5bc:	06 80 00 0b 	bl  e5e8 <L3.19>
    e5c0:	9b 33 60 01 	srl  %o5, 1, %o5
    e5c4:	96 a2 c0 0d 	subcc  %o3, %o5, %o3
    e5c8:	06 80 00 05 	bl  e5dc <L4.23>
    e5cc:	9b 33 60 01 	srl  %o5, 1, %o5
    e5d0:	96 a2 c0 0d 	subcc  %o3, %o5, %o3
    e5d4:	10 80 00 50 	b  e714 <end_regular_divide>
    e5d8:	94 02 a0 0f 	add  %o2, 0xf, %o2

0000e5dc <L4.23>:
    e5dc:	96 82 c0 0d 	addcc  %o3, %o5, %o3
    e5e0:	10 80 00 4d 	b  e714 <end_regular_divide>
    e5e4:	94 02 a0 0d 	add  %o2, 0xd, %o2

0000e5e8 <L3.19>:
    e5e8:	96 82 c0 0d 	addcc  %o3, %o5, %o3
    e5ec:	06 80 00 05 	bl  e600 <L4.21>
    e5f0:	9b 33 60 01 	srl  %o5, 1, %o5
    e5f4:	96 a2 c0 0d 	subcc  %o3, %o5, %o3
    e5f8:	10 80 00 47 	b  e714 <end_regular_divide>
    e5fc:	94 02 a0 0b 	add  %o2, 0xb, %o2

0000e600 <L4.21>:
    e600:	96 82 c0 0d 	addcc  %o3, %o5, %o3
    e604:	10 80 00 44 	b  e714 <end_regular_divide>
    e608:	94 02 a0 09 	add  %o2, 9, %o2

0000e60c <L2.17>:
    e60c:	96 82 c0 0d 	addcc  %o3, %o5, %o3
    e610:	06 80 00 0b 	bl  e63c <L3.17>
    e614:	9b 33 60 01 	srl  %o5, 1, %o5
    e618:	96 a2 c0 0d 	subcc  %o3, %o5, %o3
    e61c:	06 80 00 05 	bl  e630 <L4.19>
    e620:	9b 33 60 01 	srl  %o5, 1, %o5
    e624:	96 a2 c0 0d 	subcc  %o3, %o5, %o3
    e628:	10 80 00 3b 	b  e714 <end_regular_divide>
    e62c:	94 02 a0 07 	add  %o2, 7, %o2

0000e630 <L4.19>:
    e630:	96 82 c0 0d 	addcc  %o3, %o5, %o3
    e634:	10 80 00 38 	b  e714 <end_regular_divide>
    e638:	94 02 a0 05 	add  %o2, 5, %o2

0000e63c <L3.17>:
    e63c:	96 82 c0 0d 	addcc  %o3, %o5, %o3
    e640:	06 80 00 05 	bl  e654 <L4.17>
    e644:	9b 33 60 01 	srl  %o5, 1, %o5
    e648:	96 a2 c0 0d 	subcc  %o3, %o5, %o3
    e64c:	10 80 00 32 	b  e714 <end_regular_divide>
    e650:	94 02 a0 03 	add  %o2, 3, %o2

0000e654 <L4.17>:
    e654:	96 82 c0 0d 	addcc  %o3, %o5, %o3
    e658:	10 80 00 2f 	b  e714 <end_regular_divide>
    e65c:	94 02 a0 01 	inc  %o2

0000e660 <L1.16>:
    e660:	96 82 c0 0d 	addcc  %o3, %o5, %o3
    e664:	06 80 00 17 	bl  e6c0 <L2.15>
    e668:	9b 33 60 01 	srl  %o5, 1, %o5
    e66c:	96 a2 c0 0d 	subcc  %o3, %o5, %o3
    e670:	06 80 00 0b 	bl  e69c <L3.15>
    e674:	9b 33 60 01 	srl  %o5, 1, %o5
    e678:	96 a2 c0 0d 	subcc  %o3, %o5, %o3
    e67c:	06 80 00 05 	bl  e690 <L4.15>
    e680:	9b 33 60 01 	srl  %o5, 1, %o5
    e684:	96 a2 c0 0d 	subcc  %o3, %o5, %o3
    e688:	10 80 00 23 	b  e714 <end_regular_divide>
    e68c:	94 02 bf ff 	add  %o2, -1, %o2

0000e690 <L4.15>:
    e690:	96 82 c0 0d 	addcc  %o3, %o5, %o3
    e694:	10 80 00 20 	b  e714 <end_regular_divide>
    e698:	94 02 bf fd 	add  %o2, -3, %o2

0000e69c <L3.15>:
    e69c:	96 82 c0 0d 	addcc  %o3, %o5, %o3
    e6a0:	06 80 00 05 	bl  e6b4 <L4.13>
    e6a4:	9b 33 60 01 	srl  %o5, 1, %o5
    e6a8:	96 a2 c0 0d 	subcc  %o3, %o5, %o3
    e6ac:	10 80 00 1a 	b  e714 <end_regular_divide>
    e6b0:	94 02 bf fb 	add  %o2, -5, %o2

0000e6b4 <L4.13>:
    e6b4:	96 82 c0 0d 	addcc  %o3, %o5, %o3
    e6b8:	10 80 00 17 	b  e714 <end_regular_divide>
    e6bc:	94 02 bf f9 	add  %o2, -7, %o2

0000e6c0 <L2.15>:
    e6c0:	96 82 c0 0d 	addcc  %o3, %o5, %o3
    e6c4:	06 80 00 0b 	bl  e6f0 <L3.13>
    e6c8:	9b 33 60 01 	srl  %o5, 1, %o5
    e6cc:	96 a2 c0 0d 	subcc  %o3, %o5, %o3
    e6d0:	06 80 00 05 	bl  e6e4 <L4.11>
    e6d4:	9b 33 60 01 	srl  %o5, 1, %o5
    e6d8:	96 a2 c0 0d 	subcc  %o3, %o5, %o3
    e6dc:	10 80 00 0e 	b  e714 <end_regular_divide>
    e6e0:	94 02 bf f7 	add  %o2, -9, %o2

0000e6e4 <L4.11>:
    e6e4:	96 82 c0 0d 	addcc  %o3, %o5, %o3
    e6e8:	10 80 00 0b 	b  e714 <end_regular_divide>
    e6ec:	94 02 bf f5 	add  %o2, -11, %o2

0000e6f0 <L3.13>:
    e6f0:	96 82 c0 0d 	addcc  %o3, %o5, %o3
    e6f4:	06 80 00 05 	bl  e708 <L4.9>
    e6f8:	9b 33 60 01 	srl  %o5, 1, %o5
    e6fc:	96 a2 c0 0d 	subcc  %o3, %o5, %o3
    e700:	10 80 00 05 	b  e714 <end_regular_divide>
    e704:	94 02 bf f3 	add  %o2, -13, %o2

0000e708 <L4.9>:
    e708:	96 82 c0 0d 	addcc  %o3, %o5, %o3
    e70c:	10 80 00 02 	b  e714 <end_regular_divide>
    e710:	94 02 bf f1 	add  %o2, -15, %o2

0000e714 <end_regular_divide>:
    e714:	98 a3 20 01 	deccc  %o4
    e718:	16 bf ff a2 	bge  e5a0 <divloop>
    e71c:	80 92 c0 00 	tst  %o3
    e720:	26 80 00 02 	bl,a   e728 <got_result>
    e724:	94 22 a0 01 	dec  %o2

0000e728 <got_result>:
    e728:	80 90 c0 00 	tst  %g3
    e72c:	26 80 00 02 	bl,a   e734 <got_result+0xc>
    e730:	94 20 00 0a 	neg  %o2
    e734:	81 c3 e0 08 	retl 
    e738:	90 10 00 0a 	mov  %o2, %o0

0000e73c <generic_vectored_isr>:
    e73c:	a9 50 00 00 	rd  %wim, %l4
    e740:	a9 35 00 10 	srl  %l4, %l0, %l4
    e744:	80 a5 20 01 	cmp  %l4, 1
    e748:	12 80 00 13 	bne  e794 <continue_with_valid_T>
    e74c:	01 00 00 00 	nop 

0000e750 <handle_invalid_T>:
    e750:	a7 50 00 00 	rd  %wim, %l3
    e754:	a9 2c e0 07 	sll  %l3, 7, %l4
    e758:	a7 34 e0 01 	srl  %l3, 1, %l3
    e75c:	a6 14 c0 14 	or  %l3, %l4, %l3
    e760:	a6 0c e0 ff 	and  %l3, 0xff, %l3
    e764:	81 90 00 00 	mov  %g0, %wim
    e768:	81 e0 00 00 	save 
    e76c:	e0 3b a0 00 	std  %l0, [ %sp ]
    e770:	e4 3b a0 08 	std  %l2, [ %sp + 8 ]
    e774:	e8 3b a0 10 	std  %l4, [ %sp + 0x10 ]
    e778:	ec 3b a0 18 	std  %l6, [ %sp + 0x18 ]
    e77c:	f0 3b a0 20 	std  %i0, [ %sp + 0x20 ]
    e780:	f4 3b a0 28 	std  %i2, [ %sp + 0x28 ]
    e784:	f8 3b a0 30 	std  %i4, [ %sp + 0x30 ]
    e788:	fc 3b a0 38 	std  %fp, [ %sp + 0x38 ]
    e78c:	81 e8 00 00 	restore 
    e790:	81 90 00 13 	mov  %l3, %wim

0000e794 <continue_with_valid_T>:
    e794:	9c 27 a0 60 	sub  %fp, 0x60, %sp
    e798:	e0 23 80 00 	st  %l0, [ %sp ]
    e79c:	c2 23 a0 04 	st  %g1, [ %sp + 4 ]
    e7a0:	c4 3b a0 08 	std  %g2, [ %sp + 8 ]
    e7a4:	c8 3b a0 10 	std  %g4, [ %sp + 0x10 ]
    e7a8:	cc 3b a0 18 	std  %g6, [ %sp + 0x18 ]
    e7ac:	e2 23 a0 20 	st  %l1, [ %sp + 0x20 ]
    e7b0:	e4 23 a0 24 	st  %l2, [ %sp + 0x24 ]
    e7b4:	af 40 00 00 	rd  %y, %l7
    e7b8:	ee 23 a0 28 	st  %l7, [ %sp + 0x28 ]
    e7bc:	9c 23 a0 60 	sub  %sp, 0x60, %sp
    e7c0:	91 58 00 00 	rd  %tbr, %o0
    e7c4:	a7 32 20 04 	srl  %o0, 4, %l3
    e7c8:	a6 0c e0 0f 	and  %l3, 0xf, %l3
    e7cc:	a6 a4 e0 0f 	subcc  %l3, 0xf, %l3
    e7d0:	02 80 00 05 	be  e7e4 <continue_after_enabling_traps_or_nmi>
    e7d4:	01 00 00 00 	nop 
    e7d8:	ae 14 20 20 	or  %l0, 0x20, %l7
    e7dc:	ae 15 ef 00 	or  %l7, 0xf00, %l7
    e7e0:	81 88 00 17 	mov  %l7, %psr

0000e7e4 <continue_after_enabling_traps_or_nmi>:
    e7e4:	7f ff c7 9d 	call  658 <ajit_generic_interrupt_handler>
    e7e8:	01 00 00 00 	nop 

0000e7ec <prepare_window_for_rett>:
    e7ec:	81 e8 00 00 	restore 
    e7f0:	81 e0 00 00 	save 

0000e7f4 <recover_and_leave>:
    e7f4:	9c 03 a0 60 	add  %sp, 0x60, %sp
    e7f8:	ee 03 80 00 	ld  [ %sp ], %l7
    e7fc:	81 88 00 17 	mov  %l7, %psr
    e800:	c2 03 a0 04 	ld  [ %sp + 4 ], %g1
    e804:	c4 1b a0 08 	ldd  [ %sp + 8 ], %g2
    e808:	c8 1b a0 10 	ldd  [ %sp + 0x10 ], %g4
    e80c:	cc 1b a0 18 	ldd  [ %sp + 0x18 ], %g6
    e810:	e2 03 a0 20 	ld  [ %sp + 0x20 ], %l1
    e814:	e4 03 a0 24 	ld  [ %sp + 0x24 ], %l2
    e818:	ee 03 a0 28 	ld  [ %sp + 0x28 ], %l7
    e81c:	81 80 00 17 	mov  %l7, %y

0000e820 <jmpl_and_return>:
    e820:	81 c4 40 00 	jmp  %l1
    e824:	81 cc 80 00 	rett  %l2
    e828:	01 00 00 00 	nop 

0000e82c <generic_vectored_sw_trap>:
    e82c:	a9 50 00 00 	rd  %wim, %l4
    e830:	a9 35 00 10 	srl  %l4, %l0, %l4
    e834:	80 a5 20 01 	cmp  %l4, 1
    e838:	12 80 00 13 	bne  e884 <continue_with_valid_T>
    e83c:	01 00 00 00 	nop 

0000e840 <handle_invalid_T>:
    e840:	a7 50 00 00 	rd  %wim, %l3
    e844:	a9 2c e0 07 	sll  %l3, 7, %l4
    e848:	a7 34 e0 01 	srl  %l3, 1, %l3
    e84c:	a6 14 c0 14 	or  %l3, %l4, %l3
    e850:	a6 0c e0 ff 	and  %l3, 0xff, %l3
    e854:	81 90 00 00 	mov  %g0, %wim
    e858:	81 e0 00 00 	save 
    e85c:	e0 3b a0 00 	std  %l0, [ %sp ]
    e860:	e4 3b a0 08 	std  %l2, [ %sp + 8 ]
    e864:	e8 3b a0 10 	std  %l4, [ %sp + 0x10 ]
    e868:	ec 3b a0 18 	std  %l6, [ %sp + 0x18 ]
    e86c:	f0 3b a0 20 	std  %i0, [ %sp + 0x20 ]
    e870:	f4 3b a0 28 	std  %i2, [ %sp + 0x28 ]
    e874:	f8 3b a0 30 	std  %i4, [ %sp + 0x30 ]
    e878:	fc 3b a0 38 	std  %fp, [ %sp + 0x38 ]
    e87c:	81 e8 00 00 	restore 
    e880:	81 90 00 13 	mov  %l3, %wim

0000e884 <continue_with_valid_T>:
    e884:	9c 27 a0 60 	sub  %fp, 0x60, %sp
    e888:	e0 23 80 00 	st  %l0, [ %sp ]
    e88c:	c2 23 a0 04 	st  %g1, [ %sp + 4 ]
    e890:	c4 3b a0 08 	std  %g2, [ %sp + 8 ]
    e894:	c8 3b a0 10 	std  %g4, [ %sp + 0x10 ]
    e898:	cc 3b a0 18 	std  %g6, [ %sp + 0x18 ]
    e89c:	e2 23 a0 20 	st  %l1, [ %sp + 0x20 ]
    e8a0:	e4 23 a0 24 	st  %l2, [ %sp + 0x24 ]
    e8a4:	af 40 00 00 	rd  %y, %l7
    e8a8:	ee 23 a0 28 	st  %l7, [ %sp + 0x28 ]
    e8ac:	9c 23 a0 60 	sub  %sp, 0x60, %sp
    e8b0:	ae 14 20 20 	or  %l0, 0x20, %l7
    e8b4:	ae 15 ef 00 	or  %l7, 0xf00, %l7
    e8b8:	81 88 00 17 	mov  %l7, %psr
    e8bc:	91 58 00 00 	rd  %tbr, %o0
    e8c0:	81 e8 00 00 	restore 
    e8c4:	90 10 00 18 	mov  %i0, %o0
    e8c8:	92 10 00 19 	mov  %i1, %o1
    e8cc:	94 10 00 1a 	mov  %i2, %o2
    e8d0:	81 e0 00 00 	save 
    e8d4:	92 10 00 18 	mov  %i0, %o1
    e8d8:	94 10 00 19 	mov  %i1, %o2
    e8dc:	96 10 00 1a 	mov  %i2, %o3
    e8e0:	7f ff d7 09 	call  4504 <ajit_generic_sw_trap_handler>
    e8e4:	01 00 00 00 	nop 
    e8e8:	81 e8 00 00 	restore 
    e8ec:	81 e0 00 00 	save 

0000e8f0 <recover_and_leave>:
    e8f0:	9c 03 a0 60 	add  %sp, 0x60, %sp
    e8f4:	ee 03 80 00 	ld  [ %sp ], %l7
    e8f8:	81 88 00 17 	mov  %l7, %psr
    e8fc:	c2 03 a0 04 	ld  [ %sp + 4 ], %g1
    e900:	c4 1b a0 08 	ldd  [ %sp + 8 ], %g2
    e904:	c8 1b a0 10 	ldd  [ %sp + 0x10 ], %g4
    e908:	cc 1b a0 18 	ldd  [ %sp + 0x18 ], %g6
    e90c:	e2 03 a0 20 	ld  [ %sp + 0x20 ], %l1
    e910:	e4 03 a0 24 	ld  [ %sp + 0x24 ], %l2
    e914:	ee 03 a0 28 	ld  [ %sp + 0x28 ], %l7
    e918:	81 80 00 17 	mov  %l7, %y

0000e91c <jmpl_and_return>:
    e91c:	81 c4 80 00 	jmp  %l2
    e920:	81 cc a0 04 	rett  %l2 + 4
    e924:	01 00 00 00 	nop 

0000e928 <generic_read_asr>:
    e928:	81 e8 00 00 	restore 
    e92c:	80 a2 20 1f 	cmp  %o0, 0x1f
    e930:	02 80 00 62 	be  eab8 <read_31>
    e934:	01 00 00 00 	nop 
    e938:	80 a2 20 1e 	cmp  %o0, 0x1e
    e93c:	02 80 00 62 	be  eac4 <read_30>
    e940:	01 00 00 00 	nop 
    e944:	80 a2 20 1d 	cmp  %o0, 0x1d
    e948:	02 80 00 62 	be  ead0 <read_29>
    e94c:	01 00 00 00 	nop 
    e950:	80 a2 20 1c 	cmp  %o0, 0x1c
    e954:	02 80 00 62 	be  eadc <read_28>
    e958:	01 00 00 00 	nop 
    e95c:	80 a2 20 1b 	cmp  %o0, 0x1b
    e960:	02 80 00 62 	be  eae8 <read_27>
    e964:	01 00 00 00 	nop 
    e968:	80 a2 20 1a 	cmp  %o0, 0x1a
    e96c:	02 80 00 62 	be  eaf4 <read_26>
    e970:	01 00 00 00 	nop 
    e974:	80 a2 20 19 	cmp  %o0, 0x19
    e978:	02 80 00 62 	be  eb00 <read_25>
    e97c:	01 00 00 00 	nop 
    e980:	80 a2 20 18 	cmp  %o0, 0x18
    e984:	02 80 00 62 	be  eb0c <read_24>
    e988:	01 00 00 00 	nop 
    e98c:	80 a2 20 17 	cmp  %o0, 0x17
    e990:	02 80 00 62 	be  eb18 <read_23>
    e994:	01 00 00 00 	nop 
    e998:	80 a2 20 16 	cmp  %o0, 0x16
    e99c:	02 80 00 62 	be  eb24 <read_22>
    e9a0:	01 00 00 00 	nop 
    e9a4:	80 a2 20 15 	cmp  %o0, 0x15
    e9a8:	02 80 00 62 	be  eb30 <read_21>
    e9ac:	01 00 00 00 	nop 
    e9b0:	80 a2 20 14 	cmp  %o0, 0x14
    e9b4:	02 80 00 62 	be  eb3c <read_20>
    e9b8:	01 00 00 00 	nop 
    e9bc:	80 a2 20 13 	cmp  %o0, 0x13
    e9c0:	02 80 00 62 	be  eb48 <read_19>
    e9c4:	01 00 00 00 	nop 
    e9c8:	80 a2 20 12 	cmp  %o0, 0x12
    e9cc:	02 80 00 62 	be  eb54 <read_18>
    e9d0:	01 00 00 00 	nop 
    e9d4:	80 a2 20 11 	cmp  %o0, 0x11
    e9d8:	02 80 00 62 	be  eb60 <read_17>
    e9dc:	01 00 00 00 	nop 
    e9e0:	80 a2 20 10 	cmp  %o0, 0x10
    e9e4:	02 80 00 62 	be  eb6c <read_16>
    e9e8:	01 00 00 00 	nop 
    e9ec:	80 a2 20 0f 	cmp  %o0, 0xf
    e9f0:	02 80 00 62 	be  eb78 <read_15>
    e9f4:	01 00 00 00 	nop 
    e9f8:	80 a2 20 0e 	cmp  %o0, 0xe
    e9fc:	02 80 00 62 	be  eb84 <read_14>
    ea00:	01 00 00 00 	nop 
    ea04:	80 a2 20 0d 	cmp  %o0, 0xd
    ea08:	02 80 00 62 	be  eb90 <read_13>
    ea0c:	01 00 00 00 	nop 
    ea10:	80 a2 20 0c 	cmp  %o0, 0xc
    ea14:	02 80 00 62 	be  eb9c <read_12>
    ea18:	01 00 00 00 	nop 
    ea1c:	80 a2 20 0b 	cmp  %o0, 0xb
    ea20:	02 80 00 62 	be  eba8 <read_11>
    ea24:	01 00 00 00 	nop 
    ea28:	80 a2 20 0a 	cmp  %o0, 0xa
    ea2c:	02 80 00 62 	be  ebb4 <read_10>
    ea30:	01 00 00 00 	nop 
    ea34:	80 a2 20 09 	cmp  %o0, 9
    ea38:	02 80 00 62 	be  ebc0 <read_9>
    ea3c:	01 00 00 00 	nop 
    ea40:	80 a2 20 08 	cmp  %o0, 8
    ea44:	02 80 00 62 	be  ebcc <read_8>
    ea48:	01 00 00 00 	nop 
    ea4c:	80 a2 20 07 	cmp  %o0, 7
    ea50:	02 80 00 62 	be  ebd8 <read_7>
    ea54:	01 00 00 00 	nop 
    ea58:	80 a2 20 06 	cmp  %o0, 6
    ea5c:	02 80 00 62 	be  ebe4 <read_6>
    ea60:	01 00 00 00 	nop 
    ea64:	80 a2 20 05 	cmp  %o0, 5
    ea68:	02 80 00 62 	be  ebf0 <read_5>
    ea6c:	01 00 00 00 	nop 
    ea70:	80 a2 20 04 	cmp  %o0, 4
    ea74:	02 80 00 62 	be  ebfc <read_4>
    ea78:	01 00 00 00 	nop 
    ea7c:	80 a2 20 03 	cmp  %o0, 3
    ea80:	02 80 00 62 	be  ec08 <read_3>
    ea84:	01 00 00 00 	nop 
    ea88:	80 a2 20 02 	cmp  %o0, 2
    ea8c:	02 80 00 62 	be  ec14 <read_2>
    ea90:	01 00 00 00 	nop 
    ea94:	80 a2 20 01 	cmp  %o0, 1
    ea98:	02 80 00 62 	be  ec20 <read_1>
    ea9c:	01 00 00 00 	nop 
    eaa0:	80 a2 20 00 	cmp  %o0, 0
    eaa4:	02 80 00 62 	be  ec2c <read_0>
    eaa8:	01 00 00 00 	nop 
    eaac:	90 10 00 00 	mov  %g0, %o0
    eab0:	10 80 00 62 	b  ec38 <ret_block>
    eab4:	01 00 00 00 	nop 

0000eab8 <read_31>:
    eab8:	91 47 c0 00 	rd  %asr31, %o0
    eabc:	10 80 00 5f 	b  ec38 <ret_block>
    eac0:	01 00 00 00 	nop 

0000eac4 <read_30>:
    eac4:	91 47 80 00 	rd  %asr30, %o0
    eac8:	10 80 00 5c 	b  ec38 <ret_block>
    eacc:	01 00 00 00 	nop 

0000ead0 <read_29>:
    ead0:	91 47 40 00 	rd  %asr29, %o0
    ead4:	10 80 00 59 	b  ec38 <ret_block>
    ead8:	01 00 00 00 	nop 

0000eadc <read_28>:
    eadc:	91 47 00 00 	rd  %asr28, %o0
    eae0:	10 80 00 56 	b  ec38 <ret_block>
    eae4:	01 00 00 00 	nop 

0000eae8 <read_27>:
    eae8:	91 46 c0 00 	rd  %asr27, %o0
    eaec:	10 80 00 53 	b  ec38 <ret_block>
    eaf0:	01 00 00 00 	nop 

0000eaf4 <read_26>:
    eaf4:	91 46 80 00 	rd  %asr26, %o0
    eaf8:	10 80 00 50 	b  ec38 <ret_block>
    eafc:	01 00 00 00 	nop 

0000eb00 <read_25>:
    eb00:	91 46 40 00 	rd  %asr25, %o0
    eb04:	10 80 00 4d 	b  ec38 <ret_block>
    eb08:	01 00 00 00 	nop 

0000eb0c <read_24>:
    eb0c:	91 46 00 00 	rd  %asr24, %o0
    eb10:	10 80 00 4a 	b  ec38 <ret_block>
    eb14:	01 00 00 00 	nop 

0000eb18 <read_23>:
    eb18:	91 45 c0 00 	rd  %asr23, %o0
    eb1c:	10 80 00 47 	b  ec38 <ret_block>
    eb20:	01 00 00 00 	nop 

0000eb24 <read_22>:
    eb24:	91 45 80 00 	rd  %asr22, %o0
    eb28:	10 80 00 44 	b  ec38 <ret_block>
    eb2c:	01 00 00 00 	nop 

0000eb30 <read_21>:
    eb30:	91 45 40 00 	rd  %asr21, %o0
    eb34:	10 80 00 41 	b  ec38 <ret_block>
    eb38:	01 00 00 00 	nop 

0000eb3c <read_20>:
    eb3c:	91 45 00 00 	rd  %asr20, %o0
    eb40:	10 80 00 3e 	b  ec38 <ret_block>
    eb44:	01 00 00 00 	nop 

0000eb48 <read_19>:
    eb48:	91 44 c0 00 	rd  %asr19, %o0
    eb4c:	10 80 00 3b 	b  ec38 <ret_block>
    eb50:	01 00 00 00 	nop 

0000eb54 <read_18>:
    eb54:	91 44 80 00 	rd  %asr18, %o0
    eb58:	10 80 00 38 	b  ec38 <ret_block>
    eb5c:	01 00 00 00 	nop 

0000eb60 <read_17>:
    eb60:	91 44 40 00 	rd  %asr17, %o0
    eb64:	10 80 00 35 	b  ec38 <ret_block>
    eb68:	01 00 00 00 	nop 

0000eb6c <read_16>:
    eb6c:	91 44 00 00 	rd  %asr16, %o0
    eb70:	10 80 00 32 	b  ec38 <ret_block>
    eb74:	01 00 00 00 	nop 

0000eb78 <read_15>:
    eb78:	91 43 c0 00 	rd  %asr15, %o0
    eb7c:	10 80 00 2f 	b  ec38 <ret_block>
    eb80:	01 00 00 00 	nop 

0000eb84 <read_14>:
    eb84:	91 43 80 00 	rd  %asr14, %o0
    eb88:	10 80 00 2c 	b  ec38 <ret_block>
    eb8c:	01 00 00 00 	nop 

0000eb90 <read_13>:
    eb90:	91 43 40 00 	rd  %asr13, %o0
    eb94:	10 80 00 29 	b  ec38 <ret_block>
    eb98:	01 00 00 00 	nop 

0000eb9c <read_12>:
    eb9c:	91 43 00 00 	rd  %asr12, %o0
    eba0:	10 80 00 26 	b  ec38 <ret_block>
    eba4:	01 00 00 00 	nop 

0000eba8 <read_11>:
    eba8:	91 42 c0 00 	rd  %asr11, %o0
    ebac:	10 80 00 23 	b  ec38 <ret_block>
    ebb0:	01 00 00 00 	nop 

0000ebb4 <read_10>:
    ebb4:	91 42 80 00 	rd  %asr10, %o0
    ebb8:	10 80 00 20 	b  ec38 <ret_block>
    ebbc:	01 00 00 00 	nop 

0000ebc0 <read_9>:
    ebc0:	91 42 40 00 	rd  %asr9, %o0
    ebc4:	10 80 00 1d 	b  ec38 <ret_block>
    ebc8:	01 00 00 00 	nop 

0000ebcc <read_8>:
    ebcc:	91 42 00 00 	rd  %asr8, %o0
    ebd0:	10 80 00 1a 	b  ec38 <ret_block>
    ebd4:	01 00 00 00 	nop 

0000ebd8 <read_7>:
    ebd8:	91 41 c0 00 	rd  %asr7, %o0
    ebdc:	10 80 00 17 	b  ec38 <ret_block>
    ebe0:	01 00 00 00 	nop 

0000ebe4 <read_6>:
    ebe4:	91 41 80 00 	rd  %asr6, %o0
    ebe8:	10 80 00 14 	b  ec38 <ret_block>
    ebec:	01 00 00 00 	nop 

0000ebf0 <read_5>:
    ebf0:	91 41 40 00 	rd  %asr5, %o0
    ebf4:	10 80 00 11 	b  ec38 <ret_block>
    ebf8:	01 00 00 00 	nop 

0000ebfc <read_4>:
    ebfc:	91 41 00 00 	rd  %asr4, %o0
    ec00:	10 80 00 0e 	b  ec38 <ret_block>
    ec04:	01 00 00 00 	nop 

0000ec08 <read_3>:
    ec08:	91 40 c0 00 	rd  %asr3, %o0
    ec0c:	10 80 00 0b 	b  ec38 <ret_block>
    ec10:	01 00 00 00 	nop 

0000ec14 <read_2>:
    ec14:	91 40 80 00 	rd  %asr2, %o0
    ec18:	10 80 00 08 	b  ec38 <ret_block>
    ec1c:	01 00 00 00 	nop 

0000ec20 <read_1>:
    ec20:	91 40 40 00 	rd  %asr1, %o0
    ec24:	10 80 00 05 	b  ec38 <ret_block>
    ec28:	01 00 00 00 	nop 

0000ec2c <read_0>:
    ec2c:	91 40 00 00 	rd  %y, %o0
    ec30:	10 80 00 02 	b  ec38 <ret_block>
    ec34:	01 00 00 00 	nop 

0000ec38 <ret_block>:
    ec38:	81 e0 00 00 	save 
    ec3c:	81 c4 80 00 	jmp  %l2
    ec40:	81 cc a0 04 	rett  %l2 + 4
    ec44:	01 00 00 00 	nop 

0000ec48 <ajit_sys_read_asr>:
    ec48:	91 d0 20 10 	ta  0x10
    ec4c:	01 00 00 00 	nop 
    ec50:	81 c3 e0 08 	retl 
    ec54:	01 00 00 00 	nop 

0000ec58 <ajit_sys_go_to_supervisor_mode>:
    ec58:	91 d0 20 11 	ta  0x11
    ec5c:	01 00 00 00 	nop 
    ec60:	81 c3 e0 08 	retl 
    ec64:	01 00 00 00 	nop 

0000ec68 <generic_sys_go_to_supervisor>:
    ec68:	ab 48 00 00 	rd  %psr, %l5
    ec6c:	b1 2e 20 05 	sll  %i0, 5, %i0
    ec70:	b0 16 20 80 	or  %i0, 0x80, %i0
    ec74:	aa 15 40 18 	or  %l5, %i0, %l5
    ec78:	81 88 00 15 	mov  %l5, %psr
    ec7c:	81 c4 80 00 	jmp  %l2
    ec80:	81 e8 00 00 	restore 
    ec84:	01 00 00 00 	nop 

0000ec88 <page_table_setup>:
    ec88:	81 c3 e0 08 	retl 
    ec8c:	01 00 00 00 	nop 

0000ec90 <set_context_table_pointer>:
    ec90:	81 c3 e0 08 	retl 
    ec94:	01 00 00 00 	nop 

0000ec98 <window_overflow_trap_handler>:
    ec98:	a7 50 00 00 	rd  %wim, %l3
    ec9c:	a9 2c e0 07 	sll  %l3, 7, %l4
    eca0:	a7 34 e0 01 	srl  %l3, 1, %l3
    eca4:	a6 14 c0 14 	or  %l3, %l4, %l3
    eca8:	a6 0c e0 ff 	and  %l3, 0xff, %l3
    ecac:	81 90 00 00 	mov  %g0, %wim
    ecb0:	01 00 00 00 	nop 
    ecb4:	01 00 00 00 	nop 
    ecb8:	01 00 00 00 	nop 
    ecbc:	81 e0 00 00 	save 
    ecc0:	e0 3b a0 00 	std  %l0, [ %sp ]
    ecc4:	e4 3b a0 08 	std  %l2, [ %sp + 8 ]
    ecc8:	e8 3b a0 10 	std  %l4, [ %sp + 0x10 ]
    eccc:	ec 3b a0 18 	std  %l6, [ %sp + 0x18 ]
    ecd0:	f0 3b a0 20 	std  %i0, [ %sp + 0x20 ]
    ecd4:	f4 3b a0 28 	std  %i2, [ %sp + 0x28 ]
    ecd8:	f8 3b a0 30 	std  %i4, [ %sp + 0x30 ]
    ecdc:	fc 3b a0 38 	std  %fp, [ %sp + 0x38 ]
    ece0:	81 e8 00 00 	restore 
    ece4:	81 90 00 13 	mov  %l3, %wim
    ece8:	01 00 00 00 	nop 
    ecec:	01 00 00 00 	nop 
    ecf0:	01 00 00 00 	nop 
    ecf4:	81 c4 40 00 	jmp  %l1
    ecf8:	81 cc 80 00 	rett  %l2

0000ecfc <window_underflow_trap_handler>:
    ecfc:	a7 50 00 00 	rd  %wim, %l3
    ed00:	a9 34 e0 07 	srl  %l3, 7, %l4
    ed04:	a7 2c e0 01 	sll  %l3, 1, %l3
    ed08:	a6 14 c0 14 	or  %l3, %l4, %l3
    ed0c:	a6 0c e0 ff 	and  %l3, 0xff, %l3
    ed10:	81 90 00 00 	mov  %g0, %wim
    ed14:	01 00 00 00 	nop 
    ed18:	01 00 00 00 	nop 
    ed1c:	01 00 00 00 	nop 
    ed20:	81 e8 00 00 	restore 
    ed24:	81 e8 00 00 	restore 
    ed28:	e0 1b a0 00 	ldd  [ %sp ], %l0
    ed2c:	e4 1b a0 08 	ldd  [ %sp + 8 ], %l2
    ed30:	e8 1b a0 10 	ldd  [ %sp + 0x10 ], %l4
    ed34:	ec 1b a0 18 	ldd  [ %sp + 0x18 ], %l6
    ed38:	f0 1b a0 20 	ldd  [ %sp + 0x20 ], %i0
    ed3c:	f4 1b a0 28 	ldd  [ %sp + 0x28 ], %i2
    ed40:	f8 1b a0 30 	ldd  [ %sp + 0x30 ], %i4
    ed44:	fc 1b a0 38 	ldd  [ %sp + 0x38 ], %fp
    ed48:	81 e0 00 00 	save 
    ed4c:	81 e0 00 00 	save 
    ed50:	81 90 00 13 	mov  %l3, %wim
    ed54:	01 00 00 00 	nop 
    ed58:	01 00 00 00 	nop 
    ed5c:	01 00 00 00 	nop 
    ed60:	81 c4 40 00 	jmp  %l1
    ed64:	81 cc 80 00 	rett  %l2
    ed68:	00 00 00 00 	unimp  0
	...

0000f000 <trap_table_base>:
    f000:	91 d0 20 00 	ta  0
    f004:	01 00 00 00 	nop 
    f008:	01 00 00 00 	nop 
    f00c:	01 00 00 00 	nop 

0000f010 <HW_trap_0x01>:
    f010:	91 d0 20 00 	ta  0
    f014:	01 00 00 00 	nop 
    f018:	01 00 00 00 	nop 
    f01c:	01 00 00 00 	nop 

0000f020 <HW_trap_0x02>:
    f020:	91 d0 20 00 	ta  0
    f024:	01 00 00 00 	nop 
    f028:	01 00 00 00 	nop 
    f02c:	01 00 00 00 	nop 

0000f030 <HW_trap_0x03>:
    f030:	91 d0 20 00 	ta  0
    f034:	01 00 00 00 	nop 
    f038:	01 00 00 00 	nop 
    f03c:	01 00 00 00 	nop 

0000f040 <HW_trap_0x04>:
    f040:	91 d0 20 00 	ta  0
    f044:	01 00 00 00 	nop 
    f048:	01 00 00 00 	nop 
    f04c:	01 00 00 00 	nop 

0000f050 <HW_trap_0x05>:
    f050:	10 bf ff 12 	b  ec98 <window_overflow_trap_handler>
    f054:	01 00 00 00 	nop 
    f058:	01 00 00 00 	nop 
    f05c:	01 00 00 00 	nop 

0000f060 <HW_trap_0x06>:
    f060:	10 bf ff 27 	b  ecfc <window_underflow_trap_handler>
    f064:	01 00 00 00 	nop 
    f068:	01 00 00 00 	nop 
    f06c:	01 00 00 00 	nop 

0000f070 <HW_trap_0x07>:
    f070:	91 d0 20 00 	ta  0
    f074:	01 00 00 00 	nop 
    f078:	01 00 00 00 	nop 
    f07c:	01 00 00 00 	nop 

0000f080 <HW_trap_0x08>:
    f080:	91 d0 20 00 	ta  0
    f084:	01 00 00 00 	nop 
    f088:	01 00 00 00 	nop 
    f08c:	01 00 00 00 	nop 

0000f090 <HW_trap_0x09>:
    f090:	91 d0 20 00 	ta  0
    f094:	01 00 00 00 	nop 
    f098:	01 00 00 00 	nop 
    f09c:	01 00 00 00 	nop 

0000f0a0 <HW_trap_0x0a>:
    f0a0:	91 d0 20 00 	ta  0
    f0a4:	01 00 00 00 	nop 
    f0a8:	01 00 00 00 	nop 
    f0ac:	01 00 00 00 	nop 

0000f0b0 <HW_trap_0x0b>:
    f0b0:	91 d0 20 00 	ta  0
    f0b4:	01 00 00 00 	nop 
    f0b8:	01 00 00 00 	nop 
    f0bc:	01 00 00 00 	nop 

0000f0c0 <HW_trap_0x0c>:
    f0c0:	91 d0 20 00 	ta  0
    f0c4:	01 00 00 00 	nop 
    f0c8:	01 00 00 00 	nop 
    f0cc:	01 00 00 00 	nop 

0000f0d0 <HW_trap_0x0d>:
    f0d0:	91 d0 20 00 	ta  0
    f0d4:	01 00 00 00 	nop 
    f0d8:	01 00 00 00 	nop 
    f0dc:	01 00 00 00 	nop 

0000f0e0 <HW_trap_0x0e>:
    f0e0:	91 d0 20 00 	ta  0
    f0e4:	01 00 00 00 	nop 
    f0e8:	01 00 00 00 	nop 
    f0ec:	01 00 00 00 	nop 

0000f0f0 <HW_trap_0x0f>:
    f0f0:	91 d0 20 00 	ta  0
    f0f4:	01 00 00 00 	nop 
    f0f8:	01 00 00 00 	nop 
    f0fc:	01 00 00 00 	nop 

0000f100 <HW_trap_0x10>:
    f100:	91 d0 20 00 	ta  0
    f104:	01 00 00 00 	nop 
    f108:	01 00 00 00 	nop 
    f10c:	01 00 00 00 	nop 

0000f110 <HW_trap_0x11>:
    f110:	a1 48 00 00 	rd  %psr, %l0
    f114:	a7 58 00 00 	rd  %tbr, %l3
    f118:	10 bf fd 89 	b  e73c <generic_vectored_isr>
    f11c:	01 00 00 00 	nop 

0000f120 <HW_trap_0x12>:
    f120:	a1 48 00 00 	rd  %psr, %l0
    f124:	a7 58 00 00 	rd  %tbr, %l3
    f128:	10 bf fd 85 	b  e73c <generic_vectored_isr>
    f12c:	01 00 00 00 	nop 

0000f130 <HW_trap_0x13>:
    f130:	a1 48 00 00 	rd  %psr, %l0
    f134:	a7 58 00 00 	rd  %tbr, %l3
    f138:	10 bf fd 81 	b  e73c <generic_vectored_isr>
    f13c:	01 00 00 00 	nop 

0000f140 <HW_trap_0x14>:
    f140:	a1 48 00 00 	rd  %psr, %l0
    f144:	a7 58 00 00 	rd  %tbr, %l3
    f148:	10 bf fd 7d 	b  e73c <generic_vectored_isr>
    f14c:	01 00 00 00 	nop 

0000f150 <HW_trap_0x15>:
    f150:	a1 48 00 00 	rd  %psr, %l0
    f154:	a7 58 00 00 	rd  %tbr, %l3
    f158:	10 bf fd 79 	b  e73c <generic_vectored_isr>
    f15c:	01 00 00 00 	nop 

0000f160 <HW_trap_0x16>:
    f160:	a1 48 00 00 	rd  %psr, %l0
    f164:	a7 58 00 00 	rd  %tbr, %l3
    f168:	10 bf fd 75 	b  e73c <generic_vectored_isr>
    f16c:	01 00 00 00 	nop 

0000f170 <HW_trap_0x17>:
    f170:	a1 48 00 00 	rd  %psr, %l0
    f174:	a7 58 00 00 	rd  %tbr, %l3
    f178:	10 bf fd 71 	b  e73c <generic_vectored_isr>
    f17c:	01 00 00 00 	nop 

0000f180 <HW_trap_0x18>:
    f180:	a1 48 00 00 	rd  %psr, %l0
    f184:	a7 58 00 00 	rd  %tbr, %l3
    f188:	10 bf fd 6d 	b  e73c <generic_vectored_isr>
    f18c:	01 00 00 00 	nop 

0000f190 <HW_trap_0x19>:
    f190:	a1 48 00 00 	rd  %psr, %l0
    f194:	a7 58 00 00 	rd  %tbr, %l3
    f198:	10 bf fd 69 	b  e73c <generic_vectored_isr>
    f19c:	01 00 00 00 	nop 

0000f1a0 <HW_trap_0x1a>:
    f1a0:	a1 48 00 00 	rd  %psr, %l0
    f1a4:	a7 58 00 00 	rd  %tbr, %l3
    f1a8:	10 bf fd 65 	b  e73c <generic_vectored_isr>
    f1ac:	01 00 00 00 	nop 

0000f1b0 <HW_trap_0x1b>:
    f1b0:	a1 48 00 00 	rd  %psr, %l0
    f1b4:	a7 58 00 00 	rd  %tbr, %l3
    f1b8:	10 bf fd 61 	b  e73c <generic_vectored_isr>
    f1bc:	01 00 00 00 	nop 

0000f1c0 <HW_trap_0x1c>:
    f1c0:	a1 48 00 00 	rd  %psr, %l0
    f1c4:	a7 58 00 00 	rd  %tbr, %l3
    f1c8:	10 bf fd 5d 	b  e73c <generic_vectored_isr>
    f1cc:	01 00 00 00 	nop 

0000f1d0 <HW_trap_0x1d>:
    f1d0:	a1 48 00 00 	rd  %psr, %l0
    f1d4:	a7 58 00 00 	rd  %tbr, %l3
    f1d8:	10 bf fd 59 	b  e73c <generic_vectored_isr>
    f1dc:	01 00 00 00 	nop 

0000f1e0 <HW_trap_0x1e>:
    f1e0:	a1 48 00 00 	rd  %psr, %l0
    f1e4:	a7 58 00 00 	rd  %tbr, %l3
    f1e8:	10 bf fd 55 	b  e73c <generic_vectored_isr>
    f1ec:	01 00 00 00 	nop 

0000f1f0 <HW_trap_0x1f>:
    f1f0:	a1 48 00 00 	rd  %psr, %l0
    f1f4:	a7 58 00 00 	rd  %tbr, %l3
    f1f8:	10 bf fd 51 	b  e73c <generic_vectored_isr>
    f1fc:	01 00 00 00 	nop 

0000f200 <HW_trap_0x20>:
    f200:	91 d0 20 00 	ta  0
    f204:	01 00 00 00 	nop 
    f208:	01 00 00 00 	nop 
    f20c:	01 00 00 00 	nop 

0000f210 <HW_trap_0x21>:
    f210:	91 d0 20 00 	ta  0
    f214:	01 00 00 00 	nop 
    f218:	01 00 00 00 	nop 
    f21c:	01 00 00 00 	nop 

0000f220 <HW_trap_0x22>:
    f220:	91 d0 20 00 	ta  0
    f224:	01 00 00 00 	nop 
    f228:	01 00 00 00 	nop 
    f22c:	01 00 00 00 	nop 

0000f230 <HW_trap_0x23>:
    f230:	91 d0 20 00 	ta  0
    f234:	01 00 00 00 	nop 
    f238:	01 00 00 00 	nop 
    f23c:	01 00 00 00 	nop 

0000f240 <HW_trap_0x24>:
    f240:	91 d0 20 00 	ta  0
    f244:	01 00 00 00 	nop 
    f248:	01 00 00 00 	nop 
    f24c:	01 00 00 00 	nop 

0000f250 <HW_trap_0x25>:
    f250:	91 d0 20 00 	ta  0
    f254:	01 00 00 00 	nop 
    f258:	01 00 00 00 	nop 
    f25c:	01 00 00 00 	nop 

0000f260 <HW_trap_0x26>:
    f260:	91 d0 20 00 	ta  0
    f264:	01 00 00 00 	nop 
    f268:	01 00 00 00 	nop 
    f26c:	01 00 00 00 	nop 

0000f270 <HW_trap_0x27>:
    f270:	91 d0 20 00 	ta  0
    f274:	01 00 00 00 	nop 
    f278:	01 00 00 00 	nop 
    f27c:	01 00 00 00 	nop 

0000f280 <HW_trap_0x28>:
    f280:	91 d0 20 00 	ta  0
    f284:	01 00 00 00 	nop 
    f288:	01 00 00 00 	nop 
    f28c:	01 00 00 00 	nop 

0000f290 <HW_trap_0x29>:
    f290:	91 d0 20 00 	ta  0
    f294:	01 00 00 00 	nop 
    f298:	01 00 00 00 	nop 
    f29c:	01 00 00 00 	nop 

0000f2a0 <HW_trap_0x2a>:
    f2a0:	91 d0 20 00 	ta  0
    f2a4:	01 00 00 00 	nop 
    f2a8:	01 00 00 00 	nop 
    f2ac:	01 00 00 00 	nop 

0000f2b0 <HW_trap_0x2b>:
    f2b0:	91 d0 20 00 	ta  0
    f2b4:	01 00 00 00 	nop 
    f2b8:	01 00 00 00 	nop 
    f2bc:	01 00 00 00 	nop 

0000f2c0 <HW_trap_0x2c>:
    f2c0:	91 d0 20 00 	ta  0
    f2c4:	01 00 00 00 	nop 
    f2c8:	01 00 00 00 	nop 
    f2cc:	01 00 00 00 	nop 

0000f2d0 <HW_trap_0x2d>:
    f2d0:	91 d0 20 00 	ta  0
    f2d4:	01 00 00 00 	nop 
    f2d8:	01 00 00 00 	nop 
    f2dc:	01 00 00 00 	nop 

0000f2e0 <HW_trap_0x2e>:
    f2e0:	91 d0 20 00 	ta  0
    f2e4:	01 00 00 00 	nop 
    f2e8:	01 00 00 00 	nop 
    f2ec:	01 00 00 00 	nop 

0000f2f0 <HW_trap_0x2f>:
    f2f0:	91 d0 20 00 	ta  0
    f2f4:	01 00 00 00 	nop 
    f2f8:	01 00 00 00 	nop 
    f2fc:	01 00 00 00 	nop 

0000f300 <HW_trap_0x30>:
    f300:	91 d0 20 00 	ta  0
    f304:	01 00 00 00 	nop 
    f308:	01 00 00 00 	nop 
    f30c:	01 00 00 00 	nop 

0000f310 <HW_trap_0x31>:
    f310:	91 d0 20 00 	ta  0
    f314:	01 00 00 00 	nop 
    f318:	01 00 00 00 	nop 
    f31c:	01 00 00 00 	nop 

0000f320 <HW_trap_0x32>:
    f320:	91 d0 20 00 	ta  0
    f324:	01 00 00 00 	nop 
    f328:	01 00 00 00 	nop 
    f32c:	01 00 00 00 	nop 

0000f330 <HW_trap_0x33>:
    f330:	91 d0 20 00 	ta  0
    f334:	01 00 00 00 	nop 
    f338:	01 00 00 00 	nop 
    f33c:	01 00 00 00 	nop 

0000f340 <HW_trap_0x34>:
    f340:	91 d0 20 00 	ta  0
    f344:	01 00 00 00 	nop 
    f348:	01 00 00 00 	nop 
    f34c:	01 00 00 00 	nop 

0000f350 <HW_trap_0x35>:
    f350:	91 d0 20 00 	ta  0
    f354:	01 00 00 00 	nop 
    f358:	01 00 00 00 	nop 
    f35c:	01 00 00 00 	nop 

0000f360 <HW_trap_0x36>:
    f360:	91 d0 20 00 	ta  0
    f364:	01 00 00 00 	nop 
    f368:	01 00 00 00 	nop 
    f36c:	01 00 00 00 	nop 

0000f370 <HW_trap_0x37>:
    f370:	91 d0 20 00 	ta  0
    f374:	01 00 00 00 	nop 
    f378:	01 00 00 00 	nop 
    f37c:	01 00 00 00 	nop 

0000f380 <HW_trap_0x38>:
    f380:	91 d0 20 00 	ta  0
    f384:	01 00 00 00 	nop 
    f388:	01 00 00 00 	nop 
    f38c:	01 00 00 00 	nop 

0000f390 <HW_trap_0x39>:
    f390:	91 d0 20 00 	ta  0
    f394:	01 00 00 00 	nop 
    f398:	01 00 00 00 	nop 
    f39c:	01 00 00 00 	nop 

0000f3a0 <HW_trap_0x3a>:
    f3a0:	91 d0 20 00 	ta  0
    f3a4:	01 00 00 00 	nop 
    f3a8:	01 00 00 00 	nop 
    f3ac:	01 00 00 00 	nop 

0000f3b0 <HW_trap_0x3b>:
    f3b0:	91 d0 20 00 	ta  0
    f3b4:	01 00 00 00 	nop 
    f3b8:	01 00 00 00 	nop 
    f3bc:	01 00 00 00 	nop 

0000f3c0 <HW_trap_0x3c>:
    f3c0:	91 d0 20 00 	ta  0
    f3c4:	01 00 00 00 	nop 
    f3c8:	01 00 00 00 	nop 
    f3cc:	01 00 00 00 	nop 

0000f3d0 <HW_trap_0x3d>:
    f3d0:	91 d0 20 00 	ta  0
    f3d4:	01 00 00 00 	nop 
    f3d8:	01 00 00 00 	nop 
    f3dc:	01 00 00 00 	nop 

0000f3e0 <HW_trap_0x3e>:
    f3e0:	91 d0 20 00 	ta  0
    f3e4:	01 00 00 00 	nop 
    f3e8:	01 00 00 00 	nop 
    f3ec:	01 00 00 00 	nop 

0000f3f0 <HW_trap_0x3f>:
    f3f0:	91 d0 20 00 	ta  0
    f3f4:	01 00 00 00 	nop 
    f3f8:	01 00 00 00 	nop 
    f3fc:	01 00 00 00 	nop 

0000f400 <HW_trap_0x40>:
    f400:	91 d0 20 00 	ta  0
    f404:	01 00 00 00 	nop 
    f408:	01 00 00 00 	nop 
    f40c:	01 00 00 00 	nop 

0000f410 <HW_trap_0x41>:
    f410:	91 d0 20 00 	ta  0
    f414:	01 00 00 00 	nop 
    f418:	01 00 00 00 	nop 
    f41c:	01 00 00 00 	nop 

0000f420 <HW_trap_0x42>:
    f420:	91 d0 20 00 	ta  0
    f424:	01 00 00 00 	nop 
    f428:	01 00 00 00 	nop 
    f42c:	01 00 00 00 	nop 

0000f430 <HW_trap_0x43>:
    f430:	91 d0 20 00 	ta  0
    f434:	01 00 00 00 	nop 
    f438:	01 00 00 00 	nop 
    f43c:	01 00 00 00 	nop 

0000f440 <HW_trap_0x44>:
    f440:	91 d0 20 00 	ta  0
    f444:	01 00 00 00 	nop 
    f448:	01 00 00 00 	nop 
    f44c:	01 00 00 00 	nop 

0000f450 <HW_trap_0x45>:
    f450:	91 d0 20 00 	ta  0
    f454:	01 00 00 00 	nop 
    f458:	01 00 00 00 	nop 
    f45c:	01 00 00 00 	nop 

0000f460 <HW_trap_0x46>:
    f460:	91 d0 20 00 	ta  0
    f464:	01 00 00 00 	nop 
    f468:	01 00 00 00 	nop 
    f46c:	01 00 00 00 	nop 

0000f470 <HW_trap_0x47>:
    f470:	91 d0 20 00 	ta  0
    f474:	01 00 00 00 	nop 
    f478:	01 00 00 00 	nop 
    f47c:	01 00 00 00 	nop 

0000f480 <HW_trap_0x48>:
    f480:	91 d0 20 00 	ta  0
    f484:	01 00 00 00 	nop 
    f488:	01 00 00 00 	nop 
    f48c:	01 00 00 00 	nop 

0000f490 <HW_trap_0x49>:
    f490:	91 d0 20 00 	ta  0
    f494:	01 00 00 00 	nop 
    f498:	01 00 00 00 	nop 
    f49c:	01 00 00 00 	nop 

0000f4a0 <HW_trap_0x4a>:
    f4a0:	91 d0 20 00 	ta  0
    f4a4:	01 00 00 00 	nop 
    f4a8:	01 00 00 00 	nop 
    f4ac:	01 00 00 00 	nop 

0000f4b0 <HW_trap_0x4b>:
    f4b0:	91 d0 20 00 	ta  0
    f4b4:	01 00 00 00 	nop 
    f4b8:	01 00 00 00 	nop 
    f4bc:	01 00 00 00 	nop 

0000f4c0 <HW_trap_0x4c>:
    f4c0:	91 d0 20 00 	ta  0
    f4c4:	01 00 00 00 	nop 
    f4c8:	01 00 00 00 	nop 
    f4cc:	01 00 00 00 	nop 

0000f4d0 <HW_trap_0x4d>:
    f4d0:	91 d0 20 00 	ta  0
    f4d4:	01 00 00 00 	nop 
    f4d8:	01 00 00 00 	nop 
    f4dc:	01 00 00 00 	nop 

0000f4e0 <HW_trap_0x4e>:
    f4e0:	91 d0 20 00 	ta  0
    f4e4:	01 00 00 00 	nop 
    f4e8:	01 00 00 00 	nop 
    f4ec:	01 00 00 00 	nop 

0000f4f0 <HW_trap_0x4f>:
    f4f0:	91 d0 20 00 	ta  0
    f4f4:	01 00 00 00 	nop 
    f4f8:	01 00 00 00 	nop 
    f4fc:	01 00 00 00 	nop 

0000f500 <HW_trap_0x50>:
    f500:	91 d0 20 00 	ta  0
    f504:	01 00 00 00 	nop 
    f508:	01 00 00 00 	nop 
    f50c:	01 00 00 00 	nop 

0000f510 <HW_trap_0x51>:
    f510:	91 d0 20 00 	ta  0
    f514:	01 00 00 00 	nop 
    f518:	01 00 00 00 	nop 
    f51c:	01 00 00 00 	nop 

0000f520 <HW_trap_0x52>:
    f520:	91 d0 20 00 	ta  0
    f524:	01 00 00 00 	nop 
    f528:	01 00 00 00 	nop 
    f52c:	01 00 00 00 	nop 

0000f530 <HW_trap_0x53>:
    f530:	91 d0 20 00 	ta  0
    f534:	01 00 00 00 	nop 
    f538:	01 00 00 00 	nop 
    f53c:	01 00 00 00 	nop 

0000f540 <HW_trap_0x54>:
    f540:	91 d0 20 00 	ta  0
    f544:	01 00 00 00 	nop 
    f548:	01 00 00 00 	nop 
    f54c:	01 00 00 00 	nop 

0000f550 <HW_trap_0x55>:
    f550:	91 d0 20 00 	ta  0
    f554:	01 00 00 00 	nop 
    f558:	01 00 00 00 	nop 
    f55c:	01 00 00 00 	nop 

0000f560 <HW_trap_0x56>:
    f560:	91 d0 20 00 	ta  0
    f564:	01 00 00 00 	nop 
    f568:	01 00 00 00 	nop 
    f56c:	01 00 00 00 	nop 

0000f570 <HW_trap_0x57>:
    f570:	91 d0 20 00 	ta  0
    f574:	01 00 00 00 	nop 
    f578:	01 00 00 00 	nop 
    f57c:	01 00 00 00 	nop 

0000f580 <HW_trap_0x58>:
    f580:	91 d0 20 00 	ta  0
    f584:	01 00 00 00 	nop 
    f588:	01 00 00 00 	nop 
    f58c:	01 00 00 00 	nop 

0000f590 <HW_trap_0x59>:
    f590:	91 d0 20 00 	ta  0
    f594:	01 00 00 00 	nop 
    f598:	01 00 00 00 	nop 
    f59c:	01 00 00 00 	nop 

0000f5a0 <HW_trap_0x5a>:
    f5a0:	91 d0 20 00 	ta  0
    f5a4:	01 00 00 00 	nop 
    f5a8:	01 00 00 00 	nop 
    f5ac:	01 00 00 00 	nop 

0000f5b0 <HW_trap_0x5b>:
    f5b0:	91 d0 20 00 	ta  0
    f5b4:	01 00 00 00 	nop 
    f5b8:	01 00 00 00 	nop 
    f5bc:	01 00 00 00 	nop 

0000f5c0 <HW_trap_0x5c>:
    f5c0:	91 d0 20 00 	ta  0
    f5c4:	01 00 00 00 	nop 
    f5c8:	01 00 00 00 	nop 
    f5cc:	01 00 00 00 	nop 

0000f5d0 <HW_trap_0x5d>:
    f5d0:	91 d0 20 00 	ta  0
    f5d4:	01 00 00 00 	nop 
    f5d8:	01 00 00 00 	nop 
    f5dc:	01 00 00 00 	nop 

0000f5e0 <HW_trap_0x5e>:
    f5e0:	91 d0 20 00 	ta  0
    f5e4:	01 00 00 00 	nop 
    f5e8:	01 00 00 00 	nop 
    f5ec:	01 00 00 00 	nop 

0000f5f0 <HW_trap_0x5f>:
    f5f0:	91 d0 20 00 	ta  0
    f5f4:	01 00 00 00 	nop 
    f5f8:	01 00 00 00 	nop 
    f5fc:	01 00 00 00 	nop 

0000f600 <HW_trap_0x60>:
    f600:	91 d0 20 00 	ta  0
    f604:	01 00 00 00 	nop 
    f608:	01 00 00 00 	nop 
    f60c:	01 00 00 00 	nop 

0000f610 <HW_trap_0x61>:
    f610:	91 d0 20 00 	ta  0
    f614:	01 00 00 00 	nop 
    f618:	01 00 00 00 	nop 
    f61c:	01 00 00 00 	nop 

0000f620 <HW_trap_0x62>:
    f620:	91 d0 20 00 	ta  0
    f624:	01 00 00 00 	nop 
    f628:	01 00 00 00 	nop 
    f62c:	01 00 00 00 	nop 

0000f630 <HW_trap_0x63>:
    f630:	91 d0 20 00 	ta  0
    f634:	01 00 00 00 	nop 
    f638:	01 00 00 00 	nop 
    f63c:	01 00 00 00 	nop 

0000f640 <HW_trap_0x64>:
    f640:	91 d0 20 00 	ta  0
    f644:	01 00 00 00 	nop 
    f648:	01 00 00 00 	nop 
    f64c:	01 00 00 00 	nop 

0000f650 <HW_trap_0x65>:
    f650:	91 d0 20 00 	ta  0
    f654:	01 00 00 00 	nop 
    f658:	01 00 00 00 	nop 
    f65c:	01 00 00 00 	nop 

0000f660 <HW_trap_0x66>:
    f660:	91 d0 20 00 	ta  0
    f664:	01 00 00 00 	nop 
    f668:	01 00 00 00 	nop 
    f66c:	01 00 00 00 	nop 

0000f670 <HW_trap_0x67>:
    f670:	91 d0 20 00 	ta  0
    f674:	01 00 00 00 	nop 
    f678:	01 00 00 00 	nop 
    f67c:	01 00 00 00 	nop 

0000f680 <HW_trap_0x68>:
    f680:	91 d0 20 00 	ta  0
    f684:	01 00 00 00 	nop 
    f688:	01 00 00 00 	nop 
    f68c:	01 00 00 00 	nop 

0000f690 <HW_trap_0x69>:
    f690:	91 d0 20 00 	ta  0
    f694:	01 00 00 00 	nop 
    f698:	01 00 00 00 	nop 
    f69c:	01 00 00 00 	nop 

0000f6a0 <HW_trap_0x6a>:
    f6a0:	91 d0 20 00 	ta  0
    f6a4:	01 00 00 00 	nop 
    f6a8:	01 00 00 00 	nop 
    f6ac:	01 00 00 00 	nop 

0000f6b0 <HW_trap_0x6b>:
    f6b0:	91 d0 20 00 	ta  0
    f6b4:	01 00 00 00 	nop 
    f6b8:	01 00 00 00 	nop 
    f6bc:	01 00 00 00 	nop 

0000f6c0 <HW_trap_0x6c>:
    f6c0:	91 d0 20 00 	ta  0
    f6c4:	01 00 00 00 	nop 
    f6c8:	01 00 00 00 	nop 
    f6cc:	01 00 00 00 	nop 

0000f6d0 <HW_trap_0x6d>:
    f6d0:	91 d0 20 00 	ta  0
    f6d4:	01 00 00 00 	nop 
    f6d8:	01 00 00 00 	nop 
    f6dc:	01 00 00 00 	nop 

0000f6e0 <HW_trap_0x6e>:
    f6e0:	91 d0 20 00 	ta  0
    f6e4:	01 00 00 00 	nop 
    f6e8:	01 00 00 00 	nop 
    f6ec:	01 00 00 00 	nop 

0000f6f0 <HW_trap_0x6f>:
    f6f0:	91 d0 20 00 	ta  0
    f6f4:	01 00 00 00 	nop 
    f6f8:	01 00 00 00 	nop 
    f6fc:	01 00 00 00 	nop 

0000f700 <HW_trap_0x70>:
    f700:	91 d0 20 00 	ta  0
    f704:	01 00 00 00 	nop 
    f708:	01 00 00 00 	nop 
    f70c:	01 00 00 00 	nop 

0000f710 <HW_trap_0x71>:
    f710:	91 d0 20 00 	ta  0
    f714:	01 00 00 00 	nop 
    f718:	01 00 00 00 	nop 
    f71c:	01 00 00 00 	nop 

0000f720 <HW_trap_0x72>:
    f720:	91 d0 20 00 	ta  0
    f724:	01 00 00 00 	nop 
    f728:	01 00 00 00 	nop 
    f72c:	01 00 00 00 	nop 

0000f730 <HW_trap_0x73>:
    f730:	91 d0 20 00 	ta  0
    f734:	01 00 00 00 	nop 
    f738:	01 00 00 00 	nop 
    f73c:	01 00 00 00 	nop 

0000f740 <HW_trap_0x74>:
    f740:	91 d0 20 00 	ta  0
    f744:	01 00 00 00 	nop 
    f748:	01 00 00 00 	nop 
    f74c:	01 00 00 00 	nop 

0000f750 <HW_trap_0x75>:
    f750:	91 d0 20 00 	ta  0
    f754:	01 00 00 00 	nop 
    f758:	01 00 00 00 	nop 
    f75c:	01 00 00 00 	nop 

0000f760 <HW_trap_0x76>:
    f760:	91 d0 20 00 	ta  0
    f764:	01 00 00 00 	nop 
    f768:	01 00 00 00 	nop 
    f76c:	01 00 00 00 	nop 

0000f770 <HW_trap_0x77>:
    f770:	91 d0 20 00 	ta  0
    f774:	01 00 00 00 	nop 
    f778:	01 00 00 00 	nop 
    f77c:	01 00 00 00 	nop 

0000f780 <HW_trap_0x78>:
    f780:	91 d0 20 00 	ta  0
    f784:	01 00 00 00 	nop 
    f788:	01 00 00 00 	nop 
    f78c:	01 00 00 00 	nop 

0000f790 <HW_trap_0x79>:
    f790:	91 d0 20 00 	ta  0
    f794:	01 00 00 00 	nop 
    f798:	01 00 00 00 	nop 
    f79c:	01 00 00 00 	nop 

0000f7a0 <HW_trap_0x7a>:
    f7a0:	91 d0 20 00 	ta  0
    f7a4:	01 00 00 00 	nop 
    f7a8:	01 00 00 00 	nop 
    f7ac:	01 00 00 00 	nop 

0000f7b0 <HW_trap_0x7b>:
    f7b0:	91 d0 20 00 	ta  0
    f7b4:	01 00 00 00 	nop 
    f7b8:	01 00 00 00 	nop 
    f7bc:	01 00 00 00 	nop 

0000f7c0 <HW_trap_0x7c>:
    f7c0:	91 d0 20 00 	ta  0
    f7c4:	01 00 00 00 	nop 
    f7c8:	01 00 00 00 	nop 
    f7cc:	01 00 00 00 	nop 

0000f7d0 <HW_trap_0x7d>:
    f7d0:	91 d0 20 00 	ta  0
    f7d4:	01 00 00 00 	nop 
    f7d8:	01 00 00 00 	nop 
    f7dc:	01 00 00 00 	nop 

0000f7e0 <HW_trap_0x7e>:
    f7e0:	91 d0 20 00 	ta  0
    f7e4:	01 00 00 00 	nop 
    f7e8:	01 00 00 00 	nop 
    f7ec:	01 00 00 00 	nop 

0000f7f0 <HW_trap_0x7f>:
    f7f0:	91 d0 20 00 	ta  0
    f7f4:	01 00 00 00 	nop 
    f7f8:	01 00 00 00 	nop 
    f7fc:	01 00 00 00 	nop 

0000f800 <SW_trap_0x80>:
    f800:	91 d0 20 00 	ta  0
    f804:	01 00 00 00 	nop 
    f808:	01 00 00 00 	nop 
    f80c:	01 00 00 00 	nop 

0000f810 <SW_trap_0x81>:
    f810:	a1 48 00 00 	rd  %psr, %l0
    f814:	a7 58 00 00 	rd  %tbr, %l3
    f818:	10 bf fc 05 	b  e82c <generic_vectored_sw_trap>
    f81c:	01 00 00 00 	nop 

0000f820 <SW_trap_0x82>:
    f820:	a1 48 00 00 	rd  %psr, %l0
    f824:	a7 58 00 00 	rd  %tbr, %l3
    f828:	10 bf fc 01 	b  e82c <generic_vectored_sw_trap>
    f82c:	01 00 00 00 	nop 

0000f830 <SW_trap_0x83>:
    f830:	a1 48 00 00 	rd  %psr, %l0
    f834:	a7 58 00 00 	rd  %tbr, %l3
    f838:	10 bf fb fd 	b  e82c <generic_vectored_sw_trap>
    f83c:	01 00 00 00 	nop 

0000f840 <SW_trap_0x84>:
    f840:	a1 48 00 00 	rd  %psr, %l0
    f844:	a7 58 00 00 	rd  %tbr, %l3
    f848:	10 bf fb f9 	b  e82c <generic_vectored_sw_trap>
    f84c:	01 00 00 00 	nop 

0000f850 <SW_trap_0x85>:
    f850:	a1 48 00 00 	rd  %psr, %l0
    f854:	a7 58 00 00 	rd  %tbr, %l3
    f858:	10 bf fb f5 	b  e82c <generic_vectored_sw_trap>
    f85c:	01 00 00 00 	nop 

0000f860 <SW_trap_0x86>:
    f860:	a1 48 00 00 	rd  %psr, %l0
    f864:	a7 58 00 00 	rd  %tbr, %l3
    f868:	10 bf fb f1 	b  e82c <generic_vectored_sw_trap>
    f86c:	01 00 00 00 	nop 

0000f870 <SW_trap_0x87>:
    f870:	a1 48 00 00 	rd  %psr, %l0
    f874:	a7 58 00 00 	rd  %tbr, %l3
    f878:	10 bf fb ed 	b  e82c <generic_vectored_sw_trap>
    f87c:	01 00 00 00 	nop 

0000f880 <SW_trap_0x88>:
    f880:	a1 48 00 00 	rd  %psr, %l0
    f884:	a7 58 00 00 	rd  %tbr, %l3
    f888:	10 bf fb e9 	b  e82c <generic_vectored_sw_trap>
    f88c:	01 00 00 00 	nop 

0000f890 <SW_trap_0x89>:
    f890:	a1 48 00 00 	rd  %psr, %l0
    f894:	a7 58 00 00 	rd  %tbr, %l3
    f898:	10 bf fb e5 	b  e82c <generic_vectored_sw_trap>
    f89c:	01 00 00 00 	nop 

0000f8a0 <SW_trap_0x8a>:
    f8a0:	a1 48 00 00 	rd  %psr, %l0
    f8a4:	a7 58 00 00 	rd  %tbr, %l3
    f8a8:	10 bf fb e1 	b  e82c <generic_vectored_sw_trap>
    f8ac:	01 00 00 00 	nop 

0000f8b0 <SW_trap_0x8b>:
    f8b0:	a1 48 00 00 	rd  %psr, %l0
    f8b4:	a7 58 00 00 	rd  %tbr, %l3
    f8b8:	10 bf fb dd 	b  e82c <generic_vectored_sw_trap>
    f8bc:	01 00 00 00 	nop 

0000f8c0 <SW_trap_0x8c>:
    f8c0:	a1 48 00 00 	rd  %psr, %l0
    f8c4:	a7 58 00 00 	rd  %tbr, %l3
    f8c8:	10 bf fb d9 	b  e82c <generic_vectored_sw_trap>
    f8cc:	01 00 00 00 	nop 

0000f8d0 <SW_trap_0x8d>:
    f8d0:	a1 48 00 00 	rd  %psr, %l0
    f8d4:	a7 58 00 00 	rd  %tbr, %l3
    f8d8:	10 bf fb d5 	b  e82c <generic_vectored_sw_trap>
    f8dc:	01 00 00 00 	nop 

0000f8e0 <SW_trap_0x8e>:
    f8e0:	a1 48 00 00 	rd  %psr, %l0
    f8e4:	a7 58 00 00 	rd  %tbr, %l3
    f8e8:	10 bf fb d1 	b  e82c <generic_vectored_sw_trap>
    f8ec:	01 00 00 00 	nop 

0000f8f0 <SW_trap_0x8f>:
    f8f0:	a1 48 00 00 	rd  %psr, %l0
    f8f4:	a7 58 00 00 	rd  %tbr, %l3
    f8f8:	10 bf fb cd 	b  e82c <generic_vectored_sw_trap>
    f8fc:	01 00 00 00 	nop 

0000f900 <SW_trap_0x90>:
    f900:	a1 48 00 00 	rd  %psr, %l0
    f904:	a7 58 00 00 	rd  %tbr, %l3
    f908:	10 bf fc 08 	b  e928 <generic_read_asr>
    f90c:	01 00 00 00 	nop 

0000f910 <SW_trap_0x91>:
    f910:	10 bf fc d6 	b  ec68 <generic_sys_go_to_supervisor>
    f914:	01 00 00 00 	nop 
    f918:	01 00 00 00 	nop 
    f91c:	01 00 00 00 	nop 

0000f920 <SW_trap_0x92>:
    f920:	91 d0 20 00 	ta  0
    f924:	01 00 00 00 	nop 
    f928:	01 00 00 00 	nop 
    f92c:	01 00 00 00 	nop 

0000f930 <SW_trap_0x93>:
    f930:	91 d0 20 00 	ta  0
    f934:	01 00 00 00 	nop 
    f938:	01 00 00 00 	nop 
    f93c:	01 00 00 00 	nop 

0000f940 <SW_trap_0x94>:
    f940:	91 d0 20 00 	ta  0
    f944:	01 00 00 00 	nop 
    f948:	01 00 00 00 	nop 
    f94c:	01 00 00 00 	nop 

0000f950 <SW_trap_0x95>:
    f950:	91 d0 20 00 	ta  0
    f954:	01 00 00 00 	nop 
    f958:	01 00 00 00 	nop 
    f95c:	01 00 00 00 	nop 

0000f960 <SW_trap_0x96>:
    f960:	91 d0 20 00 	ta  0
    f964:	01 00 00 00 	nop 
    f968:	01 00 00 00 	nop 
    f96c:	01 00 00 00 	nop 

0000f970 <SW_trap_0x97>:
    f970:	91 d0 20 00 	ta  0
    f974:	01 00 00 00 	nop 
    f978:	01 00 00 00 	nop 
    f97c:	01 00 00 00 	nop 

0000f980 <SW_trap_0x98>:
    f980:	91 d0 20 00 	ta  0
    f984:	01 00 00 00 	nop 
    f988:	01 00 00 00 	nop 
    f98c:	01 00 00 00 	nop 

0000f990 <SW_trap_0x99>:
    f990:	91 d0 20 00 	ta  0
    f994:	01 00 00 00 	nop 
    f998:	01 00 00 00 	nop 
    f99c:	01 00 00 00 	nop 

0000f9a0 <SW_trap_0x9a>:
    f9a0:	91 d0 20 00 	ta  0
    f9a4:	01 00 00 00 	nop 
    f9a8:	01 00 00 00 	nop 
    f9ac:	01 00 00 00 	nop 

0000f9b0 <SW_trap_0x9b>:
    f9b0:	91 d0 20 00 	ta  0
    f9b4:	01 00 00 00 	nop 
    f9b8:	01 00 00 00 	nop 
    f9bc:	01 00 00 00 	nop 

0000f9c0 <SW_trap_0x9c>:
    f9c0:	91 d0 20 00 	ta  0
    f9c4:	01 00 00 00 	nop 
    f9c8:	01 00 00 00 	nop 
    f9cc:	01 00 00 00 	nop 

0000f9d0 <SW_trap_0x9d>:
    f9d0:	91 d0 20 00 	ta  0
    f9d4:	01 00 00 00 	nop 
    f9d8:	01 00 00 00 	nop 
    f9dc:	01 00 00 00 	nop 

0000f9e0 <SW_trap_0x9e>:
    f9e0:	91 d0 20 00 	ta  0
    f9e4:	01 00 00 00 	nop 
    f9e8:	01 00 00 00 	nop 
    f9ec:	01 00 00 00 	nop 

0000f9f0 <SW_trap_0x9f>:
    f9f0:	91 d0 20 00 	ta  0
    f9f4:	01 00 00 00 	nop 
    f9f8:	01 00 00 00 	nop 
    f9fc:	01 00 00 00 	nop 

0000fa00 <SW_trap_0xa0>:
    fa00:	91 d0 20 00 	ta  0
    fa04:	01 00 00 00 	nop 
    fa08:	01 00 00 00 	nop 
    fa0c:	01 00 00 00 	nop 

0000fa10 <SW_trap_0xa1>:
    fa10:	91 d0 20 00 	ta  0
    fa14:	01 00 00 00 	nop 
    fa18:	01 00 00 00 	nop 
    fa1c:	01 00 00 00 	nop 

0000fa20 <SW_trap_0xa2>:
    fa20:	91 d0 20 00 	ta  0
    fa24:	01 00 00 00 	nop 
    fa28:	01 00 00 00 	nop 
    fa2c:	01 00 00 00 	nop 

0000fa30 <SW_trap_0xa3>:
    fa30:	91 d0 20 00 	ta  0
    fa34:	01 00 00 00 	nop 
    fa38:	01 00 00 00 	nop 
    fa3c:	01 00 00 00 	nop 

0000fa40 <SW_trap_0xa4>:
    fa40:	91 d0 20 00 	ta  0
    fa44:	01 00 00 00 	nop 
    fa48:	01 00 00 00 	nop 
    fa4c:	01 00 00 00 	nop 

0000fa50 <SW_trap_0xa5>:
    fa50:	91 d0 20 00 	ta  0
    fa54:	01 00 00 00 	nop 
    fa58:	01 00 00 00 	nop 
    fa5c:	01 00 00 00 	nop 

0000fa60 <SW_trap_0xa6>:
    fa60:	91 d0 20 00 	ta  0
    fa64:	01 00 00 00 	nop 
    fa68:	01 00 00 00 	nop 
    fa6c:	01 00 00 00 	nop 

0000fa70 <SW_trap_0xa7>:
    fa70:	91 d0 20 00 	ta  0
    fa74:	01 00 00 00 	nop 
    fa78:	01 00 00 00 	nop 
    fa7c:	01 00 00 00 	nop 

0000fa80 <SW_trap_0xa8>:
    fa80:	91 d0 20 00 	ta  0
    fa84:	01 00 00 00 	nop 
    fa88:	01 00 00 00 	nop 
    fa8c:	01 00 00 00 	nop 

0000fa90 <SW_trap_0xa9>:
    fa90:	91 d0 20 00 	ta  0
    fa94:	01 00 00 00 	nop 
    fa98:	01 00 00 00 	nop 
    fa9c:	01 00 00 00 	nop 

0000faa0 <SW_trap_0xaa>:
    faa0:	91 d0 20 00 	ta  0
    faa4:	01 00 00 00 	nop 
    faa8:	01 00 00 00 	nop 
    faac:	01 00 00 00 	nop 

0000fab0 <SW_trap_0xab>:
    fab0:	91 d0 20 00 	ta  0
    fab4:	01 00 00 00 	nop 
    fab8:	01 00 00 00 	nop 
    fabc:	01 00 00 00 	nop 

0000fac0 <SW_trap_0xac>:
    fac0:	91 d0 20 00 	ta  0
    fac4:	01 00 00 00 	nop 
    fac8:	01 00 00 00 	nop 
    facc:	01 00 00 00 	nop 

0000fad0 <SW_trap_0xad>:
    fad0:	91 d0 20 00 	ta  0
    fad4:	01 00 00 00 	nop 
    fad8:	01 00 00 00 	nop 
    fadc:	01 00 00 00 	nop 

0000fae0 <SW_trap_0xae>:
    fae0:	91 d0 20 00 	ta  0
    fae4:	01 00 00 00 	nop 
    fae8:	01 00 00 00 	nop 
    faec:	01 00 00 00 	nop 

0000faf0 <SW_trap_0xaf>:
    faf0:	91 d0 20 00 	ta  0
    faf4:	01 00 00 00 	nop 
    faf8:	01 00 00 00 	nop 
    fafc:	01 00 00 00 	nop 

0000fb00 <SW_trap_0xb0>:
    fb00:	91 d0 20 00 	ta  0
    fb04:	01 00 00 00 	nop 
    fb08:	01 00 00 00 	nop 
    fb0c:	01 00 00 00 	nop 

0000fb10 <SW_trap_0xb1>:
    fb10:	91 d0 20 00 	ta  0
    fb14:	01 00 00 00 	nop 
    fb18:	01 00 00 00 	nop 
    fb1c:	01 00 00 00 	nop 

0000fb20 <SW_trap_0xb2>:
    fb20:	91 d0 20 00 	ta  0
    fb24:	01 00 00 00 	nop 
    fb28:	01 00 00 00 	nop 
    fb2c:	01 00 00 00 	nop 

0000fb30 <SW_trap_0xb3>:
    fb30:	91 d0 20 00 	ta  0
    fb34:	01 00 00 00 	nop 
    fb38:	01 00 00 00 	nop 
    fb3c:	01 00 00 00 	nop 

0000fb40 <SW_trap_0xb4>:
    fb40:	91 d0 20 00 	ta  0
    fb44:	01 00 00 00 	nop 
    fb48:	01 00 00 00 	nop 
    fb4c:	01 00 00 00 	nop 

0000fb50 <SW_trap_0xb5>:
    fb50:	91 d0 20 00 	ta  0
    fb54:	01 00 00 00 	nop 
    fb58:	01 00 00 00 	nop 
    fb5c:	01 00 00 00 	nop 

0000fb60 <SW_trap_0xb6>:
    fb60:	91 d0 20 00 	ta  0
    fb64:	01 00 00 00 	nop 
    fb68:	01 00 00 00 	nop 
    fb6c:	01 00 00 00 	nop 

0000fb70 <SW_trap_0xb7>:
    fb70:	91 d0 20 00 	ta  0
    fb74:	01 00 00 00 	nop 
    fb78:	01 00 00 00 	nop 
    fb7c:	01 00 00 00 	nop 

0000fb80 <SW_trap_0xb8>:
    fb80:	91 d0 20 00 	ta  0
    fb84:	01 00 00 00 	nop 
    fb88:	01 00 00 00 	nop 
    fb8c:	01 00 00 00 	nop 

0000fb90 <SW_trap_0xb9>:
    fb90:	91 d0 20 00 	ta  0
    fb94:	01 00 00 00 	nop 
    fb98:	01 00 00 00 	nop 
    fb9c:	01 00 00 00 	nop 

0000fba0 <SW_trap_0xba>:
    fba0:	91 d0 20 00 	ta  0
    fba4:	01 00 00 00 	nop 
    fba8:	01 00 00 00 	nop 
    fbac:	01 00 00 00 	nop 

0000fbb0 <SW_trap_0xbb>:
    fbb0:	91 d0 20 00 	ta  0
    fbb4:	01 00 00 00 	nop 
    fbb8:	01 00 00 00 	nop 
    fbbc:	01 00 00 00 	nop 

0000fbc0 <SW_trap_0xbc>:
    fbc0:	91 d0 20 00 	ta  0
    fbc4:	01 00 00 00 	nop 
    fbc8:	01 00 00 00 	nop 
    fbcc:	01 00 00 00 	nop 

0000fbd0 <SW_trap_0xbd>:
    fbd0:	91 d0 20 00 	ta  0
    fbd4:	01 00 00 00 	nop 
    fbd8:	01 00 00 00 	nop 
    fbdc:	01 00 00 00 	nop 

0000fbe0 <SW_trap_0xbe>:
    fbe0:	91 d0 20 00 	ta  0
    fbe4:	01 00 00 00 	nop 
    fbe8:	01 00 00 00 	nop 
    fbec:	01 00 00 00 	nop 

0000fbf0 <SW_trap_0xbf>:
    fbf0:	91 d0 20 00 	ta  0
    fbf4:	01 00 00 00 	nop 
    fbf8:	01 00 00 00 	nop 
    fbfc:	01 00 00 00 	nop 

0000fc00 <SW_trap_0xc0>:
    fc00:	91 d0 20 00 	ta  0
    fc04:	01 00 00 00 	nop 
    fc08:	01 00 00 00 	nop 
    fc0c:	01 00 00 00 	nop 

0000fc10 <SW_trap_0xc1>:
    fc10:	91 d0 20 00 	ta  0
    fc14:	01 00 00 00 	nop 
    fc18:	01 00 00 00 	nop 
    fc1c:	01 00 00 00 	nop 

0000fc20 <SW_trap_0xc2>:
    fc20:	91 d0 20 00 	ta  0
    fc24:	01 00 00 00 	nop 
    fc28:	01 00 00 00 	nop 
    fc2c:	01 00 00 00 	nop 

0000fc30 <SW_trap_0xc3>:
    fc30:	91 d0 20 00 	ta  0
    fc34:	01 00 00 00 	nop 
    fc38:	01 00 00 00 	nop 
    fc3c:	01 00 00 00 	nop 

0000fc40 <SW_trap_0xc4>:
    fc40:	91 d0 20 00 	ta  0
    fc44:	01 00 00 00 	nop 
    fc48:	01 00 00 00 	nop 
    fc4c:	01 00 00 00 	nop 

0000fc50 <SW_trap_0xc5>:
    fc50:	91 d0 20 00 	ta  0
    fc54:	01 00 00 00 	nop 
    fc58:	01 00 00 00 	nop 
    fc5c:	01 00 00 00 	nop 

0000fc60 <SW_trap_0xc6>:
    fc60:	91 d0 20 00 	ta  0
    fc64:	01 00 00 00 	nop 
    fc68:	01 00 00 00 	nop 
    fc6c:	01 00 00 00 	nop 

0000fc70 <SW_trap_0xc7>:
    fc70:	91 d0 20 00 	ta  0
    fc74:	01 00 00 00 	nop 
    fc78:	01 00 00 00 	nop 
    fc7c:	01 00 00 00 	nop 

0000fc80 <SW_trap_0xc8>:
    fc80:	91 d0 20 00 	ta  0
    fc84:	01 00 00 00 	nop 
    fc88:	01 00 00 00 	nop 
    fc8c:	01 00 00 00 	nop 

0000fc90 <SW_trap_0xc9>:
    fc90:	91 d0 20 00 	ta  0
    fc94:	01 00 00 00 	nop 
    fc98:	01 00 00 00 	nop 
    fc9c:	01 00 00 00 	nop 

0000fca0 <SW_trap_0xca>:
    fca0:	91 d0 20 00 	ta  0
    fca4:	01 00 00 00 	nop 
    fca8:	01 00 00 00 	nop 
    fcac:	01 00 00 00 	nop 

0000fcb0 <SW_trap_0xcb>:
    fcb0:	91 d0 20 00 	ta  0
    fcb4:	01 00 00 00 	nop 
    fcb8:	01 00 00 00 	nop 
    fcbc:	01 00 00 00 	nop 

0000fcc0 <SW_trap_0xcc>:
    fcc0:	91 d0 20 00 	ta  0
    fcc4:	01 00 00 00 	nop 
    fcc8:	01 00 00 00 	nop 
    fccc:	01 00 00 00 	nop 

0000fcd0 <SW_trap_0xcd>:
    fcd0:	91 d0 20 00 	ta  0
    fcd4:	01 00 00 00 	nop 
    fcd8:	01 00 00 00 	nop 
    fcdc:	01 00 00 00 	nop 

0000fce0 <SW_trap_0xce>:
    fce0:	91 d0 20 00 	ta  0
    fce4:	01 00 00 00 	nop 
    fce8:	01 00 00 00 	nop 
    fcec:	01 00 00 00 	nop 

0000fcf0 <SW_trap_0xcf>:
    fcf0:	91 d0 20 00 	ta  0
    fcf4:	01 00 00 00 	nop 
    fcf8:	01 00 00 00 	nop 
    fcfc:	01 00 00 00 	nop 

0000fd00 <SW_trap_0xd0>:
    fd00:	91 d0 20 00 	ta  0
    fd04:	01 00 00 00 	nop 
    fd08:	01 00 00 00 	nop 
    fd0c:	01 00 00 00 	nop 

0000fd10 <SW_trap_0xd1>:
    fd10:	91 d0 20 00 	ta  0
    fd14:	01 00 00 00 	nop 
    fd18:	01 00 00 00 	nop 
    fd1c:	01 00 00 00 	nop 

0000fd20 <SW_trap_0xd2>:
    fd20:	91 d0 20 00 	ta  0
    fd24:	01 00 00 00 	nop 
    fd28:	01 00 00 00 	nop 
    fd2c:	01 00 00 00 	nop 

0000fd30 <SW_trap_0xd3>:
    fd30:	91 d0 20 00 	ta  0
    fd34:	01 00 00 00 	nop 
    fd38:	01 00 00 00 	nop 
    fd3c:	01 00 00 00 	nop 

0000fd40 <SW_trap_0xd4>:
    fd40:	91 d0 20 00 	ta  0
    fd44:	01 00 00 00 	nop 
    fd48:	01 00 00 00 	nop 
    fd4c:	01 00 00 00 	nop 

0000fd50 <SW_trap_0xd5>:
    fd50:	91 d0 20 00 	ta  0
    fd54:	01 00 00 00 	nop 
    fd58:	01 00 00 00 	nop 
    fd5c:	01 00 00 00 	nop 

0000fd60 <SW_trap_0xd6>:
    fd60:	91 d0 20 00 	ta  0
    fd64:	01 00 00 00 	nop 
    fd68:	01 00 00 00 	nop 
    fd6c:	01 00 00 00 	nop 

0000fd70 <SW_trap_0xd7>:
    fd70:	91 d0 20 00 	ta  0
    fd74:	01 00 00 00 	nop 
    fd78:	01 00 00 00 	nop 
    fd7c:	01 00 00 00 	nop 

0000fd80 <SW_trap_0xd8>:
    fd80:	91 d0 20 00 	ta  0
    fd84:	01 00 00 00 	nop 
    fd88:	01 00 00 00 	nop 
    fd8c:	01 00 00 00 	nop 

0000fd90 <SW_trap_0xd9>:
    fd90:	91 d0 20 00 	ta  0
    fd94:	01 00 00 00 	nop 
    fd98:	01 00 00 00 	nop 
    fd9c:	01 00 00 00 	nop 

0000fda0 <SW_trap_0xda>:
    fda0:	91 d0 20 00 	ta  0
    fda4:	01 00 00 00 	nop 
    fda8:	01 00 00 00 	nop 
    fdac:	01 00 00 00 	nop 

0000fdb0 <SW_trap_0xdb>:
    fdb0:	91 d0 20 00 	ta  0
    fdb4:	01 00 00 00 	nop 
    fdb8:	01 00 00 00 	nop 
    fdbc:	01 00 00 00 	nop 

0000fdc0 <SW_trap_0xdc>:
    fdc0:	91 d0 20 00 	ta  0
    fdc4:	01 00 00 00 	nop 
    fdc8:	01 00 00 00 	nop 
    fdcc:	01 00 00 00 	nop 

0000fdd0 <SW_trap_0xdd>:
    fdd0:	91 d0 20 00 	ta  0
    fdd4:	01 00 00 00 	nop 
    fdd8:	01 00 00 00 	nop 
    fddc:	01 00 00 00 	nop 

0000fde0 <SW_trap_0xde>:
    fde0:	91 d0 20 00 	ta  0
    fde4:	01 00 00 00 	nop 
    fde8:	01 00 00 00 	nop 
    fdec:	01 00 00 00 	nop 

0000fdf0 <SW_trap_0xdf>:
    fdf0:	91 d0 20 00 	ta  0
    fdf4:	01 00 00 00 	nop 
    fdf8:	01 00 00 00 	nop 
    fdfc:	01 00 00 00 	nop 

0000fe00 <SW_trap_0xe0>:
    fe00:	91 d0 20 00 	ta  0
    fe04:	01 00 00 00 	nop 
    fe08:	01 00 00 00 	nop 
    fe0c:	01 00 00 00 	nop 

0000fe10 <SW_trap_0xe1>:
    fe10:	91 d0 20 00 	ta  0
    fe14:	01 00 00 00 	nop 
    fe18:	01 00 00 00 	nop 
    fe1c:	01 00 00 00 	nop 

0000fe20 <SW_trap_0xe2>:
    fe20:	91 d0 20 00 	ta  0
    fe24:	01 00 00 00 	nop 
    fe28:	01 00 00 00 	nop 
    fe2c:	01 00 00 00 	nop 

0000fe30 <SW_trap_0xe3>:
    fe30:	91 d0 20 00 	ta  0
    fe34:	01 00 00 00 	nop 
    fe38:	01 00 00 00 	nop 
    fe3c:	01 00 00 00 	nop 

0000fe40 <SW_trap_0xe4>:
    fe40:	91 d0 20 00 	ta  0
    fe44:	01 00 00 00 	nop 
    fe48:	01 00 00 00 	nop 
    fe4c:	01 00 00 00 	nop 

0000fe50 <SW_trap_0xe5>:
    fe50:	91 d0 20 00 	ta  0
    fe54:	01 00 00 00 	nop 
    fe58:	01 00 00 00 	nop 
    fe5c:	01 00 00 00 	nop 

0000fe60 <SW_trap_0xe6>:
    fe60:	91 d0 20 00 	ta  0
    fe64:	01 00 00 00 	nop 
    fe68:	01 00 00 00 	nop 
    fe6c:	01 00 00 00 	nop 

0000fe70 <SW_trap_0xe7>:
    fe70:	91 d0 20 00 	ta  0
    fe74:	01 00 00 00 	nop 
    fe78:	01 00 00 00 	nop 
    fe7c:	01 00 00 00 	nop 

0000fe80 <SW_trap_0xe8>:
    fe80:	91 d0 20 00 	ta  0
    fe84:	01 00 00 00 	nop 
    fe88:	01 00 00 00 	nop 
    fe8c:	01 00 00 00 	nop 

0000fe90 <SW_trap_0xe9>:
    fe90:	91 d0 20 00 	ta  0
    fe94:	01 00 00 00 	nop 
    fe98:	01 00 00 00 	nop 
    fe9c:	01 00 00 00 	nop 

0000fea0 <SW_trap_0xea>:
    fea0:	91 d0 20 00 	ta  0
    fea4:	01 00 00 00 	nop 
    fea8:	01 00 00 00 	nop 
    feac:	01 00 00 00 	nop 

0000feb0 <SW_trap_0xeb>:
    feb0:	91 d0 20 00 	ta  0
    feb4:	01 00 00 00 	nop 
    feb8:	01 00 00 00 	nop 
    febc:	01 00 00 00 	nop 

0000fec0 <SW_trap_0xec>:
    fec0:	91 d0 20 00 	ta  0
    fec4:	01 00 00 00 	nop 
    fec8:	01 00 00 00 	nop 
    fecc:	01 00 00 00 	nop 

0000fed0 <SW_trap_0xed>:
    fed0:	91 d0 20 00 	ta  0
    fed4:	01 00 00 00 	nop 
    fed8:	01 00 00 00 	nop 
    fedc:	01 00 00 00 	nop 

0000fee0 <SW_trap_0xee>:
    fee0:	91 d0 20 00 	ta  0
    fee4:	01 00 00 00 	nop 
    fee8:	01 00 00 00 	nop 
    feec:	01 00 00 00 	nop 

0000fef0 <SW_trap_0xef>:
    fef0:	91 d0 20 00 	ta  0
    fef4:	01 00 00 00 	nop 
    fef8:	01 00 00 00 	nop 
    fefc:	01 00 00 00 	nop 

0000ff00 <SW_trap_0xf0>:
    ff00:	91 d0 20 00 	ta  0
    ff04:	01 00 00 00 	nop 
    ff08:	01 00 00 00 	nop 
    ff0c:	01 00 00 00 	nop 

0000ff10 <SW_trap_0xf1>:
    ff10:	91 d0 20 00 	ta  0
    ff14:	01 00 00 00 	nop 
    ff18:	01 00 00 00 	nop 
    ff1c:	01 00 00 00 	nop 

0000ff20 <SW_trap_0xf2>:
    ff20:	91 d0 20 00 	ta  0
    ff24:	01 00 00 00 	nop 
    ff28:	01 00 00 00 	nop 
    ff2c:	01 00 00 00 	nop 

0000ff30 <SW_trap_0xf3>:
    ff30:	91 d0 20 00 	ta  0
    ff34:	01 00 00 00 	nop 
    ff38:	01 00 00 00 	nop 
    ff3c:	01 00 00 00 	nop 

0000ff40 <SW_trap_0xf4>:
    ff40:	91 d0 20 00 	ta  0
    ff44:	01 00 00 00 	nop 
    ff48:	01 00 00 00 	nop 
    ff4c:	01 00 00 00 	nop 

0000ff50 <SW_trap_0xf5>:
    ff50:	91 d0 20 00 	ta  0
    ff54:	01 00 00 00 	nop 
    ff58:	01 00 00 00 	nop 
    ff5c:	01 00 00 00 	nop 

0000ff60 <SW_trap_0xf6>:
    ff60:	91 d0 20 00 	ta  0
    ff64:	01 00 00 00 	nop 
    ff68:	01 00 00 00 	nop 
    ff6c:	01 00 00 00 	nop 

0000ff70 <SW_trap_0xf7>:
    ff70:	91 d0 20 00 	ta  0
    ff74:	01 00 00 00 	nop 
    ff78:	01 00 00 00 	nop 
    ff7c:	01 00 00 00 	nop 

0000ff80 <SW_trap_0xf8>:
    ff80:	91 d0 20 00 	ta  0
    ff84:	01 00 00 00 	nop 
    ff88:	01 00 00 00 	nop 
    ff8c:	01 00 00 00 	nop 

0000ff90 <SW_trap_0xf9>:
    ff90:	91 d0 20 00 	ta  0
    ff94:	01 00 00 00 	nop 
    ff98:	01 00 00 00 	nop 
    ff9c:	01 00 00 00 	nop 

0000ffa0 <SW_trap_0xfa>:
    ffa0:	91 d0 20 00 	ta  0
    ffa4:	01 00 00 00 	nop 
    ffa8:	01 00 00 00 	nop 
    ffac:	01 00 00 00 	nop 

0000ffb0 <SW_trap_0xfb>:
    ffb0:	91 d0 20 00 	ta  0
    ffb4:	01 00 00 00 	nop 
    ffb8:	01 00 00 00 	nop 
    ffbc:	01 00 00 00 	nop 

0000ffc0 <SW_trap_0xfc>:
    ffc0:	91 d0 20 00 	ta  0
    ffc4:	01 00 00 00 	nop 
    ffc8:	01 00 00 00 	nop 
    ffcc:	01 00 00 00 	nop 

0000ffd0 <SW_trap_0xfd>:
    ffd0:	91 d0 20 00 	ta  0
    ffd4:	01 00 00 00 	nop 
    ffd8:	01 00 00 00 	nop 
    ffdc:	01 00 00 00 	nop 

0000ffe0 <SW_trap_0xfe>:
    ffe0:	91 d0 20 00 	ta  0
    ffe4:	01 00 00 00 	nop 
    ffe8:	01 00 00 00 	nop 
    ffec:	01 00 00 00 	nop 
    fff0:	01 00 00 00 	nop 
    fff4:	01 00 00 00 	nop 
    fff8:	01 00 00 00 	nop 
    fffc:	01 00 00 00 	nop 

00010000 <__sparc_get_pc_thunk.l7>:
   10000:	81 c3 e0 08 	retl 
   10004:	ae 03 c0 17 	add  %o7, %l7, %l7
