
.//main.elf:     file format elf32-sparc


Disassembly of section .text:

00000000 <_start>:
       0:	40 00 00 9d 	call  274 <clear_stack_pointers>
       4:	01 00 00 00 	nop 

00000008 <CORTOS_SET_PSR>:
       8:	21 00 00 04 	sethi  %hi(0x1000), %l0
       c:	a0 14 20 e0 	or  %l0, 0xe0, %l0	! 10e0 <print_exponential_number+0x1c4>
      10:	81 88 00 10 	mov  %l0, %psr

00000014 <COROTS_WIMSET>:
      14:	a0 10 20 01 	mov  1, %l0
      18:	81 94 20 00 	mov  %l0, %wim
      1c:	21 00 00 3c 	sethi  %hi(0xf000), %l0
      20:	a0 14 20 00 	mov  %l0, %l0	! f000 <trap_table_base>
      24:	81 9c 20 00 	mov  %l0, %tbr

00000028 <CORTOS_READ_CORE_THREAD_ID>:
      28:	a3 47 40 00 	rd  %asr29, %l1

0000002c <CORTOS_SETUP_THREADS>:
      2c:	25 14 14 80 	sethi  %hi(0x50520000), %l2
      30:	80 a4 40 12 	cmp  %l1, %l2
      34:	12 80 00 8c 	bne  264 <CORTOS_HALT_ERROR>
      38:	01 00 00 00 	nop 
      3c:	1d 00 00 77 	sethi  %hi(0x1dc00), %sp
      40:	9c 13 a3 a0 	or  %sp, 0x3a0, %sp	! 1dfa0 <_custom_printf_handler+0x6ccc>
      44:	bc 10 00 00 	mov  %g0, %fp
      48:	05 00 00 59 	sethi  %hi(0x16400), %g2
      4c:	84 10 a0 c0 	or  %g2, 0xc0, %g2	! 164c0 <INIT_BY_00_DONE>
      50:	c4 00 80 00 	ld  [ %g2 ], %g2
      54:	86 10 20 00 	clr  %g3
      58:	c6 20 80 00 	st  %g3, [ %g2 ]
      5c:	05 00 00 59 	sethi  %hi(0x16400), %g2
      60:	84 10 a0 bc 	or  %g2, 0xbc, %g2	! 164bc <PT_FLAG>
      64:	c4 00 80 00 	ld  [ %g2 ], %g2
      68:	86 10 20 00 	clr  %g3
      6c:	c6 20 80 00 	st  %g3, [ %g2 ]
      70:	40 00 00 56 	call  1c8 <__cortos_init_region_to_zero>
      74:	01 00 00 00 	nop 
      78:	40 00 3a ae 	call  eb30 <page_table_setup>
      7c:	01 00 00 00 	nop 
      80:	2d 00 00 59 	sethi  %hi(0x16400), %l6
      84:	ac 15 a0 bc 	or  %l6, 0xbc, %l6	! 164bc <PT_FLAG>
      88:	ec 05 80 00 	ld  [ %l6 ], %l6
      8c:	ae 10 20 01 	mov  1, %l7
      90:	ee 25 80 00 	st  %l7, [ %l6 ]
      94:	40 00 3a a9 	call  eb38 <set_context_table_pointer>
      98:	01 00 00 00 	nop 
      9c:	90 10 20 01 	mov  1, %o0	! 1 <_start+0x1>
      a0:	d0 a0 00 80 	sta  %o0, [ %g0 ] #ASI_N
      a4:	40 00 10 41 	call  41a8 <cortos_init_locks>
      a8:	01 00 00 00 	nop 
      ac:	40 00 09 fa 	call  2894 <__cortos_bpool>
      b0:	01 00 00 00 	nop 
      b4:	40 00 09 f2 	call  287c <cortos_init_hw_traps>
      b8:	01 00 00 00 	nop 
      bc:	40 00 09 f3 	call  2888 <cortos_init_sw_traps>
      c0:	01 00 00 00 	nop 
      c4:	40 00 0f f3 	call  4090 <cortos_init_printing>
      c8:	01 00 00 00 	nop 
      cc:	40 00 0a 3c 	call  29bc <cortos_init_logging>
      d0:	01 00 00 00 	nop 
      d4:	05 00 00 59 	sethi  %hi(0x16400), %g2
      d8:	84 10 a0 c0 	or  %g2, 0xc0, %g2	! 164c0 <INIT_BY_00_DONE>
      dc:	c4 00 80 00 	ld  [ %g2 ], %g2
      e0:	86 10 20 01 	mov  1, %g3
      e4:	c6 20 80 00 	st  %g3, [ %g2 ]
      e8:	a3 47 40 00 	rd  %asr29, %l1
      ec:	10 80 00 1c 	b  15c <CORTOS_START_THREADS>
      f0:	01 00 00 00 	nop 

000000f4 <AFTER_PTABLE_SETUP>:
      f4:	2d 00 00 59 	sethi  %hi(0x16400), %l6
      f8:	ac 15 a0 bc 	or  %l6, 0xbc, %l6	! 164bc <PT_FLAG>
      fc:	ec 05 80 00 	ld  [ %l6 ], %l6
     100:	ee 05 80 00 	ld  [ %l6 ], %l7
     104:	b0 10 20 01 	mov  1, %i0
     108:	80 a6 00 17 	cmp  %i0, %l7
     10c:	12 bf ff fa 	bne  f4 <AFTER_PTABLE_SETUP>
     110:	01 00 00 00 	nop 
     114:	40 00 3a 89 	call  eb38 <set_context_table_pointer>
     118:	01 00 00 00 	nop 
     11c:	90 10 20 01 	mov  1, %o0	! 1 <_start+0x1>
     120:	d0 a0 00 80 	sta  %o0, [ %g0 ] #ASI_N
     124:	10 80 00 0e 	b  15c <CORTOS_START_THREADS>
     128:	01 00 00 00 	nop 

0000012c <ODD_THREAD_WAIT_ON_PTABLE_SETUP>:
     12c:	2d 00 00 59 	sethi  %hi(0x16400), %l6
     130:	ac 15 a0 bc 	or  %l6, 0xbc, %l6	! 164bc <PT_FLAG>
     134:	ec 05 80 00 	ld  [ %l6 ], %l6
     138:	ee 05 80 00 	ld  [ %l6 ], %l7
     13c:	b0 10 20 01 	mov  1, %i0
     140:	80 a6 00 17 	cmp  %i0, %l7
     144:	12 bf ff fa 	bne  12c <ODD_THREAD_WAIT_ON_PTABLE_SETUP>
     148:	01 00 00 00 	nop 
     14c:	40 00 3a 7b 	call  eb38 <set_context_table_pointer>
     150:	01 00 00 00 	nop 
     154:	90 10 20 01 	mov  1, %o0	! 1 <_start+0x1>
     158:	d0 a0 00 80 	sta  %o0, [ %g0 ] #ASI_N

0000015c <CORTOS_START_THREADS>:
     15c:	25 14 14 80 	sethi  %hi(0x50520000), %l2
     160:	80 a4 40 12 	cmp  %l1, %l2
     164:	12 80 00 40 	bne  264 <CORTOS_HALT_ERROR>
     168:	01 00 00 00 	nop 
     16c:	40 00 10 5c 	call  42dc <main_00>
     170:	01 00 00 00 	nop 

00000174 <START_THREAD_0_0_LOOP>:
     174:	10 80 00 3e 	b  26c <CORTOS_HALT_OKAY>
     178:	01 00 00 00 	nop 

0000017c <__cortos_clear_stack_pointers>:
     17c:	81 90 00 00 	mov  %g0, %wim
     180:	9c 10 00 00 	mov  %g0, %sp
     184:	81 e0 00 00 	save 
     188:	9c 10 00 00 	mov  %g0, %sp
     18c:	81 e0 00 00 	save 
     190:	9c 10 00 00 	mov  %g0, %sp
     194:	81 e0 00 00 	save 
     198:	9c 10 00 00 	mov  %g0, %sp
     19c:	81 e0 00 00 	save 
     1a0:	9c 10 00 00 	mov  %g0, %sp
     1a4:	81 e0 00 00 	save 
     1a8:	9c 10 00 00 	mov  %g0, %sp
     1ac:	81 e0 00 00 	save 
     1b0:	9c 10 00 00 	mov  %g0, %sp
     1b4:	81 e0 00 00 	save 
     1b8:	9c 10 00 00 	mov  %g0, %sp
     1bc:	81 e0 00 00 	save 
     1c0:	81 c3 e0 08 	retl 
     1c4:	01 00 00 00 	nop 

000001c8 <__cortos_init_region_to_zero>:
     1c8:	21 00 00 5c 	sethi  %hi(0x17000), %l0
     1cc:	a0 14 20 00 	mov  %l0, %l0	! 17000 <bgetNcramLockAddr>
     1d0:	25 00 00 60 	sethi  %hi(0x18000), %l2
     1d4:	a4 14 a0 00 	mov  %l2, %l2	! 18000 <_custom_printf_handler+0xd2c>
     1d8:	a4 24 a0 04 	sub  %l2, 4, %l2

000001dc <_cortos_zero_init_area_BssSection>:
     1dc:	c0 2c 00 00 	clrb  [ %l0 ]
     1e0:	80 a4 00 12 	cmp  %l0, %l2
     1e4:	12 bf ff fe 	bne  1dc <_cortos_zero_init_area_BssSection>
     1e8:	a0 04 20 01 	inc  %l0
     1ec:	21 00 00 60 	sethi  %hi(0x18000), %l0
     1f0:	a0 14 20 00 	mov  %l0, %l0	! 18000 <_custom_printf_handler+0xd2c>
     1f4:	25 00 00 64 	sethi  %hi(0x19000), %l2
     1f8:	a4 14 a0 00 	mov  %l2, %l2	! 19000 <_custom_printf_handler+0x1d2c>
     1fc:	a4 24 a0 04 	sub  %l2, 4, %l2

00000200 <_cortos_zero_init_area_CacheableLocks>:
     200:	c0 2c 00 00 	clrb  [ %l0 ]
     204:	80 a4 00 12 	cmp  %l0, %l2
     208:	12 bf ff fe 	bne  200 <_cortos_zero_init_area_CacheableLocks>
     20c:	a0 04 20 01 	inc  %l0
     210:	21 00 00 64 	sethi  %hi(0x19000), %l0
     214:	a0 14 20 00 	mov  %l0, %l0	! 19000 <_custom_printf_handler+0x1d2c>
     218:	25 00 00 68 	sethi  %hi(0x1a000), %l2
     21c:	a4 14 a0 00 	mov  %l2, %l2	! 1a000 <_custom_printf_handler+0x2d2c>
     220:	a4 24 a0 04 	sub  %l2, 4, %l2

00000224 <_cortos_zero_init_area_NonCacheableLocks>:
     224:	c0 2c 00 00 	clrb  [ %l0 ]
     228:	80 a4 00 12 	cmp  %l0, %l2
     22c:	12 bf ff fe 	bne  224 <_cortos_zero_init_area_NonCacheableLocks>
     230:	a0 04 20 01 	inc  %l0
     234:	81 c3 e0 08 	retl 
     238:	01 00 00 00 	nop 

0000023c <__cortos_wait_for_init_by_00>:
     23c:	2d 00 00 59 	sethi  %hi(0x16400), %l6
     240:	ac 15 a0 c0 	or  %l6, 0xc0, %l6	! 164c0 <INIT_BY_00_DONE>
     244:	ec 05 80 00 	ld  [ %l6 ], %l6

00000248 <_CORTOS_WAIT_FOR_INIT_BY_00>:
     248:	ee 05 80 00 	ld  [ %l6 ], %l7
     24c:	b0 10 20 01 	mov  1, %i0
     250:	80 a6 00 17 	cmp  %i0, %l7
     254:	12 bf ff fd 	bne  248 <_CORTOS_WAIT_FOR_INIT_BY_00>
     258:	01 00 00 00 	nop 
     25c:	81 c3 e0 08 	retl 
     260:	01 00 00 00 	nop 

00000264 <CORTOS_HALT_ERROR>:
     264:	a1 80 20 01 	mov  1, %asr16
     268:	91 d0 20 00 	ta  0

0000026c <CORTOS_HALT_OKAY>:
     26c:	a1 80 20 00 	mov  %g0, %asr16
     270:	91 d0 20 00 	ta  0

00000274 <clear_stack_pointers>:
     274:	81 90 00 00 	mov  %g0, %wim
     278:	9c 10 00 00 	mov  %g0, %sp
     27c:	81 e0 00 00 	save 
     280:	9c 10 00 00 	mov  %g0, %sp
     284:	81 e0 00 00 	save 
     288:	9c 10 00 00 	mov  %g0, %sp
     28c:	81 e0 00 00 	save 
     290:	9c 10 00 00 	mov  %g0, %sp
     294:	81 e0 00 00 	save 
     298:	9c 10 00 00 	mov  %g0, %sp
     29c:	81 e0 00 00 	save 
     2a0:	9c 10 00 00 	mov  %g0, %sp
     2a4:	81 e0 00 00 	save 
     2a8:	9c 10 00 00 	mov  %g0, %sp
     2ac:	81 e0 00 00 	save 
     2b0:	9c 10 00 00 	mov  %g0, %sp
     2b4:	81 e0 00 00 	save 
     2b8:	81 c3 e0 08 	retl 
     2bc:	01 00 00 00 	nop 

000002c0 <cortos_lock_acquire_buzy>:
     2c0:	9d e3 bf a0 	save  %sp, -96, %sp

000002c4 <wait_for_lock>:
     2c4:	e2 0e 00 00 	ldub  [ %i0 ], %l1
     2c8:	80 94 40 00 	tst  %l1
     2cc:	12 bf ff fe 	bne  2c4 <wait_for_lock>
     2d0:	01 00 00 00 	nop 

000002d4 <try_to_lock>:
     2d4:	e2 6e 00 00 	ldstub  [ %i0 ], %l1
     2d8:	80 94 40 00 	tst  %l1
     2dc:	02 80 00 03 	be  2e8 <out>
     2e0:	01 00 00 00 	nop 
     2e4:	30 bf ff f8 	b,a   2c4 <wait_for_lock>

000002e8 <out>:
     2e8:	b0 10 20 01 	mov  1, %i0	! 1 <_start+0x1>
     2ec:	81 e8 00 00 	restore 
     2f0:	81 c3 e0 08 	retl 
     2f4:	01 00 00 00 	nop 

000002f8 <cortos_lock_acquire>:
     2f8:	9d e3 bf a0 	save  %sp, -96, %sp

000002fc <try_to_lock_once>:
     2fc:	e2 6e 00 00 	ldstub  [ %i0 ], %l1
     300:	80 94 40 00 	tst  %l1
     304:	02 80 00 03 	be  310 <lock_acquired>
     308:	01 00 00 00 	nop 
     30c:	30 80 00 03 	b,a   318 <lock_not_acquired>

00000310 <lock_acquired>:
     310:	10 80 00 03 	b  31c <exit_cortos_lock_acquire>
     314:	b0 10 20 01 	mov  1, %i0

00000318 <lock_not_acquired>:
     318:	b0 10 00 00 	mov  %g0, %i0

0000031c <exit_cortos_lock_acquire>:
     31c:	81 e8 00 00 	restore 
     320:	81 c3 e0 08 	retl 
     324:	01 00 00 00 	nop 

00000328 <cortos_lock_release>:
     328:	9d e3 bf a0 	save  %sp, -96, %sp
     32c:	81 43 c0 00 	stbar 
     330:	c0 2e 00 00 	clrb  [ %i0 ]
     334:	81 e8 00 00 	restore 
     338:	81 c3 e0 08 	retl 
     33c:	01 00 00 00 	nop 
     340:	00 00 1c c4 	unimp  0x1cc4
     344:	00 00 1b 0c 	unimp  0x1b0c
     348:	00 00 1b 0c 	unimp  0x1b0c
     34c:	00 00 1b 0c 	unimp  0x1b0c
     350:	00 00 1b 0c 	unimp  0x1b0c
     354:	00 00 1b 0c 	unimp  0x1b0c
     358:	00 00 1b 0c 	unimp  0x1b0c
     35c:	00 00 1b 0c 	unimp  0x1b0c
     360:	00 00 1b 0c 	unimp  0x1b0c
     364:	00 00 1b 0c 	unimp  0x1b0c
     368:	00 00 1b 0c 	unimp  0x1b0c
     36c:	00 00 1b 0c 	unimp  0x1b0c
     370:	00 00 1b 0c 	unimp  0x1b0c
     374:	00 00 1b 0c 	unimp  0x1b0c
     378:	00 00 1b 0c 	unimp  0x1b0c
     37c:	00 00 1b 0c 	unimp  0x1b0c
     380:	00 00 1b 0c 	unimp  0x1b0c
     384:	00 00 1b 0c 	unimp  0x1b0c
     388:	00 00 1b 0c 	unimp  0x1b0c
     38c:	00 00 1b 0c 	unimp  0x1b0c
     390:	00 00 1b 0c 	unimp  0x1b0c
     394:	00 00 1b 0c 	unimp  0x1b0c
     398:	00 00 1b 0c 	unimp  0x1b0c
     39c:	00 00 1b 0c 	unimp  0x1b0c
     3a0:	00 00 1b 0c 	unimp  0x1b0c
     3a4:	00 00 1b 0c 	unimp  0x1b0c
     3a8:	00 00 1b 0c 	unimp  0x1b0c
     3ac:	00 00 1b 0c 	unimp  0x1b0c
     3b0:	00 00 1b 0c 	unimp  0x1b0c
     3b4:	00 00 1b 0c 	unimp  0x1b0c
     3b8:	00 00 1b 0c 	unimp  0x1b0c
     3bc:	00 00 1b 0c 	unimp  0x1b0c
     3c0:	00 00 20 78 	unimp  0x2078
     3c4:	00 00 20 28 	unimp  0x2028
     3c8:	00 00 20 78 	unimp  0x2078
     3cc:	00 00 1b 0c 	unimp  0x1b0c
     3d0:	00 00 1b 0c 	unimp  0x1b0c
     3d4:	00 00 1b 0c 	unimp  0x1b0c
     3d8:	00 00 1b 0c 	unimp  0x1b0c
     3dc:	00 00 1b 0c 	unimp  0x1b0c
     3e0:	00 00 1b 0c 	unimp  0x1b0c
     3e4:	00 00 1b 0c 	unimp  0x1b0c
     3e8:	00 00 1b 0c 	unimp  0x1b0c
     3ec:	00 00 1b 0c 	unimp  0x1b0c
     3f0:	00 00 1b 0c 	unimp  0x1b0c
     3f4:	00 00 1b 0c 	unimp  0x1b0c
     3f8:	00 00 1b 0c 	unimp  0x1b0c
     3fc:	00 00 1b 0c 	unimp  0x1b0c
     400:	00 00 1b 0c 	unimp  0x1b0c
     404:	00 00 1b 0c 	unimp  0x1b0c
     408:	00 00 1b 0c 	unimp  0x1b0c
     40c:	00 00 1e 08 	unimp  0x1e08
     410:	00 00 1b 0c 	unimp  0x1b0c
     414:	00 00 1b 0c 	unimp  0x1b0c
     418:	00 00 1b 0c 	unimp  0x1b0c
     41c:	00 00 1b 0c 	unimp  0x1b0c
     420:	00 00 1b 0c 	unimp  0x1b0c
     424:	00 00 1b 0c 	unimp  0x1b0c
     428:	00 00 1b 0c 	unimp  0x1b0c
     42c:	00 00 1b 0c 	unimp  0x1b0c
     430:	00 00 1b 0c 	unimp  0x1b0c
     434:	00 00 1e 08 	unimp  0x1e08
     438:	00 00 1d 60 	unimp  0x1d60
     43c:	00 00 1e 08 	unimp  0x1e08
     440:	00 00 20 78 	unimp  0x2078
     444:	00 00 20 28 	unimp  0x2028
     448:	00 00 20 78 	unimp  0x2078
     44c:	00 00 1b 0c 	unimp  0x1b0c
     450:	00 00 1e 08 	unimp  0x1e08
     454:	00 00 1b 0c 	unimp  0x1b0c
     458:	00 00 1b 0c 	unimp  0x1b0c
     45c:	00 00 1b 0c 	unimp  0x1b0c
     460:	00 00 1b 0c 	unimp  0x1b0c
     464:	00 00 1d 34 	unimp  0x1d34
     468:	00 00 1e 08 	unimp  0x1e08
     46c:	00 00 1d 00 	unimp  0x1d00
     470:	00 00 1b 0c 	unimp  0x1b0c
     474:	00 00 1b 0c 	unimp  0x1b0c
     478:	00 00 1e e8 	unimp  0x1ee8
     47c:	00 00 1b 0c 	unimp  0x1b0c
     480:	00 00 1e 08 	unimp  0x1e08
     484:	00 00 1b 0c 	unimp  0x1b0c
     488:	00 00 1b 0c 	unimp  0x1b0c
     48c:	00 00 1e 08 	unimp  0x1e08
     490:	00 00 1b 90 	unimp  0x1b90
     494:	00 00 1a 60 	unimp  0x1a60
     498:	00 00 1a 60 	unimp  0x1a60
     49c:	00 00 1b 84 	unimp  0x1b84
     4a0:	00 00 1a 60 	unimp  0x1a60
     4a4:	00 00 1a 60 	unimp  0x1a60
     4a8:	00 00 1a 60 	unimp  0x1a60
     4ac:	00 00 1a 60 	unimp  0x1a60
     4b0:	00 00 1a 60 	unimp  0x1a60
     4b4:	00 00 1a 60 	unimp  0x1a60
     4b8:	00 00 1a 60 	unimp  0x1a60
     4bc:	00 00 1b 78 	unimp  0x1b78
     4c0:	00 00 1a 60 	unimp  0x1a60
     4c4:	00 00 1b 6c 	unimp  0x1b6c
     4c8:	00 00 1a 60 	unimp  0x1a60
     4cc:	00 00 1a 60 	unimp  0x1a60
     4d0:	00 00 1b 60 	unimp  0x1b60
     4d4:	00 00 1c a8 	unimp  0x1ca8
     4d8:	00 00 1a f8 	unimp  0x1af8
     4dc:	00 00 1c 98 	unimp  0x1c98
     4e0:	00 00 1a f8 	unimp  0x1af8
     4e4:	00 00 1c 78 	unimp  0x1c78
     4e8:	00 00 1a f8 	unimp  0x1af8
     4ec:	00 00 1a f8 	unimp  0x1af8
     4f0:	00 00 1a f8 	unimp  0x1af8
     4f4:	00 00 1a f8 	unimp  0x1af8
     4f8:	00 00 1a f8 	unimp  0x1af8
     4fc:	00 00 1a f8 	unimp  0x1af8
     500:	00 00 1a f8 	unimp  0x1af8
     504:	00 00 1a ec 	unimp  0x1aec
     508:	00 00 1a f8 	unimp  0x1af8
     50c:	00 00 1a f8 	unimp  0x1af8
     510:	00 00 1a f8 	unimp  0x1af8
     514:	00 00 1a f8 	unimp  0x1af8
     518:	00 00 1a f8 	unimp  0x1af8
     51c:	00 00 1a ec 	unimp  0x1aec

00000520 <get_components>:
     520:	9d e3 bf 80 	save  %sp, -128, %sp
     524:	84 10 00 18 	mov  %i0, %g2
     528:	86 10 00 19 	mov  %i1, %g3
     52c:	c4 3f bf f8 	std  %g2, [ %fp + -8 ]
     530:	a5 36 20 1f 	srl  %i0, 0x1f, %l2
     534:	80 8c a0 ff 	btst  0xff, %l2
     538:	02 80 00 05 	be  54c <get_components+0x2c>
     53c:	f6 07 a0 40 	ld  [ %fp + 0x40 ], %i3
     540:	d1 1f bf f8 	ldd  [ %fp + -8 ], %f8
     544:	91 a0 00 a8 	fnegs  %f8, %f8
     548:	d1 3f bf f8 	std  %f8, [ %fp + -8 ]
     54c:	40 00 33 a5 	call  d3e0 <__fixdfdi>
     550:	d0 1f bf f8 	ldd  [ %fp + -8 ], %o0
     554:	83 2e a0 03 	sll  %i2, 3, %g1
     558:	05 00 00 54 	sethi  %hi(0x15000), %g2
     55c:	84 10 a0 00 	mov  %g2, %g2	! 15000 <powers_of_10>
     560:	d5 18 80 01 	ldd  [ %g2 + %g1 ], %f10
     564:	a0 10 00 08 	mov  %o0, %l0
     568:	a2 10 00 09 	mov  %o1, %l1
     56c:	40 00 33 fb 	call  d558 <__floatdidf>
     570:	d5 3f bf f0 	std  %f10, [ %fp + -16 ]
     574:	d1 1f bf f8 	ldd  [ %fp + -8 ], %f8
     578:	d5 1f bf f0 	ldd  [ %fp + -16 ], %f10
     57c:	81 a2 08 c0 	fsubd  %f8, %f0, %f0
     580:	91 a0 09 4a 	fmuld  %f0, %f10, %f8
     584:	d1 3f bf e0 	std  %f8, [ %fp + -32 ]
     588:	d1 3f bf e8 	std  %f8, [ %fp + -24 ]
     58c:	40 00 33 95 	call  d3e0 <__fixdfdi>
     590:	d0 1f bf e0 	ldd  [ %fp + -32 ], %o0
     594:	b8 10 00 08 	mov  %o0, %i4
     598:	40 00 33 f0 	call  d558 <__floatdidf>
     59c:	ba 10 00 09 	mov  %o1, %i5
     5a0:	33 00 00 58 	sethi  %hi(0x16000), %i1
     5a4:	d1 1f bf e8 	ldd  [ %fp + -24 ], %f8
     5a8:	d5 1e 63 38 	ldd  [ %i1 + 0x338 ], %f10
     5ac:	81 a2 08 c0 	fsubd  %f8, %f0, %f0
     5b0:	81 a8 0a ca 	fcmped  %f0, %f10
     5b4:	01 00 00 00 	nop 
     5b8:	1d 80 00 29 	fbule  65c <get_components+0x13c>
     5bc:	01 00 00 00 	nop 
     5c0:	86 87 60 01 	addcc  %i5, 1, %g3
     5c4:	84 47 20 00 	addx  %i4, 0, %g2
     5c8:	ba 10 00 03 	mov  %g3, %i5
     5cc:	b8 10 00 02 	mov  %g2, %i4
     5d0:	90 10 00 02 	mov  %g2, %o0
     5d4:	40 00 33 e1 	call  d558 <__floatdidf>
     5d8:	92 10 00 03 	mov  %g3, %o1
     5dc:	d1 1f bf f0 	ldd  [ %fp + -16 ], %f8
     5e0:	81 aa 0a c0 	fcmped  %f8, %f0
     5e4:	01 00 00 00 	nop 
     5e8:	1b 80 00 29 	fble  68c <get_components+0x16c>
     5ec:	86 84 60 01 	addcc  %l1, 1, %g3
     5f0:	80 a6 a0 00 	cmp  %i2, 0
     5f4:	12 80 00 15 	bne  648 <get_components+0x128>
     5f8:	90 10 00 10 	mov  %l0, %o0
     5fc:	40 00 33 d7 	call  d558 <__floatdidf>
     600:	92 10 00 11 	mov  %l1, %o1
     604:	d1 1e 63 38 	ldd  [ %i1 + 0x338 ], %f8
     608:	d5 1f bf f8 	ldd  [ %fp + -8 ], %f10
     60c:	81 a2 88 c0 	fsubd  %f10, %f0, %f0
     610:	81 a8 0a c8 	fcmped  %f0, %f8
     614:	01 00 00 00 	nop 
     618:	19 80 00 05 	fbuge  62c <get_components+0x10c>
     61c:	01 00 00 00 	nop 
     620:	01 00 00 00 	nop 
     624:	1d 80 00 09 	fbule  648 <get_components+0x128>
     628:	01 00 00 00 	nop 
     62c:	84 0c 20 00 	and  %l0, 0, %g2
     630:	86 0c 60 01 	and  %l1, 1, %g3
     634:	84 10 80 03 	or  %g2, %g3, %g2
     638:	80 a0 00 02 	cmp  %g0, %g2
     63c:	82 40 20 00 	addx  %g0, 0, %g1
     640:	a2 84 40 01 	addcc  %l1, %g1, %l1
     644:	a0 44 20 00 	addx  %l0, 0, %l0
     648:	e0 3e c0 00 	std  %l0, [ %i3 ]
     64c:	f8 3e e0 08 	std  %i4, [ %i3 + 8 ]
     650:	e4 2e e0 10 	stb  %l2, [ %i3 + 0x10 ]
     654:	81 c7 e0 0c 	jmp  %i7 + 0xc
     658:	91 e8 00 1b 	restore  %g0, %i3, %o0
     65c:	81 a8 0a 4a 	fcmpd  %f0, %f10
     660:	01 00 00 00 	nop 
     664:	03 bf ff e4 	fbne  5f4 <get_components+0xd4>
     668:	80 a6 a0 00 	cmp  %i2, 0
     66c:	80 97 00 1d 	orcc  %i4, %i5, %g0
     670:	12 80 00 0d 	bne  6a4 <get_components+0x184>
     674:	84 0f 20 00 	and  %i4, 0, %g2
     678:	86 87 60 01 	addcc  %i5, 1, %g3
     67c:	84 47 20 00 	addx  %i4, 0, %g2
     680:	ba 10 00 03 	mov  %g3, %i5
     684:	10 bf ff db 	b  5f0 <get_components+0xd0>
     688:	b8 10 00 02 	mov  %g2, %i4
     68c:	b8 10 20 00 	clr  %i4
     690:	84 44 20 00 	addx  %l0, 0, %g2
     694:	a2 10 00 03 	mov  %g3, %l1
     698:	a0 10 00 02 	mov  %g2, %l0
     69c:	10 bf ff d5 	b  5f0 <get_components+0xd0>
     6a0:	ba 10 20 00 	clr  %i5
     6a4:	86 0f 60 01 	and  %i5, 1, %g3
     6a8:	80 90 80 03 	orcc  %g2, %g3, %g0
     6ac:	22 bf ff d2 	be,a   5f4 <get_components+0xd4>
     6b0:	80 a6 a0 00 	cmp  %i2, 0
     6b4:	10 bf ff f2 	b  67c <get_components+0x15c>
     6b8:	86 87 60 01 	addcc  %i5, 1, %g3

000006bc <putchar_wrapper>:
     6bc:	9d e3 bf a0 	save  %sp, -96, %sp
     6c0:	40 00 0c 02 	call  36c8 <__ajit_serial_putchar_via_bypass__>
     6c4:	90 10 00 18 	mov  %i0, %o0
     6c8:	80 a2 20 00 	cmp  %o0, 0
     6cc:	02 bf ff fd 	be  6c0 <putchar_wrapper+0x4>
     6d0:	01 00 00 00 	nop 
     6d4:	40 00 0a a7 	call  3170 <__ajit_read_serial_control_register_via_bypass__>
     6d8:	01 00 00 00 	nop 
     6dc:	90 0a 20 09 	and  %o0, 9, %o0
     6e0:	80 a2 20 09 	cmp  %o0, 9
     6e4:	02 bf ff fc 	be  6d4 <putchar_wrapper+0x18>
     6e8:	01 00 00 00 	nop 
     6ec:	81 c7 e0 08 	ret 
     6f0:	81 e8 00 00 	restore 

000006f4 <out_rev_>:
     6f4:	9d e3 bf a0 	save  %sp, -96, %sp
     6f8:	80 8f 20 03 	btst  3, %i4
     6fc:	12 80 00 1e 	bne  774 <out_rev_+0x80>
     700:	e0 06 20 0c 	ld  [ %i0 + 0xc ], %l0
     704:	80 a6 80 1b 	cmp  %i2, %i3
     708:	1a 80 00 1c 	bcc  778 <out_rev_+0x84>
     70c:	80 a6 a0 00 	cmp  %i2, 0
     710:	ba 06 a0 01 	add  %i2, 1, %i5
     714:	82 10 00 10 	mov  %l0, %g1
     718:	10 80 00 09 	b  73c <out_rev_+0x48>
     71c:	a2 10 20 20 	mov  0x20, %l1
     720:	9f c0 80 00 	call  %g2
     724:	d2 06 20 04 	ld  [ %i0 + 4 ], %o1
     728:	80 a7 40 1b 	cmp  %i5, %i3
     72c:	02 80 00 13 	be  778 <out_rev_+0x84>
     730:	80 a6 a0 00 	cmp  %i2, 0
     734:	c2 06 20 0c 	ld  [ %i0 + 0xc ], %g1
     738:	ba 07 60 01 	inc  %i5
     73c:	84 00 60 01 	add  %g1, 1, %g2
     740:	c4 26 20 0c 	st  %g2, [ %i0 + 0xc ]
     744:	c4 06 20 10 	ld  [ %i0 + 0x10 ], %g2
     748:	80 a0 80 01 	cmp  %g2, %g1
     74c:	08 bf ff f8 	bleu  72c <out_rev_+0x38>
     750:	80 a7 40 1b 	cmp  %i5, %i3
     754:	c4 06 00 00 	ld  [ %i0 ], %g2
     758:	80 a0 a0 00 	cmp  %g2, 0
     75c:	12 bf ff f1 	bne  720 <out_rev_+0x2c>
     760:	90 10 20 20 	mov  0x20, %o0
     764:	c4 06 20 08 	ld  [ %i0 + 8 ], %g2
     768:	80 a7 40 1b 	cmp  %i5, %i3
     76c:	12 bf ff f2 	bne  734 <out_rev_+0x40>
     770:	e2 28 80 01 	stb  %l1, [ %g2 + %g1 ]
     774:	80 a6 a0 00 	cmp  %i2, 0
     778:	02 80 00 17 	be  7d4 <out_rev_+0xe0>
     77c:	80 8f 20 02 	btst  2, %i4
     780:	c2 06 20 0c 	ld  [ %i0 + 0xc ], %g1
     784:	b4 06 bf ff 	add  %i2, -1, %i2
     788:	84 00 60 01 	add  %g1, 1, %g2
     78c:	d0 0e 40 1a 	ldub  [ %i1 + %i2 ], %o0
     790:	c4 26 20 0c 	st  %g2, [ %i0 + 0xc ]
     794:	c4 06 20 10 	ld  [ %i0 + 0x10 ], %g2
     798:	80 a0 40 02 	cmp  %g1, %g2
     79c:	1a bf ff f7 	bcc  778 <out_rev_+0x84>
     7a0:	80 a6 a0 00 	cmp  %i2, 0
     7a4:	c4 06 00 00 	ld  [ %i0 ], %g2
     7a8:	80 a0 a0 00 	cmp  %g2, 0
     7ac:	22 80 00 1f 	be,a   828 <out_rev_+0x134>
     7b0:	c4 06 20 08 	ld  [ %i0 + 8 ], %g2
     7b4:	91 2a 20 18 	sll  %o0, 0x18, %o0
     7b8:	d2 06 20 04 	ld  [ %i0 + 4 ], %o1
     7bc:	9f c0 80 00 	call  %g2
     7c0:	91 3a 20 18 	sra  %o0, 0x18, %o0
     7c4:	80 a6 a0 00 	cmp  %i2, 0
     7c8:	32 bf ff ef 	bne,a   784 <out_rev_+0x90>
     7cc:	c2 06 20 0c 	ld  [ %i0 + 0xc ], %g1
     7d0:	80 8f 20 02 	btst  2, %i4
     7d4:	02 80 00 1b 	be  840 <out_rev_+0x14c>
     7d8:	ba 10 20 20 	mov  0x20, %i5
     7dc:	c2 06 20 0c 	ld  [ %i0 + 0xc ], %g1
     7e0:	86 20 40 10 	sub  %g1, %l0, %g3
     7e4:	80 a6 c0 03 	cmp  %i3, %g3
     7e8:	08 80 00 16 	bleu  840 <out_rev_+0x14c>
     7ec:	84 00 60 01 	add  %g1, 1, %g2
     7f0:	c4 26 20 0c 	st  %g2, [ %i0 + 0xc ]
     7f4:	c6 06 20 10 	ld  [ %i0 + 0x10 ], %g3
     7f8:	80 a0 c0 01 	cmp  %g3, %g1
     7fc:	28 80 00 0d 	bleu,a   830 <out_rev_+0x13c>
     800:	82 10 00 02 	mov  %g2, %g1
     804:	c4 06 00 00 	ld  [ %i0 ], %g2
     808:	80 a0 a0 00 	cmp  %g2, 0
     80c:	22 80 00 0f 	be,a   848 <out_rev_+0x154>
     810:	c4 06 20 08 	ld  [ %i0 + 8 ], %g2
     814:	90 10 20 20 	mov  0x20, %o0
     818:	9f c0 80 00 	call  %g2
     81c:	d2 06 20 04 	ld  [ %i0 + 4 ], %o1
     820:	10 bf ff f0 	b  7e0 <out_rev_+0xec>
     824:	c2 06 20 0c 	ld  [ %i0 + 0xc ], %g1
     828:	10 bf ff d3 	b  774 <out_rev_+0x80>
     82c:	d0 28 80 01 	stb  %o0, [ %g2 + %g1 ]
     830:	86 20 40 10 	sub  %g1, %l0, %g3
     834:	80 a6 c0 03 	cmp  %i3, %g3
     838:	18 bf ff ee 	bgu  7f0 <out_rev_+0xfc>
     83c:	84 00 60 01 	add  %g1, 1, %g2
     840:	81 c7 e0 08 	ret 
     844:	81 e8 00 00 	restore 
     848:	10 bf ff e5 	b  7dc <out_rev_+0xe8>
     84c:	fa 28 80 01 	stb  %i5, [ %g2 + %g1 ]

00000850 <print_integer>:
     850:	9d e3 bf 80 	save  %sp, -128, %sp
     854:	e6 07 a0 5c 	ld  [ %fp + 0x5c ], %l3
     858:	80 96 40 1a 	orcc  %i1, %i2, %g0
     85c:	12 80 00 4f 	bne  998 <print_integer+0x148>
     860:	e4 07 a0 60 	ld  [ %fp + 0x60 ], %l2
     864:	80 8c a8 00 	btst  0x800, %l2
     868:	02 80 00 a8 	be  b08 <print_integer+0x2b8>
     86c:	80 a7 20 10 	cmp  %i4, 0x10
     870:	22 80 00 c2 	be,a   b78 <print_integer+0x328>
     874:	a4 0c bf ef 	and  %l2, -17, %l2
     878:	82 10 20 01 	mov  1, %g1
     87c:	a0 10 20 00 	clr  %l0
     880:	a2 07 bf e0 	add  %fp, -32, %l1
     884:	80 8c a0 02 	btst  2, %l2
     888:	12 80 00 05 	bne  89c <print_integer+0x4c>
     88c:	94 10 00 10 	mov  %l0, %o2
     890:	80 a4 e0 00 	cmp  %l3, 0
     894:	12 80 00 76 	bne  a6c <print_integer+0x21c>
     898:	80 8c a0 01 	btst  1, %l2
     89c:	80 a2 80 1d 	cmp  %o2, %i5
     8a0:	1a 80 00 0d 	bcc  8d4 <print_integer+0x84>
     8a4:	80 88 60 ff 	btst  0xff, %g1
     8a8:	12 80 00 06 	bne  8c0 <print_integer+0x70>
     8ac:	84 10 20 30 	mov  0x30, %g2
     8b0:	10 80 00 0a 	b  8d8 <print_integer+0x88>
     8b4:	80 a4 00 0a 	cmp  %l0, %o2
     8b8:	1a 80 00 08 	bcc  8d8 <print_integer+0x88>
     8bc:	80 a4 00 0a 	cmp  %l0, %o2
     8c0:	c4 2c 40 0a 	stb  %g2, [ %l1 + %o2 ]
     8c4:	94 02 a0 01 	inc  %o2
     8c8:	80 a2 a0 1f 	cmp  %o2, 0x1f
     8cc:	08 bf ff fb 	bleu  8b8 <print_integer+0x68>
     8d0:	80 a2 80 1d 	cmp  %o2, %i5
     8d4:	80 a4 00 0a 	cmp  %l0, %o2
     8d8:	1a 80 00 05 	bcc  8ec <print_integer+0x9c>
     8dc:	84 40 20 00 	addx  %g0, 0, %g2
     8e0:	80 a7 20 08 	cmp  %i4, 8
     8e4:	22 80 00 02 	be,a   8ec <print_integer+0x9c>
     8e8:	a4 0c bf ef 	and  %l2, -17, %l2
     8ec:	03 00 00 08 	sethi  %hi(0x2000), %g1
     8f0:	82 10 60 10 	or  %g1, 0x10, %g1	! 2010 <_vsnprintf+0x67c>
     8f4:	80 8c 80 01 	btst  %l2, %g1
     8f8:	02 80 00 16 	be  950 <print_integer+0x100>
     8fc:	80 a2 a0 1f 	cmp  %o2, 0x1f
     900:	80 8c a8 00 	btst  0x800, %l2
     904:	02 80 00 4a 	be  a2c <print_integer+0x1dc>
     908:	80 a2 a0 00 	cmp  %o2, 0
     90c:	80 a7 20 10 	cmp  %i4, 0x10
     910:	02 80 00 90 	be  b50 <print_integer+0x300>
     914:	80 a2 a0 1f 	cmp  %o2, 0x1f
     918:	18 80 00 07 	bgu  934 <print_integer+0xe4>
     91c:	80 a7 20 02 	cmp  %i4, 2
     920:	12 80 00 05 	bne  934 <print_integer+0xe4>
     924:	82 07 80 0a 	add  %fp, %o2, %g1
     928:	84 10 20 62 	mov  0x62, %g2
     92c:	94 02 a0 01 	inc  %o2
     930:	c4 28 7f e0 	stb  %g2, [ %g1 + -32 ]
     934:	80 a2 a0 1f 	cmp  %o2, 0x1f
     938:	18 80 00 11 	bgu  97c <print_integer+0x12c>
     93c:	82 07 80 0a 	add  %fp, %o2, %g1
     940:	84 10 20 30 	mov  0x30, %g2
     944:	94 02 a0 01 	inc  %o2
     948:	c4 28 7f e0 	stb  %g2, [ %g1 + -32 ]
     94c:	80 a2 a0 1f 	cmp  %o2, 0x1f
     950:	18 80 00 0b 	bgu  97c <print_integer+0x12c>
     954:	80 a6 e0 00 	cmp  %i3, 0
     958:	12 80 00 61 	bne  adc <print_integer+0x28c>
     95c:	80 8c a0 04 	btst  4, %l2
     960:	12 80 00 71 	bne  b24 <print_integer+0x2d4>
     964:	80 8c a0 08 	btst  8, %l2
     968:	02 80 00 05 	be  97c <print_integer+0x12c>
     96c:	82 07 80 0a 	add  %fp, %o2, %g1
     970:	84 10 20 20 	mov  0x20, %g2
     974:	94 02 a0 01 	inc  %o2
     978:	c4 28 7f e0 	stb  %g2, [ %g1 + -32 ]
     97c:	90 10 00 18 	mov  %i0, %o0
     980:	92 10 00 11 	mov  %l1, %o1
     984:	96 10 00 13 	mov  %l3, %o3
     988:	7f ff ff 5b 	call  6f4 <out_rev_>
     98c:	98 10 00 12 	mov  %l2, %o4
     990:	81 c7 e0 08 	ret 
     994:	81 e8 00 00 	restore 
     998:	82 0c a0 20 	and  %l2, 0x20, %g1
     99c:	a0 10 20 00 	clr  %l0
     9a0:	80 a0 00 01 	cmp  %g0, %g1
     9a4:	a2 07 bf e0 	add  %fp, -32, %l1
     9a8:	a8 40 3f ff 	addx  %g0, -1, %l4
     9ac:	a8 0d 20 20 	and  %l4, 0x20, %l4
     9b0:	10 80 00 12 	b  9f8 <print_integer+0x1a8>
     9b4:	a8 05 20 41 	add  %l4, 0x41, %l4
     9b8:	d2 2c 40 10 	stb  %o1, [ %l1 + %l0 ]
     9bc:	90 10 00 19 	mov  %i1, %o0
     9c0:	92 10 00 1a 	mov  %i2, %o1
     9c4:	94 10 20 00 	clr  %o2
     9c8:	40 00 34 d2 	call  dd10 <__udivdi3>
     9cc:	96 10 00 1c 	mov  %i4, %o3
     9d0:	a0 04 20 01 	inc  %l0
     9d4:	80 a4 20 20 	cmp  %l0, 0x20
     9d8:	b2 10 00 08 	mov  %o0, %i1
     9dc:	82 40 20 00 	addx  %g0, 0, %g1
     9e0:	80 88 60 ff 	btst  0xff, %g1
     9e4:	02 bf ff a8 	be  884 <print_integer+0x34>
     9e8:	b4 10 00 09 	mov  %o1, %i2
     9ec:	80 96 40 09 	orcc  %i1, %o1, %g0
     9f0:	02 bf ff a6 	be  888 <print_integer+0x38>
     9f4:	80 8c a0 02 	btst  2, %l2
     9f8:	90 10 00 19 	mov  %i1, %o0
     9fc:	92 10 00 1a 	mov  %i2, %o1
     a00:	94 10 20 00 	clr  %o2
     a04:	40 00 35 90 	call  e044 <__umoddi3>
     a08:	96 10 00 1c 	mov  %i4, %o3
     a0c:	83 2a 60 18 	sll  %o1, 0x18, %g1
     a10:	83 38 60 18 	sra  %g1, 0x18, %g1
     a14:	80 a0 60 09 	cmp  %g1, 9
     a18:	24 bf ff e8 	ble,a   9b8 <print_integer+0x168>
     a1c:	92 02 60 30 	add  %o1, 0x30, %o1
     a20:	92 02 7f f6 	add  %o1, -10, %o1
     a24:	10 bf ff e5 	b  9b8 <print_integer+0x168>
     a28:	92 02 40 14 	add  %o1, %l4, %o1
     a2c:	02 bf ff b9 	be  910 <print_integer+0xc0>
     a30:	80 a7 20 10 	cmp  %i4, 0x10
     a34:	80 a2 80 13 	cmp  %o2, %l3
     a38:	02 80 00 06 	be  a50 <print_integer+0x200>
     a3c:	80 a0 a0 00 	cmp  %g2, 0
     a40:	80 a7 40 0a 	cmp  %i5, %o2
     a44:	12 bf ff b3 	bne  910 <print_integer+0xc0>
     a48:	80 a7 20 10 	cmp  %i4, 0x10
     a4c:	80 a0 a0 00 	cmp  %g2, 0
     a50:	02 80 00 55 	be  ba4 <print_integer+0x354>
     a54:	80 a7 20 02 	cmp  %i4, 2
     a58:	82 82 bf ff 	addcc  %o2, -1, %g1
     a5c:	12 80 00 58 	bne  bbc <print_integer+0x36c>
     a60:	80 a7 20 02 	cmp  %i4, 2
     a64:	10 bf ff aa 	b  90c <print_integer+0xbc>
     a68:	94 10 20 00 	clr  %o2
     a6c:	02 bf ff 8d 	be  8a0 <print_integer+0x50>
     a70:	80 a2 80 1d 	cmp  %o2, %i5
     a74:	80 a6 e0 00 	cmp  %i3, 0
     a78:	32 80 00 05 	bne,a   a8c <print_integer+0x23c>
     a7c:	a6 04 ff ff 	add  %l3, -1, %l3
     a80:	80 8c a0 0c 	btst  0xc, %l2
     a84:	32 80 00 02 	bne,a   a8c <print_integer+0x23c>
     a88:	a6 04 ff ff 	add  %l3, -1, %l3
     a8c:	80 a4 00 13 	cmp  %l0, %l3
     a90:	1a 80 00 55 	bcc  be4 <print_integer+0x394>
     a94:	80 88 60 ff 	btst  0xff, %g1
     a98:	02 80 00 53 	be  be4 <print_integer+0x394>
     a9c:	84 10 20 30 	mov  0x30, %g2
     aa0:	82 07 80 10 	add  %fp, %l0, %g1
     aa4:	94 04 20 01 	add  %l0, 1, %o2
     aa8:	10 80 00 06 	b  ac0 <print_integer+0x270>
     aac:	c4 28 7f e0 	stb  %g2, [ %g1 + -32 ]
     ab0:	1a bf ff 7c 	bcc  8a0 <print_integer+0x50>
     ab4:	80 a2 80 1d 	cmp  %o2, %i5
     ab8:	c4 2c 40 0a 	stb  %g2, [ %l1 + %o2 ]
     abc:	94 02 a0 01 	inc  %o2
     ac0:	80 a2 a0 20 	cmp  %o2, 0x20
     ac4:	82 40 20 00 	addx  %g0, 0, %g1
     ac8:	80 88 60 ff 	btst  0xff, %g1
     acc:	32 bf ff f9 	bne,a   ab0 <print_integer+0x260>
     ad0:	80 a2 80 13 	cmp  %o2, %l3
     ad4:	10 bf ff 73 	b  8a0 <print_integer+0x50>
     ad8:	80 a2 80 1d 	cmp  %o2, %i5
     adc:	82 07 80 0a 	add  %fp, %o2, %g1
     ae0:	84 10 20 2d 	mov  0x2d, %g2
     ae4:	94 02 a0 01 	inc  %o2
     ae8:	c4 28 7f e0 	stb  %g2, [ %g1 + -32 ]
     aec:	90 10 00 18 	mov  %i0, %o0
     af0:	92 10 00 11 	mov  %l1, %o1
     af4:	96 10 00 13 	mov  %l3, %o3
     af8:	7f ff fe ff 	call  6f4 <out_rev_>
     afc:	98 10 00 12 	mov  %l2, %o4
     b00:	81 c7 e0 08 	ret 
     b04:	81 e8 00 00 	restore 
     b08:	82 10 20 30 	mov  0x30, %g1
     b0c:	a4 0c bf ef 	and  %l2, -17, %l2
     b10:	c2 2f bf e0 	stb  %g1, [ %fp + -32 ]
     b14:	a0 10 20 01 	mov  1, %l0
     b18:	82 10 20 01 	mov  1, %g1
     b1c:	10 bf ff 5a 	b  884 <print_integer+0x34>
     b20:	a2 07 bf e0 	add  %fp, -32, %l1
     b24:	82 07 80 0a 	add  %fp, %o2, %g1
     b28:	84 10 20 2b 	mov  0x2b, %g2
     b2c:	94 02 a0 01 	inc  %o2
     b30:	c4 28 7f e0 	stb  %g2, [ %g1 + -32 ]
     b34:	90 10 00 18 	mov  %i0, %o0
     b38:	92 10 00 11 	mov  %l1, %o1
     b3c:	96 10 00 13 	mov  %l3, %o3
     b40:	7f ff fe ed 	call  6f4 <out_rev_>
     b44:	98 10 00 12 	mov  %l2, %o4
     b48:	81 c7 e0 08 	ret 
     b4c:	81 e8 00 00 	restore 
     b50:	80 8c a0 20 	btst  0x20, %l2
     b54:	12 80 00 0d 	bne  b88 <print_integer+0x338>
     b58:	80 a2 a0 1f 	cmp  %o2, 0x1f
     b5c:	18 bf ff 89 	bgu  980 <print_integer+0x130>
     b60:	90 10 00 18 	mov  %i0, %o0
     b64:	82 07 80 0a 	add  %fp, %o2, %g1
     b68:	84 10 20 78 	mov  0x78, %g2
     b6c:	94 02 a0 01 	inc  %o2
     b70:	10 bf ff 71 	b  934 <print_integer+0xe4>
     b74:	c4 28 7f e0 	stb  %g2, [ %g1 + -32 ]
     b78:	82 10 20 01 	mov  1, %g1
     b7c:	a0 10 20 00 	clr  %l0
     b80:	10 bf ff 41 	b  884 <print_integer+0x34>
     b84:	a2 07 bf e0 	add  %fp, -32, %l1
     b88:	18 bf ff 7e 	bgu  980 <print_integer+0x130>
     b8c:	90 10 00 18 	mov  %i0, %o0
     b90:	82 07 80 0a 	add  %fp, %o2, %g1
     b94:	84 10 20 58 	mov  0x58, %g2
     b98:	94 02 a0 01 	inc  %o2
     b9c:	10 bf ff 66 	b  934 <print_integer+0xe4>
     ba0:	c4 28 7f e0 	stb  %g2, [ %g1 + -32 ]
     ba4:	02 bf ff 5b 	be  910 <print_integer+0xc0>
     ba8:	80 a7 20 10 	cmp  %i4, 0x10
     bac:	02 bf ff 59 	be  910 <print_integer+0xc0>
     bb0:	82 10 00 0a 	mov  %o2, %g1
     bb4:	10 bf ff 60 	b  934 <print_integer+0xe4>
     bb8:	94 10 00 01 	mov  %g1, %o2
     bbc:	02 80 00 06 	be  bd4 <print_integer+0x384>
     bc0:	80 a4 00 01 	cmp  %l0, %g1
     bc4:	80 a7 20 10 	cmp  %i4, 0x10
     bc8:	32 bf ff 5b 	bne,a   934 <print_integer+0xe4>
     bcc:	94 10 00 01 	mov  %g1, %o2
     bd0:	80 a4 00 01 	cmp  %l0, %g1
     bd4:	0a bf ff 4e 	bcs  90c <print_integer+0xbc>
     bd8:	94 02 bf fe 	add  %o2, -2, %o2
     bdc:	10 bf ff 4c 	b  90c <print_integer+0xbc>
     be0:	94 10 00 01 	mov  %g1, %o2
     be4:	10 bf ff 2e 	b  89c <print_integer+0x4c>
     be8:	94 10 00 10 	mov  %l0, %o2

00000bec <print_broken_up_decimal.isra.4>:
     bec:	9d e3 bf a0 	save  %sp, -96, %sp
     bf0:	e0 07 a0 5c 	ld  [ %fp + 0x5c ], %l0
     bf4:	a2 10 00 1a 	mov  %i2, %l1
     bf8:	a6 10 00 1b 	mov  %i3, %l3
     bfc:	a8 10 00 1c 	mov  %i4, %l4
     c00:	f6 07 a0 60 	ld  [ %fp + 0x60 ], %i3
     c04:	f8 07 a0 64 	ld  [ %fp + 0x64 ], %i4
     c08:	e4 07 a0 68 	ld  [ %fp + 0x68 ], %l2
     c0c:	80 a4 20 00 	cmp  %l0, 0
     c10:	02 80 00 73 	be  ddc <print_broken_up_decimal.isra.4+0x1f0>
     c14:	f4 07 a0 6c 	ld  [ %fp + 0x6c ], %i2
     c18:	03 00 00 04 	sethi  %hi(0x1000), %g1
     c1c:	84 10 60 10 	or  %g1, 0x10, %g2	! 1010 <print_exponential_number+0xf4>
     c20:	84 0f 00 02 	and  %i4, %g2, %g2
     c24:	80 a0 80 01 	cmp  %g2, %g1
     c28:	02 80 00 90 	be  e68 <print_broken_up_decimal.isra.4+0x27c>
     c2c:	80 a4 60 00 	cmp  %l1, 0
     c30:	80 a6 a0 1f 	cmp  %i2, 0x1f
     c34:	18 80 00 57 	bgu  d90 <print_broken_up_decimal.isra.4+0x1a4>
     c38:	94 10 20 00 	clr  %o2
     c3c:	96 10 20 0a 	mov  0xa, %o3
     c40:	90 10 00 11 	mov  %l1, %o0
     c44:	40 00 33 43 	call  d950 <__moddi3>
     c48:	92 10 00 13 	mov  %l3, %o1
     c4c:	92 02 60 30 	add  %o1, 0x30, %o1
     c50:	90 10 00 11 	mov  %l1, %o0
     c54:	d2 2c 80 1a 	stb  %o1, [ %l2 + %i2 ]
     c58:	94 10 20 00 	clr  %o2
     c5c:	96 10 20 0a 	mov  0xa, %o3
     c60:	10 80 00 0f 	b  c9c <print_broken_up_decimal.isra.4+0xb0>
     c64:	92 10 00 13 	mov  %l3, %o1
     c68:	90 10 00 13 	mov  %l3, %o0
     c6c:	94 10 20 00 	clr  %o2
     c70:	80 a6 a0 20 	cmp  %i2, 0x20
     c74:	02 80 00 47 	be  d90 <print_broken_up_decimal.isra.4+0x1a4>
     c78:	96 10 20 0a 	mov  0xa, %o3
     c7c:	40 00 33 35 	call  d950 <__moddi3>
     c80:	01 00 00 00 	nop 
     c84:	92 02 60 30 	add  %o1, 0x30, %o1
     c88:	90 10 00 13 	mov  %l3, %o0
     c8c:	d2 2c 80 1a 	stb  %o1, [ %l2 + %i2 ]
     c90:	94 10 20 00 	clr  %o2
     c94:	96 10 20 0a 	mov  0xa, %o3
     c98:	92 10 00 11 	mov  %l1, %o1
     c9c:	40 00 32 44 	call  d5ac <__divdi3>
     ca0:	a0 04 3f ff 	add  %l0, -1, %l0
     ca4:	a6 10 00 08 	mov  %o0, %l3
     ca8:	a2 10 00 09 	mov  %o1, %l1
     cac:	80 94 c0 09 	orcc  %l3, %o1, %g0
     cb0:	12 bf ff ee 	bne  c68 <print_broken_up_decimal.isra.4+0x7c>
     cb4:	b4 06 a0 01 	inc  %i2
     cb8:	80 a6 a0 1f 	cmp  %i2, 0x1f
     cbc:	18 80 00 0e 	bgu  cf4 <print_broken_up_decimal.isra.4+0x108>
     cc0:	80 a4 20 00 	cmp  %l0, 0
     cc4:	02 80 00 0c 	be  cf4 <print_broken_up_decimal.isra.4+0x108>
     cc8:	82 10 20 30 	mov  0x30, %g1
     ccc:	10 80 00 06 	b  ce4 <print_broken_up_decimal.isra.4+0xf8>
     cd0:	c2 2c 80 1a 	stb  %g1, [ %l2 + %i2 ]
     cd4:	80 a4 20 00 	cmp  %l0, 0
     cd8:	02 80 00 08 	be  cf8 <print_broken_up_decimal.isra.4+0x10c>
     cdc:	80 a6 a0 1f 	cmp  %i2, 0x1f
     ce0:	c2 2c 80 1a 	stb  %g1, [ %l2 + %i2 ]
     ce4:	b4 06 a0 01 	inc  %i2
     ce8:	80 a6 a0 1f 	cmp  %i2, 0x1f
     cec:	08 bf ff fa 	bleu  cd4 <print_broken_up_decimal.isra.4+0xe8>
     cf0:	a0 04 3f ff 	add  %l0, -1, %l0
     cf4:	80 a6 a0 1f 	cmp  %i2, 0x1f
     cf8:	18 80 00 27 	bgu  d94 <print_broken_up_decimal.isra.4+0x1a8>
     cfc:	82 0f 20 03 	and  %i4, 3, %g1
     d00:	82 10 20 2e 	mov  0x2e, %g1
     d04:	c2 2c 80 1a 	stb  %g1, [ %l2 + %i2 ]
     d08:	b4 06 a0 01 	inc  %i2
     d0c:	80 a6 a0 1f 	cmp  %i2, 0x1f
     d10:	18 80 00 20 	bgu  d90 <print_broken_up_decimal.isra.4+0x1a4>
     d14:	94 10 20 00 	clr  %o2
     d18:	96 10 20 0a 	mov  0xa, %o3
     d1c:	90 10 00 18 	mov  %i0, %o0
     d20:	40 00 33 0c 	call  d950 <__moddi3>
     d24:	92 10 00 19 	mov  %i1, %o1
     d28:	94 10 20 00 	clr  %o2
     d2c:	82 02 60 30 	add  %o1, 0x30, %g1
     d30:	96 10 20 0a 	mov  0xa, %o3
     d34:	90 10 00 18 	mov  %i0, %o0
     d38:	92 10 00 19 	mov  %i1, %o1
     d3c:	10 80 00 0f 	b  d78 <print_broken_up_decimal.isra.4+0x18c>
     d40:	c2 2c 80 1a 	stb  %g1, [ %l2 + %i2 ]
     d44:	90 10 00 11 	mov  %l1, %o0
     d48:	94 10 20 00 	clr  %o2
     d4c:	80 a6 a0 20 	cmp  %i2, 0x20
     d50:	02 80 00 10 	be  d90 <print_broken_up_decimal.isra.4+0x1a4>
     d54:	96 10 20 0a 	mov  0xa, %o3
     d58:	40 00 32 fe 	call  d950 <__moddi3>
     d5c:	01 00 00 00 	nop 
     d60:	92 02 60 30 	add  %o1, 0x30, %o1
     d64:	90 10 00 11 	mov  %l1, %o0
     d68:	d2 2c 80 1a 	stb  %o1, [ %l2 + %i2 ]
     d6c:	94 10 20 00 	clr  %o2
     d70:	96 10 20 0a 	mov  0xa, %o3
     d74:	92 10 00 10 	mov  %l0, %o1
     d78:	40 00 32 0d 	call  d5ac <__divdi3>
     d7c:	b4 06 a0 01 	inc  %i2
     d80:	a2 10 00 08 	mov  %o0, %l1
     d84:	80 94 40 09 	orcc  %l1, %o1, %g0
     d88:	12 bf ff ef 	bne  d44 <print_broken_up_decimal.isra.4+0x158>
     d8c:	a0 10 00 09 	mov  %o1, %l0
     d90:	82 0f 20 03 	and  %i4, 3, %g1
     d94:	80 a0 60 01 	cmp  %g1, 1
     d98:	02 80 00 1d 	be  e0c <print_broken_up_decimal.isra.4+0x220>
     d9c:	80 a6 e0 00 	cmp  %i3, 0
     da0:	80 a6 a0 1f 	cmp  %i2, 0x1f
     da4:	18 80 00 0b 	bgu  dd0 <print_broken_up_decimal.isra.4+0x1e4>
     da8:	80 a5 20 00 	cmp  %l4, 0
     dac:	12 80 00 13 	bne  df8 <print_broken_up_decimal.isra.4+0x20c>
     db0:	82 10 20 2d 	mov  0x2d, %g1
     db4:	80 8f 20 04 	btst  4, %i4
     db8:	12 80 00 4d 	bne  eec <print_broken_up_decimal.isra.4+0x300>
     dbc:	80 8f 20 08 	btst  8, %i4
     dc0:	02 80 00 04 	be  dd0 <print_broken_up_decimal.isra.4+0x1e4>
     dc4:	82 10 20 20 	mov  0x20, %g1
     dc8:	c2 2c 80 1a 	stb  %g1, [ %l2 + %i2 ]
     dcc:	b4 06 a0 01 	inc  %i2
     dd0:	b0 10 00 1d 	mov  %i5, %i0
     dd4:	7f ff fe 48 	call  6f4 <out_rev_>
     dd8:	93 e8 00 12 	restore  %g0, %l2, %o1
     ddc:	80 8f 20 10 	btst  0x10, %i4
     de0:	02 bf ff cc 	be  d10 <print_broken_up_decimal.isra.4+0x124>
     de4:	80 a6 a0 1f 	cmp  %i2, 0x1f
     de8:	28 bf ff c7 	bleu,a   d04 <print_broken_up_decimal.isra.4+0x118>
     dec:	82 10 20 2e 	mov  0x2e, %g1
     df0:	10 bf ff e9 	b  d94 <print_broken_up_decimal.isra.4+0x1a8>
     df4:	82 0f 20 03 	and  %i4, 3, %g1
     df8:	b0 10 00 1d 	mov  %i5, %i0
     dfc:	c2 2c 80 1a 	stb  %g1, [ %l2 + %i2 ]
     e00:	b2 10 00 12 	mov  %l2, %i1
     e04:	7f ff fe 3c 	call  6f4 <out_rev_>
     e08:	95 ee a0 01 	restore  %i2, 1, %o2
     e0c:	02 bf ff e6 	be  da4 <print_broken_up_decimal.isra.4+0x1b8>
     e10:	80 a6 a0 1f 	cmp  %i2, 0x1f
     e14:	80 a5 20 00 	cmp  %l4, 0
     e18:	32 80 00 05 	bne,a   e2c <print_broken_up_decimal.isra.4+0x240>
     e1c:	b6 06 ff ff 	add  %i3, -1, %i3
     e20:	80 8f 20 0c 	btst  0xc, %i4
     e24:	32 80 00 02 	bne,a   e2c <print_broken_up_decimal.isra.4+0x240>
     e28:	b6 06 ff ff 	add  %i3, -1, %i3
     e2c:	80 a6 80 1b 	cmp  %i2, %i3
     e30:	1a bf ff dc 	bcc  da0 <print_broken_up_decimal.isra.4+0x1b4>
     e34:	80 a6 a0 1f 	cmp  %i2, 0x1f
     e38:	18 bf ff db 	bgu  da4 <print_broken_up_decimal.isra.4+0x1b8>
     e3c:	82 10 20 30 	mov  0x30, %g1
     e40:	10 80 00 05 	b  e54 <print_broken_up_decimal.isra.4+0x268>
     e44:	c2 2c 80 1a 	stb  %g1, [ %l2 + %i2 ]
     e48:	1a bf ff d7 	bcc  da4 <print_broken_up_decimal.isra.4+0x1b8>
     e4c:	80 a6 a0 1f 	cmp  %i2, 0x1f
     e50:	c2 2c 80 1a 	stb  %g1, [ %l2 + %i2 ]
     e54:	b4 06 a0 01 	inc  %i2
     e58:	80 a6 a0 1f 	cmp  %i2, 0x1f
     e5c:	28 bf ff fb 	bleu,a   e48 <print_broken_up_decimal.isra.4+0x25c>
     e60:	80 a6 80 1b 	cmp  %i2, %i3
     e64:	30 bf ff d0 	b,a   da4 <print_broken_up_decimal.isra.4+0x1b8>
     e68:	04 80 00 27 	ble  f04 <print_broken_up_decimal.isra.4+0x318>
     e6c:	80 a4 60 00 	cmp  %l1, 0
     e70:	90 10 00 11 	mov  %l1, %o0
     e74:	92 10 00 13 	mov  %l3, %o1
     e78:	94 10 20 00 	clr  %o2
     e7c:	40 00 32 b5 	call  d950 <__moddi3>
     e80:	96 10 20 0a 	mov  0xa, %o3
     e84:	80 92 00 09 	orcc  %o0, %o1, %g0
     e88:	12 bf ff 6b 	bne  c34 <print_broken_up_decimal.isra.4+0x48>
     e8c:	80 a6 a0 1f 	cmp  %i2, 0x1f
     e90:	94 10 20 00 	clr  %o2
     e94:	96 10 20 0a 	mov  0xa, %o3
     e98:	90 10 00 11 	mov  %l1, %o0
     e9c:	40 00 31 c4 	call  d5ac <__divdi3>
     ea0:	92 10 00 13 	mov  %l3, %o1
     ea4:	94 10 20 00 	clr  %o2
     ea8:	a2 10 00 08 	mov  %o0, %l1
     eac:	a6 10 00 09 	mov  %o1, %l3
     eb0:	96 10 20 0a 	mov  0xa, %o3
     eb4:	40 00 32 a7 	call  d950 <__moddi3>
     eb8:	a0 04 3f ff 	add  %l0, -1, %l0
     ebc:	80 92 00 09 	orcc  %o0, %o1, %g0
     ec0:	02 bf ff f5 	be  e94 <print_broken_up_decimal.isra.4+0x2a8>
     ec4:	94 10 20 00 	clr  %o2
     ec8:	80 a4 60 00 	cmp  %l1, 0
     ecc:	14 bf ff 5a 	bg  c34 <print_broken_up_decimal.isra.4+0x48>
     ed0:	80 a6 a0 1f 	cmp  %i2, 0x1f
     ed4:	80 a4 60 00 	cmp  %l1, 0
     ed8:	12 bf ff 8d 	bne  d0c <print_broken_up_decimal.isra.4+0x120>
     edc:	80 a4 e0 00 	cmp  %l3, 0
     ee0:	12 bf ff 55 	bne  c34 <print_broken_up_decimal.isra.4+0x48>
     ee4:	80 a6 a0 1f 	cmp  %i2, 0x1f
     ee8:	30 bf ff 8a 	b,a   d10 <print_broken_up_decimal.isra.4+0x124>
     eec:	82 10 20 2b 	mov  0x2b, %g1
     ef0:	b0 10 00 1d 	mov  %i5, %i0
     ef4:	c2 2c 80 1a 	stb  %g1, [ %l2 + %i2 ]
     ef8:	b2 10 00 12 	mov  %l2, %i1
     efc:	7f ff fd fe 	call  6f4 <out_rev_>
     f00:	95 ee a0 01 	restore  %i2, 1, %o2
     f04:	12 bf ff 82 	bne  d0c <print_broken_up_decimal.isra.4+0x120>
     f08:	80 a4 e0 00 	cmp  %l3, 0
     f0c:	12 bf ff da 	bne  e74 <print_broken_up_decimal.isra.4+0x288>
     f10:	90 10 00 11 	mov  %l1, %o0
     f14:	10 bf ff 7f 	b  d10 <print_broken_up_decimal.isra.4+0x124>
     f18:	80 a6 a0 1f 	cmp  %i2, 0x1f

00000f1c <print_exponential_number>:
     f1c:	9d e3 bf 40 	save  %sp, -192, %sp
     f20:	84 10 00 19 	mov  %i1, %g2
     f24:	86 10 00 1a 	mov  %i2, %g3
     f28:	c4 3f bf c8 	std  %g2, [ %fp + -56 ]
     f2c:	ad 36 60 1f 	srl  %i1, 0x1f, %l6
     f30:	a8 10 00 1b 	mov  %i3, %l4
     f34:	82 8d a0 ff 	andcc  %l6, 0xff, %g1
     f38:	02 80 00 03 	be  f44 <print_exponential_number+0x28>
     f3c:	d1 1f bf c8 	ldd  [ %fp + -56 ], %f8
     f40:	91 a0 00 a8 	fnegs  %f8, %f8
     f44:	09 00 00 58 	sethi  %hi(0x16000), %g4
     f48:	d5 19 23 48 	ldd  [ %g4 + 0x348 ], %f10	! 16348 <__clz_tab+0x110>
     f4c:	81 aa 0a 4a 	fcmpd  %f8, %f10
     f50:	01 00 00 00 	nop 
     f54:	33 80 00 e8 	fbe,a   12f4 <print_exponential_number+0x3d8>
     f58:	88 10 20 01 	mov  1, %g4	! 1 <_start+0x1>
     f5c:	d1 3f bf c0 	std  %f8, [ %fp + -64 ]
     f60:	19 00 03 ff 	sethi  %hi(0xffc00), %o4
     f64:	f4 1f bf c0 	ldd  [ %fp + -64 ], %i2
     f68:	98 13 23 ff 	or  %o4, 0x3ff, %o4
     f6c:	05 0f fc 00 	sethi  %hi(0x3ff00000), %g2
     f70:	98 0e 80 0c 	and  %i2, %o4, %o4
     f74:	84 13 00 02 	or  %o4, %g2, %g2
     f78:	1b 3f ff ff 	sethi  %hi(0xfffffc00), %o5
     f7c:	86 10 20 00 	clr  %g3
     f80:	9a 13 63 ff 	or  %o5, 0x3ff, %o5
     f84:	9a 0e c0 0d 	and  %i3, %o5, %o5
     f88:	86 13 40 03 	or  %o5, %g3, %g3
     f8c:	c4 3f bf c8 	std  %g2, [ %fp + -56 ]
     f90:	05 00 00 58 	sethi  %hi(0x16000), %g2
     f94:	e1 1f bf c8 	ldd  [ %fp + -56 ], %f16
     f98:	37 00 00 58 	sethi  %hi(0x16000), %i3
     f9c:	dd 1e e3 50 	ldd  [ %i3 + 0x350 ], %f14	! 16350 <__clz_tab+0x118>
     fa0:	99 a4 08 ce 	fsubd  %f16, %f14, %f12
     fa4:	e1 18 a3 58 	ldd  [ %g2 + 0x358 ], %f16
     fa8:	05 00 00 58 	sethi  %hi(0x16000), %g2
     fac:	e5 18 a3 60 	ldd  [ %g2 + 0x360 ], %f18	! 16360 <__clz_tab+0x128>
     fb0:	9d a3 09 4c 	fmuld  %f12, %f12, %f14
     fb4:	a1 a3 09 50 	fmuld  %f12, %f16, %f16
     fb8:	05 00 00 58 	sethi  %hi(0x16000), %g2
     fbc:	a1 a4 08 52 	faddd  %f16, %f18, %f16
     fc0:	37 00 00 58 	sethi  %hi(0x16000), %i3
     fc4:	e5 18 a3 68 	ldd  [ %g2 + 0x368 ], %f18
     fc8:	a5 a3 89 52 	fmuld  %f14, %f18, %f18
     fcc:	87 36 a0 14 	srl  %i2, 0x14, %g3
     fd0:	a1 a4 08 d2 	fsubd  %f16, %f18, %f16
     fd4:	86 08 e7 ff 	and  %g3, 0x7ff, %g3
     fd8:	e5 1e e3 70 	ldd  [ %i3 + 0x370 ], %f18
     fdc:	b6 00 fc 01 	add  %g3, -1023, %i3
     fe0:	f6 27 bf bc 	st  %i3, [ %fp + -68 ]
     fe4:	99 a3 09 4e 	fmuld  %f12, %f14, %f12
     fe8:	05 00 00 58 	sethi  %hi(0x16000), %g2
     fec:	99 a3 09 52 	fmuld  %f12, %f18, %f12
     ff0:	dd 18 a3 78 	ldd  [ %g2 + 0x378 ], %f14
     ff4:	99 a4 08 4c 	faddd  %f16, %f12, %f12
     ff8:	e1 07 bf bc 	ld  [ %fp + -68 ], %f16
     ffc:	a1 a0 19 10 	fitod  %f16, %f16
    1000:	a1 a4 09 4e 	fmuld  %f16, %f14, %f16
    1004:	99 a3 08 50 	faddd  %f12, %f16, %f12
    1008:	81 ab 0a ca 	fcmped  %f12, %f10
    100c:	01 00 00 00 	nop 
    1010:	07 80 01 49 	fbul  1534 <print_exponential_number+0x618>
    1014:	01 00 00 00 	nop 
    1018:	95 a0 1a 4c 	fdtoi  %f12, %f10
    101c:	d5 27 bf bc 	st  %f10, [ %fp + -68 ]
    1020:	ea 07 bf bc 	ld  [ %fp + -68 ], %l5
    1024:	80 a5 7e cc 	cmp  %l5, -308
    1028:	02 80 01 b6 	be  1700 <print_exponential_number+0x7e4>
    102c:	05 00 00 58 	sethi  %hi(0x16000), %g2
    1030:	ea 27 bf bc 	st  %l5, [ %fp + -68 ]
    1034:	e1 07 bf bc 	ld  [ %fp + -68 ], %f16
    1038:	d9 18 a3 80 	ldd  [ %g2 + 0x380 ], %f12
    103c:	9d a0 19 10 	fitod  %f16, %f14
    1040:	d5 19 23 48 	ldd  [ %g4 + 0x348 ], %f10
    1044:	99 a3 89 4c 	fmuld  %f14, %f12, %f12
    1048:	05 00 00 58 	sethi  %hi(0x16000), %g2
    104c:	e1 18 a3 38 	ldd  [ %g2 + 0x338 ], %f16	! 16338 <__clz_tab+0x100>
    1050:	99 a3 08 50 	faddd  %f12, %f16, %f12
    1054:	81 ab 0a ca 	fcmped  %f12, %f10
    1058:	01 00 00 00 	nop 
    105c:	07 80 01 9d 	fbul  16d0 <print_exponential_number+0x7b4>
    1060:	01 00 00 00 	nop 
    1064:	a3 a0 1a 4c 	fdtoi  %f12, %f17
    1068:	e3 27 bf bc 	st  %f17, [ %fp + -68 ]
    106c:	a1 a0 19 11 	fitod  %f17, %f16
    1070:	c4 07 bf bc 	ld  [ %fp + -68 ], %g2
    1074:	07 00 00 58 	sethi  %hi(0x16000), %g3
    1078:	d5 18 e3 88 	ldd  [ %g3 + 0x388 ], %f10	! 16388 <__clz_tab+0x150>
    107c:	09 00 00 58 	sethi  %hi(0x16000), %g4
    1080:	9d a3 89 4a 	fmuld  %f14, %f10, %f14
    1084:	07 00 00 58 	sethi  %hi(0x16000), %g3
    1088:	d5 18 e3 90 	ldd  [ %g3 + 0x390 ], %f10	! 16390 <__clz_tab+0x158>
    108c:	a1 a4 09 4a 	fmuld  %f16, %f10, %f16
    1090:	95 a3 88 d0 	fsubd  %f14, %f16, %f10
    1094:	e1 19 23 98 	ldd  [ %g4 + 0x398 ], %f16
    1098:	09 00 00 58 	sethi  %hi(0x16000), %g4
    109c:	99 a2 89 4a 	fmuld  %f10, %f10, %f12
    10a0:	9d a2 88 4a 	faddd  %f10, %f10, %f14
    10a4:	95 a4 08 ca 	fsubd  %f16, %f10, %f10
    10a8:	e1 19 23 a0 	ldd  [ %g4 + 0x3a0 ], %f16
    10ac:	09 00 00 58 	sethi  %hi(0x16000), %g4
    10b0:	e5 19 23 a8 	ldd  [ %g4 + 0x3a8 ], %f18	! 163a8 <__clz_tab+0x170>
    10b4:	a1 a3 09 d0 	fdivd  %f12, %f16, %f16
    10b8:	09 00 00 58 	sethi  %hi(0x16000), %g4
    10bc:	a1 a4 08 52 	faddd  %f16, %f18, %f16
    10c0:	e5 19 23 b0 	ldd  [ %g4 + 0x3b0 ], %f18
    10c4:	a1 a3 09 d0 	fdivd  %f12, %f16, %f16
    10c8:	a1 a4 08 52 	faddd  %f16, %f18, %f16
    10cc:	9a 80 a3 ff 	addcc  %g2, 0x3ff, %o5
    10d0:	99 a3 09 d0 	fdivd  %f12, %f16, %f12
    10d4:	85 2b 60 14 	sll  %o5, 0x14, %g2
    10d8:	86 10 20 00 	clr  %g3
    10dc:	95 a2 88 4c 	faddd  %f10, %f12, %f10
    10e0:	09 00 00 58 	sethi  %hi(0x16000), %g4
    10e4:	95 a3 89 ca 	fdivd  %f14, %f10, %f10
    10e8:	c4 3f bf c8 	std  %g2, [ %fp + -56 ]
    10ec:	dd 19 23 b8 	ldd  [ %g4 + 0x3b8 ], %f14
    10f0:	e1 1f bf c8 	ldd  [ %fp + -56 ], %f16
    10f4:	95 a2 88 4e 	faddd  %f10, %f14, %f10
    10f8:	95 a2 89 50 	fmuld  %f10, %f16, %f10
    10fc:	81 aa 0a ca 	fcmped  %f8, %f10
    1100:	01 00 00 00 	nop 
    1104:	19 80 00 06 	fbuge  111c <print_exponential_number+0x200>
    1108:	01 00 00 00 	nop 
    110c:	05 00 00 58 	sethi  %hi(0x16000), %g2
    1110:	aa 05 7f ff 	add  %l5, -1, %l5
    1114:	d9 18 a3 a8 	ldd  [ %g2 + 0x3a8 ], %f12
    1118:	95 a2 89 cc 	fdivd  %f10, %f12, %f10
    111c:	84 05 60 11 	add  %l5, 0x11, %g2
    1120:	80 a0 a0 22 	cmp  %g2, 0x22
    1124:	18 80 01 00 	bgu  1524 <print_exponential_number+0x608>
    1128:	99 a0 00 2a 	fmovs  %f10, %f12
    112c:	85 3d 60 1f 	sra  %l5, 0x1f, %g2
    1130:	80 a0 00 15 	cmp  %g0, %l5
    1134:	86 18 80 15 	xor  %g2, %l5, %g3
    1138:	84 20 c0 02 	sub  %g3, %g2, %g2
    113c:	85 28 a0 03 	sll  %g2, 3, %g2
    1140:	88 60 3f ff 	subx  %g0, -1, %g4
    1144:	37 00 00 54 	sethi  %hi(0x15000), %i3
    1148:	b6 16 e0 00 	mov  %i3, %i3	! 15000 <powers_of_10>
    114c:	d9 1e c0 02 	ldd  [ %i3 + %g2 ], %f12
    1150:	05 00 00 04 	sethi  %hi(0x1000), %g2
    1154:	80 8f 40 02 	btst  %i5, %g2
    1158:	12 80 00 6d 	bne  130c <print_exponential_number+0x3f0>
    115c:	87 35 60 1f 	srl  %l5, 0x1f, %g3
    1160:	b2 10 20 00 	clr  %i1
    1164:	80 89 20 ff 	btst  0xff, %g4
    1168:	02 80 00 cf 	be  14a4 <print_exponential_number+0x588>
    116c:	80 a0 60 00 	cmp  %g1, 0
    1170:	32 80 00 8d 	bne,a   13a4 <print_exponential_number+0x488>
    1174:	91 a0 00 a8 	fnegs  %f8, %f8
    1178:	82 07 bf e8 	add  %fp, -24, %g1
    117c:	d1 3f bf c8 	std  %f8, [ %fp + -56 ]
    1180:	c2 23 a0 40 	st  %g1, [ %sp + 0x40 ]
    1184:	d0 1f bf c8 	ldd  [ %fp + -56 ], %o0
    1188:	94 10 00 14 	mov  %l4, %o2
    118c:	7f ff fc e5 	call  520 <get_components>
    1190:	01 00 00 00 	nop 
    1194:	00 00 00 18 	unimp  0x18
    1198:	80 a6 60 00 	cmp  %i1, 0
    119c:	f4 1f bf e8 	ldd  [ %fp + -24 ], %i2
    11a0:	e2 07 bf f0 	ld  [ %fp + -16 ], %l1
    11a4:	e0 07 bf f4 	ld  [ %fp + -12 ], %l0
    11a8:	02 80 00 8d 	be  13dc <print_exponential_number+0x4c0>
    11ac:	ec 0f bf f8 	ldub  [ %fp + -8 ], %l6
    11b0:	03 00 00 04 	sethi  %hi(0x1000), %g1
    11b4:	80 8f 40 01 	btst  %i5, %g1
    11b8:	12 80 00 a2 	bne  1440 <print_exponential_number+0x524>
    11bc:	80 a5 7f ff 	cmp  %l5, -1
    11c0:	90 10 00 1a 	mov  %i2, %o0
    11c4:	96 10 00 10 	mov  %l0, %o3
    11c8:	94 10 00 11 	mov  %l1, %o2
    11cc:	b4 0f 60 02 	and  %i5, 2, %i2
    11d0:	92 10 00 1b 	mov  %i3, %o1
    11d4:	a0 10 20 00 	clr  %l0
    11d8:	80 a7 00 10 	cmp  %i4, %l0
    11dc:	18 80 00 70 	bgu  139c <print_exponential_number+0x480>
    11e0:	82 10 20 00 	clr  %g1
    11e4:	c2 23 a0 60 	st  %g1, [ %sp + 0x60 ]
    11e8:	c2 07 a0 5c 	ld  [ %fp + 0x5c ], %g1
    11ec:	c2 23 a0 68 	st  %g1, [ %sp + 0x68 ]
    11f0:	c2 07 a0 60 	ld  [ %fp + 0x60 ], %g1
    11f4:	f6 06 20 0c 	ld  [ %i0 + 0xc ], %i3
    11f8:	e8 23 a0 5c 	st  %l4, [ %sp + 0x5c ]
    11fc:	fa 23 a0 64 	st  %i5, [ %sp + 0x64 ]
    1200:	c2 23 a0 6c 	st  %g1, [ %sp + 0x6c ]
    1204:	98 0d a0 ff 	and  %l6, 0xff, %o4
    1208:	7f ff fe 79 	call  bec <print_broken_up_decimal.isra.4>
    120c:	9a 10 00 18 	mov  %i0, %o5
    1210:	80 a6 60 00 	cmp  %i1, 0
    1214:	12 80 00 5d 	bne  1388 <print_exponential_number+0x46c>
    1218:	ba 0f 60 20 	and  %i5, 0x20, %i5
    121c:	c4 06 20 0c 	ld  [ %i0 + 0xc ], %g2
    1220:	82 00 a0 01 	add  %g2, 1, %g1
    1224:	c6 06 20 10 	ld  [ %i0 + 0x10 ], %g3
    1228:	c2 26 20 0c 	st  %g1, [ %i0 + 0xc ]
    122c:	80 a0 00 1d 	cmp  %g0, %i5
    1230:	82 40 3f ff 	addx  %g0, -1, %g1
    1234:	82 08 60 20 	and  %g1, 0x20, %g1
    1238:	80 a0 80 03 	cmp  %g2, %g3
    123c:	86 00 60 45 	add  %g1, 0x45, %g3
    1240:	1a 80 00 09 	bcc  1264 <print_exponential_number+0x348>
    1244:	82 10 00 03 	mov  %g3, %g1
    1248:	c8 06 00 00 	ld  [ %i0 ], %g4
    124c:	80 a1 20 00 	cmp  %g4, 0
    1250:	02 80 01 18 	be  16b0 <print_exponential_number+0x794>
    1254:	91 28 60 18 	sll  %g1, 0x18, %o0
    1258:	d2 06 20 04 	ld  [ %i0 + 4 ], %o1
    125c:	9f c1 00 00 	call  %g4
    1260:	91 3a 20 18 	sra  %o0, 0x18, %o0
    1264:	86 10 00 15 	mov  %l5, %g3
    1268:	80 a5 60 00 	cmp  %l5, 0
    126c:	04 80 00 bb 	ble  1558 <print_exponential_number+0x63c>
    1270:	85 3d 60 1f 	sra  %l5, 0x1f, %g2
    1274:	82 10 20 05 	mov  5, %g1
    1278:	a0 04 3f ff 	add  %l0, -1, %l0
    127c:	c2 23 a0 60 	st  %g1, [ %sp + 0x60 ]
    1280:	e0 23 a0 5c 	st  %l0, [ %sp + 0x5c ]
    1284:	90 10 00 18 	mov  %i0, %o0
    1288:	92 10 00 02 	mov  %g2, %o1
    128c:	94 10 00 03 	mov  %g3, %o2
    1290:	97 35 60 1f 	srl  %l5, 0x1f, %o3
    1294:	98 10 20 0a 	mov  0xa, %o4
    1298:	7f ff fd 6e 	call  850 <print_integer>
    129c:	9a 10 20 00 	clr  %o5
    12a0:	80 a6 a0 00 	cmp  %i2, 0
    12a4:	02 80 00 39 	be  1388 <print_exponential_number+0x46c>
    12a8:	ba 10 20 20 	mov  0x20, %i5
    12ac:	c2 06 20 0c 	ld  [ %i0 + 0xc ], %g1
    12b0:	86 20 40 1b 	sub  %g1, %i3, %g3
    12b4:	80 a7 00 03 	cmp  %i4, %g3
    12b8:	08 80 00 34 	bleu  1388 <print_exponential_number+0x46c>
    12bc:	84 00 60 01 	add  %g1, 1, %g2
    12c0:	c4 26 20 0c 	st  %g2, [ %i0 + 0xc ]
    12c4:	c6 06 20 10 	ld  [ %i0 + 0x10 ], %g3
    12c8:	80 a0 c0 01 	cmp  %g3, %g1
    12cc:	28 80 00 2b 	bleu,a   1378 <print_exponential_number+0x45c>
    12d0:	82 10 00 02 	mov  %g2, %g1
    12d4:	c4 06 00 00 	ld  [ %i0 ], %g2
    12d8:	80 a0 a0 00 	cmp  %g2, 0
    12dc:	02 80 00 2d 	be  1390 <print_exponential_number+0x474>
    12e0:	90 10 20 20 	mov  0x20, %o0
    12e4:	9f c0 80 00 	call  %g2
    12e8:	d2 06 20 04 	ld  [ %i0 + 4 ], %o1
    12ec:	10 bf ff f1 	b  12b0 <print_exponential_number+0x394>
    12f0:	c2 06 20 0c 	ld  [ %i0 + 0xc ], %g1
    12f4:	86 10 20 00 	clr  %g3
    12f8:	aa 10 20 00 	clr  %l5
    12fc:	05 00 00 04 	sethi  %hi(0x1000), %g2
    1300:	80 8f 40 02 	btst  %i5, %g2
    1304:	02 bf ff 98 	be  1164 <print_exponential_number+0x248>
    1308:	b2 10 20 00 	clr  %i1
    130c:	80 a5 20 00 	cmp  %l4, 0
    1310:	12 80 00 04 	bne  1320 <print_exponential_number+0x404>
    1314:	84 10 00 14 	mov  %l4, %g2
    1318:	84 10 20 00 	clr  %g2
    131c:	a8 10 20 01 	mov  1, %l4
    1320:	80 a5 40 14 	cmp  %l5, %l4
    1324:	16 80 00 41 	bge  1428 <print_exponential_number+0x50c>
    1328:	b2 10 20 01 	mov  1, %i1
    132c:	80 a5 7f fc 	cmp  %l5, -4
    1330:	06 80 00 54 	bl  1480 <print_exponential_number+0x564>
    1334:	b6 10 20 01 	mov  1, %i3
    1338:	b2 0e 40 1b 	and  %i1, %i3, %i1
    133c:	b2 8e 60 ff 	andcc  %i1, 0xff, %i1
    1340:	02 80 00 03 	be  134c <print_exponential_number+0x430>
    1344:	84 00 bf ff 	add  %g2, -1, %g2
    1348:	84 20 80 15 	sub  %g2, %l5, %g2
    134c:	a8 38 00 02 	xnor  %g0, %g2, %l4
    1350:	ba 17 68 00 	or  %i5, 0x800, %i5
    1354:	a9 3d 20 1f 	sra  %l4, 0x1f, %l4
    1358:	80 a6 60 00 	cmp  %i1, 0
    135c:	02 bf ff 82 	be  1164 <print_exponential_number+0x248>
    1360:	a8 08 80 14 	and  %g2, %l4, %l4
    1364:	80 a0 60 00 	cmp  %g1, 0
    1368:	02 bf ff 85 	be  117c <print_exponential_number+0x260>
    136c:	82 07 bf e8 	add  %fp, -24, %g1
    1370:	10 80 00 0e 	b  13a8 <print_exponential_number+0x48c>
    1374:	91 a0 00 a8 	fnegs  %f8, %f8
    1378:	86 20 40 1b 	sub  %g1, %i3, %g3
    137c:	80 a7 00 03 	cmp  %i4, %g3
    1380:	18 bf ff d0 	bgu  12c0 <print_exponential_number+0x3a4>
    1384:	84 00 60 01 	add  %g1, 1, %g2
    1388:	81 c7 e0 08 	ret 
    138c:	81 e8 00 00 	restore 
    1390:	c4 06 20 08 	ld  [ %i0 + 8 ], %g2
    1394:	10 bf ff c6 	b  12ac <print_exponential_number+0x390>
    1398:	fa 28 80 01 	stb  %i5, [ %g2 + %g1 ]
    139c:	10 bf ff 92 	b  11e4 <print_exponential_number+0x2c8>
    13a0:	82 27 00 10 	sub  %i4, %l0, %g1
    13a4:	82 07 bf e8 	add  %fp, -24, %g1
    13a8:	d1 3f bf c8 	std  %f8, [ %fp + -56 ]
    13ac:	c2 23 a0 40 	st  %g1, [ %sp + 0x40 ]
    13b0:	d0 1f bf c8 	ldd  [ %fp + -56 ], %o0
    13b4:	94 10 00 14 	mov  %l4, %o2
    13b8:	7f ff fc 5a 	call  520 <get_components>
    13bc:	01 00 00 00 	nop 
    13c0:	00 00 00 18 	unimp  0x18
    13c4:	80 a6 60 00 	cmp  %i1, 0
    13c8:	f4 1f bf e8 	ldd  [ %fp + -24 ], %i2
    13cc:	e2 07 bf f0 	ld  [ %fp + -16 ], %l1
    13d0:	e0 07 bf f4 	ld  [ %fp + -12 ], %l0
    13d4:	12 bf ff 77 	bne  11b0 <print_exponential_number+0x294>
    13d8:	ec 0f bf f8 	ldub  [ %fp + -8 ], %l6
    13dc:	90 10 00 1a 	mov  %i2, %o0
    13e0:	94 10 00 11 	mov  %l1, %o2
    13e4:	92 10 00 1b 	mov  %i3, %o1
    13e8:	80 a2 20 00 	cmp  %o0, 0
    13ec:	14 80 00 48 	bg  150c <print_exponential_number+0x5f0>
    13f0:	96 10 00 10 	mov  %l0, %o3
    13f4:	80 a2 20 00 	cmp  %o0, 0
    13f8:	02 80 00 aa 	be  16a0 <print_exponential_number+0x784>
    13fc:	80 a2 60 09 	cmp  %o1, 9
    1400:	82 05 60 63 	add  %l5, 0x63, %g1
    1404:	80 a0 60 c6 	cmp  %g1, 0xc6
    1408:	18 80 00 03 	bgu  1414 <print_exponential_number+0x4f8>
    140c:	a0 10 20 05 	mov  5, %l0
    1410:	a0 10 20 04 	mov  4, %l0
    1414:	b4 8f 60 02 	andcc  %i5, 2, %i2
    1418:	12 bf ff 73 	bne  11e4 <print_exponential_number+0x2c8>
    141c:	82 10 20 00 	clr  %g1
    1420:	10 bf ff 6f 	b  11dc <print_exponential_number+0x2c0>
    1424:	80 a7 00 10 	cmp  %i4, %l0
    1428:	b2 10 20 00 	clr  %i1
    142c:	80 a5 7f fc 	cmp  %l5, -4
    1430:	16 bf ff c2 	bge  1338 <print_exponential_number+0x41c>
    1434:	b6 10 20 01 	mov  1, %i3
    1438:	10 80 00 13 	b  1484 <print_exponential_number+0x568>
    143c:	b6 10 20 00 	clr  %i3
    1440:	06 bf ff 60 	bl  11c0 <print_exponential_number+0x2a4>
    1444:	90 10 00 1a 	mov  %i2, %o0
    1448:	40 00 30 44 	call  d558 <__floatdidf>
    144c:	92 10 00 1b 	mov  %i3, %o1
    1450:	a4 05 60 01 	add  %l5, 1, %l2
    1454:	05 00 00 54 	sethi  %hi(0x15000), %g2
    1458:	83 2c a0 03 	sll  %l2, 3, %g1
    145c:	84 10 a0 00 	mov  %g2, %g2
    1460:	d1 18 80 01 	ldd  [ %g2 + %g1 ], %f8
    1464:	81 a8 0a 48 	fcmpd  %f0, %f8
    1468:	01 00 00 00 	nop 
    146c:	03 bf ff 56 	fbne  11c4 <print_exponential_number+0x2a8>
    1470:	90 10 00 1a 	mov  %i2, %o0
    1474:	a8 05 3f ff 	add  %l4, -1, %l4
    1478:	10 bf ff 53 	b  11c4 <print_exponential_number+0x2a8>
    147c:	aa 10 00 12 	mov  %l2, %l5
    1480:	b6 10 20 00 	clr  %i3
    1484:	b2 0e 40 1b 	and  %i1, %i3, %i1
    1488:	b2 8e 60 ff 	andcc  %i1, 0xff, %i1
    148c:	02 bf ff b0 	be  134c <print_exponential_number+0x430>
    1490:	84 00 bf ff 	add  %g2, -1, %g2
    1494:	10 bf ff ae 	b  134c <print_exponential_number+0x430>
    1498:	84 20 80 15 	sub  %g2, %l5, %g2
    149c:	81 c7 e0 08 	ret 
    14a0:	81 e8 00 00 	restore 
    14a4:	b6 88 e0 ff 	andcc  %g3, 0xff, %i3
    14a8:	02 80 00 3d 	be  159c <print_exponential_number+0x680>
    14ac:	84 25 00 15 	sub  %l4, %l5, %g2
    14b0:	80 a0 a1 32 	cmp  %g2, 0x132
    14b4:	04 80 00 3d 	ble  15a8 <print_exponential_number+0x68c>
    14b8:	95 a2 09 4c 	fmuld  %f8, %f12, %f10
    14bc:	80 a0 60 00 	cmp  %g1, 0
    14c0:	32 80 00 02 	bne,a   14c8 <print_exponential_number+0x5ac>
    14c4:	95 a0 00 aa 	fnegs  %f10, %f10
    14c8:	82 07 bf e8 	add  %fp, -24, %g1
    14cc:	d5 3f bf c8 	std  %f10, [ %fp + -56 ]
    14d0:	c2 23 a0 40 	st  %g1, [ %sp + 0x40 ]
    14d4:	d0 1f bf c8 	ldd  [ %fp + -56 ], %o0
    14d8:	94 10 00 14 	mov  %l4, %o2
    14dc:	7f ff fc 11 	call  520 <get_components>
    14e0:	01 00 00 00 	nop 
    14e4:	00 00 00 18 	unimp  0x18
    14e8:	e0 1f bf e8 	ldd  [ %fp + -24 ], %l0
    14ec:	f4 1f bf f0 	ldd  [ %fp + -16 ], %i2
    14f0:	ec 0f bf f8 	ldub  [ %fp + -8 ], %l6
    14f4:	90 10 00 10 	mov  %l0, %o0
    14f8:	92 10 00 11 	mov  %l1, %o1
    14fc:	94 10 00 1a 	mov  %i2, %o2
    1500:	80 a2 20 00 	cmp  %o0, 0
    1504:	04 bf ff bd 	ble  13f8 <print_exponential_number+0x4dc>
    1508:	96 10 00 1b 	mov  %i3, %o3
    150c:	aa 05 60 01 	inc  %l5
    1510:	94 10 20 00 	clr  %o2
    1514:	96 10 20 00 	clr  %o3
    1518:	90 10 20 00 	clr  %o0
    151c:	10 bf ff b9 	b  1400 <print_exponential_number+0x4e4>
    1520:	92 10 20 01 	mov  1, %o1
    1524:	9b a0 00 2b 	fmovs  %f11, %f13
    1528:	88 10 20 00 	clr  %g4
    152c:	10 bf ff 74 	b  12fc <print_exponential_number+0x3e0>
    1530:	86 10 20 00 	clr  %g3
    1534:	97 a0 1a 4c 	fdtoi  %f12, %f11
    1538:	d7 27 bf bc 	st  %f11, [ %fp + -68 ]
    153c:	95 a0 19 0b 	fitod  %f11, %f10
    1540:	81 ab 0a 4a 	fcmpd  %f12, %f10
    1544:	01 00 00 00 	nop 
    1548:	13 bf fe b7 	fbe  1024 <print_exponential_number+0x108>
    154c:	ea 07 bf bc 	ld  [ %fp + -68 ], %l5
    1550:	10 bf fe b5 	b  1024 <print_exponential_number+0x108>
    1554:	aa 05 7f ff 	add  %l5, -1, %l5
    1558:	86 a0 00 15 	subcc  %g0, %l5, %g3
    155c:	82 10 20 05 	mov  5, %g1
    1560:	84 60 00 02 	subx  %g0, %g2, %g2
    1564:	a0 04 3f ff 	add  %l0, -1, %l0
    1568:	c2 23 a0 60 	st  %g1, [ %sp + 0x60 ]
    156c:	e0 23 a0 5c 	st  %l0, [ %sp + 0x5c ]
    1570:	90 10 00 18 	mov  %i0, %o0
    1574:	92 10 00 02 	mov  %g2, %o1
    1578:	94 10 00 03 	mov  %g3, %o2
    157c:	97 35 60 1f 	srl  %l5, 0x1f, %o3
    1580:	98 10 20 0a 	mov  0xa, %o4
    1584:	7f ff fc b3 	call  850 <print_integer>
    1588:	9a 10 20 00 	clr  %o5
    158c:	80 a6 a0 00 	cmp  %i2, 0
    1590:	12 bf ff 47 	bne  12ac <print_exponential_number+0x390>
    1594:	ba 10 20 20 	mov  0x20, %i5
    1598:	30 bf ff c1 	b,a   149c <print_exponential_number+0x580>
    159c:	80 a0 a1 32 	cmp  %g2, 0x132
    15a0:	14 bf ff c7 	bg  14bc <print_exponential_number+0x5a0>
    15a4:	95 a2 09 cc 	fdivd  %f8, %f12, %f10
    15a8:	d5 3f bf c8 	std  %f10, [ %fp + -56 ]
    15ac:	d1 3f bf d8 	std  %f8, [ %fp + -40 ]
    15b0:	d9 3f bf d0 	std  %f12, [ %fp + -48 ]
    15b4:	40 00 2f 8b 	call  d3e0 <__fixdfdi>
    15b8:	d0 1f bf c8 	ldd  [ %fp + -56 ], %o0
    15bc:	a0 10 00 08 	mov  %o0, %l0
    15c0:	40 00 2f e6 	call  d558 <__floatdidf>
    15c4:	a2 10 00 09 	mov  %o1, %l1
    15c8:	80 a6 e0 00 	cmp  %i3, 0
    15cc:	d1 1f bf d8 	ldd  [ %fp + -40 ], %f8
    15d0:	02 80 00 4f 	be  170c <print_exponential_number+0x7f0>
    15d4:	d9 1f bf d0 	ldd  [ %fp + -48 ], %f12
    15d8:	81 a0 09 cc 	fdivd  %f0, %f12, %f0
    15dc:	83 2d 20 03 	sll  %l4, 3, %g1
    15e0:	05 00 00 54 	sethi  %hi(0x15000), %g2
    15e4:	91 a2 08 c0 	fsubd  %f8, %f0, %f8
    15e8:	84 10 a0 00 	mov  %g2, %g2
    15ec:	d5 18 80 01 	ldd  [ %g2 + %g1 ], %f10
    15f0:	d5 3f bf e0 	std  %f10, [ %fp + -32 ]
    15f4:	99 a3 09 4a 	fmuld  %f12, %f10, %f12
    15f8:	91 a2 09 4c 	fmuld  %f8, %f12, %f8
    15fc:	d1 3f bf c8 	std  %f8, [ %fp + -56 ]
    1600:	d1 3f bf d8 	std  %f8, [ %fp + -40 ]
    1604:	40 00 2f 77 	call  d3e0 <__fixdfdi>
    1608:	d0 1f bf c8 	ldd  [ %fp + -56 ], %o0
    160c:	a4 10 00 08 	mov  %o0, %l2
    1610:	40 00 2f d2 	call  d558 <__floatdidf>
    1614:	a6 10 00 09 	mov  %o1, %l3
    1618:	d1 1f bf d8 	ldd  [ %fp + -40 ], %f8
    161c:	03 00 00 58 	sethi  %hi(0x16000), %g1
    1620:	81 a2 08 c0 	fsubd  %f8, %f0, %f0
    1624:	84 10 20 00 	clr  %g2
    1628:	d1 18 63 38 	ldd  [ %g1 + 0x338 ], %f8
    162c:	81 a8 0a c8 	fcmped  %f0, %f8
    1630:	01 00 00 00 	nop 
    1634:	17 80 00 05 	fbge  1648 <print_exponential_number+0x72c>
    1638:	86 10 20 01 	mov  1, %g3	! 1 <_start+0x1>
    163c:	84 10 20 00 	clr  %g2
    1640:	86 10 20 00 	clr  %g3
    1644:	d1 18 63 38 	ldd  [ %g1 + 0x338 ], %f8
    1648:	b6 84 c0 03 	addcc  %l3, %g3, %i3
    164c:	81 a8 0a 48 	fcmpd  %f0, %f8
    1650:	01 00 00 00 	nop 
    1654:	03 80 00 04 	fbne  1664 <print_exponential_number+0x748>
    1658:	b4 44 80 02 	addx  %l2, %g2, %i2
    165c:	b4 0e bf ff 	and  %i2, -1, %i2
    1660:	b6 0e ff fe 	and  %i3, -2, %i3
    1664:	90 10 00 1a 	mov  %i2, %o0
    1668:	40 00 2f bc 	call  d558 <__floatdidf>
    166c:	92 10 00 1b 	mov  %i3, %o1
    1670:	d9 1f bf e0 	ldd  [ %fp + -32 ], %f12
    1674:	81 a8 0a cc 	fcmped  %f0, %f12
    1678:	01 00 00 00 	nop 
    167c:	07 bf ff 9e 	fbul  14f4 <print_exponential_number+0x5d8>
    1680:	01 00 00 00 	nop 
    1684:	86 84 60 01 	addcc  %l1, 1, %g3
    1688:	b4 10 20 00 	clr  %i2
    168c:	84 44 20 00 	addx  %l0, 0, %g2
    1690:	a2 10 00 03 	mov  %g3, %l1
    1694:	a0 10 00 02 	mov  %g2, %l0
    1698:	10 bf ff 97 	b  14f4 <print_exponential_number+0x5d8>
    169c:	b6 10 20 00 	clr  %i3
    16a0:	08 bf ff 59 	bleu  1404 <print_exponential_number+0x4e8>
    16a4:	82 05 60 63 	add  %l5, 0x63, %g1
    16a8:	10 bf ff 9a 	b  1510 <print_exponential_number+0x5f4>
    16ac:	aa 05 60 01 	inc  %l5
    16b0:	c2 06 20 08 	ld  [ %i0 + 8 ], %g1
    16b4:	c6 28 40 02 	stb  %g3, [ %g1 + %g2 ]
    16b8:	80 a5 60 00 	cmp  %l5, 0
    16bc:	86 10 00 15 	mov  %l5, %g3
    16c0:	14 bf fe ed 	bg  1274 <print_exponential_number+0x358>
    16c4:	85 3d 60 1f 	sra  %l5, 0x1f, %g2
    16c8:	10 bf ff a5 	b  155c <print_exponential_number+0x640>
    16cc:	86 a0 00 15 	subcc  %g0, %l5, %g3
    16d0:	97 a0 1a 4c 	fdtoi  %f12, %f11
    16d4:	d7 27 bf bc 	st  %f11, [ %fp + -68 ]
    16d8:	a1 a0 19 0b 	fitod  %f11, %f16
    16dc:	81 ab 0a 50 	fcmpd  %f12, %f16
    16e0:	01 00 00 00 	nop 
    16e4:	13 bf fe 64 	fbe  1074 <print_exponential_number+0x158>
    16e8:	c4 07 bf bc 	ld  [ %fp + -68 ], %g2
    16ec:	84 00 bf ff 	add  %g2, -1, %g2
    16f0:	c4 27 bf bc 	st  %g2, [ %fp + -68 ]
    16f4:	d9 07 bf bc 	ld  [ %fp + -68 ], %f12
    16f8:	10 bf fe 5f 	b  1074 <print_exponential_number+0x158>
    16fc:	a1 a0 19 0c 	fitod  %f12, %f16
    1700:	05 00 00 58 	sethi  %hi(0x16000), %g2
    1704:	10 bf fe 7e 	b  10fc <print_exponential_number+0x1e0>
    1708:	d5 18 a3 40 	ldd  [ %g2 + 0x340 ], %f10	! 16340 <__clz_tab+0x108>
    170c:	83 2d 20 03 	sll  %l4, 3, %g1
    1710:	05 00 00 54 	sethi  %hi(0x15000), %g2
    1714:	d9 27 bf bc 	st  %f12, [ %fp + -68 ]
    1718:	84 10 a0 00 	mov  %g2, %g2
    171c:	e1 18 80 01 	ldd  [ %g2 + %g1 ], %f16
    1720:	c2 07 bf bc 	ld  [ %fp + -68 ], %g1
    1724:	e1 3f bf e0 	std  %f16, [ %fp + -32 ]
    1728:	b7 30 60 14 	srl  %g1, 0x14, %i3
    172c:	c2 07 bf e0 	ld  [ %fp + -32 ], %g1
    1730:	b6 0e e7 ff 	and  %i3, 0x7ff, %i3
    1734:	87 30 60 14 	srl  %g1, 0x14, %g3
    1738:	82 06 fc 01 	add  %i3, -1023, %g1
    173c:	86 08 e7 ff 	and  %g3, 0x7ff, %g3
    1740:	89 38 60 1f 	sra  %g1, 0x1f, %g4
    1744:	84 00 fc 01 	add  %g3, -1023, %g2
    1748:	81 a3 09 40 	fmuld  %f12, %f0, %f0
    174c:	86 19 00 01 	xor  %g4, %g1, %g3
    1750:	83 38 a0 1f 	sra  %g2, 0x1f, %g1
    1754:	88 20 c0 04 	sub  %g3, %g4, %g4
    1758:	84 18 40 02 	xor  %g1, %g2, %g2
    175c:	82 20 80 01 	sub  %g2, %g1, %g1
    1760:	80 a1 00 01 	cmp  %g4, %g1
    1764:	04 80 00 05 	ble  1778 <print_exponential_number+0x85c>
    1768:	91 a2 08 c0 	fsubd  %f8, %f0, %f8
    176c:	99 a3 09 d0 	fdivd  %f12, %f16, %f12
    1770:	10 bf ff a3 	b  15fc <print_exponential_number+0x6e0>
    1774:	91 a2 09 cc 	fdivd  %f8, %f12, %f8
    1778:	d5 1f bf e0 	ldd  [ %fp + -32 ], %f10
    177c:	10 bf ff 9f 	b  15f8 <print_exponential_number+0x6dc>
    1780:	99 a2 89 cc 	fdivd  %f10, %f12, %f12

00001784 <print_floating_point>:
    1784:	9d e3 bf 48 	save  %sp, -184, %sp
    1788:	f2 27 bf c0 	st  %i1, [ %fp + -64 ]
    178c:	f4 27 bf c4 	st  %i2, [ %fp + -60 ]
    1790:	d1 1f bf c0 	ldd  [ %fp + -64 ], %f8
    1794:	81 aa 0a 48 	fcmpd  %f8, %f8
    1798:	01 00 00 00 	nop 
    179c:	03 80 00 40 	fbne  189c <print_floating_point+0x118>
    17a0:	c6 0f a0 5f 	ldub  [ %fp + 0x5f ], %g3
    17a4:	03 00 00 58 	sethi  %hi(0x16000), %g1
    17a8:	d5 18 63 c0 	ldd  [ %g1 + 0x3c0 ], %f10	! 163c0 <__clz_tab+0x188>
    17ac:	81 aa 0a ca 	fcmped  %f8, %f10
    17b0:	01 00 00 00 	nop 
    17b4:	09 80 00 43 	fbl  18c0 <print_floating_point+0x13c>
    17b8:	03 00 00 58 	sethi  %hi(0x16000), %g1
    17bc:	d5 18 63 c8 	ldd  [ %g1 + 0x3c8 ], %f10	! 163c8 <__clz_tab+0x190>
    17c0:	81 aa 0a ca 	fcmped  %f8, %f10
    17c4:	01 00 00 00 	nop 
    17c8:	1d 80 00 0e 	fbule  1800 <print_floating_point+0x7c>
    17cc:	01 00 00 00 	nop 
    17d0:	80 8f 60 04 	btst  4, %i5
    17d4:	12 80 00 52 	bne  191c <print_floating_point+0x198>
    17d8:	94 10 20 04 	mov  4, %o2
    17dc:	94 10 20 03 	mov  3, %o2
    17e0:	13 00 00 58 	sethi  %hi(0x16000), %o1
    17e4:	90 10 00 18 	mov  %i0, %o0
    17e8:	92 12 63 e8 	or  %o1, 0x3e8, %o1
    17ec:	96 10 00 1c 	mov  %i4, %o3
    17f0:	7f ff fb c1 	call  6f4 <out_rev_>
    17f4:	98 10 00 1d 	mov  %i5, %o4
    17f8:	81 c7 e0 08 	ret 
    17fc:	81 e8 00 00 	restore 
    1800:	80 a0 e0 00 	cmp  %g3, 0
    1804:	02 80 00 38 	be  18e4 <print_floating_point+0x160>
    1808:	03 00 00 58 	sethi  %hi(0x16000), %g1
    180c:	80 8f 68 00 	btst  0x800, %i5
    1810:	02 80 00 4b 	be  193c <print_floating_point+0x1b8>
    1814:	b4 10 20 00 	clr  %i2
    1818:	80 a6 e0 11 	cmp  %i3, 0x11
    181c:	08 80 00 10 	bleu  185c <print_floating_point+0xd8>
    1820:	b2 07 bf e0 	add  %fp, -32, %i1
    1824:	10 80 00 09 	b  1848 <print_floating_point+0xc4>
    1828:	84 10 20 30 	mov  0x30, %g2
    182c:	80 a6 e0 11 	cmp  %i3, 0x11
    1830:	18 80 00 03 	bgu  183c <print_floating_point+0xb8>
    1834:	82 10 20 01 	mov  1, %g1
    1838:	82 10 20 00 	clr  %g1
    183c:	80 88 60 ff 	btst  0xff, %g1
    1840:	02 80 00 08 	be  1860 <print_floating_point+0xdc>
    1844:	80 a0 e0 00 	cmp  %g3, 0
    1848:	c4 2e 40 1a 	stb  %g2, [ %i1 + %i2 ]
    184c:	b4 06 a0 01 	inc  %i2
    1850:	80 a6 a0 1f 	cmp  %i2, 0x1f
    1854:	08 bf ff f6 	bleu  182c <print_floating_point+0xa8>
    1858:	b6 06 ff ff 	add  %i3, -1, %i3
    185c:	80 a0 e0 00 	cmp  %g3, 0
    1860:	02 80 00 3a 	be  1948 <print_floating_point+0x1c4>
    1864:	82 07 bf c8 	add  %fp, -56, %g1
    1868:	f2 23 a0 5c 	st  %i1, [ %sp + 0x5c ]
    186c:	f4 23 a0 60 	st  %i2, [ %sp + 0x60 ]
    1870:	d1 3f bf c0 	std  %f8, [ %fp + -64 ]
    1874:	c4 1f bf c0 	ldd  [ %fp + -64 ], %g2
    1878:	90 10 00 18 	mov  %i0, %o0
    187c:	92 10 00 02 	mov  %g2, %o1
    1880:	94 10 00 03 	mov  %g3, %o2
    1884:	96 10 00 1b 	mov  %i3, %o3
    1888:	98 10 00 1c 	mov  %i4, %o4
    188c:	7f ff fd a4 	call  f1c <print_exponential_number>
    1890:	9a 10 00 1d 	mov  %i5, %o5
    1894:	81 c7 e0 08 	ret 
    1898:	81 e8 00 00 	restore 
    189c:	90 10 00 18 	mov  %i0, %o0
    18a0:	13 00 00 58 	sethi  %hi(0x16000), %o1
    18a4:	94 10 20 03 	mov  3, %o2
    18a8:	92 12 63 f0 	or  %o1, 0x3f0, %o1
    18ac:	96 10 00 1c 	mov  %i4, %o3
    18b0:	7f ff fb 91 	call  6f4 <out_rev_>
    18b4:	98 10 00 1d 	mov  %i5, %o4
    18b8:	81 c7 e0 08 	ret 
    18bc:	81 e8 00 00 	restore 
    18c0:	90 10 00 18 	mov  %i0, %o0
    18c4:	13 00 00 58 	sethi  %hi(0x16000), %o1
    18c8:	94 10 20 04 	mov  4, %o2
    18cc:	92 12 63 f8 	or  %o1, 0x3f8, %o1
    18d0:	96 10 00 1c 	mov  %i4, %o3
    18d4:	7f ff fb 88 	call  6f4 <out_rev_>
    18d8:	98 10 00 1d 	mov  %i5, %o4
    18dc:	81 c7 e0 08 	ret 
    18e0:	81 e8 00 00 	restore 
    18e4:	d5 18 63 d0 	ldd  [ %g1 + 0x3d0 ], %f10
    18e8:	81 aa 0a ca 	fcmped  %f8, %f10
    18ec:	01 00 00 00 	nop 
    18f0:	0d 80 00 07 	fbg  190c <print_floating_point+0x188>
    18f4:	03 00 00 58 	sethi  %hi(0x16000), %g1
    18f8:	d5 18 63 d8 	ldd  [ %g1 + 0x3d8 ], %f10	! 163d8 <__clz_tab+0x1a0>
    18fc:	81 aa 0a ca 	fcmped  %f8, %f10
    1900:	01 00 00 00 	nop 
    1904:	19 bf ff c2 	fbuge  180c <print_floating_point+0x88>
    1908:	01 00 00 00 	nop 
    190c:	82 07 bf e0 	add  %fp, -32, %g1
    1910:	c0 23 a0 60 	clr  [ %sp + 0x60 ]
    1914:	10 bf ff d7 	b  1870 <print_floating_point+0xec>
    1918:	c2 23 a0 5c 	st  %g1, [ %sp + 0x5c ]
    191c:	13 00 00 58 	sethi  %hi(0x16000), %o1
    1920:	90 10 00 18 	mov  %i0, %o0
    1924:	92 12 63 e0 	or  %o1, 0x3e0, %o1
    1928:	96 10 00 1c 	mov  %i4, %o3
    192c:	7f ff fb 72 	call  6f4 <out_rev_>
    1930:	98 10 00 1d 	mov  %i5, %o4
    1934:	81 c7 e0 08 	ret 
    1938:	81 e8 00 00 	restore 
    193c:	b6 10 20 06 	mov  6, %i3
    1940:	10 bf ff c7 	b  185c <print_floating_point+0xd8>
    1944:	b2 07 bf e0 	add  %fp, -32, %i1
    1948:	d1 3f bf c0 	std  %f8, [ %fp + -64 ]
    194c:	94 10 00 1b 	mov  %i3, %o2
    1950:	d0 1f bf c0 	ldd  [ %fp + -64 ], %o0
    1954:	c2 23 a0 40 	st  %g1, [ %sp + 0x40 ]
    1958:	7f ff fa f2 	call  520 <get_components>
    195c:	01 00 00 00 	nop 
    1960:	00 00 00 18 	unimp  0x18
    1964:	d0 1f bf c8 	ldd  [ %fp + -56 ], %o0
    1968:	d8 0f bf d8 	ldub  [ %fp + -40 ], %o4
    196c:	f6 23 a0 5c 	st  %i3, [ %sp + 0x5c ]
    1970:	f8 23 a0 60 	st  %i4, [ %sp + 0x60 ]
    1974:	fa 23 a0 64 	st  %i5, [ %sp + 0x64 ]
    1978:	f2 23 a0 68 	st  %i1, [ %sp + 0x68 ]
    197c:	f4 23 a0 6c 	st  %i2, [ %sp + 0x6c ]
    1980:	d4 1f bf d0 	ldd  [ %fp + -48 ], %o2
    1984:	7f ff fc 9a 	call  bec <print_broken_up_decimal.isra.4>
    1988:	9a 10 00 18 	mov  %i0, %o5
    198c:	81 c7 e0 08 	ret 
    1990:	81 e8 00 00 	restore 

00001994 <_vsnprintf>:
    1994:	9d e3 bf 48 	save  %sp, -184, %sp
    1998:	25 00 00 08 	sethi  %hi(0x2000), %l2
    199c:	27 00 00 59 	sethi  %hi(0x16400), %l3
    19a0:	29 1f ff ff 	sethi  %hi(0x7ffffc00), %l4
    19a4:	2d 00 00 59 	sethi  %hi(0x16400), %l6
    19a8:	2b 00 00 3f 	sethi  %hi(0xfc00), %l5
    19ac:	a4 14 a0 01 	or  %l2, 1, %l2
    19b0:	a6 14 e0 08 	or  %l3, 8, %l3
    19b4:	a8 15 23 ff 	or  %l4, 0x3ff, %l4
    19b8:	ac 15 a0 00 	mov  %l6, %l6
    19bc:	aa 15 63 ff 	or  %l5, 0x3ff, %l5
    19c0:	d0 4e 40 00 	ldsb  [ %i1 ], %o0
    19c4:	80 a2 20 00 	cmp  %o0, 0
    19c8:	02 80 00 17 	be  1a24 <_vsnprintf+0x90>
    19cc:	c6 0e 40 00 	ldub  [ %i1 ], %g3
    19d0:	80 a2 20 25 	cmp  %o0, 0x25
    19d4:	22 80 00 1b 	be,a   1a40 <_vsnprintf+0xac>
    19d8:	b2 06 60 02 	add  %i1, 2, %i1
    19dc:	c2 06 20 0c 	ld  [ %i0 + 0xc ], %g1
    19e0:	84 00 60 01 	add  %g1, 1, %g2
    19e4:	c4 26 20 0c 	st  %g2, [ %i0 + 0xc ]
    19e8:	c4 06 20 10 	ld  [ %i0 + 0x10 ], %g2
    19ec:	80 a0 40 02 	cmp  %g1, %g2
    19f0:	3a 80 00 09 	bcc,a   1a14 <_vsnprintf+0x80>
    19f4:	b2 06 60 01 	inc  %i1
    19f8:	c4 06 00 00 	ld  [ %i0 ], %g2
    19fc:	80 a0 a0 00 	cmp  %g2, 0
    1a00:	22 80 00 67 	be,a   1b9c <_vsnprintf+0x208>
    1a04:	c4 06 20 08 	ld  [ %i0 + 8 ], %g2
    1a08:	9f c0 80 00 	call  %g2
    1a0c:	d2 06 20 04 	ld  [ %i0 + 4 ], %o1
    1a10:	b2 06 60 01 	inc  %i1
    1a14:	d0 4e 40 00 	ldsb  [ %i1 ], %o0
    1a18:	80 a2 20 00 	cmp  %o0, 0
    1a1c:	12 bf ff ed 	bne  19d0 <_vsnprintf+0x3c>
    1a20:	c6 0e 40 00 	ldub  [ %i1 ], %g3
    1a24:	c2 06 00 00 	ld  [ %i0 ], %g1
    1a28:	80 a0 60 00 	cmp  %g1, 0
    1a2c:	22 80 01 ca 	be,a   2154 <_vsnprintf+0x7c0>
    1a30:	c2 06 20 10 	ld  [ %i0 + 0x10 ], %g1
    1a34:	f0 06 20 0c 	ld  [ %i0 + 0xc ], %i0
    1a38:	81 c7 e0 08 	ret 
    1a3c:	81 e8 00 00 	restore 
    1a40:	b6 10 20 00 	clr  %i3
    1a44:	09 00 00 01 	sethi  %hi(0x400), %g4
    1a48:	c2 0e 7f ff 	ldub  [ %i1 + -1 ], %g1
    1a4c:	84 00 7f e0 	add  %g1, -32, %g2
    1a50:	84 08 a0 ff 	and  %g2, 0xff, %g2
    1a54:	80 a0 a0 10 	cmp  %g2, 0x10
    1a58:	08 80 00 3d 	bleu  1b4c <_vsnprintf+0x1b8>
    1a5c:	ba 06 7f ff 	add  %i1, -1, %i5
    1a60:	84 00 7f d0 	add  %g1, -48, %g2
    1a64:	84 08 a0 ff 	and  %g2, 0xff, %g2
    1a68:	80 a0 a0 09 	cmp  %g2, 9
    1a6c:	18 80 00 4f 	bgu  1ba8 <_vsnprintf+0x214>
    1a70:	86 10 00 1d 	mov  %i5, %g3
    1a74:	b8 10 20 00 	clr  %i4
    1a78:	84 07 00 1c 	add  %i4, %i4, %g2
    1a7c:	83 28 60 18 	sll  %g1, 0x18, %g1
    1a80:	83 38 60 18 	sra  %g1, 0x18, %g1
    1a84:	b9 2f 20 03 	sll  %i4, 3, %i4
    1a88:	ba 07 60 01 	inc  %i5
    1a8c:	b8 00 80 1c 	add  %g2, %i4, %i4
    1a90:	b8 07 00 01 	add  %i4, %g1, %i4
    1a94:	c2 0f 40 00 	ldub  [ %i5 ], %g1
    1a98:	84 00 7f d0 	add  %g1, -48, %g2
    1a9c:	84 08 a0 ff 	and  %g2, 0xff, %g2
    1aa0:	80 a0 a0 09 	cmp  %g2, 9
    1aa4:	08 bf ff f5 	bleu  1a78 <_vsnprintf+0xe4>
    1aa8:	b8 07 3f d0 	add  %i4, -48, %i4
    1aac:	85 28 60 18 	sll  %g1, 0x18, %g2
    1ab0:	85 38 a0 18 	sra  %g2, 0x18, %g2
    1ab4:	80 a0 a0 2e 	cmp  %g2, 0x2e
    1ab8:	02 80 00 4d 	be  1bec <_vsnprintf+0x258>
    1abc:	a0 10 20 00 	clr  %l0
    1ac0:	84 00 7f 98 	add  %g1, -104, %g2
    1ac4:	84 08 a0 ff 	and  %g2, 0xff, %g2
    1ac8:	80 a0 a0 12 	cmp  %g2, 0x12
    1acc:	38 80 00 0c 	bgu,a   1afc <_vsnprintf+0x168>
    1ad0:	84 00 7f db 	add  %g1, -37, %g2
    1ad4:	85 28 a0 02 	sll  %g2, 2, %g2
    1ad8:	07 00 00 01 	sethi  %hi(0x400), %g3
    1adc:	86 10 e0 d4 	or  %g3, 0xd4, %g3	! 4d4 <cortos_lock_release+0x1ac>
    1ae0:	c4 00 c0 02 	ld  [ %g3 + %g2 ], %g2
    1ae4:	81 c0 80 00 	jmp  %g2
    1ae8:	01 00 00 00 	nop 
    1aec:	c2 0f 60 01 	ldub  [ %i5 + 1 ], %g1
    1af0:	b6 16 e2 00 	or  %i3, 0x200, %i3
    1af4:	ba 07 60 01 	inc  %i5
    1af8:	84 00 7f db 	add  %g1, -37, %g2
    1afc:	84 08 a0 ff 	and  %g2, 0xff, %g2
    1b00:	80 a0 a0 53 	cmp  %g2, 0x53
    1b04:	08 80 00 35 	bleu  1bd8 <_vsnprintf+0x244>
    1b08:	85 28 a0 02 	sll  %g2, 2, %g2
    1b0c:	c4 06 20 0c 	ld  [ %i0 + 0xc ], %g2
    1b10:	86 00 a0 01 	add  %g2, 1, %g3
    1b14:	c6 26 20 0c 	st  %g3, [ %i0 + 0xc ]
    1b18:	c6 06 20 10 	ld  [ %i0 + 0x10 ], %g3
    1b1c:	80 a0 80 03 	cmp  %g2, %g3
    1b20:	1a bf ff a8 	bcc  19c0 <_vsnprintf+0x2c>
    1b24:	b2 07 60 01 	add  %i5, 1, %i1
    1b28:	c6 06 00 00 	ld  [ %i0 ], %g3
    1b2c:	80 a0 e0 00 	cmp  %g3, 0
    1b30:	02 80 01 fe 	be  2328 <_vsnprintf+0x994>
    1b34:	91 28 60 18 	sll  %g1, 0x18, %o0
    1b38:	d2 06 20 04 	ld  [ %i0 + 4 ], %o1
    1b3c:	9f c0 c0 00 	call  %g3
    1b40:	91 3a 20 18 	sra  %o0, 0x18, %o0
    1b44:	10 bf ff 9f 	b  19c0 <_vsnprintf+0x2c>
    1b48:	b2 07 60 01 	add  %i5, 1, %i1
    1b4c:	86 11 20 90 	or  %g4, 0x90, %g3
    1b50:	85 28 a0 02 	sll  %g2, 2, %g2
    1b54:	c4 00 c0 02 	ld  [ %g3 + %g2 ], %g2
    1b58:	81 c0 80 00 	jmp  %g2
    1b5c:	01 00 00 00 	nop 
    1b60:	b6 16 e0 01 	or  %i3, 1, %i3
    1b64:	10 bf ff b9 	b  1a48 <_vsnprintf+0xb4>
    1b68:	b2 06 60 01 	inc  %i1
    1b6c:	b6 16 e0 02 	or  %i3, 2, %i3
    1b70:	10 bf ff b6 	b  1a48 <_vsnprintf+0xb4>
    1b74:	b2 06 60 01 	inc  %i1
    1b78:	b6 16 e0 04 	or  %i3, 4, %i3
    1b7c:	10 bf ff b3 	b  1a48 <_vsnprintf+0xb4>
    1b80:	b2 06 60 01 	inc  %i1
    1b84:	b6 16 e0 10 	or  %i3, 0x10, %i3
    1b88:	10 bf ff b0 	b  1a48 <_vsnprintf+0xb4>
    1b8c:	b2 06 60 01 	inc  %i1
    1b90:	b6 16 e0 08 	or  %i3, 8, %i3
    1b94:	10 bf ff ad 	b  1a48 <_vsnprintf+0xb4>
    1b98:	b2 06 60 01 	inc  %i1
    1b9c:	b2 06 60 01 	inc  %i1
    1ba0:	10 bf ff 9d 	b  1a14 <_vsnprintf+0x80>
    1ba4:	c6 28 80 01 	stb  %g3, [ %g2 + %g1 ]
    1ba8:	85 28 60 18 	sll  %g1, 0x18, %g2
    1bac:	89 38 a0 18 	sra  %g2, 0x18, %g4
    1bb0:	80 a1 20 2a 	cmp  %g4, 0x2a
    1bb4:	12 bf ff bf 	bne  1ab0 <_vsnprintf+0x11c>
    1bb8:	b8 10 20 00 	clr  %i4
    1bbc:	f8 06 80 00 	ld  [ %i2 ], %i4
    1bc0:	80 a7 20 00 	cmp  %i4, 0
    1bc4:	06 80 01 99 	bl  2228 <_vsnprintf+0x894>
    1bc8:	b4 06 a0 04 	add  %i2, 4, %i2
    1bcc:	c2 08 e0 01 	ldub  [ %g3 + 1 ], %g1
    1bd0:	10 bf ff b7 	b  1aac <_vsnprintf+0x118>
    1bd4:	ba 07 60 01 	inc  %i5
    1bd8:	07 00 00 00 	sethi  %hi(0), %g3
    1bdc:	86 10 e3 40 	or  %g3, 0x340, %g3	! 340 <cortos_lock_release+0x18>
    1be0:	c4 00 c0 02 	ld  [ %g3 + %g2 ], %g2
    1be4:	81 c0 80 00 	jmp  %g2
    1be8:	01 00 00 00 	nop 
    1bec:	c2 0f 60 01 	ldub  [ %i5 + 1 ], %g1
    1bf0:	b6 16 e8 00 	or  %i3, 0x800, %i3
    1bf4:	86 00 7f d0 	add  %g1, -48, %g3
    1bf8:	86 08 e0 ff 	and  %g3, 0xff, %g3
    1bfc:	80 a0 e0 09 	cmp  %g3, 9
    1c00:	18 80 00 11 	bgu  1c44 <_vsnprintf+0x2b0>
    1c04:	84 07 60 01 	add  %i5, 1, %g2
    1c08:	86 04 00 10 	add  %l0, %l0, %g3
    1c0c:	83 28 60 18 	sll  %g1, 0x18, %g1
    1c10:	83 38 60 18 	sra  %g1, 0x18, %g1
    1c14:	a1 2c 20 03 	sll  %l0, 3, %l0
    1c18:	84 00 a0 01 	inc  %g2
    1c1c:	a0 00 c0 10 	add  %g3, %l0, %l0
    1c20:	a0 04 00 01 	add  %l0, %g1, %l0
    1c24:	c2 08 80 00 	ldub  [ %g2 ], %g1
    1c28:	86 00 7f d0 	add  %g1, -48, %g3
    1c2c:	86 08 e0 ff 	and  %g3, 0xff, %g3
    1c30:	80 a0 e0 09 	cmp  %g3, 9
    1c34:	08 bf ff f5 	bleu  1c08 <_vsnprintf+0x274>
    1c38:	a0 04 3f d0 	add  %l0, -48, %l0
    1c3c:	10 bf ff a1 	b  1ac0 <_vsnprintf+0x12c>
    1c40:	ba 10 00 02 	mov  %g2, %i5
    1c44:	87 28 60 18 	sll  %g1, 0x18, %g3
    1c48:	87 38 e0 18 	sra  %g3, 0x18, %g3
    1c4c:	80 a0 e0 2a 	cmp  %g3, 0x2a
    1c50:	32 bf ff 9c 	bne,a   1ac0 <_vsnprintf+0x12c>
    1c54:	ba 10 00 02 	mov  %g2, %i5
    1c58:	c4 06 80 00 	ld  [ %i2 ], %g2
    1c5c:	c2 0f 60 02 	ldub  [ %i5 + 2 ], %g1
    1c60:	a0 38 00 02 	xnor  %g0, %g2, %l0
    1c64:	b4 06 a0 04 	add  %i2, 4, %i2
    1c68:	a1 3c 20 1f 	sra  %l0, 0x1f, %l0
    1c6c:	ba 07 60 02 	add  %i5, 2, %i5
    1c70:	10 bf ff 94 	b  1ac0 <_vsnprintf+0x12c>
    1c74:	a0 08 80 10 	and  %g2, %l0, %l0
    1c78:	c4 4f 60 01 	ldsb  [ %i5 + 1 ], %g2
    1c7c:	80 a0 a0 6c 	cmp  %g2, 0x6c
    1c80:	12 bf ff 9c 	bne  1af0 <_vsnprintf+0x15c>
    1c84:	c2 0f 60 01 	ldub  [ %i5 + 1 ], %g1
    1c88:	c2 0f 60 02 	ldub  [ %i5 + 2 ], %g1
    1c8c:	b6 16 e6 00 	or  %i3, 0x600, %i3
    1c90:	10 bf ff 9a 	b  1af8 <_vsnprintf+0x164>
    1c94:	ba 07 60 02 	add  %i5, 2, %i5
    1c98:	c2 0f 60 01 	ldub  [ %i5 + 1 ], %g1
    1c9c:	b6 16 e4 00 	or  %i3, 0x400, %i3
    1ca0:	10 bf ff 96 	b  1af8 <_vsnprintf+0x164>
    1ca4:	ba 07 60 01 	inc  %i5
    1ca8:	c4 4f 60 01 	ldsb  [ %i5 + 1 ], %g2
    1cac:	80 a0 a0 68 	cmp  %g2, 0x68
    1cb0:	02 80 01 88 	be  22d0 <_vsnprintf+0x93c>
    1cb4:	c2 0f 60 01 	ldub  [ %i5 + 1 ], %g1
    1cb8:	b6 16 e0 80 	or  %i3, 0x80, %i3
    1cbc:	10 bf ff 8f 	b  1af8 <_vsnprintf+0x164>
    1cc0:	ba 07 60 01 	inc  %i5
    1cc4:	c2 06 20 0c 	ld  [ %i0 + 0xc ], %g1
    1cc8:	84 00 60 01 	add  %g1, 1, %g2
    1ccc:	c4 26 20 0c 	st  %g2, [ %i0 + 0xc ]
    1cd0:	c4 06 20 10 	ld  [ %i0 + 0x10 ], %g2
    1cd4:	80 a0 40 02 	cmp  %g1, %g2
    1cd8:	1a bf ff 3a 	bcc  19c0 <_vsnprintf+0x2c>
    1cdc:	b2 07 60 01 	add  %i5, 1, %i1
    1ce0:	c4 06 00 00 	ld  [ %i0 ], %g2
    1ce4:	80 a0 a0 00 	cmp  %g2, 0
    1ce8:	02 80 01 89 	be  230c <_vsnprintf+0x978>
    1cec:	90 10 20 25 	mov  0x25, %o0
    1cf0:	9f c0 80 00 	call  %g2
    1cf4:	d2 06 20 04 	ld  [ %i0 + 4 ], %o1
    1cf8:	10 bf ff 33 	b  19c4 <_vsnprintf+0x30>
    1cfc:	d0 4e 40 00 	ldsb  [ %i1 ], %o0
    1d00:	d4 06 80 00 	ld  [ %i2 ], %o2
    1d04:	98 16 c0 12 	or  %i3, %l2, %o4
    1d08:	80 a2 a0 00 	cmp  %o2, 0
    1d0c:	12 80 01 3b 	bne  21f8 <_vsnprintf+0x864>
    1d10:	b4 06 a0 04 	add  %i2, 4, %i2
    1d14:	90 10 00 18 	mov  %i0, %o0
    1d18:	92 10 00 13 	mov  %l3, %o1
    1d1c:	94 10 20 05 	mov  5, %o2
    1d20:	96 10 20 0a 	mov  0xa, %o3
    1d24:	7f ff fa 74 	call  6f4 <out_rev_>
    1d28:	b2 07 60 01 	add  %i5, 1, %i1
    1d2c:	10 bf ff 26 	b  19c4 <_vsnprintf+0x30>
    1d30:	d0 4e 40 00 	ldsb  [ %i1 ], %o0
    1d34:	c2 06 80 00 	ld  [ %i2 ], %g1
    1d38:	c4 06 20 0c 	ld  [ %i0 + 0xc ], %g2
    1d3c:	80 8e e0 40 	btst  0x40, %i3
    1d40:	12 80 01 18 	bne  21a0 <_vsnprintf+0x80c>
    1d44:	b4 06 a0 04 	add  %i2, 4, %i2
    1d48:	80 8e e0 80 	btst  0x80, %i3
    1d4c:	02 80 01 65 	be  22e0 <_vsnprintf+0x94c>
    1d50:	80 8e e2 00 	btst  0x200, %i3
    1d54:	c4 30 40 00 	sth  %g2, [ %g1 ]
    1d58:	10 bf ff 1a 	b  19c0 <_vsnprintf+0x2c>
    1d5c:	b2 07 60 01 	add  %i5, 1, %i1
    1d60:	c2 06 20 0c 	ld  [ %i0 + 0xc ], %g1
    1d64:	b6 8e e0 02 	andcc  %i3, 2, %i3
    1d68:	02 80 01 11 	be  21ac <_vsnprintf+0x818>
    1d6c:	c6 06 20 10 	ld  [ %i0 + 0x10 ], %g3
    1d70:	b2 10 20 01 	mov  1, %i1
    1d74:	c8 06 80 00 	ld  [ %i2 ], %g4
    1d78:	84 00 60 01 	add  %g1, 1, %g2
    1d7c:	c4 26 20 0c 	st  %g2, [ %i0 + 0xc ]
    1d80:	80 a0 40 03 	cmp  %g1, %g3
    1d84:	1a 80 00 0a 	bcc  1dac <_vsnprintf+0x418>
    1d88:	b4 06 a0 04 	add  %i2, 4, %i2
    1d8c:	c4 06 00 00 	ld  [ %i0 ], %g2
    1d90:	80 a0 a0 00 	cmp  %g2, 0
    1d94:	22 80 01 63 	be,a   2320 <_vsnprintf+0x98c>
    1d98:	c4 06 20 08 	ld  [ %i0 + 8 ], %g2
    1d9c:	91 29 20 18 	sll  %g4, 0x18, %o0
    1da0:	d2 06 20 04 	ld  [ %i0 + 4 ], %o1
    1da4:	9f c0 80 00 	call  %g2
    1da8:	91 3a 20 18 	sra  %o0, 0x18, %o0
    1dac:	80 a6 e0 00 	cmp  %i3, 0
    1db0:	22 bf ff 04 	be,a   19c0 <_vsnprintf+0x2c>
    1db4:	b2 07 60 01 	add  %i5, 1, %i1
    1db8:	b6 10 20 20 	mov  0x20, %i3
    1dbc:	80 a7 00 19 	cmp  %i4, %i1
    1dc0:	28 bf ff 00 	bleu,a   19c0 <_vsnprintf+0x2c>
    1dc4:	b2 07 60 01 	add  %i5, 1, %i1
    1dc8:	c2 06 20 0c 	ld  [ %i0 + 0xc ], %g1
    1dcc:	84 00 60 01 	add  %g1, 1, %g2
    1dd0:	c4 26 20 0c 	st  %g2, [ %i0 + 0xc ]
    1dd4:	c4 06 20 10 	ld  [ %i0 + 0x10 ], %g2
    1dd8:	80 a0 40 02 	cmp  %g1, %g2
    1ddc:	3a bf ff f8 	bcc,a   1dbc <_vsnprintf+0x428>
    1de0:	b2 06 60 01 	inc  %i1
    1de4:	c4 06 00 00 	ld  [ %i0 ], %g2
    1de8:	80 a0 a0 00 	cmp  %g2, 0
    1dec:	22 80 01 1d 	be,a   2260 <_vsnprintf+0x8cc>
    1df0:	c4 06 20 08 	ld  [ %i0 + 8 ], %g2
    1df4:	90 10 20 20 	mov  0x20, %o0
    1df8:	9f c0 80 00 	call  %g2
    1dfc:	d2 06 20 04 	ld  [ %i0 + 4 ], %o1
    1e00:	10 bf ff ef 	b  1dbc <_vsnprintf+0x428>
    1e04:	b2 06 60 01 	inc  %i1
    1e08:	85 28 60 18 	sll  %g1, 0x18, %g2
    1e0c:	87 38 a0 18 	sra  %g2, 0x18, %g3
    1e10:	80 a0 e0 69 	cmp  %g3, 0x69
    1e14:	12 80 00 df 	bne  2190 <_vsnprintf+0x7fc>
    1e18:	80 a0 e0 64 	cmp  %g3, 0x64
    1e1c:	07 00 00 10 	sethi  %hi(0x4000), %g3
    1e20:	b6 16 c0 03 	or  %i3, %g3, %i3
    1e24:	82 08 7f df 	and  %g1, -33, %g1
    1e28:	83 28 60 18 	sll  %g1, 0x18, %g1
    1e2c:	83 38 60 18 	sra  %g1, 0x18, %g1
    1e30:	80 a0 60 58 	cmp  %g1, 0x58
    1e34:	22 80 00 0b 	be,a   1e60 <_vsnprintf+0x4cc>
    1e38:	a2 10 20 10 	mov  0x10, %l1
    1e3c:	83 38 a0 18 	sra  %g2, 0x18, %g1
    1e40:	80 a0 60 6f 	cmp  %g1, 0x6f
    1e44:	02 80 00 0b 	be  1e70 <_vsnprintf+0x4dc>
    1e48:	a2 10 20 08 	mov  8, %l1
    1e4c:	80 a0 60 62 	cmp  %g1, 0x62
    1e50:	02 80 00 08 	be  1e70 <_vsnprintf+0x4dc>
    1e54:	a2 10 20 02 	mov  2, %l1
    1e58:	b6 0e ff ef 	and  %i3, -17, %i3
    1e5c:	a2 10 20 0a 	mov  0xa, %l1
    1e60:	85 38 a0 18 	sra  %g2, 0x18, %g2
    1e64:	80 a0 a0 58 	cmp  %g2, 0x58
    1e68:	22 80 00 02 	be,a   1e70 <_vsnprintf+0x4dc>
    1e6c:	b6 16 e0 20 	or  %i3, 0x20, %i3
    1e70:	80 8e e8 00 	btst  0x800, %i3
    1e74:	02 80 00 03 	be  1e80 <_vsnprintf+0x4ec>
    1e78:	b2 07 60 01 	add  %i5, 1, %i1
    1e7c:	b6 0e ff fe 	and  %i3, -2, %i3
    1e80:	03 00 00 10 	sethi  %hi(0x4000), %g1
    1e84:	80 8e c0 01 	btst  %i3, %g1
    1e88:	02 80 00 fc 	be  2278 <_vsnprintf+0x8e4>
    1e8c:	80 8e e4 00 	btst  0x400, %i3
    1e90:	12 80 01 5d 	bne  2404 <_vsnprintf+0xa70>
    1e94:	80 8e e2 00 	btst  0x200, %i3
    1e98:	02 80 01 28 	be  2338 <_vsnprintf+0x9a4>
    1e9c:	80 8e e0 40 	btst  0x40, %i3
    1ea0:	d6 06 80 00 	ld  [ %i2 ], %o3
    1ea4:	80 a2 e0 00 	cmp  %o3, 0
    1ea8:	04 80 01 3f 	ble  23a4 <_vsnprintf+0xa10>
    1eac:	b4 06 a0 04 	add  %i2, 4, %i2
    1eb0:	83 3a e0 1f 	sra  %o3, 0x1f, %g1
    1eb4:	d6 27 bf cc 	st  %o3, [ %fp + -52 ]
    1eb8:	c2 27 bf c8 	st  %g1, [ %fp + -56 ]
    1ebc:	f8 23 a0 5c 	st  %i4, [ %sp + 0x5c ]
    1ec0:	f6 23 a0 60 	st  %i3, [ %sp + 0x60 ]
    1ec4:	90 10 00 18 	mov  %i0, %o0
    1ec8:	d2 07 bf c8 	ld  [ %fp + -56 ], %o1
    1ecc:	d4 07 bf cc 	ld  [ %fp + -52 ], %o2
    1ed0:	97 32 e0 1f 	srl  %o3, 0x1f, %o3
    1ed4:	98 0c 60 1a 	and  %l1, 0x1a, %o4
    1ed8:	7f ff fa 5e 	call  850 <print_integer>
    1edc:	9a 10 00 10 	mov  %l0, %o5
    1ee0:	10 bf fe b9 	b  19c4 <_vsnprintf+0x30>
    1ee4:	d0 4e 40 00 	ldsb  [ %i1 ], %o0
    1ee8:	f2 06 80 00 	ld  [ %i2 ], %i1
    1eec:	80 a6 60 00 	cmp  %i1, 0
    1ef0:	02 80 01 62 	be  2478 <_vsnprintf+0xae4>
    1ef4:	b4 06 a0 04 	add  %i2, 4, %i2
    1ef8:	82 94 20 00 	orcc  %l0, 0, %g1
    1efc:	22 80 00 02 	be,a   1f04 <_vsnprintf+0x570>
    1f00:	82 10 00 14 	mov  %l4, %g1
    1f04:	c4 0e 40 00 	ldub  [ %i1 ], %g2
    1f08:	91 28 a0 18 	sll  %g2, 0x18, %o0
    1f0c:	80 a2 20 00 	cmp  %o0, 0
    1f10:	22 80 00 0c 	be,a   1f40 <_vsnprintf+0x5ac>
    1f14:	a2 10 20 00 	clr  %l1
    1f18:	10 80 00 04 	b  1f28 <_vsnprintf+0x594>
    1f1c:	a2 10 00 19 	mov  %i1, %l1
    1f20:	22 80 00 08 	be,a   1f40 <_vsnprintf+0x5ac>
    1f24:	a2 24 40 19 	sub  %l1, %i1, %l1
    1f28:	a2 04 60 01 	inc  %l1
    1f2c:	c6 4c 40 00 	ldsb  [ %l1 ], %g3
    1f30:	80 a0 e0 00 	cmp  %g3, 0
    1f34:	32 bf ff fb 	bne,a   1f20 <_vsnprintf+0x58c>
    1f38:	82 80 7f ff 	addcc  %g1, -1, %g1
    1f3c:	a2 24 40 19 	sub  %l1, %i1, %l1
    1f40:	ae 8e e8 00 	andcc  %i3, 0x800, %l7
    1f44:	22 80 00 06 	be,a   1f5c <_vsnprintf+0x5c8>
    1f48:	b6 8e e0 02 	andcc  %i3, 2, %i3
    1f4c:	80 a4 40 10 	cmp  %l1, %l0
    1f50:	38 80 00 02 	bgu,a   1f58 <_vsnprintf+0x5c4>
    1f54:	a2 10 00 10 	mov  %l0, %l1
    1f58:	b6 8e e0 02 	andcc  %i3, 2, %i3
    1f5c:	12 80 00 63 	bne  20e8 <_vsnprintf+0x754>
    1f60:	f6 27 bf dc 	st  %i3, [ %fp + -36 ]
    1f64:	80 a7 00 11 	cmp  %i4, %l1
    1f68:	08 80 00 13 	bleu  1fb4 <_vsnprintf+0x620>
    1f6c:	b6 04 60 01 	add  %l1, 1, %i3
    1f70:	c2 06 20 0c 	ld  [ %i0 + 0xc ], %g1
    1f74:	84 00 60 01 	add  %g1, 1, %g2
    1f78:	c4 26 20 0c 	st  %g2, [ %i0 + 0xc ]
    1f7c:	c4 06 20 10 	ld  [ %i0 + 0x10 ], %g2
    1f80:	80 a0 40 02 	cmp  %g1, %g2
    1f84:	1a 80 00 09 	bcc  1fa8 <_vsnprintf+0x614>
    1f88:	a2 10 00 1b 	mov  %i3, %l1
    1f8c:	c4 06 00 00 	ld  [ %i0 ], %g2
    1f90:	80 a0 a0 00 	cmp  %g2, 0
    1f94:	02 80 00 6b 	be  2140 <_vsnprintf+0x7ac>
    1f98:	90 10 20 20 	mov  0x20, %o0
    1f9c:	9f c0 80 00 	call  %g2
    1fa0:	d2 06 20 04 	ld  [ %i0 + 4 ], %o1
    1fa4:	a2 10 00 1b 	mov  %i3, %l1
    1fa8:	80 a7 00 11 	cmp  %i4, %l1
    1fac:	18 bf ff f1 	bgu  1f70 <_vsnprintf+0x5dc>
    1fb0:	b6 04 60 01 	add  %l1, 1, %i3
    1fb4:	c4 0e 40 00 	ldub  [ %i1 ], %g2
    1fb8:	91 28 a0 18 	sll  %g2, 0x18, %o0
    1fbc:	80 a2 20 00 	cmp  %o0, 0
    1fc0:	12 80 00 4d 	bne  20f4 <_vsnprintf+0x760>
    1fc4:	a2 10 00 1b 	mov  %i3, %l1
    1fc8:	d8 07 bf dc 	ld  [ %fp + -36 ], %o4
    1fcc:	80 a3 20 00 	cmp  %o4, 0
    1fd0:	22 bf fe 7c 	be,a   19c0 <_vsnprintf+0x2c>
    1fd4:	b2 07 60 01 	add  %i5, 1, %i1
    1fd8:	b6 10 20 20 	mov  0x20, %i3
    1fdc:	80 a7 00 11 	cmp  %i4, %l1
    1fe0:	28 bf fe 78 	bleu,a   19c0 <_vsnprintf+0x2c>
    1fe4:	b2 07 60 01 	add  %i5, 1, %i1
    1fe8:	c2 06 20 0c 	ld  [ %i0 + 0xc ], %g1
    1fec:	84 00 60 01 	add  %g1, 1, %g2
    1ff0:	c4 26 20 0c 	st  %g2, [ %i0 + 0xc ]
    1ff4:	c4 06 20 10 	ld  [ %i0 + 0x10 ], %g2
    1ff8:	80 a0 40 02 	cmp  %g1, %g2
    1ffc:	3a bf ff f8 	bcc,a   1fdc <_vsnprintf+0x648>
    2000:	a2 04 60 01 	inc  %l1
    2004:	c4 06 00 00 	ld  [ %i0 ], %g2
    2008:	80 a0 a0 00 	cmp  %g2, 0
    200c:	22 80 00 98 	be,a   226c <_vsnprintf+0x8d8>
    2010:	c4 06 20 08 	ld  [ %i0 + 8 ], %g2
    2014:	90 10 20 20 	mov  0x20, %o0
    2018:	9f c0 80 00 	call  %g2
    201c:	d2 06 20 04 	ld  [ %i0 + 4 ], %o1
    2020:	10 bf ff ef 	b  1fdc <_vsnprintf+0x648>
    2024:	a2 04 60 01 	inc  %l1
    2028:	83 28 60 18 	sll  %g1, 0x18, %g1
    202c:	83 38 60 18 	sra  %g1, 0x18, %g1
    2030:	80 a0 60 46 	cmp  %g1, 0x46
    2034:	22 80 00 02 	be,a   203c <_vsnprintf+0x6a8>
    2038:	b6 16 e0 20 	or  %i3, 0x20, %i3
    203c:	92 10 00 1a 	mov  %i2, %o1
    2040:	94 10 20 08 	mov  8, %o2
    2044:	40 00 10 06 	call  605c <__GI_memcpy>
    2048:	90 07 bf f0 	add  %fp, -16, %o0
    204c:	90 10 00 18 	mov  %i0, %o0
    2050:	c0 23 a0 5c 	clr  [ %sp + 0x5c ]
    2054:	d2 07 bf f0 	ld  [ %fp + -16 ], %o1
    2058:	d4 07 bf f4 	ld  [ %fp + -12 ], %o2
    205c:	96 10 00 10 	mov  %l0, %o3
    2060:	98 10 00 1c 	mov  %i4, %o4
    2064:	9a 10 00 1b 	mov  %i3, %o5
    2068:	7f ff fd c7 	call  1784 <print_floating_point>
    206c:	b4 06 a0 08 	add  %i2, 8, %i2
    2070:	10 bf fe 54 	b  19c0 <_vsnprintf+0x2c>
    2074:	b2 07 60 01 	add  %i5, 1, %i1
    2078:	84 08 7f df 	and  %g1, -33, %g2
    207c:	85 28 a0 18 	sll  %g2, 0x18, %g2
    2080:	85 38 a0 18 	sra  %g2, 0x18, %g2
    2084:	80 a0 a0 47 	cmp  %g2, 0x47
    2088:	12 80 00 04 	bne  2098 <_vsnprintf+0x704>
    208c:	82 08 7f fd 	and  %g1, -3, %g1
    2090:	05 00 00 04 	sethi  %hi(0x1000), %g2
    2094:	b6 16 c0 02 	or  %i3, %g2, %i3
    2098:	83 28 60 18 	sll  %g1, 0x18, %g1
    209c:	83 38 60 18 	sra  %g1, 0x18, %g1
    20a0:	80 a0 60 45 	cmp  %g1, 0x45
    20a4:	22 80 00 02 	be,a   20ac <_vsnprintf+0x718>
    20a8:	b6 16 e0 20 	or  %i3, 0x20, %i3
    20ac:	92 10 00 1a 	mov  %i2, %o1
    20b0:	94 10 20 08 	mov  8, %o2
    20b4:	40 00 0f ea 	call  605c <__GI_memcpy>
    20b8:	90 07 bf f8 	add  %fp, -8, %o0
    20bc:	82 10 20 01 	mov  1, %g1
    20c0:	90 10 00 18 	mov  %i0, %o0
    20c4:	d2 07 bf f8 	ld  [ %fp + -8 ], %o1
    20c8:	d4 07 bf fc 	ld  [ %fp + -4 ], %o2
    20cc:	10 bf ff e4 	b  205c <_vsnprintf+0x6c8>
    20d0:	c2 23 a0 5c 	st  %g1, [ %sp + 0x5c ]
    20d4:	9f c0 c0 00 	call  %g3
    20d8:	d2 06 20 04 	ld  [ %i0 + 4 ], %o1
    20dc:	c4 0e 40 00 	ldub  [ %i1 ], %g2
    20e0:	a0 04 3f ff 	add  %l0, -1, %l0
    20e4:	91 28 a0 18 	sll  %g2, 0x18, %o0
    20e8:	80 a2 20 00 	cmp  %o0, 0
    20ec:	02 bf ff b8 	be  1fcc <_vsnprintf+0x638>
    20f0:	d8 07 bf dc 	ld  [ %fp + -36 ], %o4
    20f4:	80 a5 e0 00 	cmp  %l7, 0
    20f8:	02 80 00 04 	be  2108 <_vsnprintf+0x774>
    20fc:	80 a4 20 00 	cmp  %l0, 0
    2100:	02 bf ff b3 	be  1fcc <_vsnprintf+0x638>
    2104:	d8 07 bf dc 	ld  [ %fp + -36 ], %o4
    2108:	c2 06 20 0c 	ld  [ %i0 + 0xc ], %g1
    210c:	86 00 60 01 	add  %g1, 1, %g3
    2110:	c6 26 20 0c 	st  %g3, [ %i0 + 0xc ]
    2114:	c6 06 20 10 	ld  [ %i0 + 0x10 ], %g3
    2118:	80 a0 40 03 	cmp  %g1, %g3
    211c:	1a bf ff f0 	bcc  20dc <_vsnprintf+0x748>
    2120:	b2 06 60 01 	inc  %i1
    2124:	c6 06 00 00 	ld  [ %i0 ], %g3
    2128:	80 a0 e0 00 	cmp  %g3, 0
    212c:	12 bf ff ea 	bne  20d4 <_vsnprintf+0x740>
    2130:	91 3a 20 18 	sra  %o0, 0x18, %o0
    2134:	c6 06 20 08 	ld  [ %i0 + 8 ], %g3
    2138:	10 bf ff e9 	b  20dc <_vsnprintf+0x748>
    213c:	c4 28 c0 01 	stb  %g2, [ %g3 + %g1 ]
    2140:	c4 06 20 08 	ld  [ %i0 + 8 ], %g2
    2144:	86 10 20 20 	mov  0x20, %g3
    2148:	a2 10 00 1b 	mov  %i3, %l1
    214c:	10 bf ff 97 	b  1fa8 <_vsnprintf+0x614>
    2150:	c6 28 80 01 	stb  %g3, [ %g2 + %g1 ]
    2154:	80 a0 60 00 	cmp  %g1, 0
    2158:	22 bf fe 38 	be,a   1a38 <_vsnprintf+0xa4>
    215c:	f0 06 20 0c 	ld  [ %i0 + 0xc ], %i0
    2160:	c6 06 20 08 	ld  [ %i0 + 8 ], %g3
    2164:	80 a0 e0 00 	cmp  %g3, 0
    2168:	22 bf fe 34 	be,a   1a38 <_vsnprintf+0xa4>
    216c:	f0 06 20 0c 	ld  [ %i0 + 0xc ], %i0
    2170:	c4 06 20 0c 	ld  [ %i0 + 0xc ], %g2
    2174:	80 a0 40 02 	cmp  %g1, %g2
    2178:	28 80 00 02 	bleu,a   2180 <_vsnprintf+0x7ec>
    217c:	84 00 7f ff 	add  %g1, -1, %g2
    2180:	c0 28 c0 02 	clrb  [ %g3 + %g2 ]
    2184:	f0 06 20 0c 	ld  [ %i0 + 0xc ], %i0
    2188:	81 c7 e0 08 	ret 
    218c:	81 e8 00 00 	restore 
    2190:	32 bf ff 26 	bne,a   1e28 <_vsnprintf+0x494>
    2194:	82 08 7f df 	and  %g1, -33, %g1
    2198:	10 bf ff 22 	b  1e20 <_vsnprintf+0x48c>
    219c:	07 00 00 10 	sethi  %hi(0x4000), %g3
    21a0:	c4 28 40 00 	stb  %g2, [ %g1 ]
    21a4:	10 bf fe 07 	b  19c0 <_vsnprintf+0x2c>
    21a8:	b2 07 60 01 	add  %i5, 1, %i1
    21ac:	84 10 20 01 	mov  1, %g2
    21b0:	a0 10 20 20 	mov  0x20, %l0
    21b4:	80 a7 00 02 	cmp  %i4, %g2
    21b8:	08 bf fe ef 	bleu  1d74 <_vsnprintf+0x3e0>
    21bc:	b2 00 a0 01 	add  %g2, 1, %i1
    21c0:	84 00 60 01 	add  %g1, 1, %g2
    21c4:	80 a0 c0 01 	cmp  %g3, %g1
    21c8:	08 80 00 1d 	bleu  223c <_vsnprintf+0x8a8>
    21cc:	c4 26 20 0c 	st  %g2, [ %i0 + 0xc ]
    21d0:	c4 06 00 00 	ld  [ %i0 ], %g2
    21d4:	80 a0 a0 00 	cmp  %g2, 0
    21d8:	02 80 00 1c 	be  2248 <_vsnprintf+0x8b4>
    21dc:	90 10 20 20 	mov  0x20, %o0
    21e0:	9f c0 80 00 	call  %g2
    21e4:	d2 06 20 04 	ld  [ %i0 + 4 ], %o1
    21e8:	c2 06 20 0c 	ld  [ %i0 + 0xc ], %g1
    21ec:	c6 06 20 10 	ld  [ %i0 + 0x10 ], %g3
    21f0:	10 bf ff f1 	b  21b4 <_vsnprintf+0x820>
    21f4:	84 10 00 19 	mov  %i1, %g2
    21f8:	82 10 20 0a 	mov  0xa, %g1
    21fc:	d8 23 a0 60 	st  %o4, [ %sp + 0x60 ]
    2200:	c2 23 a0 5c 	st  %g1, [ %sp + 0x5c ]
    2204:	90 10 00 18 	mov  %i0, %o0
    2208:	92 10 20 00 	clr  %o1
    220c:	96 10 20 00 	clr  %o3
    2210:	98 10 20 10 	mov  0x10, %o4
    2214:	9a 10 00 10 	mov  %l0, %o5
    2218:	7f ff f9 8e 	call  850 <print_integer>
    221c:	b2 07 60 01 	add  %i5, 1, %i1
    2220:	10 bf fd e9 	b  19c4 <_vsnprintf+0x30>
    2224:	d0 4e 40 00 	ldsb  [ %i1 ], %o0
    2228:	b6 16 e0 02 	or  %i3, 2, %i3
    222c:	b8 20 00 1c 	neg  %i4
    2230:	c2 08 e0 01 	ldub  [ %g3 + 1 ], %g1
    2234:	10 bf fe 1e 	b  1aac <_vsnprintf+0x118>
    2238:	ba 07 60 01 	inc  %i5
    223c:	82 10 00 02 	mov  %g2, %g1
    2240:	10 bf ff dd 	b  21b4 <_vsnprintf+0x820>
    2244:	84 10 00 19 	mov  %i1, %g2
    2248:	c4 06 20 08 	ld  [ %i0 + 8 ], %g2
    224c:	e0 28 80 01 	stb  %l0, [ %g2 + %g1 ]
    2250:	84 10 00 19 	mov  %i1, %g2
    2254:	c2 06 20 0c 	ld  [ %i0 + 0xc ], %g1
    2258:	10 bf ff d7 	b  21b4 <_vsnprintf+0x820>
    225c:	c6 06 20 10 	ld  [ %i0 + 0x10 ], %g3
    2260:	b2 06 60 01 	inc  %i1
    2264:	10 bf fe d6 	b  1dbc <_vsnprintf+0x428>
    2268:	f6 28 80 01 	stb  %i3, [ %g2 + %g1 ]
    226c:	a2 04 60 01 	inc  %l1
    2270:	10 bf ff 5b 	b  1fdc <_vsnprintf+0x648>
    2274:	f6 28 80 01 	stb  %i3, [ %g2 + %g1 ]
    2278:	12 80 00 53 	bne  23c4 <_vsnprintf+0xa30>
    227c:	ba 0e ff f3 	and  %i3, -13, %i5
    2280:	80 8e e2 00 	btst  0x200, %i3
    2284:	12 80 00 79 	bne  2468 <_vsnprintf+0xad4>
    2288:	80 8e e0 40 	btst  0x40, %i3
    228c:	32 80 00 42 	bne,a   2394 <_vsnprintf+0xa00>
    2290:	d4 0e a0 03 	ldub  [ %i2 + 3 ], %o2
    2294:	d4 06 80 00 	ld  [ %i2 ], %o2
    2298:	80 8e e0 80 	btst  0x80, %i3
    229c:	02 80 00 03 	be  22a8 <_vsnprintf+0x914>
    22a0:	b4 06 a0 04 	add  %i2, 4, %i2
    22a4:	94 0a 80 15 	and  %o2, %l5, %o2
    22a8:	f8 23 a0 5c 	st  %i4, [ %sp + 0x5c ]
    22ac:	fa 23 a0 60 	st  %i5, [ %sp + 0x60 ]
    22b0:	90 10 00 18 	mov  %i0, %o0
    22b4:	92 10 20 00 	clr  %o1
    22b8:	96 10 20 00 	clr  %o3
    22bc:	98 0c 60 1a 	and  %l1, 0x1a, %o4
    22c0:	7f ff f9 64 	call  850 <print_integer>
    22c4:	9a 10 00 10 	mov  %l0, %o5
    22c8:	10 bf fd bf 	b  19c4 <_vsnprintf+0x30>
    22cc:	d0 4e 40 00 	ldsb  [ %i1 ], %o0
    22d0:	c2 0f 60 02 	ldub  [ %i5 + 2 ], %g1
    22d4:	b6 16 e0 c0 	or  %i3, 0xc0, %i3
    22d8:	10 bf fe 08 	b  1af8 <_vsnprintf+0x164>
    22dc:	ba 07 60 02 	add  %i5, 2, %i5
    22e0:	32 80 00 09 	bne,a   2304 <_vsnprintf+0x970>
    22e4:	c4 20 40 00 	st  %g2, [ %g1 ]
    22e8:	80 8e e4 00 	btst  0x400, %i3
    22ec:	22 80 00 06 	be,a   2304 <_vsnprintf+0x970>
    22f0:	c4 20 40 00 	st  %g2, [ %g1 ]
    22f4:	c0 20 40 00 	clr  [ %g1 ]
    22f8:	c4 20 60 04 	st  %g2, [ %g1 + 4 ]
    22fc:	10 bf fd b1 	b  19c0 <_vsnprintf+0x2c>
    2300:	b2 07 60 01 	add  %i5, 1, %i1
    2304:	10 bf fd af 	b  19c0 <_vsnprintf+0x2c>
    2308:	b2 07 60 01 	add  %i5, 1, %i1
    230c:	c4 06 20 08 	ld  [ %i0 + 8 ], %g2
    2310:	86 10 20 25 	mov  0x25, %g3
    2314:	b2 07 60 01 	add  %i5, 1, %i1
    2318:	10 bf fd aa 	b  19c0 <_vsnprintf+0x2c>
    231c:	c6 28 80 01 	stb  %g3, [ %g2 + %g1 ]
    2320:	10 bf fe a3 	b  1dac <_vsnprintf+0x418>
    2324:	c8 28 80 01 	stb  %g4, [ %g2 + %g1 ]
    2328:	c6 06 20 08 	ld  [ %i0 + 8 ], %g3
    232c:	b2 07 60 01 	add  %i5, 1, %i1
    2330:	10 bf fd a4 	b  19c0 <_vsnprintf+0x2c>
    2334:	c2 28 c0 02 	stb  %g1, [ %g3 + %g2 ]
    2338:	32 80 00 19 	bne,a   239c <_vsnprintf+0xa08>
    233c:	d6 4e a0 03 	ldsb  [ %i2 + 3 ], %o3
    2340:	80 8e e0 80 	btst  0x80, %i3
    2344:	22 80 00 5e 	be,a   24bc <_vsnprintf+0xb28>
    2348:	d6 06 80 00 	ld  [ %i2 ], %o3
    234c:	d6 56 a0 02 	ldsh  [ %i2 + 2 ], %o3
    2350:	b4 06 a0 04 	add  %i2, 4, %i2
    2354:	80 a2 e0 00 	cmp  %o3, 0
    2358:	04 80 00 51 	ble  249c <_vsnprintf+0xb08>
    235c:	99 3a e0 1f 	sra  %o3, 0x1f, %o4
    2360:	d6 27 bf c4 	st  %o3, [ %fp + -60 ]
    2364:	d8 27 bf c0 	st  %o4, [ %fp + -64 ]
    2368:	f8 23 a0 5c 	st  %i4, [ %sp + 0x5c ]
    236c:	f6 23 a0 60 	st  %i3, [ %sp + 0x60 ]
    2370:	90 10 00 18 	mov  %i0, %o0
    2374:	d2 07 bf c0 	ld  [ %fp + -64 ], %o1
    2378:	d4 07 bf c4 	ld  [ %fp + -60 ], %o2
    237c:	97 32 e0 1f 	srl  %o3, 0x1f, %o3
    2380:	98 0c 60 1a 	and  %l1, 0x1a, %o4
    2384:	7f ff f9 33 	call  850 <print_integer>
    2388:	9a 10 00 10 	mov  %l0, %o5
    238c:	10 bf fd 8e 	b  19c4 <_vsnprintf+0x30>
    2390:	d0 4e 40 00 	ldsb  [ %i1 ], %o0
    2394:	10 bf ff c5 	b  22a8 <_vsnprintf+0x914>
    2398:	b4 06 a0 04 	add  %i2, 4, %i2
    239c:	10 bf ff ee 	b  2354 <_vsnprintf+0x9c0>
    23a0:	b4 06 a0 04 	add  %i2, 4, %i2
    23a4:	87 3a e0 1f 	sra  %o3, 0x1f, %g3
    23a8:	d6 27 bf bc 	st  %o3, [ %fp + -68 ]
    23ac:	c6 27 bf b8 	st  %g3, [ %fp + -72 ]
    23b0:	c4 1f bf b8 	ldd  [ %fp + -72 ], %g2
    23b4:	86 a0 00 03 	subcc  %g0, %g3, %g3
    23b8:	84 60 00 02 	subx  %g0, %g2, %g2
    23bc:	10 bf fe c0 	b  1ebc <_vsnprintf+0x528>
    23c0:	c4 3f bf c8 	std  %g2, [ %fp + -56 ]
    23c4:	92 10 00 1a 	mov  %i2, %o1
    23c8:	90 07 bf e8 	add  %fp, -24, %o0
    23cc:	40 00 0f 24 	call  605c <__GI_memcpy>
    23d0:	94 10 20 08 	mov  8, %o2
    23d4:	b4 06 a0 08 	add  %i2, 8, %i2
    23d8:	f8 23 a0 5c 	st  %i4, [ %sp + 0x5c ]
    23dc:	fa 23 a0 60 	st  %i5, [ %sp + 0x60 ]
    23e0:	90 10 00 18 	mov  %i0, %o0
    23e4:	d2 07 bf e8 	ld  [ %fp + -24 ], %o1
    23e8:	d4 07 bf ec 	ld  [ %fp + -20 ], %o2
    23ec:	96 10 20 00 	clr  %o3
    23f0:	98 0c 60 1a 	and  %l1, 0x1a, %o4
    23f4:	7f ff f9 17 	call  850 <print_integer>
    23f8:	9a 10 00 10 	mov  %l0, %o5
    23fc:	10 bf fd 72 	b  19c4 <_vsnprintf+0x30>
    2400:	d0 4e 40 00 	ldsb  [ %i1 ], %o0
    2404:	92 10 00 1a 	mov  %i2, %o1
    2408:	90 07 bf e0 	add  %fp, -32, %o0
    240c:	40 00 0f 14 	call  605c <__GI_memcpy>
    2410:	94 10 20 08 	mov  8, %o2
    2414:	c4 1f bf e0 	ldd  [ %fp + -32 ], %g2
    2418:	f8 23 a0 5c 	st  %i4, [ %sp + 0x5c ]
    241c:	83 38 a0 1f 	sra  %g2, 0x1f, %g1
    2420:	97 30 a0 1f 	srl  %g2, 0x1f, %o3
    2424:	c2 27 bf d4 	st  %g1, [ %fp + -44 ]
    2428:	c2 27 bf d0 	st  %g1, [ %fp + -48 ]
    242c:	d8 1f bf d0 	ldd  [ %fp + -48 ], %o4
    2430:	b8 1b 00 02 	xor  %o4, %g2, %i4
    2434:	ba 1b 40 03 	xor  %o5, %g3, %i5
    2438:	86 a7 40 0d 	subcc  %i5, %o5, %g3
    243c:	84 67 00 0c 	subx  %i4, %o4, %g2
    2440:	b4 06 a0 08 	add  %i2, 8, %i2
    2444:	f6 23 a0 60 	st  %i3, [ %sp + 0x60 ]
    2448:	90 10 00 18 	mov  %i0, %o0
    244c:	98 0c 60 1a 	and  %l1, 0x1a, %o4
    2450:	92 10 00 02 	mov  %g2, %o1
    2454:	94 10 00 03 	mov  %g3, %o2
    2458:	7f ff f8 fe 	call  850 <print_integer>
    245c:	9a 10 00 10 	mov  %l0, %o5
    2460:	10 bf fd 59 	b  19c4 <_vsnprintf+0x30>
    2464:	d0 4e 40 00 	ldsb  [ %i1 ], %o0
    2468:	d4 06 80 00 	ld  [ %i2 ], %o2
    246c:	f8 23 a0 5c 	st  %i4, [ %sp + 0x5c ]
    2470:	10 bf ff 8f 	b  22ac <_vsnprintf+0x918>
    2474:	b4 06 a0 04 	add  %i2, 4, %i2
    2478:	90 10 00 18 	mov  %i0, %o0
    247c:	92 10 00 16 	mov  %l6, %o1
    2480:	94 10 20 06 	mov  6, %o2
    2484:	96 10 00 1c 	mov  %i4, %o3
    2488:	98 10 00 1b 	mov  %i3, %o4
    248c:	7f ff f8 9a 	call  6f4 <out_rev_>
    2490:	b2 07 60 01 	add  %i5, 1, %i1
    2494:	10 bf fd 4c 	b  19c4 <_vsnprintf+0x30>
    2498:	d0 4e 40 00 	ldsb  [ %i1 ], %o0
    249c:	d6 27 bf b4 	st  %o3, [ %fp + -76 ]
    24a0:	83 3a e0 1f 	sra  %o3, 0x1f, %g1
    24a4:	c2 27 bf b0 	st  %g1, [ %fp + -80 ]
    24a8:	c4 1f bf b0 	ldd  [ %fp + -80 ], %g2
    24ac:	86 a0 00 03 	subcc  %g0, %g3, %g3
    24b0:	84 60 00 02 	subx  %g0, %g2, %g2
    24b4:	10 bf ff ad 	b  2368 <_vsnprintf+0x9d4>
    24b8:	c4 3f bf c0 	std  %g2, [ %fp + -64 ]
    24bc:	10 bf ff a6 	b  2354 <_vsnprintf+0x9c0>
    24c0:	b4 06 a0 04 	add  %i2, 4, %i2

000024c4 <uart_send_char>:
    24c4:	9d e3 bf a0 	save  %sp, -96, %sp
    24c8:	40 00 04 80 	call  36c8 <__ajit_serial_putchar_via_bypass__>
    24cc:	90 10 00 18 	mov  %i0, %o0
    24d0:	80 a2 20 00 	cmp  %o0, 0
    24d4:	02 bf ff fd 	be  24c8 <uart_send_char+0x4>
    24d8:	01 00 00 00 	nop 
    24dc:	40 00 03 25 	call  3170 <__ajit_read_serial_control_register_via_bypass__>
    24e0:	01 00 00 00 	nop 
    24e4:	90 0a 20 09 	and  %o0, 9, %o0
    24e8:	80 a2 20 09 	cmp  %o0, 9
    24ec:	02 bf ff fc 	be  24dc <uart_send_char+0x18>
    24f0:	01 00 00 00 	nop 
    24f4:	81 c7 e0 08 	ret 
    24f8:	81 e8 00 00 	restore 

000024fc <vprintf_>:
    24fc:	9d e3 bf 88 	save  %sp, -120, %sp
    2500:	03 00 00 01 	sethi  %hi(0x400), %g1
    2504:	82 10 62 bc 	or  %g1, 0x2bc, %g1	! 6bc <putchar_wrapper>
    2508:	c2 27 bf ec 	st  %g1, [ %fp + -20 ]
    250c:	03 1f ff ff 	sethi  %hi(0x7ffffc00), %g1
    2510:	82 10 63 ff 	or  %g1, 0x3ff, %g1	! 7fffffff <_custom_printf_handler+0x7ffe8d2b>
    2514:	92 10 00 18 	mov  %i0, %o1
    2518:	c0 27 bf f0 	clr  [ %fp + -16 ]
    251c:	c0 27 bf f4 	clr  [ %fp + -12 ]
    2520:	c0 27 bf f8 	clr  [ %fp + -8 ]
    2524:	90 07 bf ec 	add  %fp, -20, %o0
    2528:	c2 27 bf fc 	st  %g1, [ %fp + -4 ]
    252c:	7f ff fd 1a 	call  1994 <_vsnprintf>
    2530:	94 10 00 19 	mov  %i1, %o2
    2534:	81 c7 e0 08 	ret 
    2538:	91 e8 00 08 	restore  %g0, %o0, %o0

0000253c <vsnprintf_>:
    253c:	9d e3 bf 88 	save  %sp, -120, %sp
    2540:	80 a6 60 00 	cmp  %i1, 0
    2544:	06 80 00 0f 	bl  2580 <vsnprintf_+0x44>
    2548:	80 a0 00 18 	cmp  %g0, %i0
    254c:	82 60 20 00 	subx  %g0, 0, %g1
    2550:	f0 27 bf f4 	st  %i0, [ %fp + -12 ]
    2554:	b2 0e 40 01 	and  %i1, %g1, %i1
    2558:	c0 27 bf ec 	clr  [ %fp + -20 ]
    255c:	c0 27 bf f0 	clr  [ %fp + -16 ]
    2560:	c0 27 bf f8 	clr  [ %fp + -8 ]
    2564:	f2 27 bf fc 	st  %i1, [ %fp + -4 ]
    2568:	90 07 bf ec 	add  %fp, -20, %o0
    256c:	92 10 00 1a 	mov  %i2, %o1
    2570:	7f ff fd 09 	call  1994 <_vsnprintf>
    2574:	94 10 00 1b 	mov  %i3, %o2
    2578:	81 c7 e0 08 	ret 
    257c:	91 e8 00 08 	restore  %g0, %o0, %o0
    2580:	82 60 20 00 	subx  %g0, 0, %g1
    2584:	f0 27 bf f4 	st  %i0, [ %fp + -12 ]
    2588:	c0 27 bf ec 	clr  [ %fp + -20 ]
    258c:	c0 27 bf f0 	clr  [ %fp + -16 ]
    2590:	c0 27 bf f8 	clr  [ %fp + -8 ]
    2594:	90 07 bf ec 	add  %fp, -20, %o0
    2598:	92 10 00 1a 	mov  %i2, %o1
    259c:	94 10 00 1b 	mov  %i3, %o2
    25a0:	33 1f ff ff 	sethi  %hi(0x7ffffc00), %i1
    25a4:	b2 16 63 ff 	or  %i1, 0x3ff, %i1	! 7fffffff <_custom_printf_handler+0x7ffe8d2b>
    25a8:	b2 0e 40 01 	and  %i1, %g1, %i1
    25ac:	7f ff fc fa 	call  1994 <_vsnprintf>
    25b0:	f2 27 bf fc 	st  %i1, [ %fp + -4 ]
    25b4:	81 c7 e0 08 	ret 
    25b8:	91 e8 00 08 	restore  %g0, %o0, %o0

000025bc <vsprintf_>:
    25bc:	96 10 00 0a 	mov  %o2, %o3
    25c0:	94 10 00 09 	mov  %o1, %o2
    25c4:	13 1f ff ff 	sethi  %hi(0x7ffffc00), %o1
    25c8:	92 12 63 ff 	or  %o1, 0x3ff, %o1	! 7fffffff <_custom_printf_handler+0x7ffe8d2b>
    25cc:	82 13 c0 00 	mov  %o7, %g1
    25d0:	7f ff ff db 	call  253c <vsnprintf_>
    25d4:	9e 10 40 00 	mov  %g1, %o7

000025d8 <vfctprintf>:
    25d8:	9d e3 bf 88 	save  %sp, -120, %sp
    25dc:	03 1f ff ff 	sethi  %hi(0x7ffffc00), %g1
    25e0:	82 10 63 ff 	or  %g1, 0x3ff, %g1	! 7fffffff <_custom_printf_handler+0x7ffe8d2b>
    25e4:	f0 27 bf ec 	st  %i0, [ %fp + -20 ]
    25e8:	f2 27 bf f0 	st  %i1, [ %fp + -16 ]
    25ec:	c0 27 bf f4 	clr  [ %fp + -12 ]
    25f0:	c0 27 bf f8 	clr  [ %fp + -8 ]
    25f4:	90 07 bf ec 	add  %fp, -20, %o0
    25f8:	92 10 00 1a 	mov  %i2, %o1
    25fc:	c2 27 bf fc 	st  %g1, [ %fp + -4 ]
    2600:	7f ff fc e5 	call  1994 <_vsnprintf>
    2604:	94 10 00 1b 	mov  %i3, %o2
    2608:	81 c7 e0 08 	ret 
    260c:	91 e8 00 08 	restore  %g0, %o0, %o0

00002610 <printf_>:
    2610:	9d e3 bf 98 	save  %sp, -104, %sp
    2614:	92 07 a0 48 	add  %fp, 0x48, %o1
    2618:	f2 27 a0 48 	st  %i1, [ %fp + 0x48 ]
    261c:	f4 27 a0 4c 	st  %i2, [ %fp + 0x4c ]
    2620:	f6 27 a0 50 	st  %i3, [ %fp + 0x50 ]
    2624:	f8 27 a0 54 	st  %i4, [ %fp + 0x54 ]
    2628:	fa 27 a0 58 	st  %i5, [ %fp + 0x58 ]
    262c:	d2 27 bf fc 	st  %o1, [ %fp + -4 ]
    2630:	7f ff ff b3 	call  24fc <vprintf_>
    2634:	90 10 00 18 	mov  %i0, %o0
    2638:	81 c7 e0 08 	ret 
    263c:	91 e8 00 08 	restore  %g0, %o0, %o0

00002640 <sprintf_>:
    2640:	9d e3 bf 98 	save  %sp, -104, %sp
    2644:	94 07 a0 4c 	add  %fp, 0x4c, %o2
    2648:	f4 27 a0 4c 	st  %i2, [ %fp + 0x4c ]
    264c:	f6 27 a0 50 	st  %i3, [ %fp + 0x50 ]
    2650:	f8 27 a0 54 	st  %i4, [ %fp + 0x54 ]
    2654:	fa 27 a0 58 	st  %i5, [ %fp + 0x58 ]
    2658:	d4 27 bf fc 	st  %o2, [ %fp + -4 ]
    265c:	90 10 00 18 	mov  %i0, %o0
    2660:	7f ff ff d7 	call  25bc <vsprintf_>
    2664:	92 10 00 19 	mov  %i1, %o1
    2668:	81 c7 e0 08 	ret 
    266c:	91 e8 00 08 	restore  %g0, %o0, %o0

00002670 <snprintf_>:
    2670:	9d e3 bf 98 	save  %sp, -104, %sp
    2674:	96 07 a0 50 	add  %fp, 0x50, %o3
    2678:	f6 27 a0 50 	st  %i3, [ %fp + 0x50 ]
    267c:	f8 27 a0 54 	st  %i4, [ %fp + 0x54 ]
    2680:	fa 27 a0 58 	st  %i5, [ %fp + 0x58 ]
    2684:	d6 27 bf fc 	st  %o3, [ %fp + -4 ]
    2688:	90 10 00 18 	mov  %i0, %o0
    268c:	92 10 00 19 	mov  %i1, %o1
    2690:	7f ff ff ab 	call  253c <vsnprintf_>
    2694:	94 10 00 1a 	mov  %i2, %o2
    2698:	81 c7 e0 08 	ret 
    269c:	91 e8 00 08 	restore  %g0, %o0, %o0

000026a0 <fctprintf>:
    26a0:	9d e3 bf 98 	save  %sp, -104, %sp
    26a4:	96 07 a0 50 	add  %fp, 0x50, %o3
    26a8:	f6 27 a0 50 	st  %i3, [ %fp + 0x50 ]
    26ac:	f8 27 a0 54 	st  %i4, [ %fp + 0x54 ]
    26b0:	fa 27 a0 58 	st  %i5, [ %fp + 0x58 ]
    26b4:	d6 27 bf fc 	st  %o3, [ %fp + -4 ]
    26b8:	90 10 00 18 	mov  %i0, %o0
    26bc:	92 10 00 19 	mov  %i1, %o1
    26c0:	7f ff ff c6 	call  25d8 <vfctprintf>
    26c4:	94 10 00 1a 	mov  %i2, %o2
    26c8:	81 c7 e0 08 	ret 
    26cc:	91 e8 00 08 	restore  %g0, %o0, %o0

000026d0 <bget_ncram>:
    26d0:	83 3a 20 1f 	sra  %o0, 0x1f, %g1
    26d4:	83 30 60 1c 	srl  %g1, 0x1c, %g1
    26d8:	84 02 00 01 	add  %o0, %g1, %g2
    26dc:	84 08 a0 0f 	and  %g2, 0xf, %g2
    26e0:	82 20 80 01 	sub  %g2, %g1, %g1
    26e4:	90 00 40 08 	add  %g1, %o0, %o0
    26e8:	80 a2 20 0f 	cmp  %o0, 0xf
    26ec:	08 80 00 23 	bleu  2778 <bget_ncram+0xa8>
    26f0:	86 10 20 18 	mov  0x18, %g3
    26f4:	88 02 20 0f 	add  %o0, 0xf, %g4
    26f8:	88 09 3f f0 	and  %g4, -16, %g4
    26fc:	88 01 20 08 	add  %g4, 8, %g4
    2700:	86 10 00 04 	mov  %g4, %g3
    2704:	05 00 00 59 	sethi  %hi(0x16400), %g2
    2708:	84 10 a0 c8 	or  %g2, 0xc8, %g2	! 164c8 <freelist_ncram>
    270c:	d0 00 a0 08 	ld  [ %g2 + 8 ], %o0
    2710:	80 a2 00 02 	cmp  %o0, %g2
    2714:	32 80 00 08 	bne,a   2734 <bget_ncram+0x64>
    2718:	c2 02 20 04 	ld  [ %o0 + 4 ], %g1
    271c:	81 c3 e0 08 	retl 
    2720:	90 10 20 00 	clr  %o0
    2724:	80 a2 00 02 	cmp  %o0, %g2
    2728:	02 80 00 12 	be  2770 <bget_ncram+0xa0>
    272c:	01 00 00 00 	nop 
    2730:	c2 02 20 04 	ld  [ %o0 + 4 ], %g1
    2734:	80 a0 40 03 	cmp  %g1, %g3
    2738:	26 bf ff fb 	bl,a   2724 <bget_ncram+0x54>
    273c:	d0 02 20 08 	ld  [ %o0 + 8 ], %o0
    2740:	84 20 40 03 	sub  %g1, %g3, %g2
    2744:	80 a0 a0 18 	cmp  %g2, 0x18
    2748:	28 80 00 0e 	bleu,a   2780 <bget_ncram+0xb0>
    274c:	c6 02 20 08 	ld  [ %o0 + 8 ], %g3
    2750:	c4 22 20 04 	st  %g2, [ %o0 + 4 ]
    2754:	c4 22 00 02 	st  %g2, [ %o0 + %g2 ]
    2758:	86 20 00 03 	neg  %g3
    275c:	90 02 00 02 	add  %o0, %g2, %o0
    2760:	c0 22 00 04 	clr  [ %o0 + %g4 ]
    2764:	c6 22 20 04 	st  %g3, [ %o0 + 4 ]
    2768:	81 c3 e0 08 	retl 
    276c:	90 02 20 08 	add  %o0, 8, %o0
    2770:	81 c3 e0 08 	retl 
    2774:	90 10 20 00 	clr  %o0
    2778:	10 bf ff e3 	b  2704 <bget_ncram+0x34>
    277c:	88 10 20 18 	mov  0x18, %g4
    2780:	c4 02 20 0c 	ld  [ %o0 + 0xc ], %g2
    2784:	c6 20 a0 08 	st  %g3, [ %g2 + 8 ]
    2788:	c6 02 20 08 	ld  [ %o0 + 8 ], %g3
    278c:	c4 20 e0 0c 	st  %g2, [ %g3 + 0xc ]
    2790:	c0 22 00 01 	clr  [ %o0 + %g1 ]
    2794:	84 20 00 01 	neg  %g1, %g2
    2798:	c4 22 20 04 	st  %g2, [ %o0 + 4 ]
    279c:	90 02 20 08 	add  %o0, 8, %o0
    27a0:	81 c3 e0 08 	retl 
    27a4:	01 00 00 00 	nop 

000027a8 <bpool_ncram>:
    27a8:	03 00 00 59 	sethi  %hi(0x16400), %g1
    27ac:	82 10 60 c8 	or  %g1, 0xc8, %g1	! 164c8 <freelist_ncram>
    27b0:	c4 00 60 0c 	ld  [ %g1 + 0xc ], %g2
    27b4:	c2 22 20 08 	st  %g1, [ %o0 + 8 ]
    27b8:	c4 22 20 0c 	st  %g2, [ %o0 + 0xc ]
    27bc:	d0 20 60 0c 	st  %o0, [ %g1 + 0xc ]
    27c0:	c0 22 00 00 	clr  [ %o0 ]
    27c4:	c2 02 20 0c 	ld  [ %o0 + 0xc ], %g1
    27c8:	92 0a 7f f0 	and  %o1, -16, %o1
    27cc:	d0 20 60 08 	st  %o0, [ %g1 + 8 ]
    27d0:	92 02 7f f8 	add  %o1, -8, %o1
    27d4:	d2 22 20 04 	st  %o1, [ %o0 + 4 ]
    27d8:	82 02 00 09 	add  %o0, %o1, %g1
    27dc:	05 20 00 00 	sethi  %hi(0x80000000), %g2
    27e0:	d2 22 00 09 	st  %o1, [ %o0 + %o1 ]
    27e4:	81 c3 e0 08 	retl 
    27e8:	c4 20 60 04 	st  %g2, [ %g1 + 4 ]

000027ec <brel_ncram>:
    27ec:	c2 02 3f f8 	ld  [ %o0 + -8 ], %g1
    27f0:	80 a0 60 00 	cmp  %g1, 0
    27f4:	02 80 00 16 	be  284c <brel_ncram+0x60>
    27f8:	84 02 3f f8 	add  %o0, -8, %g2
    27fc:	84 20 80 01 	sub  %g2, %g1, %g2
    2800:	c2 02 3f fc 	ld  [ %o0 + -4 ], %g1
    2804:	c6 00 a0 04 	ld  [ %g2 + 4 ], %g3
    2808:	82 20 c0 01 	sub  %g3, %g1, %g1
    280c:	c2 20 a0 04 	st  %g1, [ %g2 + 4 ]
    2810:	86 00 80 01 	add  %g2, %g1, %g3
    2814:	c8 00 e0 04 	ld  [ %g3 + 4 ], %g4
    2818:	80 a1 20 00 	cmp  %g4, 0
    281c:	04 80 00 0a 	ble  2844 <brel_ncram+0x58>
    2820:	01 00 00 00 	nop 
    2824:	da 00 e0 0c 	ld  [ %g3 + 0xc ], %o5
    2828:	82 00 40 04 	add  %g1, %g4, %g1
    282c:	d8 00 e0 08 	ld  [ %g3 + 8 ], %o4
    2830:	c2 20 a0 04 	st  %g1, [ %g2 + 4 ]
    2834:	d8 23 60 08 	st  %o4, [ %o5 + 8 ]
    2838:	c8 00 e0 08 	ld  [ %g3 + 8 ], %g4
    283c:	86 00 80 01 	add  %g2, %g1, %g3
    2840:	da 21 20 0c 	st  %o5, [ %g4 + 0xc ]
    2844:	81 c3 e0 08 	retl 
    2848:	c2 20 c0 00 	st  %g1, [ %g3 ]
    284c:	07 00 00 59 	sethi  %hi(0x16400), %g3
    2850:	86 10 e0 c8 	or  %g3, 0xc8, %g3	! 164c8 <freelist_ncram>
    2854:	c2 00 e0 0c 	ld  [ %g3 + 0xc ], %g1
    2858:	c6 22 00 00 	st  %g3, [ %o0 ]
    285c:	c2 22 20 04 	st  %g1, [ %o0 + 4 ]
    2860:	c4 20 e0 0c 	st  %g2, [ %g3 + 0xc ]
    2864:	c2 02 3f fc 	ld  [ %o0 + -4 ], %g1
    2868:	c6 02 20 04 	ld  [ %o0 + 4 ], %g3
    286c:	82 20 00 01 	neg  %g1
    2870:	c4 20 e0 08 	st  %g2, [ %g3 + 8 ]
    2874:	10 bf ff e7 	b  2810 <brel_ncram+0x24>
    2878:	c2 22 3f fc 	st  %g1, [ %o0 + -4 ]

0000287c <cortos_init_hw_traps>:
    287c:	82 13 c0 00 	mov  %o7, %g1
    2880:	40 00 05 85 	call  3e94 <ajit_initialize_interrupt_handlers_to_null>
    2884:	9e 10 40 00 	mov  %g1, %o7

00002888 <cortos_init_sw_traps>:
    2888:	82 13 c0 00 	mov  %o7, %g1
    288c:	40 00 07 1b 	call  44f8 <ajit_initialize_sw_trap_handlers_to_null>
    2890:	9e 10 40 00 	mov  %g1, %o7

00002894 <__cortos_bpool>:
    2894:	9d e3 bf a0 	save  %sp, -96, %sp
    2898:	3b 00 00 5c 	sethi  %hi(0x17000), %i5
    289c:	c2 07 60 04 	ld  [ %i5 + 4 ], %g1	! 17004 <bgetLockAddr>
    28a0:	80 a0 60 00 	cmp  %g1, 0
    28a4:	12 80 00 0b 	bne  28d0 <__cortos_bpool+0x3c>
    28a8:	11 00 00 68 	sethi  %hi(0x1a000), %o0
    28ac:	40 00 06 de 	call  4424 <bpool>
    28b0:	13 00 00 04 	sethi  %hi(0x1000), %o1
    28b4:	03 00 00 5c 	sethi  %hi(0x17000), %g1
    28b8:	82 10 60 68 	or  %g1, 0x68, %g1	! 17068 <allocatedLocksNc>
    28bc:	84 10 20 01 	mov  1, %g2
    28c0:	c4 28 60 02 	stb  %g2, [ %g1 + 2 ]
    28c4:	03 00 00 64 	sethi  %hi(0x19000), %g1
    28c8:	82 10 60 02 	or  %g1, 2, %g1	! 19002 <_custom_printf_handler+0x1d2e>
    28cc:	c2 27 60 04 	st  %g1, [ %i5 + 4 ]
    28d0:	81 c7 e0 08 	ret 
    28d4:	81 e8 00 00 	restore 

000028d8 <cortos_bget>:
    28d8:	9d e3 bf a0 	save  %sp, -96, %sp
    28dc:	3b 00 00 5c 	sethi  %hi(0x17000), %i5
    28e0:	7f ff f6 78 	call  2c0 <cortos_lock_acquire_buzy>
    28e4:	d0 07 60 04 	ld  [ %i5 + 4 ], %o0	! 17004 <bgetLockAddr>
    28e8:	40 00 06 9f 	call  4364 <bget>
    28ec:	90 10 00 18 	mov  %i0, %o0
    28f0:	b0 10 00 08 	mov  %o0, %i0
    28f4:	7f ff f6 8d 	call  328 <cortos_lock_release>
    28f8:	d0 07 60 04 	ld  [ %i5 + 4 ], %o0
    28fc:	81 c7 e0 08 	ret 
    2900:	81 e8 00 00 	restore 

00002904 <cortos_brel>:
    2904:	9d e3 bf a0 	save  %sp, -96, %sp
    2908:	3b 00 00 5c 	sethi  %hi(0x17000), %i5
    290c:	7f ff f6 6d 	call  2c0 <cortos_lock_acquire_buzy>
    2910:	d0 07 60 04 	ld  [ %i5 + 4 ], %o0	! 17004 <bgetLockAddr>
    2914:	40 00 06 d5 	call  4468 <brel>
    2918:	90 10 00 18 	mov  %i0, %o0
    291c:	f0 07 60 04 	ld  [ %i5 + 4 ], %i0
    2920:	7f ff f6 82 	call  328 <cortos_lock_release>
    2924:	81 e8 00 00 	restore 

00002928 <__cortos_bpool_ncram>:
    2928:	9d e3 bf a0 	save  %sp, -96, %sp
    292c:	3b 00 00 5c 	sethi  %hi(0x17000), %i5
    2930:	c2 07 60 00 	ld  [ %i5 ], %g1
    2934:	80 a0 60 00 	cmp  %g1, 0
    2938:	12 80 00 0b 	bne  2964 <__cortos_bpool_ncram+0x3c>
    293c:	90 10 20 00 	clr  %o0
    2940:	7f ff ff 9a 	call  27a8 <bpool_ncram>
    2944:	92 10 3f ff 	mov  -1, %o1
    2948:	03 00 00 5c 	sethi  %hi(0x17000), %g1
    294c:	82 10 60 68 	or  %g1, 0x68, %g1	! 17068 <allocatedLocksNc>
    2950:	84 10 20 01 	mov  1, %g2
    2954:	c4 28 60 03 	stb  %g2, [ %g1 + 3 ]
    2958:	03 00 00 64 	sethi  %hi(0x19000), %g1
    295c:	82 10 60 03 	or  %g1, 3, %g1	! 19003 <_custom_printf_handler+0x1d2f>
    2960:	c2 27 60 00 	st  %g1, [ %i5 ]
    2964:	81 c7 e0 08 	ret 
    2968:	81 e8 00 00 	restore 

0000296c <cortos_bget_ncram>:
    296c:	9d e3 bf a0 	save  %sp, -96, %sp
    2970:	3b 00 00 5c 	sethi  %hi(0x17000), %i5
    2974:	7f ff f6 53 	call  2c0 <cortos_lock_acquire_buzy>
    2978:	d0 07 60 00 	ld  [ %i5 ], %o0
    297c:	7f ff ff 55 	call  26d0 <bget_ncram>
    2980:	90 10 00 18 	mov  %i0, %o0
    2984:	b0 10 00 08 	mov  %o0, %i0
    2988:	7f ff f6 68 	call  328 <cortos_lock_release>
    298c:	d0 07 60 00 	ld  [ %i5 ], %o0
    2990:	81 c7 e0 08 	ret 
    2994:	81 e8 00 00 	restore 

00002998 <cortos_brel_ncram>:
    2998:	9d e3 bf a0 	save  %sp, -96, %sp
    299c:	3b 00 00 5c 	sethi  %hi(0x17000), %i5
    29a0:	7f ff f6 48 	call  2c0 <cortos_lock_acquire_buzy>
    29a4:	d0 07 60 00 	ld  [ %i5 ], %o0
    29a8:	7f ff ff 91 	call  27ec <brel_ncram>
    29ac:	90 10 00 18 	mov  %i0, %o0
    29b0:	f0 07 60 00 	ld  [ %i5 ], %i0
    29b4:	7f ff f6 5d 	call  328 <cortos_lock_release>
    29b8:	81 e8 00 00 	restore 

000029bc <cortos_init_logging>:
    29bc:	84 10 20 01 	mov  1, %g2
    29c0:	03 00 00 5c 	sethi  %hi(0x17000), %g1
    29c4:	82 10 60 68 	or  %g1, 0x68, %g1	! 17068 <allocatedLocksNc>
    29c8:	c4 28 60 04 	stb  %g2, [ %g1 + 4 ]
    29cc:	05 00 00 64 	sethi  %hi(0x19000), %g2
    29d0:	03 00 00 5c 	sethi  %hi(0x17000), %g1
    29d4:	84 10 a0 04 	or  %g2, 4, %g2
    29d8:	81 c3 e0 08 	retl 
    29dc:	c4 20 60 08 	st  %g2, [ %g1 + 8 ]

000029e0 <__cortos_log_printf>:
    29e0:	9d e3 bb 80 	save  %sp, -1152, %sp
    29e4:	21 00 00 5c 	sethi  %hi(0x17000), %l0
    29e8:	fa 27 a0 58 	st  %i5, [ %fp + 0x58 ]
    29ec:	7f ff f6 35 	call  2c0 <cortos_lock_acquire_buzy>
    29f0:	d0 04 20 08 	ld  [ %l0 + 8 ], %o0
    29f4:	40 00 05 b0 	call  40b4 <cortos_get_clock_time>
    29f8:	01 00 00 00 	nop 
    29fc:	a3 47 40 00 	rd  %asr29, %l1
    2a00:	82 10 00 11 	mov  %l1, %g1
    2a04:	d0 3f bb f0 	std  %o0, [ %fp + -1040 ]
    2a08:	96 08 60 ff 	and  %g1, 0xff, %o3
    2a0c:	95 30 60 08 	srl  %g1, 8, %o2
    2a10:	c2 07 bb f0 	ld  [ %fp + -1040 ], %g1
    2a14:	c2 23 a0 60 	st  %g1, [ %sp + 0x60 ]
    2a18:	c2 07 bb f4 	ld  [ %fp + -1036 ], %g1
    2a1c:	92 10 00 18 	mov  %i0, %o1
    2a20:	c2 23 a0 64 	st  %g1, [ %sp + 0x64 ]
    2a24:	98 10 00 19 	mov  %i1, %o4
    2a28:	9a 10 00 1b 	mov  %i3, %o5
    2a2c:	94 0a a0 ff 	and  %o2, 0xff, %o2
    2a30:	f4 23 a0 5c 	st  %i2, [ %sp + 0x5c ]
    2a34:	11 00 00 59 	sethi  %hi(0x16400), %o0
    2a38:	7f ff fe f6 	call  2610 <printf_>
    2a3c:	90 12 20 10 	or  %o0, 0x10, %o0	! 16410 <__clz_tab+0x1d8>
    2a40:	94 07 a0 58 	add  %fp, 0x58, %o2
    2a44:	b0 10 00 08 	mov  %o0, %i0
    2a48:	d4 27 bb fc 	st  %o2, [ %fp + -1028 ]
    2a4c:	ba 07 bc 00 	add  %fp, -1024, %i5
    2a50:	92 10 00 1c 	mov  %i4, %o1
    2a54:	7f ff fe da 	call  25bc <vsprintf_>
    2a58:	90 10 00 1d 	mov  %i5, %o0
    2a5c:	c2 0f bc 00 	ldub  [ %fp + -1024 ], %g1
    2a60:	91 28 60 18 	sll  %g1, 0x18, %o0
    2a64:	80 a2 20 00 	cmp  %o0, 0
    2a68:	22 80 00 0c 	be,a   2a98 <__cortos_log_printf+0xb8>
    2a6c:	11 00 00 59 	sethi  %hi(0x16400), %o0
    2a70:	ba 27 40 18 	sub  %i5, %i0, %i5
    2a74:	7f ff fe 94 	call  24c4 <uart_send_char>
    2a78:	91 3a 20 18 	sra  %o0, 0x18, %o0
    2a7c:	b0 06 20 01 	inc  %i0
    2a80:	c2 0f 40 18 	ldub  [ %i5 + %i0 ], %g1
    2a84:	91 28 60 18 	sll  %g1, 0x18, %o0
    2a88:	80 a2 20 00 	cmp  %o0, 0
    2a8c:	12 bf ff fa 	bne  2a74 <__cortos_log_printf+0x94>
    2a90:	01 00 00 00 	nop 
    2a94:	11 00 00 59 	sethi  %hi(0x16400), %o0
    2a98:	7f ff fe de 	call  2610 <printf_>
    2a9c:	90 12 20 48 	or  %o0, 0x48, %o0	! 16448 <__clz_tab+0x210>
    2aa0:	b0 02 00 18 	add  %o0, %i0, %i0
    2aa4:	7f ff f6 21 	call  328 <cortos_lock_release>
    2aa8:	d0 04 20 08 	ld  [ %l0 + 8 ], %o0
    2aac:	81 c7 e0 08 	ret 
    2ab0:	81 e8 00 00 	restore 
    2ab4:	00 00 2f 2c 	unimp  0x2f2c
    2ab8:	00 00 2f 64 	unimp  0x2f64
    2abc:	00 00 2f 70 	unimp  0x2f70
    2ac0:	00 00 2f 7c 	unimp  0x2f7c
    2ac4:	00 00 2f 88 	unimp  0x2f88
    2ac8:	00 00 2f 94 	unimp  0x2f94
    2acc:	00 00 2f a0 	unimp  0x2fa0
    2ad0:	00 00 2f ac 	unimp  0x2fac
    2ad4:	00 00 2f b8 	unimp  0x2fb8
    2ad8:	00 00 2f c4 	unimp  0x2fc4
    2adc:	00 00 2f d0 	unimp  0x2fd0
    2ae0:	00 00 2f dc 	unimp  0x2fdc
    2ae4:	00 00 2f e8 	unimp  0x2fe8
    2ae8:	00 00 2f f4 	unimp  0x2ff4
    2aec:	00 00 2f 4c 	unimp  0x2f4c
    2af0:	00 00 2f 58 	unimp  0x2f58
    2af4:	00 00 30 10 	unimp  0x3010
    2af8:	00 00 30 48 	unimp  0x3048
    2afc:	00 00 30 54 	unimp  0x3054
    2b00:	00 00 30 60 	unimp  0x3060
    2b04:	00 00 30 6c 	unimp  0x306c
    2b08:	00 00 30 78 	unimp  0x3078
    2b0c:	00 00 30 84 	unimp  0x3084
    2b10:	00 00 30 90 	unimp  0x3090
    2b14:	00 00 30 9c 	unimp  0x309c
    2b18:	00 00 30 a8 	unimp  0x30a8
    2b1c:	00 00 30 b4 	unimp  0x30b4
    2b20:	00 00 30 c0 	unimp  0x30c0
    2b24:	00 00 30 cc 	unimp  0x30cc
    2b28:	00 00 30 d8 	unimp  0x30d8
    2b2c:	00 00 30 30 	unimp  0x3030
    2b30:	00 00 30 3c 	unimp  0x303c

00002b34 <__ajit_clear_all_gp_registers__>:
    2b34:	82 10 00 00 	mov  %g0, %g1
    2b38:	84 10 00 00 	mov  %g0, %g2
    2b3c:	86 10 00 00 	mov  %g0, %g3
    2b40:	88 10 00 00 	mov  %g0, %g4
    2b44:	8a 10 00 00 	mov  %g0, %g5
    2b48:	8c 10 00 00 	mov  %g0, %g6
    2b4c:	8e 10 00 00 	mov  %g0, %g7
    2b50:	b0 10 00 00 	mov  %g0, %i0
    2b54:	b2 10 00 00 	mov  %g0, %i1
    2b58:	b4 10 00 00 	mov  %g0, %i2
    2b5c:	b6 10 00 00 	mov  %g0, %i3
    2b60:	b8 10 00 00 	mov  %g0, %i4
    2b64:	ba 10 00 00 	mov  %g0, %i5
    2b68:	bc 10 00 00 	mov  %g0, %fp
    2b6c:	be 10 00 00 	mov  %g0, %i7
    2b70:	a0 10 00 00 	mov  %g0, %l0
    2b74:	a2 10 00 00 	mov  %g0, %l1
    2b78:	a4 10 00 00 	mov  %g0, %l2
    2b7c:	a6 10 00 00 	mov  %g0, %l3
    2b80:	a8 10 00 00 	mov  %g0, %l4
    2b84:	aa 10 00 00 	mov  %g0, %l5
    2b88:	ac 10 00 00 	mov  %g0, %l6
    2b8c:	ae 10 00 00 	mov  %g0, %l7
    2b90:	90 10 00 00 	mov  %g0, %o0
    2b94:	92 10 00 00 	mov  %g0, %o1
    2b98:	94 10 00 00 	mov  %g0, %o2
    2b9c:	96 10 00 00 	mov  %g0, %o3
    2ba0:	98 10 00 00 	mov  %g0, %o4
    2ba4:	9a 10 00 00 	mov  %g0, %o5
    2ba8:	9c 10 00 00 	mov  %g0, %sp
    2bac:	9e 10 00 00 	mov  %g0, %o7
    2bb0:	82 10 20 07 	mov  7, %g1
    2bb4:	81 e0 00 00 	save 
    2bb8:	a0 10 00 00 	mov  %g0, %l0
    2bbc:	a2 10 00 00 	mov  %g0, %l1
    2bc0:	a4 10 00 00 	mov  %g0, %l2
    2bc4:	a6 10 00 00 	mov  %g0, %l3
    2bc8:	a8 10 00 00 	mov  %g0, %l4
    2bcc:	aa 10 00 00 	mov  %g0, %l5
    2bd0:	ac 10 00 00 	mov  %g0, %l6
    2bd4:	ae 10 00 00 	mov  %g0, %l7
    2bd8:	90 10 00 00 	mov  %g0, %o0
    2bdc:	92 10 00 00 	mov  %g0, %o1
    2be0:	94 10 00 00 	mov  %g0, %o2
    2be4:	96 10 00 00 	mov  %g0, %o3
    2be8:	98 10 00 00 	mov  %g0, %o4
    2bec:	9a 10 00 00 	mov  %g0, %o5
    2bf0:	9c 10 00 00 	mov  %g0, %sp
    2bf4:	9e 10 00 00 	mov  %g0, %o7
    2bf8:	82 80 7f ff 	addcc  %g1, -1, %g1
    2bfc:	12 bf ff ee 	bne  2bb4 <__ajit_clear_all_gp_registers__+0x80>
    2c00:	01 00 00 00 	nop 
    2c04:	82 10 20 07 	mov  7, %g1	! 7 <__libc_errno+0x3>
    2c08:	81 e8 00 00 	restore 
    2c0c:	82 80 7f ff 	addcc  %g1, -1, %g1
    2c10:	12 bf ff fe 	bne  2c08 <__ajit_clear_all_gp_registers__+0xd4>
    2c14:	01 00 00 00 	nop 
    2c18:	81 c3 e0 08 	retl 
    2c1c:	01 00 00 00 	nop 

00002c20 <ajit_read_from_scratch_pad>:
    2c20:	80 a2 20 1f 	cmp  %o0, 0x1f
    2c24:	18 80 00 05 	bgu  2c38 <ajit_read_from_scratch_pad+0x18>
    2c28:	82 10 20 00 	clr  %g1
    2c2c:	91 2a 20 02 	sll  %o0, 2, %o0
    2c30:	03 3f ff cb 	sethi  %hi(0xffff2c00), %g1
    2c34:	c2 02 00 01 	ld  [ %o0 + %g1 ], %g1
    2c38:	81 c3 e0 08 	retl 
    2c3c:	90 10 00 01 	mov  %g1, %o0

00002c40 <ajit_write_to_scratch_pad>:
    2c40:	80 a2 20 1f 	cmp  %o0, 0x1f
    2c44:	18 80 00 04 	bgu  2c54 <ajit_write_to_scratch_pad+0x14>
    2c48:	91 2a 20 02 	sll  %o0, 2, %o0
    2c4c:	03 3f ff cb 	sethi  %hi(0xffff2c00), %g1
    2c50:	d2 22 00 01 	st  %o1, [ %o0 + %g1 ]
    2c54:	81 c3 e0 08 	retl 
    2c58:	01 00 00 00 	nop 

00002c5c <ajit_configure_i2c_master>:
    2c5c:	81 80 20 00 	mov  %g0, %y
    2c60:	01 00 00 00 	nop 
    2c64:	01 00 00 00 	nop 
    2c68:	01 00 00 00 	nop 
    2c6c:	92 72 00 09 	udiv  %o0, %o1, %o1
    2c70:	03 3f ff cd 	sethi  %hi(0xffff3400), %g1
    2c74:	93 32 60 02 	srl  %o1, 2, %o1
    2c78:	82 10 62 00 	or  %g1, 0x200, %g1
    2c7c:	90 10 20 00 	clr  %o0
    2c80:	81 c3 e0 08 	retl 
    2c84:	d2 20 40 00 	st  %o1, [ %g1 ]

00002c88 <ajit_i2c_master_is_ready>:
    2c88:	03 3f ff cd 	sethi  %hi(0xffff3400), %g1
    2c8c:	82 10 62 08 	or  %g1, 0x208, %g1	! ffff3608 <_custom_printf_handler+0xfffdc334>
    2c90:	d0 00 40 00 	ld  [ %g1 ], %o0
    2c94:	91 32 20 0a 	srl  %o0, 0xa, %o0
    2c98:	81 c3 e0 08 	retl 
    2c9c:	90 0a 20 01 	and  %o0, 1, %o0

00002ca0 <ajit_i2c_master_write_command>:
    2ca0:	03 3f ff cd 	sethi  %hi(0xffff3400), %g1
    2ca4:	82 10 62 04 	or  %g1, 0x204, %g1	! ffff3604 <_custom_printf_handler+0xfffdc330>
    2ca8:	81 c3 e0 08 	retl 
    2cac:	d0 20 40 00 	st  %o0, [ %g1 ]

00002cb0 <ajit_i2c_master_read_status>:
    2cb0:	03 3f ff cd 	sethi  %hi(0xffff3400), %g1
    2cb4:	82 10 62 08 	or  %g1, 0x208, %g1	! ffff3608 <_custom_printf_handler+0xfffdc334>
    2cb8:	81 c3 e0 08 	retl 
    2cbc:	d0 00 40 00 	ld  [ %g1 ], %o0

00002cc0 <ajit_i2c_master_access_slave_memory_device>:
    2cc0:	03 3f ff cd 	sethi  %hi(0xffff3400), %g1
    2cc4:	84 10 62 08 	or  %g1, 0x208, %g2	! ffff3608 <_custom_printf_handler+0xfffdc334>
    2cc8:	c4 00 80 00 	ld  [ %g2 ], %g2
    2ccc:	80 88 a4 00 	btst  0x400, %g2
    2cd0:	02 80 00 11 	be  2d14 <ajit_i2c_master_access_slave_memory_device+0x54>
    2cd4:	82 10 62 04 	or  %g1, 0x204, %g1
    2cd8:	91 2a 20 10 	sll  %o0, 0x10, %o0
    2cdc:	87 2a 60 1f 	sll  %o1, 0x1f, %g3
    2ce0:	09 18 00 00 	sethi  %hi(0x60000000), %g4
    2ce4:	95 2a a0 08 	sll  %o2, 8, %o2
    2ce8:	90 12 00 04 	or  %o0, %g4, %o0
    2cec:	90 12 00 03 	or  %o0, %g3, %o0
    2cf0:	94 12 00 0a 	or  %o0, %o2, %o2
    2cf4:	96 12 80 0b 	or  %o2, %o3, %o3
    2cf8:	d6 20 40 00 	st  %o3, [ %g1 ]
    2cfc:	80 a2 60 00 	cmp  %o1, 0
    2d00:	02 80 00 03 	be  2d0c <ajit_i2c_master_access_slave_memory_device+0x4c>
    2d04:	90 10 20 00 	clr  %o0
    2d08:	90 10 00 02 	mov  %g2, %o0
    2d0c:	81 c3 e0 08 	retl 
    2d10:	90 0a 20 ff 	and  %o0, 0xff, %o0
    2d14:	30 80 00 00 	b,a   2d14 <ajit_i2c_master_access_slave_memory_device+0x54>

00002d18 <__ajit_read_core_thread_id_word__>:
    2d18:	91 47 40 00 	rd  %asr29, %o0
    2d1c:	81 c3 e0 08 	retl 
    2d20:	01 00 00 00 	nop 

00002d24 <ajit_read_thread_descriptor>:
    2d24:	9d e3 bf a0 	save  %sp, -96, %sp
    2d28:	83 47 00 00 	rd  %asr28, %g1
    2d2c:	87 30 60 1e 	srl  %g1, 0x1e, %g3
    2d30:	80 a0 e0 03 	cmp  %g3, 3
    2d34:	02 80 00 0a 	be  2d5c <ajit_read_thread_descriptor+0x38>
    2d38:	84 10 20 20 	mov  0x20, %g2
    2d3c:	80 a0 e0 02 	cmp  %g3, 2
    2d40:	02 80 00 07 	be  2d5c <ajit_read_thread_descriptor+0x38>
    2d44:	84 10 20 10 	mov  0x10, %g2
    2d48:	86 18 e0 01 	xor  %g3, 1, %g3
    2d4c:	80 a0 00 03 	cmp  %g0, %g3
    2d50:	84 60 20 00 	subx  %g0, 0, %g2
    2d54:	84 08 a0 fc 	and  %g2, 0xfc, %g2
    2d58:	84 00 a0 08 	add  %g2, 8, %g2
    2d5c:	87 30 60 1c 	srl  %g1, 0x1c, %g3
    2d60:	86 08 e0 03 	and  %g3, 3, %g3
    2d64:	80 a0 e0 03 	cmp  %g3, 3
    2d68:	02 80 00 2d 	be  2e1c <ajit_read_thread_descriptor+0xf8>
    2d6c:	c4 2e 00 00 	stb  %g2, [ %i0 ]
    2d70:	80 a0 e0 02 	cmp  %g3, 2
    2d74:	02 80 00 07 	be  2d90 <ajit_read_thread_descriptor+0x6c>
    2d78:	84 10 20 10 	mov  0x10, %g2
    2d7c:	86 18 e0 01 	xor  %g3, 1, %g3
    2d80:	80 a0 00 03 	cmp  %g0, %g3
    2d84:	84 60 20 00 	subx  %g0, 0, %g2
    2d88:	84 08 a0 fc 	and  %g2, 0xfc, %g2
    2d8c:	84 00 a0 08 	add  %g2, 8, %g2
    2d90:	99 30 60 1a 	srl  %g1, 0x1a, %o4
    2d94:	9b 30 60 18 	srl  %g1, 0x18, %o5
    2d98:	9f 30 60 14 	srl  %g1, 0x14, %o7
    2d9c:	b3 30 60 10 	srl  %g1, 0x10, %i1
    2da0:	b5 30 60 0c 	srl  %g1, 0xc, %i2
    2da4:	b7 30 60 09 	srl  %g1, 9, %i3
    2da8:	b9 30 60 07 	srl  %g1, 7, %i4
    2dac:	bb 30 60 05 	srl  %g1, 5, %i5
    2db0:	89 30 60 02 	srl  %g1, 2, %g4
    2db4:	87 30 60 01 	srl  %g1, 1, %g3
    2db8:	98 0b 20 03 	and  %o4, 3, %o4
    2dbc:	9a 0b 60 03 	and  %o5, 3, %o5
    2dc0:	9e 0b e0 0f 	and  %o7, 0xf, %o7
    2dc4:	b2 0e 60 0f 	and  %i1, 0xf, %i1
    2dc8:	b4 0e a0 0f 	and  %i2, 0xf, %i2
    2dcc:	b6 0e e0 07 	and  %i3, 7, %i3
    2dd0:	b8 0f 20 03 	and  %i4, 3, %i4
    2dd4:	ba 0f 60 03 	and  %i5, 3, %i5
    2dd8:	88 09 20 01 	and  %g4, 1, %g4
    2ddc:	86 08 e0 01 	and  %g3, 1, %g3
    2de0:	82 08 60 01 	and  %g1, 1, %g1
    2de4:	c4 2e 20 01 	stb  %g2, [ %i0 + 1 ]
    2de8:	d8 2e 20 02 	stb  %o4, [ %i0 + 2 ]
    2dec:	da 2e 20 03 	stb  %o5, [ %i0 + 3 ]
    2df0:	de 2e 20 04 	stb  %o7, [ %i0 + 4 ]
    2df4:	f2 2e 20 05 	stb  %i1, [ %i0 + 5 ]
    2df8:	f4 2e 20 06 	stb  %i2, [ %i0 + 6 ]
    2dfc:	f6 2e 20 07 	stb  %i3, [ %i0 + 7 ]
    2e00:	f8 2e 20 08 	stb  %i4, [ %i0 + 8 ]
    2e04:	fa 2e 20 09 	stb  %i5, [ %i0 + 9 ]
    2e08:	c8 2e 20 0a 	stb  %g4, [ %i0 + 0xa ]
    2e0c:	c6 2e 20 0b 	stb  %g3, [ %i0 + 0xb ]
    2e10:	c2 2e 20 0c 	stb  %g1, [ %i0 + 0xc ]
    2e14:	81 c7 e0 08 	ret 
    2e18:	81 e8 00 00 	restore 
    2e1c:	10 bf ff dd 	b  2d90 <ajit_read_thread_descriptor+0x6c>
    2e20:	84 10 20 20 	mov  0x20, %g2

00002e24 <ajit_get_core_and_thread_id>:
    2e24:	83 47 40 00 	rd  %asr29, %g1
    2e28:	85 30 60 08 	srl  %g1, 8, %g2
    2e2c:	c4 2a 00 00 	stb  %g2, [ %o0 ]
    2e30:	81 c3 e0 08 	retl 
    2e34:	c2 2a 40 00 	stb  %g1, [ %o1 ]

00002e38 <__ajit_read_cycle_count_register_high__>:
    2e38:	91 47 80 00 	rd  %asr30, %o0
    2e3c:	81 c3 e0 08 	retl 
    2e40:	01 00 00 00 	nop 

00002e44 <__ajit_read_cycle_count_register_low__>:
    2e44:	91 47 c0 00 	rd  %asr31, %o0
    2e48:	81 c3 e0 08 	retl 
    2e4c:	01 00 00 00 	nop 

00002e50 <__ajit_get_clock_time>:
    2e50:	99 47 c0 00 	rd  %asr31, %o4
    2e54:	83 47 80 00 	rd  %asr30, %g1
    2e58:	86 10 20 00 	clr  %g3
    2e5c:	9a 10 00 0c 	mov  %o4, %o5
    2e60:	98 10 20 00 	clr  %o4
    2e64:	86 10 c0 0d 	or  %g3, %o5, %g3
    2e68:	84 10 40 0c 	or  %g1, %o4, %g2
    2e6c:	92 10 00 03 	mov  %g3, %o1
    2e70:	81 c3 e0 08 	retl 
    2e74:	90 10 00 02 	mov  %g2, %o0

00002e78 <__ajit_sleep__>:
    2e78:	95 47 c0 00 	rd  %asr31, %o2
    2e7c:	83 47 80 00 	rd  %asr30, %g1
    2e80:	9a 10 20 00 	clr  %o5
    2e84:	96 10 00 0a 	mov  %o2, %o3
    2e88:	9a 13 40 0b 	or  %o5, %o3, %o5
    2e8c:	92 83 40 08 	addcc  %o5, %o0, %o1
    2e90:	94 10 20 00 	clr  %o2
    2e94:	98 10 40 0a 	or  %g1, %o2, %o4
    2e98:	90 43 20 00 	addx  %o4, 0, %o0
    2e9c:	80 a2 00 0c 	cmp  %o0, %o4
    2ea0:	08 80 00 0c 	bleu  2ed0 <__ajit_sleep__+0x58>
    2ea4:	01 00 00 00 	nop 
    2ea8:	99 47 c0 00 	rd  %asr31, %o4
    2eac:	83 47 80 00 	rd  %asr30, %g1
    2eb0:	86 10 20 00 	clr  %g3
    2eb4:	9a 10 00 0c 	mov  %o4, %o5
    2eb8:	98 10 20 00 	clr  %o4
    2ebc:	98 10 40 0c 	or  %g1, %o4, %o4
    2ec0:	80 a2 00 0c 	cmp  %o0, %o4
    2ec4:	18 bf ff f9 	bgu  2ea8 <__ajit_sleep__+0x30>
    2ec8:	9a 10 c0 0d 	or  %g3, %o5, %o5
    2ecc:	80 a2 00 0c 	cmp  %o0, %o4
    2ed0:	12 80 00 04 	bne  2ee0 <__ajit_sleep__+0x68>
    2ed4:	80 a2 40 0d 	cmp  %o1, %o5
    2ed8:	18 bf ff f4 	bgu  2ea8 <__ajit_sleep__+0x30>
    2edc:	01 00 00 00 	nop 
    2ee0:	81 c3 e0 08 	retl 
    2ee4:	01 00 00 00 	nop 

00002ee8 <__ajit_set_mmu_default_cacheable_bit__>:
    2ee8:	80 a0 00 08 	cmp  %g0, %o0
    2eec:	84 10 20 00 	clr  %g2
    2ef0:	82 40 20 00 	addx  %g0, 0, %g1
    2ef4:	83 28 60 08 	sll  %g1, 8, %g1
    2ef8:	c2 a0 80 80 	sta  %g1, [ %g2 ] #ASI_N
    2efc:	81 c3 e0 08 	retl 
    2f00:	01 00 00 00 	nop 

00002f04 <__ajit_store_word_mmu_reg__>:
    2f04:	d0 a2 40 80 	sta  %o0, [ %o1 ] #ASI_N
    2f08:	81 c3 e0 08 	retl 
    2f0c:	01 00 00 00 	nop 

00002f10 <__ajit_store_word_mmu_bypass__>:
    2f10:	d0 a2 44 00 	sta  %o0, [ %o1 ] #ASI_SCRATCHPAD
    2f14:	81 c3 e0 08 	retl 
    2f18:	01 00 00 00 	nop 

00002f1c <__ajit_store_word_to_physical_address__>:
    2f1c:	86 0a 60 0f 	and  %o1, 0xf, %g3
    2f20:	80 a0 e0 0f 	cmp  %g3, 0xf
    2f24:	08 80 00 05 	bleu  2f38 <__ajit_store_word_to_physical_address__+0x1c>
    2f28:	83 28 e0 02 	sll  %g3, 2, %g1
    2f2c:	d0 a2 84 00 	sta  %o0, [ %o2 ] #ASI_SCRATCHPAD
    2f30:	81 c3 e0 08 	retl 
    2f34:	01 00 00 00 	nop 
    2f38:	05 00 00 0a 	sethi  %hi(0x2800), %g2
    2f3c:	84 10 a2 b4 	or  %g2, 0x2b4, %g2	! 2ab4 <__cortos_log_printf+0xd4>
    2f40:	c2 00 80 01 	ld  [ %g2 + %g1 ], %g1
    2f44:	81 c0 40 00 	jmp  %g1
    2f48:	01 00 00 00 	nop 
    2f4c:	d0 a2 85 c0 	sta  %o0, [ %o2 ] (46)
    2f50:	81 c3 e0 08 	retl 
    2f54:	01 00 00 00 	nop 
    2f58:	d0 a2 85 e0 	sta  %o0, [ %o2 ] (47)
    2f5c:	81 c3 e0 08 	retl 
    2f60:	01 00 00 00 	nop 
    2f64:	d0 a2 84 20 	sta  %o0, [ %o2 ] #ASI_MMU
    2f68:	81 c3 e0 08 	retl 
    2f6c:	01 00 00 00 	nop 
    2f70:	d0 a2 84 40 	sta  %o0, [ %o2 ] (34)
    2f74:	81 c3 e0 08 	retl 
    2f78:	01 00 00 00 	nop 
    2f7c:	d0 a2 84 60 	sta  %o0, [ %o2 ] #ASI_BLK_INIT_QUAD_LDD_AIUS
    2f80:	81 c3 e0 08 	retl 
    2f84:	01 00 00 00 	nop 
    2f88:	d0 a2 84 80 	sta  %o0, [ %o2 ] #ASI_NUCLEUS_QUAD_LDD
    2f8c:	81 c3 e0 08 	retl 
    2f90:	01 00 00 00 	nop 
    2f94:	d0 a2 84 a0 	sta  %o0, [ %o2 ] #ASI_QUEUE
    2f98:	81 c3 e0 08 	retl 
    2f9c:	01 00 00 00 	nop 
    2fa0:	d0 a2 84 c0 	sta  %o0, [ %o2 ] #ASI_QUAD_LDD_PHYS_4V
    2fa4:	81 c3 e0 08 	retl 
    2fa8:	01 00 00 00 	nop 
    2fac:	d0 a2 84 e0 	sta  %o0, [ %o2 ] (39)
    2fb0:	81 c3 e0 08 	retl 
    2fb4:	01 00 00 00 	nop 
    2fb8:	d0 a2 85 00 	sta  %o0, [ %o2 ] (40)
    2fbc:	81 c3 e0 08 	retl 
    2fc0:	01 00 00 00 	nop 
    2fc4:	d0 a2 85 20 	sta  %o0, [ %o2 ] (41)
    2fc8:	81 c3 e0 08 	retl 
    2fcc:	01 00 00 00 	nop 
    2fd0:	d0 a2 85 40 	sta  %o0, [ %o2 ] (42)
    2fd4:	81 c3 e0 08 	retl 
    2fd8:	01 00 00 00 	nop 
    2fdc:	d0 a2 85 60 	sta  %o0, [ %o2 ] (43)
    2fe0:	81 c3 e0 08 	retl 
    2fe4:	01 00 00 00 	nop 
    2fe8:	d0 a2 85 80 	sta  %o0, [ %o2 ] #ASI_NUCLEUS_QUAD_LDD_L
    2fec:	81 c3 e0 08 	retl 
    2ff0:	01 00 00 00 	nop 
    2ff4:	d0 a2 85 a0 	sta  %o0, [ %o2 ] (45)
    2ff8:	81 c3 e0 08 	retl 
    2ffc:	01 00 00 00 	nop 

00003000 <__ajit_load_word_from_physical_address__>:
    3000:	86 0a 20 0f 	and  %o0, 0xf, %g3
    3004:	80 a0 e0 0f 	cmp  %g3, 0xf
    3008:	08 80 00 05 	bleu  301c <__ajit_load_word_from_physical_address__+0x1c>
    300c:	83 28 e0 02 	sll  %g3, 2, %g1
    3010:	d0 82 44 00 	lda  [ %o1 ] #ASI_SCRATCHPAD, %o0
    3014:	81 c3 e0 08 	retl 
    3018:	01 00 00 00 	nop 
    301c:	05 00 00 0a 	sethi  %hi(0x2800), %g2
    3020:	84 10 a2 f4 	or  %g2, 0x2f4, %g2	! 2af4 <__cortos_log_printf+0x114>
    3024:	c2 00 80 01 	ld  [ %g2 + %g1 ], %g1
    3028:	81 c0 40 00 	jmp  %g1
    302c:	01 00 00 00 	nop 
    3030:	d0 82 45 c0 	lda  [ %o1 ] (46), %o0
    3034:	81 c3 e0 08 	retl 
    3038:	01 00 00 00 	nop 
    303c:	d0 82 45 e0 	lda  [ %o1 ] (47), %o0
    3040:	81 c3 e0 08 	retl 
    3044:	01 00 00 00 	nop 
    3048:	d0 82 44 20 	lda  [ %o1 ] #ASI_MMU, %o0
    304c:	81 c3 e0 08 	retl 
    3050:	01 00 00 00 	nop 
    3054:	d0 82 44 40 	lda  [ %o1 ] (34), %o0
    3058:	81 c3 e0 08 	retl 
    305c:	01 00 00 00 	nop 
    3060:	d0 82 44 60 	lda  [ %o1 ] #ASI_BLK_INIT_QUAD_LDD_AIUS, %o0
    3064:	81 c3 e0 08 	retl 
    3068:	01 00 00 00 	nop 
    306c:	d0 82 44 80 	lda  [ %o1 ] #ASI_NUCLEUS_QUAD_LDD, %o0
    3070:	81 c3 e0 08 	retl 
    3074:	01 00 00 00 	nop 
    3078:	d0 82 44 a0 	lda  [ %o1 ] #ASI_QUEUE, %o0
    307c:	81 c3 e0 08 	retl 
    3080:	01 00 00 00 	nop 
    3084:	d0 82 44 c0 	lda  [ %o1 ] #ASI_QUAD_LDD_PHYS_4V, %o0
    3088:	81 c3 e0 08 	retl 
    308c:	01 00 00 00 	nop 
    3090:	d0 82 44 e0 	lda  [ %o1 ] (39), %o0
    3094:	81 c3 e0 08 	retl 
    3098:	01 00 00 00 	nop 
    309c:	d0 82 45 00 	lda  [ %o1 ] (40), %o0
    30a0:	81 c3 e0 08 	retl 
    30a4:	01 00 00 00 	nop 
    30a8:	d0 82 45 20 	lda  [ %o1 ] (41), %o0
    30ac:	81 c3 e0 08 	retl 
    30b0:	01 00 00 00 	nop 
    30b4:	d0 82 45 40 	lda  [ %o1 ] (42), %o0
    30b8:	81 c3 e0 08 	retl 
    30bc:	01 00 00 00 	nop 
    30c0:	d0 82 45 60 	lda  [ %o1 ] (43), %o0
    30c4:	81 c3 e0 08 	retl 
    30c8:	01 00 00 00 	nop 
    30cc:	d0 82 45 80 	lda  [ %o1 ] #ASI_NUCLEUS_QUAD_LDD_L, %o0
    30d0:	81 c3 e0 08 	retl 
    30d4:	01 00 00 00 	nop 
    30d8:	d0 82 45 a0 	lda  [ %o1 ] (45), %o0
    30dc:	81 c3 e0 08 	retl 
    30e0:	01 00 00 00 	nop 

000030e4 <__ajit_load_word_mmu_reg__>:
    30e4:	d0 82 00 80 	lda  [ %o0 ] #ASI_N, %o0
    30e8:	81 c3 e0 08 	retl 
    30ec:	01 00 00 00 	nop 

000030f0 <__ajit_load_word_mmu_bypass__>:
    30f0:	d0 82 04 00 	lda  [ %o0 ] #ASI_SCRATCHPAD, %o0
    30f4:	81 c3 e0 08 	retl 
    30f8:	01 00 00 00 	nop 

000030fc <__ajit_flush_icache__>:
    30fc:	81 d8 20 00 	flush  %g0
    3100:	81 c3 e0 08 	retl 
    3104:	01 00 00 00 	nop 

00003108 <__ajit_flush_dcache__>:
    3108:	c0 a0 02 60 	sta  %g0, [ %g0 ] (19)
    310c:	81 c3 e0 08 	retl 
    3110:	01 00 00 00 	nop 

00003114 <__ajit_write_timer_control_register_via_bypass__>:
    3114:	03 3f ff cc 	sethi  %hi(0xffff3000), %g1
    3118:	82 10 61 00 	or  %g1, 0x100, %g1	! ffff3100 <_custom_printf_handler+0xfffdbe2c>
    311c:	d0 a0 44 00 	sta  %o0, [ %g1 ] #ASI_SCRATCHPAD
    3120:	81 c3 e0 08 	retl 
    3124:	01 00 00 00 	nop 

00003128 <__ajit_read_timer_control_register_via_bypass__>:
    3128:	11 3f ff cc 	sethi  %hi(0xffff3000), %o0
    312c:	90 12 21 00 	or  %o0, 0x100, %o0	! ffff3100 <_custom_printf_handler+0xfffdbe2c>
    3130:	d0 82 04 00 	lda  [ %o0 ] #ASI_SCRATCHPAD, %o0
    3134:	81 c3 e0 08 	retl 
    3138:	01 00 00 00 	nop 

0000313c <__ajit_write_timer_control_register_via_vmap__>:
    313c:	03 3f ff cc 	sethi  %hi(0xffff3000), %g1
    3140:	82 10 61 00 	or  %g1, 0x100, %g1	! ffff3100 <_custom_printf_handler+0xfffdbe2c>
    3144:	81 c3 e0 08 	retl 
    3148:	d0 20 40 00 	st  %o0, [ %g1 ]

0000314c <__ajit_read_timer_control_register_via_vmap__>:
    314c:	03 3f ff cc 	sethi  %hi(0xffff3000), %g1
    3150:	82 10 61 00 	or  %g1, 0x100, %g1	! ffff3100 <_custom_printf_handler+0xfffdbe2c>
    3154:	81 c3 e0 08 	retl 
    3158:	d0 00 40 00 	ld  [ %g1 ], %o0

0000315c <__ajit_write_serial_control_register_via_bypass__>:
    315c:	03 3f ff cc 	sethi  %hi(0xffff3000), %g1
    3160:	82 10 62 00 	or  %g1, 0x200, %g1	! ffff3200 <_custom_printf_handler+0xfffdbf2c>
    3164:	d0 a0 44 00 	sta  %o0, [ %g1 ] #ASI_SCRATCHPAD
    3168:	81 c3 e0 08 	retl 
    316c:	01 00 00 00 	nop 

00003170 <__ajit_read_serial_control_register_via_bypass__>:
    3170:	11 3f ff cc 	sethi  %hi(0xffff3000), %o0
    3174:	90 12 22 00 	or  %o0, 0x200, %o0	! ffff3200 <_custom_printf_handler+0xfffdbf2c>
    3178:	d0 82 04 00 	lda  [ %o0 ] #ASI_SCRATCHPAD, %o0
    317c:	81 c3 e0 08 	retl 
    3180:	01 00 00 00 	nop 

00003184 <__ajit_write_serial_tx_register_via_bypass__>:
    3184:	03 3f ff cc 	sethi  %hi(0xffff3000), %g1
    3188:	82 10 62 04 	or  %g1, 0x204, %g1	! ffff3204 <_custom_printf_handler+0xfffdbf30>
    318c:	d0 a8 44 00 	stba  %o0, [ %g1 ] #ASI_SCRATCHPAD
    3190:	81 c3 e0 08 	retl 
    3194:	01 00 00 00 	nop 

00003198 <__ajit_read_serial_tx_register_via_bypass__>:
    3198:	11 3f ff cc 	sethi  %hi(0xffff3000), %o0
    319c:	90 12 22 04 	or  %o0, 0x204, %o0	! ffff3204 <_custom_printf_handler+0xfffdbf30>
    31a0:	d0 8a 04 00 	lduba  [ %o0 ] #ASI_SCRATCHPAD, %o0
    31a4:	81 c3 e0 08 	retl 
    31a8:	90 0a 20 ff 	and  %o0, 0xff, %o0

000031ac <__ajit_read_serial_rx_register_via_bypass__>:
    31ac:	11 3f ff cc 	sethi  %hi(0xffff3000), %o0
    31b0:	90 12 22 08 	or  %o0, 0x208, %o0	! ffff3208 <_custom_printf_handler+0xfffdbf34>
    31b4:	d0 8a 04 00 	lduba  [ %o0 ] #ASI_SCRATCHPAD, %o0
    31b8:	81 c3 e0 08 	retl 
    31bc:	90 0a 20 ff 	and  %o0, 0xff, %o0

000031c0 <__ajit_write_serial_baud_limit_register_via_bypass__>:
    31c0:	03 3f ff cc 	sethi  %hi(0xffff3000), %g1
    31c4:	82 10 62 0c 	or  %g1, 0x20c, %g1	! ffff320c <_custom_printf_handler+0xfffdbf38>
    31c8:	d0 a0 44 00 	sta  %o0, [ %g1 ] #ASI_SCRATCHPAD
    31cc:	81 c3 e0 08 	retl 
    31d0:	01 00 00 00 	nop 

000031d4 <__ajit_read_serial_baud_limit_register_via_bypass__>:
    31d4:	11 3f ff cc 	sethi  %hi(0xffff3000), %o0
    31d8:	90 12 22 0c 	or  %o0, 0x20c, %o0	! ffff320c <_custom_printf_handler+0xfffdbf38>
    31dc:	d0 82 04 00 	lda  [ %o0 ] #ASI_SCRATCHPAD, %o0
    31e0:	81 c3 e0 08 	retl 
    31e4:	01 00 00 00 	nop 

000031e8 <__ajit_write_serial_baud_frequency_register_via_bypass__>:
    31e8:	03 3f ff cc 	sethi  %hi(0xffff3000), %g1
    31ec:	82 10 62 10 	or  %g1, 0x210, %g1	! ffff3210 <_custom_printf_handler+0xfffdbf3c>
    31f0:	d0 a0 44 00 	sta  %o0, [ %g1 ] #ASI_SCRATCHPAD
    31f4:	81 c3 e0 08 	retl 
    31f8:	01 00 00 00 	nop 

000031fc <__ajit_read_serial_baud_frequency_register_via_bypass__>:
    31fc:	11 3f ff cc 	sethi  %hi(0xffff3000), %o0
    3200:	90 12 22 10 	or  %o0, 0x210, %o0	! ffff3210 <_custom_printf_handler+0xfffdbf3c>
    3204:	d0 82 04 00 	lda  [ %o0 ] #ASI_SCRATCHPAD, %o0
    3208:	81 c3 e0 08 	retl 
    320c:	01 00 00 00 	nop 

00003210 <__ajit_serial_set_baudrate_via_bypass__>:
    3210:	91 2a 20 04 	sll  %o0, 4, %o0
    3214:	80 a2 00 09 	cmp  %o0, %o1
    3218:	1a 80 00 25 	bcc  32ac <__ajit_serial_set_baudrate_via_bypass__+0x9c>
    321c:	03 3f ff cc 	sethi  %hi(0xffff3000), %g1
    3220:	80 a2 20 00 	cmp  %o0, 0
    3224:	22 80 00 23 	be,a   32b0 <__ajit_serial_set_baudrate_via_bypass__+0xa0>
    3228:	84 10 20 00 	clr  %g2
    322c:	84 10 00 09 	mov  %o1, %g2
    3230:	10 80 00 03 	b  323c <__ajit_serial_set_baudrate_via_bypass__+0x2c>
    3234:	82 10 00 08 	mov  %o0, %g1
    3238:	82 10 00 03 	mov  %g3, %g1
    323c:	81 80 20 00 	mov  %g0, %y
    3240:	01 00 00 00 	nop 
    3244:	01 00 00 00 	nop 
    3248:	01 00 00 00 	nop 
    324c:	86 70 80 01 	udiv  %g2, %g1, %g3
    3250:	86 58 c0 01 	smul  %g3, %g1, %g3
    3254:	86 20 80 03 	sub  %g2, %g3, %g3
    3258:	80 a0 e0 00 	cmp  %g3, 0
    325c:	12 bf ff f7 	bne  3238 <__ajit_serial_set_baudrate_via_bypass__+0x28>
    3260:	84 10 00 01 	mov  %g1, %g2
    3264:	81 80 20 00 	mov  %g0, %y
    3268:	01 00 00 00 	nop 
    326c:	01 00 00 00 	nop 
    3270:	01 00 00 00 	nop 
    3274:	84 72 00 01 	udiv  %o0, %g1, %g2
    3278:	81 80 20 00 	mov  %g0, %y
    327c:	01 00 00 00 	nop 
    3280:	01 00 00 00 	nop 
    3284:	01 00 00 00 	nop 
    3288:	86 72 40 01 	udiv  %o1, %g1, %g3
    328c:	03 3f ff cc 	sethi  %hi(0xffff3000), %g1
    3290:	86 20 c0 02 	sub  %g3, %g2, %g3
    3294:	88 10 62 0c 	or  %g1, 0x20c, %g4
    3298:	c6 a1 04 00 	sta  %g3, [ %g4 ] #ASI_SCRATCHPAD
    329c:	82 10 62 10 	or  %g1, 0x210, %g1
    32a0:	c4 a0 44 00 	sta  %g2, [ %g1 ] #ASI_SCRATCHPAD
    32a4:	81 c3 e0 08 	retl 
    32a8:	01 00 00 00 	nop 
    32ac:	84 10 20 00 	clr  %g2	! 0 <_start>
    32b0:	86 10 20 00 	clr  %g3
    32b4:	88 10 62 0c 	or  %g1, 0x20c, %g4
    32b8:	c6 a1 04 00 	sta  %g3, [ %g4 ] #ASI_SCRATCHPAD
    32bc:	82 10 62 10 	or  %g1, 0x210, %g1
    32c0:	c4 a0 44 00 	sta  %g2, [ %g1 ] #ASI_SCRATCHPAD
    32c4:	81 c3 e0 08 	retl 
    32c8:	01 00 00 00 	nop 

000032cc <__ajit_write_serial_control_register_via_vmap__>:
    32cc:	03 3f ff cc 	sethi  %hi(0xffff3000), %g1
    32d0:	82 10 62 00 	or  %g1, 0x200, %g1	! ffff3200 <_custom_printf_handler+0xfffdbf2c>
    32d4:	81 c3 e0 08 	retl 
    32d8:	d0 20 40 00 	st  %o0, [ %g1 ]

000032dc <__ajit_read_serial_control_register_via_vmap__>:
    32dc:	03 3f ff cc 	sethi  %hi(0xffff3000), %g1
    32e0:	82 10 62 00 	or  %g1, 0x200, %g1	! ffff3200 <_custom_printf_handler+0xfffdbf2c>
    32e4:	81 c3 e0 08 	retl 
    32e8:	d0 08 40 00 	ldub  [ %g1 ], %o0

000032ec <__ajit_write_serial_tx_register_via_vmap__>:
    32ec:	03 3f ff cc 	sethi  %hi(0xffff3000), %g1
    32f0:	82 10 62 04 	or  %g1, 0x204, %g1	! ffff3204 <_custom_printf_handler+0xfffdbf30>
    32f4:	81 c3 e0 08 	retl 
    32f8:	d0 28 40 00 	stb  %o0, [ %g1 ]

000032fc <__ajit_read_serial_tx_register_via_vmap__>:
    32fc:	03 3f ff cc 	sethi  %hi(0xffff3000), %g1
    3300:	82 10 62 04 	or  %g1, 0x204, %g1	! ffff3204 <_custom_printf_handler+0xfffdbf30>
    3304:	81 c3 e0 08 	retl 
    3308:	d0 08 40 00 	ldub  [ %g1 ], %o0

0000330c <__ajit_read_serial_rx_register_via_vmap__>:
    330c:	03 3f ff cc 	sethi  %hi(0xffff3000), %g1
    3310:	82 10 62 08 	or  %g1, 0x208, %g1	! ffff3208 <_custom_printf_handler+0xfffdbf34>
    3314:	81 c3 e0 08 	retl 
    3318:	d0 08 40 00 	ldub  [ %g1 ], %o0

0000331c <__ajit_serial_set_baudrate_via_vmap__>:
    331c:	91 2a 20 04 	sll  %o0, 4, %o0
    3320:	80 a2 00 09 	cmp  %o0, %o1
    3324:	1a 80 00 24 	bcc  33b4 <__ajit_serial_set_baudrate_via_vmap__+0x98>
    3328:	03 3f ff cc 	sethi  %hi(0xffff3000), %g1
    332c:	80 a2 20 00 	cmp  %o0, 0
    3330:	02 80 00 22 	be  33b8 <__ajit_serial_set_baudrate_via_vmap__+0x9c>
    3334:	88 10 20 00 	clr  %g4
    3338:	84 10 00 09 	mov  %o1, %g2
    333c:	10 80 00 03 	b  3348 <__ajit_serial_set_baudrate_via_vmap__+0x2c>
    3340:	82 10 00 08 	mov  %o0, %g1
    3344:	82 10 00 03 	mov  %g3, %g1
    3348:	81 80 20 00 	mov  %g0, %y
    334c:	01 00 00 00 	nop 
    3350:	01 00 00 00 	nop 
    3354:	01 00 00 00 	nop 
    3358:	86 70 80 01 	udiv  %g2, %g1, %g3
    335c:	86 58 c0 01 	smul  %g3, %g1, %g3
    3360:	86 20 80 03 	sub  %g2, %g3, %g3
    3364:	80 a0 e0 00 	cmp  %g3, 0
    3368:	12 bf ff f7 	bne  3344 <__ajit_serial_set_baudrate_via_vmap__+0x28>
    336c:	84 10 00 01 	mov  %g1, %g2
    3370:	81 80 20 00 	mov  %g0, %y
    3374:	01 00 00 00 	nop 
    3378:	01 00 00 00 	nop 
    337c:	01 00 00 00 	nop 
    3380:	84 72 00 01 	udiv  %o0, %g1, %g2
    3384:	81 80 20 00 	mov  %g0, %y
    3388:	01 00 00 00 	nop 
    338c:	01 00 00 00 	nop 
    3390:	01 00 00 00 	nop 
    3394:	88 72 40 01 	udiv  %o1, %g1, %g4
    3398:	03 3f ff cc 	sethi  %hi(0xffff3000), %g1
    339c:	88 21 00 02 	sub  %g4, %g2, %g4
    33a0:	86 10 62 0c 	or  %g1, 0x20c, %g3
    33a4:	c8 20 c0 00 	st  %g4, [ %g3 ]
    33a8:	82 10 62 10 	or  %g1, 0x210, %g1
    33ac:	81 c3 e0 08 	retl 
    33b0:	c4 20 40 00 	st  %g2, [ %g1 ]
    33b4:	88 10 20 00 	clr  %g4
    33b8:	86 10 62 0c 	or  %g1, 0x20c, %g3
    33bc:	c8 20 c0 00 	st  %g4, [ %g3 ]
    33c0:	84 10 20 00 	clr  %g2
    33c4:	82 10 62 10 	or  %g1, 0x210, %g1
    33c8:	81 c3 e0 08 	retl 
    33cc:	c4 20 40 00 	st  %g2, [ %g1 ]

000033d0 <__ajit_read_serial_baud_limit_register_via_vmap__>:
    33d0:	03 3f ff cc 	sethi  %hi(0xffff3000), %g1
    33d4:	82 10 62 0c 	or  %g1, 0x20c, %g1	! ffff320c <_custom_printf_handler+0xfffdbf38>
    33d8:	81 c3 e0 08 	retl 
    33dc:	d0 00 40 00 	ld  [ %g1 ], %o0

000033e0 <__ajit_write_serial_baud_limit_register_via_vmap__>:
    33e0:	03 3f ff cc 	sethi  %hi(0xffff3000), %g1
    33e4:	82 10 62 0c 	or  %g1, 0x20c, %g1	! ffff320c <_custom_printf_handler+0xfffdbf38>
    33e8:	81 c3 e0 08 	retl 
    33ec:	d0 20 40 00 	st  %o0, [ %g1 ]

000033f0 <__ajit_read_serial_baud_frequency_register_via_vmap__>:
    33f0:	03 3f ff cc 	sethi  %hi(0xffff3000), %g1
    33f4:	82 10 62 10 	or  %g1, 0x210, %g1	! ffff3210 <_custom_printf_handler+0xfffdbf3c>
    33f8:	81 c3 e0 08 	retl 
    33fc:	d0 00 40 00 	ld  [ %g1 ], %o0

00003400 <__ajit_write_serial_baud_frequency_register_via_vmap__>:
    3400:	03 3f ff cc 	sethi  %hi(0xffff3000), %g1
    3404:	82 10 62 10 	or  %g1, 0x210, %g1	! ffff3210 <_custom_printf_handler+0xfffdbf3c>
    3408:	81 c3 e0 08 	retl 
    340c:	d0 20 40 00 	st  %o0, [ %g1 ]

00003410 <calculate_baud_control_values_for_uart>:
    3410:	91 2a 20 04 	sll  %o0, 4, %o0
    3414:	80 a2 00 09 	cmp  %o0, %o1
    3418:	1a 80 00 05 	bcc  342c <calculate_baud_control_values_for_uart+0x1c>
    341c:	c0 22 80 00 	clr  [ %o2 ]
    3420:	82 92 20 00 	orcc  %o0, 0, %g1
    3424:	12 80 00 05 	bne  3438 <calculate_baud_control_values_for_uart+0x28>
    3428:	84 10 00 09 	mov  %o1, %g2
    342c:	81 c3 e0 08 	retl 
    3430:	c0 22 c0 00 	clr  [ %o3 ]
    3434:	82 10 00 03 	mov  %g3, %g1
    3438:	81 80 20 00 	mov  %g0, %y
    343c:	01 00 00 00 	nop 
    3440:	01 00 00 00 	nop 
    3444:	01 00 00 00 	nop 
    3448:	86 70 80 01 	udiv  %g2, %g1, %g3
    344c:	86 58 c0 01 	smul  %g3, %g1, %g3
    3450:	86 20 80 03 	sub  %g2, %g3, %g3
    3454:	80 a0 e0 00 	cmp  %g3, 0
    3458:	12 bf ff f7 	bne  3434 <calculate_baud_control_values_for_uart+0x24>
    345c:	84 10 00 01 	mov  %g1, %g2
    3460:	81 80 20 00 	mov  %g0, %y
    3464:	01 00 00 00 	nop 
    3468:	01 00 00 00 	nop 
    346c:	01 00 00 00 	nop 
    3470:	84 72 00 01 	udiv  %o0, %g1, %g2
    3474:	c4 22 c0 00 	st  %g2, [ %o3 ]
    3478:	81 80 20 00 	mov  %g0, %y
    347c:	01 00 00 00 	nop 
    3480:	01 00 00 00 	nop 
    3484:	01 00 00 00 	nop 
    3488:	86 72 40 01 	udiv  %o1, %g1, %g3
    348c:	84 20 c0 02 	sub  %g3, %g2, %g2
    3490:	81 c3 e0 08 	retl 
    3494:	c4 22 80 00 	st  %g2, [ %o2 ]

00003498 <__ajit_serial_configure_inner__>:
    3498:	05 3f ff cc 	sethi  %hi(0xffff3000), %g2
    349c:	80 a2 60 00 	cmp  %o1, 0
    34a0:	12 80 00 03 	bne  34ac <__ajit_serial_configure_inner__+0x14>
    34a4:	82 10 a2 40 	or  %g2, 0x240, %g1
    34a8:	82 10 a2 00 	or  %g2, 0x200, %g1
    34ac:	80 a2 20 00 	cmp  %o0, 0
    34b0:	02 80 00 15 	be  3504 <__ajit_serial_configure_inner__+0x6c>
    34b4:	01 00 00 00 	nop 
    34b8:	c4 00 40 00 	ld  [ %g1 ], %g2
    34bc:	80 a2 a0 00 	cmp  %o2, 0
    34c0:	02 80 00 03 	be  34cc <__ajit_serial_configure_inner__+0x34>
    34c4:	86 08 bf fe 	and  %g2, -2, %g3
    34c8:	86 10 a0 01 	or  %g2, 1, %g3
    34cc:	80 a2 e0 00 	cmp  %o3, 0
    34d0:	02 80 00 03 	be  34dc <__ajit_serial_configure_inner__+0x44>
    34d4:	84 08 ff fd 	and  %g3, -3, %g2
    34d8:	84 10 e0 02 	or  %g3, 2, %g2
    34dc:	80 a3 20 00 	cmp  %o4, 0
    34e0:	02 80 00 03 	be  34ec <__ajit_serial_configure_inner__+0x54>
    34e4:	86 08 bf fb 	and  %g2, -5, %g3
    34e8:	86 10 a0 04 	or  %g2, 4, %g3
    34ec:	80 a2 20 00 	cmp  %o0, 0
    34f0:	12 80 00 08 	bne  3510 <__ajit_serial_configure_inner__+0x78>
    34f4:	01 00 00 00 	nop 
    34f8:	c6 a0 44 00 	sta  %g3, [ %g1 ] #ASI_SCRATCHPAD
    34fc:	81 c3 e0 08 	retl 
    3500:	01 00 00 00 	nop 
    3504:	c4 80 44 00 	lda  [ %g1 ] #ASI_SCRATCHPAD, %g2
    3508:	10 bf ff ee 	b  34c0 <__ajit_serial_configure_inner__+0x28>
    350c:	80 a2 a0 00 	cmp  %o2, 0
    3510:	81 c3 e0 08 	retl 
    3514:	c6 20 40 00 	st  %g3, [ %g1 ]

00003518 <__ajit_serial_configure_via_vmap__>:
    3518:	82 10 00 08 	mov  %o0, %g1
    351c:	96 10 00 09 	mov  %o1, %o3
    3520:	98 10 00 0a 	mov  %o2, %o4
    3524:	90 10 20 01 	mov  1, %o0
    3528:	92 10 20 00 	clr  %o1
    352c:	94 10 00 01 	mov  %g1, %o2
    3530:	82 13 c0 00 	mov  %o7, %g1
    3534:	7f ff ff d9 	call  3498 <__ajit_serial_configure_inner__>
    3538:	9e 10 40 00 	mov  %g1, %o7

0000353c <__ajit_serial_configure_via_bypass__>:
    353c:	82 10 00 08 	mov  %o0, %g1
    3540:	96 10 00 09 	mov  %o1, %o3
    3544:	98 10 00 0a 	mov  %o2, %o4
    3548:	90 10 20 00 	clr  %o0
    354c:	92 10 20 00 	clr  %o1
    3550:	94 10 00 01 	mov  %g1, %o2
    3554:	82 13 c0 00 	mov  %o7, %g1
    3558:	7f ff ff d0 	call  3498 <__ajit_serial_configure_inner__>
    355c:	9e 10 40 00 	mov  %g1, %o7

00003560 <__ajit_serial_set_baudrate_inner__>:
    3560:	95 2a a0 04 	sll  %o2, 4, %o2
    3564:	80 a2 80 0b 	cmp  %o2, %o3
    3568:	1a 80 00 06 	bcc  3580 <__ajit_serial_set_baudrate_inner__+0x20>
    356c:	84 10 20 00 	clr  %g2
    3570:	80 a2 a0 00 	cmp  %o2, 0
    3574:	12 80 00 0f 	bne  35b0 <__ajit_serial_set_baudrate_inner__+0x50>
    3578:	84 10 00 0b 	mov  %o3, %g2
    357c:	84 10 20 00 	clr  %g2
    3580:	86 10 20 00 	clr  %g3
    3584:	80 a2 60 00 	cmp  %o1, 0
    3588:	02 80 00 25 	be  361c <__ajit_serial_set_baudrate_inner__+0xbc>
    358c:	03 3f ff cc 	sethi  %hi(0xffff3000), %g1
    3590:	88 10 62 4c 	or  %g1, 0x24c, %g4	! ffff324c <_custom_printf_handler+0xfffdbf78>
    3594:	80 a2 20 00 	cmp  %o0, 0
    3598:	12 80 00 25 	bne  362c <__ajit_serial_set_baudrate_inner__+0xcc>
    359c:	82 10 62 50 	or  %g1, 0x250, %g1
    35a0:	c6 a1 04 00 	sta  %g3, [ %g4 ] #ASI_SCRATCHPAD
    35a4:	c4 a0 44 00 	sta  %g2, [ %g1 ] #ASI_SCRATCHPAD
    35a8:	81 c3 e0 08 	retl 
    35ac:	01 00 00 00 	nop 
    35b0:	10 80 00 03 	b  35bc <__ajit_serial_set_baudrate_inner__+0x5c>
    35b4:	82 10 00 0a 	mov  %o2, %g1
    35b8:	82 10 00 03 	mov  %g3, %g1
    35bc:	81 80 20 00 	mov  %g0, %y
    35c0:	01 00 00 00 	nop 
    35c4:	01 00 00 00 	nop 
    35c8:	01 00 00 00 	nop 
    35cc:	86 70 80 01 	udiv  %g2, %g1, %g3
    35d0:	86 58 c0 01 	smul  %g3, %g1, %g3
    35d4:	86 20 80 03 	sub  %g2, %g3, %g3
    35d8:	80 a0 e0 00 	cmp  %g3, 0
    35dc:	12 bf ff f7 	bne  35b8 <__ajit_serial_set_baudrate_inner__+0x58>
    35e0:	84 10 00 01 	mov  %g1, %g2
    35e4:	81 80 20 00 	mov  %g0, %y
    35e8:	01 00 00 00 	nop 
    35ec:	01 00 00 00 	nop 
    35f0:	01 00 00 00 	nop 
    35f4:	84 72 80 01 	udiv  %o2, %g1, %g2
    35f8:	81 80 20 00 	mov  %g0, %y
    35fc:	01 00 00 00 	nop 
    3600:	01 00 00 00 	nop 
    3604:	01 00 00 00 	nop 
    3608:	86 72 c0 01 	udiv  %o3, %g1, %g3
    360c:	80 a2 60 00 	cmp  %o1, 0
    3610:	86 20 c0 02 	sub  %g3, %g2, %g3
    3614:	12 bf ff df 	bne  3590 <__ajit_serial_set_baudrate_inner__+0x30>
    3618:	03 3f ff cc 	sethi  %hi(0xffff3000), %g1
    361c:	88 10 62 0c 	or  %g1, 0x20c, %g4	! ffff320c <_custom_printf_handler+0xfffdbf38>
    3620:	80 a2 20 00 	cmp  %o0, 0
    3624:	02 bf ff df 	be  35a0 <__ajit_serial_set_baudrate_inner__+0x40>
    3628:	82 10 62 10 	or  %g1, 0x210, %g1
    362c:	c6 21 00 00 	st  %g3, [ %g4 ]
    3630:	81 c3 e0 08 	retl 
    3634:	c4 20 40 00 	st  %g2, [ %g1 ]

00003638 <__ajit_serial_putchar_inner__>:
    3638:	84 10 00 08 	mov  %o0, %g2
    363c:	80 a2 60 00 	cmp  %o1, 0
    3640:	02 80 00 17 	be  369c <__ajit_serial_putchar_inner__+0x64>
    3644:	07 3f ff cc 	sethi  %hi(0xffff3000), %g3
    3648:	82 10 e2 40 	or  %g3, 0x240, %g1	! ffff3240 <_custom_printf_handler+0xfffdbf6c>
    364c:	86 10 e2 44 	or  %g3, 0x244, %g3
    3650:	80 a0 a0 00 	cmp  %g2, 0
    3654:	02 80 00 0f 	be  3690 <__ajit_serial_putchar_inner__+0x58>
    3658:	01 00 00 00 	nop 
    365c:	c2 00 40 00 	ld  [ %g1 ], %g1
    3660:	80 88 60 01 	btst  1, %g1
    3664:	02 80 00 09 	be  3688 <__ajit_serial_putchar_inner__+0x50>
    3668:	90 10 20 00 	clr  %o0
    366c:	80 88 60 08 	btst  8, %g1
    3670:	12 80 00 06 	bne  3688 <__ajit_serial_putchar_inner__+0x50>
    3674:	80 a0 a0 00 	cmp  %g2, 0
    3678:	32 80 00 0c 	bne,a   36a8 <__ajit_serial_putchar_inner__+0x70>
    367c:	d4 28 c0 00 	stb  %o2, [ %g3 ]
    3680:	d4 a8 c4 00 	stba  %o2, [ %g3 ] #ASI_SCRATCHPAD
    3684:	90 10 20 01 	mov  1, %o0
    3688:	81 c3 e0 08 	retl 
    368c:	01 00 00 00 	nop 
    3690:	c2 80 44 00 	lda  [ %g1 ] #ASI_SCRATCHPAD, %g1
    3694:	10 bf ff f4 	b  3664 <__ajit_serial_putchar_inner__+0x2c>
    3698:	80 88 60 01 	btst  1, %g1
    369c:	82 10 e2 00 	or  %g3, 0x200, %g1
    36a0:	10 bf ff ec 	b  3650 <__ajit_serial_putchar_inner__+0x18>
    36a4:	86 10 e2 04 	or  %g3, 0x204, %g3
    36a8:	81 c3 e0 08 	retl 
    36ac:	90 10 20 01 	mov  1, %o0

000036b0 <__ajit_serial_putchar_via_vmap__>:
    36b0:	94 10 00 08 	mov  %o0, %o2
    36b4:	92 10 20 00 	clr  %o1
    36b8:	90 10 20 01 	mov  1, %o0
    36bc:	82 13 c0 00 	mov  %o7, %g1
    36c0:	7f ff ff de 	call  3638 <__ajit_serial_putchar_inner__>
    36c4:	9e 10 40 00 	mov  %g1, %o7

000036c8 <__ajit_serial_putchar_via_bypass__>:
    36c8:	94 10 00 08 	mov  %o0, %o2
    36cc:	92 10 20 00 	clr  %o1
    36d0:	90 10 20 00 	clr  %o0
    36d4:	82 13 c0 00 	mov  %o7, %g1
    36d8:	7f ff ff d8 	call  3638 <__ajit_serial_putchar_inner__>
    36dc:	9e 10 40 00 	mov  %g1, %o7

000036e0 <__ajit_serial_getchar_inner__>:
    36e0:	80 a2 60 00 	cmp  %o1, 0
    36e4:	02 80 00 0f 	be  3720 <__ajit_serial_getchar_inner__+0x40>
    36e8:	05 3f ff cc 	sethi  %hi(0xffff3000), %g2
    36ec:	82 10 a2 40 	or  %g2, 0x240, %g1	! ffff3240 <_custom_printf_handler+0xfffdbf6c>
    36f0:	80 a2 20 00 	cmp  %o0, 0
    36f4:	02 80 00 0f 	be  3730 <__ajit_serial_getchar_inner__+0x50>
    36f8:	84 10 a2 48 	or  %g2, 0x248, %g2
    36fc:	c2 00 40 00 	ld  [ %g1 ], %g1
    3700:	82 08 60 12 	and  %g1, 0x12, %g1
    3704:	80 a0 60 12 	cmp  %g1, 0x12
    3708:	12 80 00 13 	bne  3754 <__ajit_serial_getchar_inner__+0x74>
    370c:	01 00 00 00 	nop 
    3710:	c2 08 80 00 	ldub  [ %g2 ], %g1
    3714:	90 10 20 01 	mov  1, %o0
    3718:	81 c3 e0 08 	retl 
    371c:	c2 2a 80 00 	stb  %g1, [ %o2 ]
    3720:	82 10 a2 00 	or  %g2, 0x200, %g1
    3724:	80 a2 20 00 	cmp  %o0, 0
    3728:	12 bf ff f5 	bne  36fc <__ajit_serial_getchar_inner__+0x1c>
    372c:	84 10 a2 08 	or  %g2, 0x208, %g2
    3730:	c2 80 44 00 	lda  [ %g1 ] #ASI_SCRATCHPAD, %g1
    3734:	82 08 60 12 	and  %g1, 0x12, %g1
    3738:	80 a0 60 12 	cmp  %g1, 0x12
    373c:	12 80 00 06 	bne  3754 <__ajit_serial_getchar_inner__+0x74>
    3740:	01 00 00 00 	nop 
    3744:	c4 88 84 00 	lduba  [ %g2 ] #ASI_SCRATCHPAD, %g2
    3748:	90 10 20 01 	mov  1, %o0
    374c:	81 c3 e0 08 	retl 
    3750:	c4 2a 80 00 	stb  %g2, [ %o2 ]
    3754:	81 c3 e0 08 	retl 
    3758:	90 10 20 00 	clr  %o0

0000375c <__ajit_serial_getchar_via_vmap__>:
    375c:	9d e3 bf 98 	save  %sp, -104, %sp
    3760:	90 10 20 01 	mov  1, %o0
    3764:	92 10 20 00 	clr  %o1
    3768:	7f ff ff de 	call  36e0 <__ajit_serial_getchar_inner__>
    376c:	94 07 bf ff 	add  %fp, -1, %o2
    3770:	80 a2 20 00 	cmp  %o0, 0
    3774:	22 bf ff fc 	be,a   3764 <__ajit_serial_getchar_via_vmap__+0x8>
    3778:	90 10 20 01 	mov  1, %o0
    377c:	f0 4f bf ff 	ldsb  [ %fp + -1 ], %i0
    3780:	81 c7 e0 08 	ret 
    3784:	81 e8 00 00 	restore 

00003788 <__ajit_serial_getchar_via_bypass__>:
    3788:	9d e3 bf 98 	save  %sp, -104, %sp
    378c:	90 10 20 00 	clr  %o0
    3790:	92 10 20 00 	clr  %o1
    3794:	7f ff ff d3 	call  36e0 <__ajit_serial_getchar_inner__>
    3798:	94 07 bf ff 	add  %fp, -1, %o2
    379c:	80 a2 20 00 	cmp  %o0, 0
    37a0:	22 bf ff fc 	be,a   3790 <__ajit_serial_getchar_via_bypass__+0x8>
    37a4:	90 10 20 00 	clr  %o0
    37a8:	f0 4f bf ff 	ldsb  [ %fp + -1 ], %i0
    37ac:	81 c7 e0 08 	ret 
    37b0:	81 e8 00 00 	restore 

000037b4 <__ajit_serial_puts_inner__>:
    37b4:	9d e3 bf a0 	save  %sp, -96, %sp
    37b8:	80 a6 e0 00 	cmp  %i3, 0
    37bc:	02 80 00 1a 	be  3824 <__ajit_serial_puts_inner__+0x70>
    37c0:	01 00 00 00 	nop 
    37c4:	d4 0e 80 00 	ldub  [ %i2 ], %o2
    37c8:	95 2a a0 18 	sll  %o2, 0x18, %o2
    37cc:	80 a2 a0 00 	cmp  %o2, 0
    37d0:	02 80 00 15 	be  3824 <__ajit_serial_puts_inner__+0x70>
    37d4:	ba 06 a0 01 	add  %i2, 1, %i5
    37d8:	10 80 00 03 	b  37e4 <__ajit_serial_puts_inner__+0x30>
    37dc:	b8 06 80 1b 	add  %i2, %i3, %i4
    37e0:	95 2a a0 18 	sll  %o2, 0x18, %o2
    37e4:	95 3a a0 18 	sra  %o2, 0x18, %o2
    37e8:	90 10 00 18 	mov  %i0, %o0
    37ec:	7f ff ff 93 	call  3638 <__ajit_serial_putchar_inner__>
    37f0:	92 10 00 19 	mov  %i1, %o1
    37f4:	80 a2 20 00 	cmp  %o0, 0
    37f8:	22 bf ff fa 	be,a   37e0 <__ajit_serial_puts_inner__+0x2c>
    37fc:	d4 0e 80 00 	ldub  [ %i2 ], %o2
    3800:	80 a7 40 1c 	cmp  %i5, %i4
    3804:	02 80 00 08 	be  3824 <__ajit_serial_puts_inner__+0x70>
    3808:	b4 10 00 1d 	mov  %i5, %i2
    380c:	ba 07 60 01 	inc  %i5
    3810:	d4 0f 7f ff 	ldub  [ %i5 + -1 ], %o2
    3814:	95 2a a0 18 	sll  %o2, 0x18, %o2
    3818:	80 a2 a0 00 	cmp  %o2, 0
    381c:	12 bf ff f3 	bne  37e8 <__ajit_serial_puts_inner__+0x34>
    3820:	95 3a a0 18 	sra  %o2, 0x18, %o2
    3824:	81 c7 e0 08 	ret 
    3828:	81 e8 00 00 	restore 

0000382c <__ajit_serial_puts_via_vmap__>:
    382c:	94 10 00 08 	mov  %o0, %o2
    3830:	96 10 00 09 	mov  %o1, %o3
    3834:	90 10 20 01 	mov  1, %o0
    3838:	92 10 20 00 	clr  %o1
    383c:	82 13 c0 00 	mov  %o7, %g1
    3840:	7f ff ff dd 	call  37b4 <__ajit_serial_puts_inner__>
    3844:	9e 10 40 00 	mov  %g1, %o7

00003848 <__ajit_serial_puts_via_bypass__>:
    3848:	94 10 00 08 	mov  %o0, %o2
    384c:	96 10 00 09 	mov  %o1, %o3
    3850:	90 10 20 00 	clr  %o0
    3854:	92 10 20 00 	clr  %o1
    3858:	82 13 c0 00 	mov  %o7, %g1
    385c:	7f ff ff d6 	call  37b4 <__ajit_serial_puts_inner__>
    3860:	9e 10 40 00 	mov  %g1, %o7

00003864 <__ajit_serial_gets_inner__>:
    3864:	9d e3 bf 98 	save  %sp, -104, %sp
    3868:	80 a6 e0 01 	cmp  %i3, 1
    386c:	22 80 00 18 	be,a   38cc <__ajit_serial_gets_inner__+0x68>
    3870:	b6 06 80 1b 	add  %i2, %i3, %i3
    3874:	a0 06 ff ff 	add  %i3, -1, %l0
    3878:	b8 10 20 00 	clr  %i4
    387c:	ba 10 20 00 	clr  %i5
    3880:	c0 2f bf ff 	clrb  [ %fp + -1 ]
    3884:	90 10 00 18 	mov  %i0, %o0
    3888:	92 10 00 19 	mov  %i1, %o1
    388c:	7f ff ff 95 	call  36e0 <__ajit_serial_getchar_inner__>
    3890:	94 07 bf ff 	add  %fp, -1, %o2
    3894:	80 a2 20 00 	cmp  %o0, 0
    3898:	22 bf ff fc 	be,a   3888 <__ajit_serial_gets_inner__+0x24>
    389c:	90 10 00 18 	mov  %i0, %o0
    38a0:	c2 0f bf ff 	ldub  [ %fp + -1 ], %g1
    38a4:	c2 2e 80 1c 	stb  %g1, [ %i2 + %i4 ]
    38a8:	83 28 60 18 	sll  %g1, 0x18, %g1
    38ac:	80 a0 60 00 	cmp  %g1, 0
    38b0:	22 80 00 07 	be,a   38cc <__ajit_serial_gets_inner__+0x68>
    38b4:	b6 06 80 1b 	add  %i2, %i3, %i3
    38b8:	ba 07 60 01 	inc  %i5
    38bc:	80 a7 40 10 	cmp  %i5, %l0
    38c0:	12 bf ff f0 	bne  3880 <__ajit_serial_gets_inner__+0x1c>
    38c4:	b8 10 00 1d 	mov  %i5, %i4
    38c8:	b6 06 80 1b 	add  %i2, %i3, %i3
    38cc:	c0 2e ff ff 	clrb  [ %i3 + -1 ]
    38d0:	81 c7 e0 08 	ret 
    38d4:	81 e8 00 00 	restore 

000038d8 <__ajit_serial_gets_via_vmap__>:
    38d8:	94 10 00 08 	mov  %o0, %o2
    38dc:	96 10 00 09 	mov  %o1, %o3
    38e0:	90 10 20 01 	mov  1, %o0
    38e4:	92 10 20 00 	clr  %o1
    38e8:	82 13 c0 00 	mov  %o7, %g1
    38ec:	7f ff ff de 	call  3864 <__ajit_serial_gets_inner__>
    38f0:	9e 10 40 00 	mov  %g1, %o7

000038f4 <__ajit_serial_gets_via_bypass__>:
    38f4:	94 10 00 08 	mov  %o0, %o2
    38f8:	96 10 00 09 	mov  %o1, %o3
    38fc:	90 10 20 00 	clr  %o0
    3900:	92 10 20 00 	clr  %o1
    3904:	82 13 c0 00 	mov  %o7, %g1
    3908:	7f ff ff d7 	call  3864 <__ajit_serial_gets_inner__>
    390c:	9e 10 40 00 	mov  %g1, %o7

00003910 <__ajit_serial_set_uart_reset_inner__>:
    3910:	05 3f ff cc 	sethi  %hi(0xffff3000), %g2
    3914:	80 a2 60 00 	cmp  %o1, 0
    3918:	12 80 00 03 	bne  3924 <__ajit_serial_set_uart_reset_inner__+0x14>
    391c:	82 10 a2 40 	or  %g2, 0x240, %g1
    3920:	82 10 a2 00 	or  %g2, 0x200, %g1
    3924:	80 a2 20 00 	cmp  %o0, 0
    3928:	02 80 00 0d 	be  395c <__ajit_serial_set_uart_reset_inner__+0x4c>
    392c:	01 00 00 00 	nop 
    3930:	c6 00 40 00 	ld  [ %g1 ], %g3
    3934:	80 a2 a0 00 	cmp  %o2, 0
    3938:	12 80 00 03 	bne  3944 <__ajit_serial_set_uart_reset_inner__+0x34>
    393c:	84 10 e0 20 	or  %g3, 0x20, %g2
    3940:	84 08 ff df 	and  %g3, -33, %g2
    3944:	80 a2 20 00 	cmp  %o0, 0
    3948:	12 80 00 08 	bne  3968 <__ajit_serial_set_uart_reset_inner__+0x58>
    394c:	01 00 00 00 	nop 
    3950:	c4 a0 44 00 	sta  %g2, [ %g1 ] #ASI_SCRATCHPAD
    3954:	81 c3 e0 08 	retl 
    3958:	01 00 00 00 	nop 
    395c:	c6 80 44 00 	lda  [ %g1 ] #ASI_SCRATCHPAD, %g3
    3960:	10 bf ff f6 	b  3938 <__ajit_serial_set_uart_reset_inner__+0x28>
    3964:	80 a2 a0 00 	cmp  %o2, 0
    3968:	81 c3 e0 08 	retl 
    396c:	c4 20 40 00 	st  %g2, [ %g1 ]

00003970 <__ajit_serial_set_uart_reset_via_vmap__>:
    3970:	94 10 00 08 	mov  %o0, %o2
    3974:	92 10 20 00 	clr  %o1
    3978:	90 10 20 01 	mov  1, %o0
    397c:	82 13 c0 00 	mov  %o7, %g1
    3980:	7f ff ff e4 	call  3910 <__ajit_serial_set_uart_reset_inner__>
    3984:	9e 10 40 00 	mov  %g1, %o7

00003988 <__ajit_serial_set_uart_reset_via_bypass__>:
    3988:	94 10 00 08 	mov  %o0, %o2
    398c:	92 10 20 00 	clr  %o1
    3990:	90 10 20 00 	clr  %o0
    3994:	82 13 c0 00 	mov  %o7, %g1
    3998:	7f ff ff de 	call  3910 <__ajit_serial_set_uart_reset_inner__>
    399c:	9e 10 40 00 	mov  %g1, %o7

000039a0 <__ajit_write_irc_control_register_via_bypass__>:
    39a0:	03 3f ff cc 	sethi  %hi(0xffff3000), %g1
    39a4:	d0 a0 44 00 	sta  %o0, [ %g1 ] #ASI_SCRATCHPAD
    39a8:	81 c3 e0 08 	retl 
    39ac:	01 00 00 00 	nop 

000039b0 <__ajit_read_irc_control_register_via_bypass__>:
    39b0:	11 3f ff cc 	sethi  %hi(0xffff3000), %o0
    39b4:	d0 82 04 00 	lda  [ %o0 ] #ASI_SCRATCHPAD, %o0
    39b8:	81 c3 e0 08 	retl 
    39bc:	01 00 00 00 	nop 

000039c0 <__ajit_write_irc_control_register_via_vmap__>:
    39c0:	03 3f ff cc 	sethi  %hi(0xffff3000), %g1
    39c4:	81 c3 e0 08 	retl 
    39c8:	d0 20 40 00 	st  %o0, [ %g1 ]

000039cc <__ajit_read_irc_control_register_via_vmap__>:
    39cc:	03 3f ff cc 	sethi  %hi(0xffff3000), %g1
    39d0:	81 c3 e0 08 	retl 
    39d4:	d0 00 40 00 	ld  [ %g1 ], %o0

000039d8 <__ajit_write_spi_master_register_via_bypass__>:
    39d8:	91 2a 20 02 	sll  %o0, 2, %o0
    39dc:	03 3f ff cc 	sethi  %hi(0xffff3000), %g1
    39e0:	82 10 63 00 	or  %g1, 0x300, %g1	! ffff3300 <_custom_printf_handler+0xfffdc02c>
    39e4:	90 02 00 01 	add  %o0, %g1, %o0
    39e8:	d2 a2 04 00 	sta  %o1, [ %o0 ] #ASI_SCRATCHPAD
    39ec:	81 c3 e0 08 	retl 
    39f0:	01 00 00 00 	nop 

000039f4 <__ajit_write_spi_master_register_via_vmap__>:
    39f4:	91 2a 20 02 	sll  %o0, 2, %o0
    39f8:	03 3f ff cc 	sethi  %hi(0xffff3000), %g1
    39fc:	82 10 63 00 	or  %g1, 0x300, %g1	! ffff3300 <_custom_printf_handler+0xfffdc02c>
    3a00:	81 c3 e0 08 	retl 
    3a04:	d2 2a 00 01 	stb  %o1, [ %o0 + %g1 ]

00003a08 <__ajit_read_spi_master_register_via_bypass__>:
    3a08:	91 2a 20 02 	sll  %o0, 2, %o0
    3a0c:	03 3f ff cc 	sethi  %hi(0xffff3000), %g1
    3a10:	82 10 63 00 	or  %g1, 0x300, %g1	! ffff3300 <_custom_printf_handler+0xfffdc02c>
    3a14:	90 02 00 01 	add  %o0, %g1, %o0
    3a18:	d0 82 04 00 	lda  [ %o0 ] #ASI_SCRATCHPAD, %o0
    3a1c:	81 c3 e0 08 	retl 
    3a20:	90 0a 20 ff 	and  %o0, 0xff, %o0

00003a24 <__ajit_read_spi_master_register_via_vmap__>:
    3a24:	91 2a 20 02 	sll  %o0, 2, %o0
    3a28:	03 3f ff cc 	sethi  %hi(0xffff3000), %g1
    3a2c:	82 10 63 00 	or  %g1, 0x300, %g1	! ffff3300 <_custom_printf_handler+0xfffdc02c>
    3a30:	81 c3 e0 08 	retl 
    3a34:	d0 0a 00 01 	ldub  [ %o0 + %g1 ], %o0

00003a38 <__ajit_do_spi_transfer_via_bypass__>:
    3a38:	07 3f ff cc 	sethi  %hi(0xffff3000), %g3
    3a3c:	82 10 e3 00 	or  %g3, 0x300, %g1	! ffff3300 <_custom_printf_handler+0xfffdc02c>
    3a40:	d2 a0 44 00 	sta  %o1, [ %g1 ] #ASI_SCRATCHPAD
    3a44:	82 0a 20 07 	and  %o0, 7, %g1
    3a48:	94 0a a0 01 	and  %o2, 1, %o2
    3a4c:	83 28 60 03 	sll  %g1, 3, %g1
    3a50:	94 02 80 0a 	add  %o2, %o2, %o2
    3a54:	82 10 60 01 	or  %g1, 1, %g1
    3a58:	86 10 e3 08 	or  %g3, 0x308, %g3
    3a5c:	94 12 80 01 	or  %o2, %g1, %o2
    3a60:	d4 a0 c4 00 	sta  %o2, [ %g3 ] #ASI_SCRATCHPAD
    3a64:	10 80 00 04 	b  3a74 <__ajit_do_spi_transfer_via_bypass__+0x3c>
    3a68:	03 00 00 08 	sethi  %hi(0x2000), %g1
    3a6c:	02 80 00 07 	be  3a88 <__ajit_do_spi_transfer_via_bypass__+0x50>
    3a70:	11 3f ff cc 	sethi  %hi(0xffff3000), %o0
    3a74:	c4 80 c4 00 	lda  [ %g3 ] #ASI_SCRATCHPAD, %g2
    3a78:	80 88 a0 01 	btst  1, %g2
    3a7c:	32 bf ff fc 	bne,a   3a6c <__ajit_do_spi_transfer_via_bypass__+0x34>
    3a80:	82 80 7f ff 	addcc  %g1, -1, %g1
    3a84:	11 3f ff cc 	sethi  %hi(0xffff3000), %o0
    3a88:	90 12 23 00 	or  %o0, 0x300, %o0	! ffff3300 <_custom_printf_handler+0xfffdc02c>
    3a8c:	d0 82 04 00 	lda  [ %o0 ] #ASI_SCRATCHPAD, %o0
    3a90:	81 c3 e0 08 	retl 
    3a94:	90 0a 20 ff 	and  %o0, 0xff, %o0

00003a98 <__ajit_do_spi_transfer_via_vmap__>:
    3a98:	03 3f ff cc 	sethi  %hi(0xffff3000), %g1
    3a9c:	90 0a 20 07 	and  %o0, 7, %o0
    3aa0:	84 10 63 00 	or  %g1, 0x300, %g2
    3aa4:	91 2a 20 03 	sll  %o0, 3, %o0
    3aa8:	d2 20 80 00 	st  %o1, [ %g2 ]
    3aac:	90 12 20 01 	or  %o0, 1, %o0
    3ab0:	82 10 63 08 	or  %g1, 0x308, %g1
    3ab4:	94 0a a0 01 	and  %o2, 1, %o2
    3ab8:	94 02 80 0a 	add  %o2, %o2, %o2
    3abc:	94 12 80 08 	or  %o2, %o0, %o2
    3ac0:	90 10 00 09 	mov  %o1, %o0
    3ac4:	81 c3 e0 08 	retl 
    3ac8:	d4 20 40 00 	st  %o2, [ %g1 ]

00003acc <__ajit_configure_spi_master_via_bypass___>:
    3acc:	90 0a 20 0f 	and  %o0, 0xf, %o0
    3ad0:	03 3f ff cc 	sethi  %hi(0xffff3000), %g1
    3ad4:	90 12 20 10 	or  %o0, 0x10, %o0
    3ad8:	82 10 63 0c 	or  %g1, 0x30c, %g1
    3adc:	d0 a0 44 00 	sta  %o0, [ %g1 ] #ASI_SCRATCHPAD
    3ae0:	81 c3 e0 08 	retl 
    3ae4:	90 10 20 00 	clr  %o0

00003ae8 <__ajit_configure_spi_master_via_vmap___>:
    3ae8:	90 0a 20 0f 	and  %o0, 0xf, %o0
    3aec:	03 3f ff cc 	sethi  %hi(0xffff3000), %g1
    3af0:	84 12 20 10 	or  %o0, 0x10, %g2
    3af4:	82 10 63 0c 	or  %g1, 0x30c, %g1
    3af8:	90 10 20 00 	clr  %o0
    3afc:	81 c3 e0 08 	retl 
    3b00:	c4 20 40 00 	st  %g2, [ %g1 ]

00003b04 <__ajit_do_spi_transfer_inner__>:
    3b04:	92 0a 60 07 	and  %o1, 7, %o1
    3b08:	83 2a 60 03 	sll  %o1, 3, %g1
    3b0c:	82 10 60 01 	or  %g1, 1, %g1
    3b10:	96 0a e0 01 	and  %o3, 1, %o3
    3b14:	80 a2 20 00 	cmp  %o0, 0
    3b18:	96 02 c0 0b 	add  %o3, %o3, %o3
    3b1c:	96 12 c0 01 	or  %o3, %g1, %o3
    3b20:	02 80 00 20 	be  3ba0 <__ajit_do_spi_transfer_inner__+0x9c>
    3b24:	03 3f ff cc 	sethi  %hi(0xffff3000), %g1
    3b28:	84 10 63 00 	or  %g1, 0x300, %g2	! ffff3300 <_custom_printf_handler+0xfffdc02c>
    3b2c:	d4 20 80 00 	st  %o2, [ %g2 ]
    3b30:	96 0a e0 ff 	and  %o3, 0xff, %o3
    3b34:	82 10 63 08 	or  %g1, 0x308, %g1
    3b38:	d6 20 40 00 	st  %o3, [ %g1 ]
    3b3c:	07 3f ff cc 	sethi  %hi(0xffff3000), %g3
    3b40:	03 00 00 08 	sethi  %hi(0x2000), %g1
    3b44:	10 80 00 08 	b  3b64 <__ajit_do_spi_transfer_inner__+0x60>
    3b48:	86 10 e3 08 	or  %g3, 0x308, %g3
    3b4c:	80 88 a0 01 	btst  1, %g2
    3b50:	02 80 00 0d 	be  3b84 <__ajit_do_spi_transfer_inner__+0x80>
    3b54:	80 a2 20 00 	cmp  %o0, 0
    3b58:	82 80 7f ff 	addcc  %g1, -1, %g1
    3b5c:	02 80 00 0a 	be  3b84 <__ajit_do_spi_transfer_inner__+0x80>
    3b60:	80 a2 20 00 	cmp  %o0, 0
    3b64:	80 a2 20 00 	cmp  %o0, 0
    3b68:	32 bf ff f9 	bne,a   3b4c <__ajit_do_spi_transfer_inner__+0x48>
    3b6c:	c4 00 c0 00 	ld  [ %g3 ], %g2
    3b70:	c4 80 c4 00 	lda  [ %g3 ] #ASI_SCRATCHPAD, %g2
    3b74:	80 88 a0 01 	btst  1, %g2
    3b78:	32 bf ff f9 	bne,a   3b5c <__ajit_do_spi_transfer_inner__+0x58>
    3b7c:	82 80 7f ff 	addcc  %g1, -1, %g1
    3b80:	80 a2 20 00 	cmp  %o0, 0
    3b84:	32 80 00 0d 	bne,a   3bb8 <__ajit_do_spi_transfer_inner__+0xb4>
    3b88:	03 3f ff cc 	sethi  %hi(0xffff3000), %g1
    3b8c:	11 3f ff cc 	sethi  %hi(0xffff3000), %o0
    3b90:	90 12 23 00 	or  %o0, 0x300, %o0	! ffff3300 <_custom_printf_handler+0xfffdc02c>
    3b94:	d0 82 04 00 	lda  [ %o0 ] #ASI_SCRATCHPAD, %o0
    3b98:	81 c3 e0 08 	retl 
    3b9c:	90 0a 20 ff 	and  %o0, 0xff, %o0
    3ba0:	84 10 63 00 	or  %g1, 0x300, %g2
    3ba4:	d4 a0 84 00 	sta  %o2, [ %g2 ] #ASI_SCRATCHPAD
    3ba8:	82 10 63 08 	or  %g1, 0x308, %g1
    3bac:	d6 a0 44 00 	sta  %o3, [ %g1 ] #ASI_SCRATCHPAD
    3bb0:	10 bf ff e4 	b  3b40 <__ajit_do_spi_transfer_inner__+0x3c>
    3bb4:	07 3f ff cc 	sethi  %hi(0xffff3000), %g3
    3bb8:	82 10 63 00 	or  %g1, 0x300, %g1
    3bbc:	d0 00 40 00 	ld  [ %g1 ], %o0
    3bc0:	81 c3 e0 08 	retl 
    3bc4:	90 0a 20 ff 	and  %o0, 0xff, %o0

00003bc8 <__ajit_gpio_xfer__>:
    3bc8:	09 3f ff cc 	sethi  %hi(0xffff3000), %g4
    3bcc:	82 11 23 00 	or  %g4, 0x300, %g1	! ffff3300 <_custom_printf_handler+0xfffdc02c>
    3bd0:	d2 a0 44 00 	sta  %o1, [ %g1 ] #ASI_SCRATCHPAD
    3bd4:	90 0a 20 07 	and  %o0, 7, %o0
    3bd8:	88 11 23 08 	or  %g4, 0x308, %g4
    3bdc:	91 2a 20 03 	sll  %o0, 3, %o0
    3be0:	90 12 20 03 	or  %o0, 3, %o0
    3be4:	d0 a1 04 00 	sta  %o0, [ %g4 ] #ASI_SCRATCHPAD
    3be8:	82 10 21 00 	mov  0x100, %g1
    3bec:	c4 81 04 00 	lda  [ %g4 ] #ASI_SCRATCHPAD, %g2
    3bf0:	82 00 7f ff 	add  %g1, -1, %g1
    3bf4:	87 38 60 1f 	sra  %g1, 0x1f, %g3
    3bf8:	86 20 c0 01 	sub  %g3, %g1, %g3
    3bfc:	87 30 e0 1f 	srl  %g3, 0x1f, %g3
    3c00:	80 88 c0 02 	btst  %g3, %g2
    3c04:	12 bf ff fa 	bne  3bec <__ajit_gpio_xfer__+0x24>
    3c08:	11 3f ff cc 	sethi  %hi(0xffff3000), %o0
    3c0c:	90 12 23 00 	or  %o0, 0x300, %o0	! ffff3300 <_custom_printf_handler+0xfffdc02c>
    3c10:	d0 82 04 00 	lda  [ %o0 ] #ASI_SCRATCHPAD, %o0
    3c14:	81 c3 e0 08 	retl 
    3c18:	90 0a 20 ff 	and  %o0, 0xff, %o0

00003c1c <__ajit_read_gpio_32_via_vmap__>:
    3c1c:	03 3f ff cd 	sethi  %hi(0xffff3400), %g1
    3c20:	82 10 60 04 	or  %g1, 4, %g1	! ffff3404 <_custom_printf_handler+0xfffdc130>
    3c24:	81 c3 e0 08 	retl 
    3c28:	d0 00 40 00 	ld  [ %g1 ], %o0

00003c2c <__ajit_write_gpio_32_via_vmap__>:
    3c2c:	03 3f ff cd 	sethi  %hi(0xffff3400), %g1
    3c30:	81 c3 e0 08 	retl 
    3c34:	d0 20 40 00 	st  %o0, [ %g1 ]

00003c38 <__ajit_read_gpio_32_via_bypass__>:
    3c38:	11 3f ff cd 	sethi  %hi(0xffff3400), %o0
    3c3c:	90 12 20 04 	or  %o0, 4, %o0	! ffff3404 <_custom_printf_handler+0xfffdc130>
    3c40:	d0 82 04 00 	lda  [ %o0 ] #ASI_SCRATCHPAD, %o0
    3c44:	81 c3 e0 08 	retl 
    3c48:	01 00 00 00 	nop 

00003c4c <__ajit_write_gpio_32_via_bypass__>:
    3c4c:	03 3f ff cd 	sethi  %hi(0xffff3400), %g1
    3c50:	d0 a0 44 00 	sta  %o0, [ %g1 ] #ASI_SCRATCHPAD
    3c54:	81 c3 e0 08 	retl 
    3c58:	01 00 00 00 	nop 

00003c5c <__ajit_init_thread_performance_counters>:
    3c5c:	c0 22 80 00 	clr  [ %o2 ]
    3c60:	c0 22 a0 04 	clr  [ %o2 + 4 ]
    3c64:	c0 22 a0 08 	clr  [ %o2 + 8 ]
    3c68:	c0 22 a0 0c 	clr  [ %o2 + 0xc ]
    3c6c:	c0 22 a0 10 	clr  [ %o2 + 0x10 ]
    3c70:	c0 22 a0 14 	clr  [ %o2 + 0x14 ]
    3c74:	c0 22 a0 18 	clr  [ %o2 + 0x18 ]
    3c78:	c0 22 a0 1c 	clr  [ %o2 + 0x1c ]
    3c7c:	c0 22 a0 20 	clr  [ %o2 + 0x20 ]
    3c80:	c0 22 a0 24 	clr  [ %o2 + 0x24 ]
    3c84:	c0 22 a0 28 	clr  [ %o2 + 0x28 ]
    3c88:	c0 22 a0 2c 	clr  [ %o2 + 0x2c ]
    3c8c:	c0 22 a0 30 	clr  [ %o2 + 0x30 ]
    3c90:	c0 22 a0 34 	clr  [ %o2 + 0x34 ]
    3c94:	c0 22 a0 38 	clr  [ %o2 + 0x38 ]
    3c98:	c0 22 a0 3c 	clr  [ %o2 + 0x3c ]
    3c9c:	c0 22 a0 40 	clr  [ %o2 + 0x40 ]
    3ca0:	c0 22 a0 44 	clr  [ %o2 + 0x44 ]
    3ca4:	c0 22 a0 48 	clr  [ %o2 + 0x48 ]
    3ca8:	81 c3 e0 08 	retl 
    3cac:	c0 22 a0 4c 	clr  [ %o2 + 0x4c ]

00003cb0 <__ajit_sample_thread_performance_counters>:
    3cb0:	9d e3 bf a0 	save  %sp, -96, %sp
    3cb4:	b0 06 00 18 	add  %i0, %i0, %i0
    3cb8:	b2 06 00 19 	add  %i0, %i1, %i1
    3cbc:	ae 10 20 00 	clr  %l7
    3cc0:	ba 10 20 00 	clr  %i5
    3cc4:	03 00 3f ff 	sethi  %hi(0xfffc00), %g1
    3cc8:	82 10 63 40 	or  %g1, 0x340, %g1	! ffff40 <_custom_printf_handler+0xfe8c6c>
    3ccc:	82 06 40 01 	add  %i1, %g1, %g1
    3cd0:	b2 10 20 00 	clr  %i1
    3cd4:	83 28 60 08 	sll  %g1, 8, %g1
    3cd8:	e0 00 60 04 	ld  [ %g1 + 4 ], %l0
    3cdc:	ec 00 40 00 	ld  [ %g1 ], %l6
    3ce0:	f8 00 60 08 	ld  [ %g1 + 8 ], %i4
    3ce4:	d0 00 60 0c 	ld  [ %g1 + 0xc ], %o0
    3ce8:	f0 00 60 10 	ld  [ %g1 + 0x10 ], %i0
    3cec:	d4 00 60 14 	ld  [ %g1 + 0x14 ], %o2
    3cf0:	d8 00 60 1c 	ld  [ %g1 + 0x1c ], %o4
    3cf4:	e8 00 60 24 	ld  [ %g1 + 0x24 ], %l4
    3cf8:	e4 00 60 2c 	ld  [ %g1 + 0x2c ], %l2
    3cfc:	c4 00 60 34 	ld  [ %g1 + 0x34 ], %g2
    3d00:	a2 10 00 10 	mov  %l0, %l1
    3d04:	92 10 00 08 	mov  %o0, %o1
    3d08:	a2 14 40 17 	or  %l1, %l7, %l1
    3d0c:	92 17 40 09 	or  %i5, %o1, %o1
    3d10:	96 10 00 0a 	mov  %o2, %o3
    3d14:	ba 10 20 00 	clr  %i5
    3d18:	96 16 40 0b 	or  %i1, %o3, %o3
    3d1c:	ae 10 20 00 	clr  %l7
    3d20:	b2 10 20 00 	clr  %i1
    3d24:	a0 10 20 00 	clr  %l0
    3d28:	90 10 20 00 	clr  %o0
    3d2c:	a0 14 00 16 	or  %l0, %l6, %l0
    3d30:	90 17 00 08 	or  %i4, %o0, %o0
    3d34:	ec 00 60 20 	ld  [ %g1 + 0x20 ], %l6
    3d38:	f8 00 60 18 	ld  [ %g1 + 0x18 ], %i4
    3d3c:	94 10 20 00 	clr  %o2
    3d40:	94 16 00 0a 	or  %i0, %o2, %o2
    3d44:	f0 00 60 28 	ld  [ %g1 + 0x28 ], %i0
    3d48:	a6 10 00 12 	mov  %l2, %l3
    3d4c:	86 10 00 02 	mov  %g2, %g3
    3d50:	9a 10 00 0c 	mov  %o4, %o5
    3d54:	aa 10 00 14 	mov  %l4, %l5
    3d58:	9a 17 40 0d 	or  %i5, %o5, %o5
    3d5c:	aa 15 c0 15 	or  %l7, %l5, %l5
    3d60:	a4 10 20 00 	clr  %l2
    3d64:	ae 16 40 13 	or  %i1, %l3, %l7
    3d68:	84 10 20 00 	clr  %g2
    3d6c:	ba 10 20 00 	clr  %i5
    3d70:	98 10 20 00 	clr  %o4
    3d74:	b2 17 40 03 	or  %i5, %g3, %i1
    3d78:	98 17 00 0c 	or  %i4, %o4, %o4
    3d7c:	a8 10 20 00 	clr  %l4
    3d80:	f8 00 60 30 	ld  [ %g1 + 0x30 ], %i4
    3d84:	a8 15 80 14 	or  %l6, %l4, %l4
    3d88:	ac 16 00 12 	or  %i0, %l2, %l6
    3d8c:	b0 17 00 02 	or  %i4, %g2, %i0
    3d90:	f6 00 60 3c 	ld  [ %g1 + 0x3c ], %i3
    3d94:	de 00 60 44 	ld  [ %g1 + 0x44 ], %o7
    3d98:	c8 00 60 4c 	ld  [ %g1 + 0x4c ], %g4
    3d9c:	f8 00 60 40 	ld  [ %g1 + 0x40 ], %i4
    3da0:	f0 3e a0 30 	std  %i0, [ %i2 + 0x30 ]
    3da4:	f0 00 60 38 	ld  [ %g1 + 0x38 ], %i0
    3da8:	b2 10 20 00 	clr  %i1
    3dac:	c4 00 60 48 	ld  [ %g1 + 0x48 ], %g2
    3db0:	a6 16 40 1b 	or  %i1, %i3, %l3
    3db4:	a4 10 20 00 	clr  %l2
    3db8:	ba 10 20 00 	clr  %i5
    3dbc:	a4 16 00 12 	or  %i0, %l2, %l2
    3dc0:	b2 17 40 0f 	or  %i5, %o7, %i1
    3dc4:	b0 10 20 00 	clr  %i0
    3dc8:	86 10 20 00 	clr  %g3
    3dcc:	b0 17 00 18 	or  %i4, %i0, %i0
    3dd0:	86 10 c0 04 	or  %g3, %g4, %g3
    3dd4:	b8 10 20 00 	clr  %i4
    3dd8:	e0 3e 80 00 	std  %l0, [ %i2 ]
    3ddc:	84 10 80 1c 	or  %g2, %i4, %g2
    3de0:	d0 3e a0 08 	std  %o0, [ %i2 + 8 ]
    3de4:	d4 3e a0 10 	std  %o2, [ %i2 + 0x10 ]
    3de8:	d8 3e a0 18 	std  %o4, [ %i2 + 0x18 ]
    3dec:	e8 3e a0 20 	std  %l4, [ %i2 + 0x20 ]
    3df0:	ec 3e a0 28 	std  %l6, [ %i2 + 0x28 ]
    3df4:	e4 3e a0 38 	std  %l2, [ %i2 + 0x38 ]
    3df8:	f0 3e a0 40 	std  %i0, [ %i2 + 0x40 ]
    3dfc:	c4 3e a0 48 	std  %g2, [ %i2 + 0x48 ]
    3e00:	81 c7 e0 08 	ret 
    3e04:	81 e8 00 00 	restore 

00003e08 <__ajit_ta_0__>:
    3e08:	91 d0 20 00 	ta  0
    3e0c:	01 00 00 00 	nop 
    3e10:	01 00 00 00 	nop 
    3e14:	81 c3 e0 08 	retl 
    3e18:	01 00 00 00 	nop 

00003e1c <__ajit_fsqrtd__>:
    3e1c:	c1 1a 00 00 	ldd  [ %o0 ], %f0
    3e20:	85 a0 05 40 	fsqrtd  %f0, %f2
    3e24:	c5 3a 40 00 	std  %f2, [ %o1 ]
    3e28:	81 c3 e0 08 	retl 
    3e2c:	01 00 00 00 	nop 

00003e30 <__ajit_fsqrts__>:
    3e30:	c1 02 00 00 	ld  [ %o0 ], %f0
    3e34:	83 a0 05 20 	fsqrts  %f0, %f1
    3e38:	c3 22 40 00 	st  %f1, [ %o1 ]
    3e3c:	81 c3 e0 08 	retl 
    3e40:	01 00 00 00 	nop 

00003e44 <__ajit_fitod__>:
    3e44:	c1 02 00 00 	ld  [ %o0 ], %f0
    3e48:	85 a0 19 00 	fitod  %f0, %f2
    3e4c:	c5 3a 40 00 	std  %f2, [ %o1 ]
    3e50:	81 c3 e0 08 	retl 
    3e54:	01 00 00 00 	nop 

00003e58 <__ajit_fitos__>:
    3e58:	c1 02 00 00 	ld  [ %o0 ], %f0
    3e5c:	83 a0 18 80 	fitos  %f0, %f1
    3e60:	c3 22 40 00 	st  %f1, [ %o1 ]
    3e64:	81 c3 e0 08 	retl 
    3e68:	01 00 00 00 	nop 

00003e6c <__ajit_fdtoi__>:
    3e6c:	c1 1a 00 00 	ldd  [ %o0 ], %f0
    3e70:	85 a0 1a 40 	fdtoi  %f0, %f2
    3e74:	c5 22 40 00 	st  %f2, [ %o1 ]
    3e78:	81 c3 e0 08 	retl 
    3e7c:	01 00 00 00 	nop 

00003e80 <__ajit_fstoi__>:
    3e80:	c1 02 00 00 	ld  [ %o0 ], %f0
    3e84:	83 a0 1a 20 	fstoi  %f0, %f1
    3e88:	c3 22 40 00 	st  %f1, [ %o1 ]
    3e8c:	81 c3 e0 08 	retl 
    3e90:	01 00 00 00 	nop 

00003e94 <ajit_initialize_interrupt_handlers_to_null>:
    3e94:	03 00 00 5c 	sethi  %hi(0x17000), %g1
    3e98:	82 10 60 20 	or  %g1, 0x20, %g1	! 17020 <ajit_global_interrupt_handlers>
    3e9c:	84 00 60 40 	add  %g1, 0x40, %g2
    3ea0:	c0 20 40 00 	clr  [ %g1 ]
    3ea4:	82 00 60 04 	add  %g1, 4, %g1
    3ea8:	80 a0 40 02 	cmp  %g1, %g2
    3eac:	32 bf ff fe 	bne,a   3ea4 <ajit_initialize_interrupt_handlers_to_null+0x10>
    3eb0:	c0 20 40 00 	clr  [ %g1 ]
    3eb4:	81 c3 e0 08 	retl 
    3eb8:	01 00 00 00 	nop 

00003ebc <ajit_set_interrupt_handler>:
    3ebc:	80 a2 20 0f 	cmp  %o0, 0xf
    3ec0:	18 80 00 05 	bgu  3ed4 <ajit_set_interrupt_handler+0x18>
    3ec4:	91 2a 20 02 	sll  %o0, 2, %o0
    3ec8:	03 00 00 5c 	sethi  %hi(0x17000), %g1
    3ecc:	82 10 60 20 	or  %g1, 0x20, %g1	! 17020 <ajit_global_interrupt_handlers>
    3ed0:	d2 20 40 08 	st  %o1, [ %g1 + %o0 ]
    3ed4:	81 c3 e0 08 	retl 
    3ed8:	01 00 00 00 	nop 

00003edc <readInterruptControlRegister>:
    3edc:	90 02 00 08 	add  %o0, %o0, %o0
    3ee0:	03 3f ff cc 	sethi  %hi(0xffff3000), %g1
    3ee4:	92 02 00 09 	add  %o0, %o1, %o1
    3ee8:	91 2a 60 02 	sll  %o1, 2, %o0
    3eec:	90 02 00 01 	add  %o0, %g1, %o0
    3ef0:	82 13 c0 00 	mov  %o7, %g1
    3ef4:	7f ff fc 7f 	call  30f0 <__ajit_load_word_mmu_bypass__>
    3ef8:	9e 10 40 00 	mov  %g1, %o7

00003efc <writeInterruptControlRegister>:
    3efc:	90 02 00 08 	add  %o0, %o0, %o0
    3f00:	03 3f ff cc 	sethi  %hi(0xffff3000), %g1
    3f04:	92 02 00 09 	add  %o0, %o1, %o1
    3f08:	90 10 00 0a 	mov  %o2, %o0
    3f0c:	93 2a 60 02 	sll  %o1, 2, %o1
    3f10:	92 02 40 01 	add  %o1, %g1, %o1
    3f14:	82 13 c0 00 	mov  %o7, %g1
    3f18:	7f ff fb fe 	call  2f10 <__ajit_store_word_mmu_bypass__>
    3f1c:	9e 10 40 00 	mov  %g1, %o7

00003f20 <enableInterruptController>:
    3f20:	9d e3 bf a0 	save  %sp, -96, %sp
    3f24:	90 10 00 18 	mov  %i0, %o0
    3f28:	7f ff ff ed 	call  3edc <readInterruptControlRegister>
    3f2c:	92 10 00 19 	mov  %i1, %o1
    3f30:	b4 12 20 01 	or  %o0, 1, %i2
    3f34:	7f ff ff f2 	call  3efc <writeInterruptControlRegister>
    3f38:	81 e8 00 00 	restore 

00003f3c <disableInterruptController>:
    3f3c:	9d e3 bf a0 	save  %sp, -96, %sp
    3f40:	90 10 00 18 	mov  %i0, %o0
    3f44:	7f ff ff e6 	call  3edc <readInterruptControlRegister>
    3f48:	92 10 00 19 	mov  %i1, %o1
    3f4c:	b4 0a 3f fe 	and  %o0, -2, %i2
    3f50:	7f ff ff eb 	call  3efc <writeInterruptControlRegister>
    3f54:	81 e8 00 00 	restore 

00003f58 <ajit_generic_interrupt_handler>:
    3f58:	9d e3 bf 98 	save  %sp, -104, %sp
    3f5c:	90 07 bf fe 	add  %fp, -2, %o0
    3f60:	7f ff fb b1 	call  2e24 <ajit_get_core_and_thread_id>
    3f64:	92 07 bf ff 	add  %fp, -1, %o1
    3f68:	d0 0f bf fe 	ldub  [ %fp + -2 ], %o0
    3f6c:	7f ff ff f4 	call  3f3c <disableInterruptController>
    3f70:	d2 0f bf ff 	ldub  [ %fp + -1 ], %o1
    3f74:	b1 36 20 04 	srl  %i0, 4, %i0
    3f78:	b0 0e 20 ff 	and  %i0, 0xff, %i0
    3f7c:	82 06 3f ef 	add  %i0, -17, %g1
    3f80:	80 a0 60 0e 	cmp  %g1, 0xe
    3f84:	18 80 00 11 	bgu  3fc8 <ajit_generic_interrupt_handler+0x70>
    3f88:	d0 0f bf fe 	ldub  [ %fp + -2 ], %o0
    3f8c:	b0 06 3f f0 	add  %i0, -16, %i0
    3f90:	03 00 00 5c 	sethi  %hi(0x17000), %g1
    3f94:	b1 2e 20 02 	sll  %i0, 2, %i0
    3f98:	82 10 60 20 	or  %g1, 0x20, %g1
    3f9c:	c2 00 40 18 	ld  [ %g1 + %i0 ], %g1
    3fa0:	80 a0 60 00 	cmp  %g1, 0
    3fa4:	02 80 00 09 	be  3fc8 <ajit_generic_interrupt_handler+0x70>
    3fa8:	01 00 00 00 	nop 
    3fac:	9f c0 40 00 	call  %g1
    3fb0:	01 00 00 00 	nop 
    3fb4:	d0 0f bf fe 	ldub  [ %fp + -2 ], %o0
    3fb8:	7f ff ff da 	call  3f20 <enableInterruptController>
    3fbc:	d2 0f bf ff 	ldub  [ %fp + -1 ], %o1
    3fc0:	81 c7 e0 08 	ret 
    3fc4:	81 e8 00 00 	restore 
    3fc8:	7f ff ff d6 	call  3f20 <enableInterruptController>
    3fcc:	d2 0f bf ff 	ldub  [ %fp + -1 ], %o1
    3fd0:	91 d0 20 00 	ta  0
    3fd4:	81 c7 e0 08 	ret 
    3fd8:	81 e8 00 00 	restore 

00003fdc <enableInterrupt>:
    3fdc:	9d e3 bf a0 	save  %sp, -96, %sp
    3fe0:	90 10 00 18 	mov  %i0, %o0
    3fe4:	7f ff ff be 	call  3edc <readInterruptControlRegister>
    3fe8:	92 10 00 19 	mov  %i1, %o1
    3fec:	82 10 20 01 	mov  1, %g1
    3ff0:	b5 28 40 1a 	sll  %g1, %i2, %i2
    3ff4:	b4 12 00 1a 	or  %o0, %i2, %i2
    3ff8:	7f ff ff c1 	call  3efc <writeInterruptControlRegister>
    3ffc:	81 e8 00 00 	restore 

00004000 <enableAllInterrupts>:
    4000:	9d e3 bf a0 	save  %sp, -96, %sp
    4004:	35 00 00 3f 	sethi  %hi(0xfc00), %i2
    4008:	90 10 00 18 	mov  %i0, %o0
    400c:	92 10 00 19 	mov  %i1, %o1
    4010:	7f ff ff b3 	call  3edc <readInterruptControlRegister>
    4014:	b4 16 a3 fe 	or  %i2, 0x3fe, %i2
    4018:	b4 12 00 1a 	or  %o0, %i2, %i2
    401c:	7f ff ff b8 	call  3efc <writeInterruptControlRegister>
    4020:	81 e8 00 00 	restore 

00004024 <enableInterruptControllerAndAllInterrupts>:
    4024:	15 00 00 3f 	sethi  %hi(0xfc00), %o2
    4028:	94 12 a3 ff 	or  %o2, 0x3ff, %o2	! ffff <SW_trap_0xfe+0x1f>
    402c:	82 13 c0 00 	mov  %o7, %g1
    4030:	7f ff ff b3 	call  3efc <writeInterruptControlRegister>
    4034:	9e 10 40 00 	mov  %g1, %o7

00004038 <setInterruptMask>:
    4038:	9d e3 bf a0 	save  %sp, -96, %sp
    403c:	90 10 00 18 	mov  %i0, %o0
    4040:	7f ff ff a7 	call  3edc <readInterruptControlRegister>
    4044:	92 10 00 19 	mov  %i1, %o1
    4048:	03 3f ff c0 	sethi  %hi(0xffff0000), %g1
    404c:	05 00 00 3f 	sethi  %hi(0xfc00), %g2
    4050:	82 10 60 01 	or  %g1, 1, %g1
    4054:	84 10 a3 fe 	or  %g2, 0x3fe, %g2
    4058:	90 0a 00 01 	and  %o0, %g1, %o0
    405c:	b4 0e 80 02 	and  %i2, %g2, %i2
    4060:	b4 12 00 1a 	or  %o0, %i2, %i2
    4064:	7f ff ff a6 	call  3efc <writeInterruptControlRegister>
    4068:	81 e8 00 00 	restore 

0000406c <disableInterrupt>:
    406c:	9d e3 bf a0 	save  %sp, -96, %sp
    4070:	90 10 00 18 	mov  %i0, %o0
    4074:	7f ff ff 9a 	call  3edc <readInterruptControlRegister>
    4078:	92 10 00 19 	mov  %i1, %o1
    407c:	82 10 20 01 	mov  1, %g1
    4080:	b5 28 40 1a 	sll  %g1, %i2, %i2
    4084:	b4 2a 00 1a 	andn  %o0, %i2, %i2
    4088:	7f ff ff 9d 	call  3efc <writeInterruptControlRegister>
    408c:	81 e8 00 00 	restore 

00004090 <cortos_init_printing>:
    4090:	84 10 20 01 	mov  1, %g2
    4094:	03 00 00 5c 	sethi  %hi(0x17000), %g1
    4098:	82 10 60 68 	or  %g1, 0x68, %g1	! 17068 <allocatedLocksNc>
    409c:	c4 28 60 05 	stb  %g2, [ %g1 + 5 ]
    40a0:	05 00 00 64 	sethi  %hi(0x19000), %g2
    40a4:	03 00 00 5c 	sethi  %hi(0x17000), %g1
    40a8:	84 10 a0 05 	or  %g2, 5, %g2
    40ac:	81 c3 e0 08 	retl 
    40b0:	c4 20 60 0c 	st  %g2, [ %g1 + 0xc ]

000040b4 <cortos_get_clock_time>:
    40b4:	82 13 c0 00 	mov  %o7, %g1
    40b8:	7f ff fb 66 	call  2e50 <__ajit_get_clock_time>
    40bc:	9e 10 40 00 	mov  %g1, %o7

000040c0 <cortos_sleep>:
    40c0:	9d e3 bf a0 	save  %sp, -96, %sp
    40c4:	f0 27 a0 44 	st  %i0, [ %fp + 0x44 ]
    40c8:	d0 07 a0 44 	ld  [ %fp + 0x44 ], %o0
    40cc:	7f ff fb 6b 	call  2e78 <__ajit_sleep__>
    40d0:	01 00 00 00 	nop 
    40d4:	81 e8 00 00 	restore 
    40d8:	81 c3 e0 08 	retl 
    40dc:	01 00 00 00 	nop 

000040e0 <cortos_get_thread_id>:
    40e0:	9d e3 bf a0 	save  %sp, -96, %sp
    40e4:	a3 47 40 00 	rd  %asr29, %l1
    40e8:	82 10 00 11 	mov  %l1, %g1
    40ec:	b1 30 60 07 	srl  %g1, 7, %i0
    40f0:	b0 0e 21 fe 	and  %i0, 0x1fe, %i0
    40f4:	82 06 00 01 	add  %i0, %g1, %g1
    40f8:	b1 28 60 18 	sll  %g1, 0x18, %i0
    40fc:	b1 3e 20 18 	sra  %i0, 0x18, %i0
    4100:	81 c7 e0 08 	ret 
    4104:	81 e8 00 00 	restore 

00004108 <cortos_IsNcRamAddr>:
    4108:	81 c3 e0 08 	retl 
    410c:	90 10 20 00 	clr  %o0

00004110 <cortos_vprintf>:
    4110:	9d e3 bb a0 	save  %sp, -1120, %sp
    4114:	92 10 00 18 	mov  %i0, %o1
    4118:	94 10 00 19 	mov  %i1, %o2
    411c:	ba 07 bc 00 	add  %fp, -1024, %i5
    4120:	7f ff f9 27 	call  25bc <vsprintf_>
    4124:	90 10 00 1d 	mov  %i5, %o0
    4128:	39 00 00 5c 	sethi  %hi(0x17000), %i4
    412c:	7f ff f0 65 	call  2c0 <cortos_lock_acquire_buzy>
    4130:	d0 07 20 0c 	ld  [ %i4 + 0xc ], %o0	! 1700c <printingLockAddr>
    4134:	d0 0f bc 00 	ldub  [ %fp + -1024 ], %o0
    4138:	91 2a 20 18 	sll  %o0, 0x18, %o0
    413c:	80 a2 20 00 	cmp  %o0, 0
    4140:	02 80 00 0a 	be  4168 <cortos_vprintf+0x58>
    4144:	b0 10 20 00 	clr  %i0
    4148:	7f ff f8 df 	call  24c4 <uart_send_char>
    414c:	91 3a 20 18 	sra  %o0, 0x18, %o0
    4150:	b0 06 20 01 	inc  %i0
    4154:	d0 0f 40 18 	ldub  [ %i5 + %i0 ], %o0
    4158:	91 2a 20 18 	sll  %o0, 0x18, %o0
    415c:	80 a2 20 00 	cmp  %o0, 0
    4160:	12 bf ff fa 	bne  4148 <cortos_vprintf+0x38>
    4164:	01 00 00 00 	nop 
    4168:	7f ff f0 70 	call  328 <cortos_lock_release>
    416c:	d0 07 20 0c 	ld  [ %i4 + 0xc ], %o0
    4170:	81 c7 e0 08 	ret 
    4174:	81 e8 00 00 	restore 

00004178 <cortos_printf>:
    4178:	9d e3 bf 98 	save  %sp, -104, %sp
    417c:	92 07 a0 48 	add  %fp, 0x48, %o1
    4180:	f2 27 a0 48 	st  %i1, [ %fp + 0x48 ]
    4184:	f4 27 a0 4c 	st  %i2, [ %fp + 0x4c ]
    4188:	f6 27 a0 50 	st  %i3, [ %fp + 0x50 ]
    418c:	f8 27 a0 54 	st  %i4, [ %fp + 0x54 ]
    4190:	fa 27 a0 58 	st  %i5, [ %fp + 0x58 ]
    4194:	d2 27 bf fc 	st  %o1, [ %fp + -4 ]
    4198:	7f ff ff de 	call  4110 <cortos_vprintf>
    419c:	90 10 00 18 	mov  %i0, %o0
    41a0:	81 c7 e0 08 	ret 
    41a4:	91 e8 00 08 	restore  %g0, %o0, %o0

000041a8 <cortos_init_locks>:
    41a8:	84 10 20 01 	mov  1, %g2
    41ac:	03 00 00 5c 	sethi  %hi(0x17000), %g1
    41b0:	c4 28 60 68 	stb  %g2, [ %g1 + 0x68 ]	! 17068 <allocatedLocksNc>
    41b4:	05 00 00 64 	sethi  %hi(0x19000), %g2
    41b8:	03 00 00 5c 	sethi  %hi(0x17000), %g1
    41bc:	81 c3 e0 08 	retl 
    41c0:	c4 20 60 60 	st  %g2, [ %g1 + 0x60 ]	! 17060 <cortos_reservedLockAddr>

000041c4 <cortos_reserveLock>:
    41c4:	9d e3 bf a0 	save  %sp, -96, %sp
    41c8:	80 a6 20 00 	cmp  %i0, 0
    41cc:	22 80 00 1b 	be,a   4238 <cortos_reserveLock+0x74>
    41d0:	03 00 00 59 	sethi  %hi(0x16400), %g1
    41d4:	03 00 00 59 	sethi  %hi(0x16400), %g1
    41d8:	39 00 00 5c 	sethi  %hi(0x17000), %i4
    41dc:	f0 00 60 d8 	ld  [ %g1 + 0xd8 ], %i0
    41e0:	b8 17 20 68 	or  %i4, 0x68, %i4
    41e4:	3b 00 00 5c 	sethi  %hi(0x17000), %i5
    41e8:	7f ff f0 36 	call  2c0 <cortos_lock_acquire_buzy>
    41ec:	d0 07 60 60 	ld  [ %i5 + 0x60 ], %o0	! 17060 <cortos_reservedLockAddr>
    41f0:	82 10 00 1c 	mov  %i4, %g1
    41f4:	10 80 00 06 	b  420c <cortos_reserveLock+0x48>
    41f8:	84 10 20 00 	clr  %g2
    41fc:	84 00 a0 01 	inc  %g2
    4200:	80 a0 a1 00 	cmp  %g2, 0x100
    4204:	02 80 00 11 	be  4248 <cortos_reserveLock+0x84>
    4208:	82 00 60 01 	inc  %g1
    420c:	c6 48 40 00 	ldsb  [ %g1 ], %g3
    4210:	80 a0 e0 00 	cmp  %g3, 0
    4214:	12 bf ff fa 	bne  41fc <cortos_reserveLock+0x38>
    4218:	b8 10 00 02 	mov  %g2, %i4
    421c:	86 10 20 01 	mov  1, %g3
    4220:	d0 07 60 60 	ld  [ %i5 + 0x60 ], %o0
    4224:	c6 28 40 00 	stb  %g3, [ %g1 ]
    4228:	7f ff f0 40 	call  328 <cortos_lock_release>
    422c:	b0 06 00 1c 	add  %i0, %i4, %i0
    4230:	81 c7 e0 08 	ret 
    4234:	81 e8 00 00 	restore 
    4238:	39 00 00 5c 	sethi  %hi(0x17000), %i4
    423c:	f0 00 60 dc 	ld  [ %g1 + 0xdc ], %i0
    4240:	10 bf ff e9 	b  41e4 <cortos_reserveLock+0x20>
    4244:	b8 17 21 68 	or  %i4, 0x168, %i4
    4248:	b8 10 21 00 	mov  0x100, %i4
    424c:	d0 07 60 60 	ld  [ %i5 + 0x60 ], %o0
    4250:	7f ff f0 36 	call  328 <cortos_lock_release>
    4254:	b0 06 00 1c 	add  %i0, %i4, %i0
    4258:	81 c7 e0 08 	ret 
    425c:	81 e8 00 00 	restore 

00004260 <cortos_freeLock>:
    4260:	9d e3 bf a0 	save  %sp, -96, %sp
    4264:	3b 00 00 59 	sethi  %hi(0x16400), %i5
    4268:	c2 07 60 dc 	ld  [ %i5 + 0xdc ], %g1	! 164dc <lockStartAddr>
    426c:	80 a0 40 18 	cmp  %g1, %i0
    4270:	18 80 00 05 	bgu  4284 <cortos_freeLock+0x24>
    4274:	82 00 61 00 	add  %g1, 0x100, %g1
    4278:	80 a6 00 01 	cmp  %i0, %g1
    427c:	0a 80 00 0e 	bcs  42b4 <cortos_freeLock+0x54>
    4280:	39 00 00 5c 	sethi  %hi(0x17000), %i4
    4284:	3b 00 00 5c 	sethi  %hi(0x17000), %i5
    4288:	7f ff f0 0e 	call  2c0 <cortos_lock_acquire_buzy>
    428c:	d0 07 60 60 	ld  [ %i5 + 0x60 ], %o0	! 17060 <cortos_reservedLockAddr>
    4290:	03 00 00 59 	sethi  %hi(0x16400), %g1
    4294:	05 00 00 5c 	sethi  %hi(0x17000), %g2
    4298:	c2 00 60 d8 	ld  [ %g1 + 0xd8 ], %g1
    429c:	84 10 a0 68 	or  %g2, 0x68, %g2
    42a0:	82 26 00 01 	sub  %i0, %g1, %g1
    42a4:	f0 07 60 60 	ld  [ %i5 + 0x60 ], %i0
    42a8:	c0 28 80 01 	clrb  [ %g2 + %g1 ]
    42ac:	7f ff f0 1f 	call  328 <cortos_lock_release>
    42b0:	81 e8 00 00 	restore 
    42b4:	7f ff f0 03 	call  2c0 <cortos_lock_acquire_buzy>
    42b8:	d0 07 20 60 	ld  [ %i4 + 0x60 ], %o0
    42bc:	c2 07 60 dc 	ld  [ %i5 + 0xdc ], %g1
    42c0:	05 00 00 5c 	sethi  %hi(0x17000), %g2
    42c4:	82 26 00 01 	sub  %i0, %g1, %g1
    42c8:	84 10 a1 68 	or  %g2, 0x168, %g2
    42cc:	f0 07 20 60 	ld  [ %i4 + 0x60 ], %i0
    42d0:	c0 28 80 01 	clrb  [ %g2 + %g1 ]
    42d4:	7f ff f0 15 	call  328 <cortos_lock_release>
    42d8:	81 e8 00 00 	restore 

000042dc <main_00>:
    42dc:	9d e3 be a0 	save  %sp, -352, %sp
    42e0:	94 10 20 00 	clr  %o2
    42e4:	90 10 20 01 	mov  1, %o0
    42e8:	7f ff fc 95 	call  353c <__ajit_serial_configure_via_bypass__>
    42ec:	92 10 20 00 	clr  %o1
    42f0:	13 01 31 2d 	sethi  %hi(0x4c4b400), %o1
    42f4:	11 00 00 70 	sethi  %hi(0x1c000), %o0
    42f8:	7f ff fb c6 	call  3210 <__ajit_serial_set_baudrate_via_bypass__>
    42fc:	90 12 22 00 	or  %o0, 0x200, %o0	! 1c200 <_custom_printf_handler+0x4f2c>
    4300:	7f ff fd a2 	call  3988 <__ajit_serial_set_uart_reset_via_bypass__>
    4304:	90 10 20 00 	clr  %o0
    4308:	90 07 bf 00 	add  %fp, -256, %o0
    430c:	13 00 00 59 	sethi  %hi(0x16400), %o1
    4310:	40 00 00 a1 	call  4594 <__GI_sprintf>
    4314:	92 12 60 40 	or  %o1, 0x40, %o1	! 16440 <__clz_tab+0x208>
    4318:	90 07 bf 00 	add  %fp, -256, %o0
    431c:	7f ff fd 4b 	call  3848 <__ajit_serial_puts_via_bypass__>
    4320:	92 10 20 ff 	mov  0xff, %o1
    4324:	90 07 bf 00 	add  %fp, -256, %o0
    4328:	13 00 00 59 	sethi  %hi(0x16400), %o1
    432c:	40 00 00 9a 	call  4594 <__GI_sprintf>
    4330:	92 12 60 50 	or  %o1, 0x50, %o1	! 16450 <__clz_tab+0x218>
    4334:	90 07 bf 00 	add  %fp, -256, %o0
    4338:	7f ff fd 44 	call  3848 <__ajit_serial_puts_via_bypass__>
    433c:	92 10 20 ff 	mov  0xff, %o1
    4340:	90 07 bf 00 	add  %fp, -256, %o0
    4344:	13 00 00 59 	sethi  %hi(0x16400), %o1
    4348:	40 00 00 93 	call  4594 <__GI_sprintf>
    434c:	92 12 60 60 	or  %o1, 0x60, %o1	! 16460 <__clz_tab+0x228>
    4350:	90 07 bf 00 	add  %fp, -256, %o0
    4354:	7f ff fd 3d 	call  3848 <__ajit_serial_puts_via_bypass__>
    4358:	92 10 20 ff 	mov  0xff, %o1
    435c:	81 c7 e0 08 	ret 
    4360:	81 e8 00 00 	restore 

00004364 <bget>:
    4364:	80 a2 20 07 	cmp  %o0, 7
    4368:	08 80 00 23 	bleu  43f4 <bget+0x90>
    436c:	86 10 20 10 	mov  0x10, %g3
    4370:	88 02 20 07 	add  %o0, 7, %g4
    4374:	88 09 3f f8 	and  %g4, -8, %g4
    4378:	88 01 20 08 	add  %g4, 8, %g4
    437c:	86 10 00 04 	mov  %g4, %g3
    4380:	05 00 00 59 	sethi  %hi(0x16400), %g2
    4384:	84 10 a0 e0 	or  %g2, 0xe0, %g2	! 164e0 <freelist>
    4388:	d0 00 a0 08 	ld  [ %g2 + 8 ], %o0
    438c:	80 a2 00 02 	cmp  %o0, %g2
    4390:	32 80 00 08 	bne,a   43b0 <bget+0x4c>
    4394:	c2 02 20 04 	ld  [ %o0 + 4 ], %g1
    4398:	81 c3 e0 08 	retl 
    439c:	90 10 20 00 	clr  %o0
    43a0:	80 a2 00 02 	cmp  %o0, %g2
    43a4:	02 80 00 12 	be  43ec <bget+0x88>
    43a8:	01 00 00 00 	nop 
    43ac:	c2 02 20 04 	ld  [ %o0 + 4 ], %g1
    43b0:	80 a0 40 03 	cmp  %g1, %g3
    43b4:	26 bf ff fb 	bl,a   43a0 <bget+0x3c>
    43b8:	d0 02 20 08 	ld  [ %o0 + 8 ], %o0
    43bc:	84 20 40 03 	sub  %g1, %g3, %g2
    43c0:	80 a0 a0 10 	cmp  %g2, 0x10
    43c4:	28 80 00 0e 	bleu,a   43fc <bget+0x98>
    43c8:	c6 02 20 08 	ld  [ %o0 + 8 ], %g3
    43cc:	c4 22 20 04 	st  %g2, [ %o0 + 4 ]
    43d0:	c4 22 00 02 	st  %g2, [ %o0 + %g2 ]
    43d4:	86 20 00 03 	neg  %g3
    43d8:	90 02 00 02 	add  %o0, %g2, %o0
    43dc:	c0 22 00 04 	clr  [ %o0 + %g4 ]
    43e0:	c6 22 20 04 	st  %g3, [ %o0 + 4 ]
    43e4:	81 c3 e0 08 	retl 
    43e8:	90 02 20 08 	add  %o0, 8, %o0
    43ec:	81 c3 e0 08 	retl 
    43f0:	90 10 20 00 	clr  %o0
    43f4:	10 bf ff e3 	b  4380 <bget+0x1c>
    43f8:	88 10 20 10 	mov  0x10, %g4
    43fc:	c4 02 20 0c 	ld  [ %o0 + 0xc ], %g2
    4400:	c6 20 a0 08 	st  %g3, [ %g2 + 8 ]
    4404:	c6 02 20 08 	ld  [ %o0 + 8 ], %g3
    4408:	c4 20 e0 0c 	st  %g2, [ %g3 + 0xc ]
    440c:	c0 22 00 01 	clr  [ %o0 + %g1 ]
    4410:	84 20 00 01 	neg  %g1, %g2
    4414:	c4 22 20 04 	st  %g2, [ %o0 + 4 ]
    4418:	90 02 20 08 	add  %o0, 8, %o0
    441c:	81 c3 e0 08 	retl 
    4420:	01 00 00 00 	nop 

00004424 <bpool>:
    4424:	03 00 00 59 	sethi  %hi(0x16400), %g1
    4428:	82 10 60 e0 	or  %g1, 0xe0, %g1	! 164e0 <freelist>
    442c:	c4 00 60 0c 	ld  [ %g1 + 0xc ], %g2
    4430:	c2 22 20 08 	st  %g1, [ %o0 + 8 ]
    4434:	c4 22 20 0c 	st  %g2, [ %o0 + 0xc ]
    4438:	d0 20 60 0c 	st  %o0, [ %g1 + 0xc ]
    443c:	c0 22 00 00 	clr  [ %o0 ]
    4440:	c2 02 20 0c 	ld  [ %o0 + 0xc ], %g1
    4444:	92 0a 7f f8 	and  %o1, -8, %o1
    4448:	d0 20 60 08 	st  %o0, [ %g1 + 8 ]
    444c:	92 02 7f f8 	add  %o1, -8, %o1
    4450:	d2 22 20 04 	st  %o1, [ %o0 + 4 ]
    4454:	82 02 00 09 	add  %o0, %o1, %g1
    4458:	05 20 00 00 	sethi  %hi(0x80000000), %g2
    445c:	d2 22 00 09 	st  %o1, [ %o0 + %o1 ]
    4460:	81 c3 e0 08 	retl 
    4464:	c4 20 60 04 	st  %g2, [ %g1 + 4 ]

00004468 <brel>:
    4468:	c2 02 3f f8 	ld  [ %o0 + -8 ], %g1
    446c:	80 a0 60 00 	cmp  %g1, 0
    4470:	02 80 00 16 	be  44c8 <brel+0x60>
    4474:	84 02 3f f8 	add  %o0, -8, %g2
    4478:	84 20 80 01 	sub  %g2, %g1, %g2
    447c:	c2 02 3f fc 	ld  [ %o0 + -4 ], %g1
    4480:	c6 00 a0 04 	ld  [ %g2 + 4 ], %g3
    4484:	82 20 c0 01 	sub  %g3, %g1, %g1
    4488:	c2 20 a0 04 	st  %g1, [ %g2 + 4 ]
    448c:	86 00 80 01 	add  %g2, %g1, %g3
    4490:	c8 00 e0 04 	ld  [ %g3 + 4 ], %g4
    4494:	80 a1 20 00 	cmp  %g4, 0
    4498:	04 80 00 0a 	ble  44c0 <brel+0x58>
    449c:	01 00 00 00 	nop 
    44a0:	da 00 e0 0c 	ld  [ %g3 + 0xc ], %o5
    44a4:	82 00 40 04 	add  %g1, %g4, %g1
    44a8:	d8 00 e0 08 	ld  [ %g3 + 8 ], %o4
    44ac:	c2 20 a0 04 	st  %g1, [ %g2 + 4 ]
    44b0:	d8 23 60 08 	st  %o4, [ %o5 + 8 ]
    44b4:	c8 00 e0 08 	ld  [ %g3 + 8 ], %g4
    44b8:	86 00 80 01 	add  %g2, %g1, %g3
    44bc:	da 21 20 0c 	st  %o5, [ %g4 + 0xc ]
    44c0:	81 c3 e0 08 	retl 
    44c4:	c2 20 c0 00 	st  %g1, [ %g3 ]
    44c8:	07 00 00 59 	sethi  %hi(0x16400), %g3
    44cc:	86 10 e0 e0 	or  %g3, 0xe0, %g3	! 164e0 <freelist>
    44d0:	c2 00 e0 0c 	ld  [ %g3 + 0xc ], %g1
    44d4:	c6 22 00 00 	st  %g3, [ %o0 ]
    44d8:	c2 22 20 04 	st  %g1, [ %o0 + 4 ]
    44dc:	c4 20 e0 0c 	st  %g2, [ %g3 + 0xc ]
    44e0:	c2 02 3f fc 	ld  [ %o0 + -4 ], %g1
    44e4:	c6 02 20 04 	ld  [ %o0 + 4 ], %g3
    44e8:	82 20 00 01 	neg  %g1
    44ec:	c4 20 e0 08 	st  %g2, [ %g3 + 8 ]
    44f0:	10 bf ff e7 	b  448c <brel+0x24>
    44f4:	c2 22 3f fc 	st  %g1, [ %o0 + -4 ]

000044f8 <ajit_initialize_sw_trap_handlers_to_null>:
    44f8:	03 00 00 5c 	sethi  %hi(0x17000), %g1
    44fc:	82 10 62 68 	or  %g1, 0x268, %g1	! 17268 <ajit_global_sw_trap_handlers>
    4500:	84 00 60 44 	add  %g1, 0x44, %g2
    4504:	c0 20 40 00 	clr  [ %g1 ]
    4508:	82 00 60 04 	add  %g1, 4, %g1
    450c:	80 a0 40 02 	cmp  %g1, %g2
    4510:	32 bf ff fe 	bne,a   4508 <ajit_initialize_sw_trap_handlers_to_null+0x10>
    4514:	c0 20 40 00 	clr  [ %g1 ]
    4518:	81 c3 e0 08 	retl 
    451c:	01 00 00 00 	nop 

00004520 <ajit_set_sw_trap_handler>:
    4520:	80 a2 20 10 	cmp  %o0, 0x10
    4524:	18 80 00 05 	bgu  4538 <ajit_set_sw_trap_handler+0x18>
    4528:	91 2a 20 02 	sll  %o0, 2, %o0
    452c:	03 00 00 5c 	sethi  %hi(0x17000), %g1
    4530:	82 10 62 68 	or  %g1, 0x268, %g1	! 17268 <ajit_global_sw_trap_handlers>
    4534:	d2 20 40 08 	st  %o1, [ %g1 + %o0 ]
    4538:	81 c3 e0 08 	retl 
    453c:	01 00 00 00 	nop 

00004540 <ajit_generic_sw_trap_handler>:
    4540:	9d e3 bf a0 	save  %sp, -96, %sp
    4544:	b1 36 20 04 	srl  %i0, 4, %i0
    4548:	82 0e 20 ff 	and  %i0, 0xff, %g1
    454c:	82 00 7f 80 	add  %g1, -128, %g1
    4550:	80 a0 60 10 	cmp  %g1, 0x10
    4554:	18 80 00 0d 	bgu  4588 <ajit_generic_sw_trap_handler+0x48>
    4558:	83 28 60 02 	sll  %g1, 2, %g1
    455c:	05 00 00 5c 	sethi  %hi(0x17000), %g2
    4560:	84 10 a2 68 	or  %g2, 0x268, %g2	! 17268 <ajit_global_sw_trap_handlers>
    4564:	c2 00 80 01 	ld  [ %g2 + %g1 ], %g1
    4568:	80 a0 60 00 	cmp  %g1, 0
    456c:	02 80 00 07 	be  4588 <ajit_generic_sw_trap_handler+0x48>
    4570:	90 10 00 19 	mov  %i1, %o0
    4574:	92 10 00 1a 	mov  %i2, %o1
    4578:	9f c0 40 00 	call  %g1
    457c:	94 10 00 1b 	mov  %i3, %o2
    4580:	81 c7 e0 08 	ret 
    4584:	81 e8 00 00 	restore 
    4588:	91 d0 20 00 	ta  0
    458c:	81 c7 e0 08 	ret 
    4590:	81 e8 00 00 	restore 

00004594 <__GI_sprintf>:
    4594:	9d e3 bf 98 	save  %sp, -104, %sp
    4598:	92 10 3f ff 	mov  -1, %o1
    459c:	96 07 a0 4c 	add  %fp, 0x4c, %o3
    45a0:	f4 27 a0 4c 	st  %i2, [ %fp + 0x4c ]
    45a4:	f6 27 a0 50 	st  %i3, [ %fp + 0x50 ]
    45a8:	f8 27 a0 54 	st  %i4, [ %fp + 0x54 ]
    45ac:	fa 27 a0 58 	st  %i5, [ %fp + 0x58 ]
    45b0:	d6 27 bf fc 	st  %o3, [ %fp + -4 ]
    45b4:	90 10 00 18 	mov  %i0, %o0
    45b8:	40 00 00 04 	call  45c8 <__GI_vsnprintf>
    45bc:	94 10 00 19 	mov  %i1, %o2
    45c0:	81 c7 e0 08 	ret 
    45c4:	91 e8 00 08 	restore  %g0, %o0, %o0

000045c8 <__GI_vsnprintf>:
    45c8:	9d e3 bf 60 	save  %sp, -160, %sp
    45cc:	82 07 bf c4 	add  %fp, -60, %g1
    45d0:	c2 27 bf dc 	st  %g1, [ %fp + -36 ]
    45d4:	82 10 3f fe 	mov  -2, %g1
    45d8:	c2 27 bf c4 	st  %g1, [ %fp + -60 ]
    45dc:	82 10 20 d0 	mov  0xd0, %g1
    45e0:	c0 27 bf e0 	clr  [ %fp + -32 ]
    45e4:	c2 37 bf c0 	sth  %g1, [ %fp + -64 ]
    45e8:	c0 27 bf e4 	clr  [ %fp + -28 ]
    45ec:	82 10 20 01 	mov  1, %g1
    45f0:	c0 27 bf e8 	clr  [ %fp + -24 ]
    45f4:	c0 27 bf ec 	clr  [ %fp + -20 ]
    45f8:	c2 27 bf f0 	st  %g1, [ %fp + -16 ]
    45fc:	c0 27 bf f4 	clr  [ %fp + -12 ]
    4600:	c0 27 bf f8 	clr  [ %fp + -8 ]
    4604:	c0 27 bf fc 	clr  [ %fp + -4 ]
    4608:	ba 38 00 18 	xnor  %g0, %i0, %i5
    460c:	80 a7 40 19 	cmp  %i5, %i1
    4610:	08 80 00 03 	bleu  461c <__GI_vsnprintf+0x54>
    4614:	c0 27 bf d8 	clr  [ %fp + -40 ]
    4618:	ba 10 00 19 	mov  %i1, %i5
    461c:	82 06 00 1d 	add  %i0, %i5, %g1
    4620:	f0 27 bf c8 	st  %i0, [ %fp + -56 ]
    4624:	f0 27 bf d0 	st  %i0, [ %fp + -48 ]
    4628:	f0 27 bf d4 	st  %i0, [ %fp + -44 ]
    462c:	c2 27 bf cc 	st  %g1, [ %fp + -52 ]
    4630:	90 07 bf c0 	add  %fp, -64, %o0
    4634:	92 10 00 1a 	mov  %i2, %o1
    4638:	40 00 00 3e 	call  4730 <_vfprintf_internal>
    463c:	94 10 00 1b 	mov  %i3, %o2
    4640:	80 a7 60 00 	cmp  %i5, 0
    4644:	02 80 00 0b 	be  4670 <__GI_vsnprintf+0xa8>
    4648:	b0 10 00 08 	mov  %o0, %i0
    464c:	c2 07 bf d0 	ld  [ %fp + -48 ], %g1
    4650:	c4 07 bf cc 	ld  [ %fp + -52 ], %g2
    4654:	80 a0 40 02 	cmp  %g1, %g2
    4658:	32 80 00 06 	bne,a   4670 <__GI_vsnprintf+0xa8>
    465c:	c0 28 40 00 	clrb  [ %g1 ]
    4660:	82 00 7f ff 	add  %g1, -1, %g1
    4664:	c2 27 bf d0 	st  %g1, [ %fp + -48 ]
    4668:	c2 07 bf d0 	ld  [ %fp + -48 ], %g1
    466c:	c0 28 40 00 	clrb  [ %g1 ]
    4670:	81 c7 e0 08 	ret 
    4674:	81 e8 00 00 	restore 
    4678:	9d e3 bf 98 	save  %sp, -104, %sp
    467c:	f2 2f bf f8 	stb  %i1, [ %fp + -8 ]
    4680:	ba 10 00 1a 	mov  %i2, %i5
    4684:	80 a7 60 00 	cmp  %i5, 0
    4688:	02 80 00 08 	be  46a8 <__GI_vsnprintf+0xe0>
    468c:	90 07 bf f8 	add  %fp, -8, %o0
    4690:	92 10 20 01 	mov  1, %o1
    4694:	40 00 0b d0 	call  75d4 <__stdio_fwrite>
    4698:	94 10 00 18 	mov  %i0, %o2
    469c:	80 a2 20 01 	cmp  %o0, 1
    46a0:	22 bf ff f9 	be,a   4684 <__GI_vsnprintf+0xbc>
    46a4:	ba 07 7f ff 	add  %i5, -1, %i5
    46a8:	b0 26 80 1d 	sub  %i2, %i5, %i0
    46ac:	81 c7 e0 08 	ret 
    46b0:	81 e8 00 00 	restore 

000046b4 <_fp_out_narrow>:
    46b4:	9d e3 bf a0 	save  %sp, -96, %sp
    46b8:	80 8e 60 80 	btst  0x80, %i1
    46bc:	02 80 00 13 	be  4708 <_fp_out_narrow+0x54>
    46c0:	ba 10 20 00 	clr  %i5
    46c4:	40 00 04 bd 	call  59b8 <__GI_strlen>
    46c8:	90 10 00 1b 	mov  %i3, %o0
    46cc:	b4 26 80 08 	sub  %i2, %o0, %i2
    46d0:	80 a6 a0 00 	cmp  %i2, 0
    46d4:	04 80 00 0b 	ble  4700 <_fp_out_narrow+0x4c>
    46d8:	b8 10 00 08 	mov  %o0, %i4
    46dc:	90 10 00 18 	mov  %i0, %o0
    46e0:	92 0e 60 7f 	and  %i1, 0x7f, %o1
    46e4:	7f ff ff e5 	call  4678 <__GI_vsnprintf+0xb0>
    46e8:	94 10 00 1a 	mov  %i2, %o2
    46ec:	80 a2 00 1a 	cmp  %o0, %i2
    46f0:	12 80 00 0e 	bne  4728 <_fp_out_narrow+0x74>
    46f4:	ba 10 00 08 	mov  %o0, %i5
    46f8:	10 80 00 04 	b  4708 <_fp_out_narrow+0x54>
    46fc:	b4 10 00 1c 	mov  %i4, %i2
    4700:	b4 10 00 08 	mov  %o0, %i2
    4704:	ba 10 20 00 	clr  %i5
    4708:	80 a6 a0 00 	cmp  %i2, 0
    470c:	04 80 00 06 	ble  4724 <_fp_out_narrow+0x70>
    4710:	90 10 20 00 	clr  %o0
    4714:	90 10 00 1b 	mov  %i3, %o0
    4718:	92 10 00 1a 	mov  %i2, %o1
    471c:	40 00 0b ae 	call  75d4 <__stdio_fwrite>
    4720:	94 10 00 18 	mov  %i0, %o2
    4724:	ba 07 40 08 	add  %i5, %o0, %i5
    4728:	81 c7 e0 08 	ret 
    472c:	91 e8 00 1d 	restore  %g0, %i5, %o0

00004730 <_vfprintf_internal>:
    4730:	9d e3 be 18 	save  %sp, -488, %sp
    4734:	2f 00 00 47 	sethi  %hi(0x11c00), %l7
    4738:	40 00 2e 32 	call  10000 <__sparc_get_pc_thunk.l7>
    473c:	ae 05 e1 e4 	add  %l7, 0x1e4, %l7	! 11de4 <__sparc_get_pc_thunk.l7+0x1de4>
    4740:	90 07 bf 20 	add  %fp, -224, %o0
    4744:	40 00 01 99 	call  4da8 <_ppfs_init>
    4748:	92 10 00 19 	mov  %i1, %o1
    474c:	80 a2 20 00 	cmp  %o0, 0
    4750:	16 80 00 0e 	bge  4788 <_vfprintf_internal+0x58>
    4754:	90 07 bf 20 	add  %fp, -224, %o0
    4758:	fa 07 bf 20 	ld  [ %fp + -224 ], %i5
    475c:	b6 10 3f ff 	mov  -1, %i3
    4760:	40 00 04 96 	call  59b8 <__GI_strlen>
    4764:	90 10 00 1d 	mov  %i5, %o0
    4768:	80 a2 20 00 	cmp  %o0, 0
    476c:	02 80 01 8c 	be  4d9c <_vfprintf_internal+0x66c>
    4770:	92 10 00 08 	mov  %o0, %o1
    4774:	90 10 00 1d 	mov  %i5, %o0
    4778:	40 00 0b 97 	call  75d4 <__stdio_fwrite>
    477c:	94 10 00 18 	mov  %i0, %o2
    4780:	81 c7 e0 08 	ret 
    4784:	91 e8 00 1b 	restore  %g0, %i3, %o0
    4788:	40 00 01 b3 	call  4e54 <_ppfs_prepargs>
    478c:	92 10 00 1a 	mov  %i2, %o1
    4790:	35 00 00 05 	sethi  %hi(0x1400), %i2
    4794:	29 00 00 00 	sethi  %hi(0), %l4
    4798:	b4 1e bf 7c 	xor  %i2, -132, %i2
    479c:	a8 1d 3f f4 	xor  %l4, -12, %l4
    47a0:	2b 00 00 03 	sethi  %hi(0xc00), %l5
    47a4:	90 10 00 19 	mov  %i1, %o0
    47a8:	aa 1d 61 b8 	xor  %l5, 0x1b8, %l5
    47ac:	b6 10 20 00 	clr  %i3
    47b0:	b4 05 c0 1a 	add  %l7, %i2, %i2
    47b4:	a8 05 c0 14 	add  %l7, %l4, %l4
    47b8:	aa 05 c0 15 	add  %l7, %l5, %l5
    47bc:	c2 0e 40 00 	ldub  [ %i1 ], %g1
    47c0:	80 a0 60 25 	cmp  %g1, 0x25
    47c4:	02 80 00 06 	be  47dc <_vfprintf_internal+0xac>
    47c8:	80 a6 40 08 	cmp  %i1, %o0
    47cc:	80 a0 60 00 	cmp  %g1, 0
    47d0:	32 bf ff fb 	bne,a   47bc <_vfprintf_internal+0x8c>
    47d4:	b2 06 60 01 	inc  %i1
    47d8:	80 a6 40 08 	cmp  %i1, %o0
    47dc:	02 80 00 0d 	be  4810 <_vfprintf_internal+0xe0>
    47e0:	ba 26 40 08 	sub  %i1, %o0, %i5
    47e4:	80 a7 60 00 	cmp  %i5, 0
    47e8:	04 80 00 06 	ble  4800 <_vfprintf_internal+0xd0>
    47ec:	82 10 20 00 	clr  %g1
    47f0:	92 10 00 1d 	mov  %i5, %o1
    47f4:	40 00 0b 78 	call  75d4 <__stdio_fwrite>
    47f8:	94 10 00 18 	mov  %i0, %o2
    47fc:	82 10 00 08 	mov  %o0, %g1
    4800:	80 a0 40 1d 	cmp  %g1, %i5
    4804:	32 80 01 66 	bne,a   4d9c <_vfprintf_internal+0x66c>
    4808:	b6 10 3f ff 	mov  -1, %i3
    480c:	b6 06 c0 01 	add  %i3, %g1, %i3
    4810:	c2 0e 40 00 	ldub  [ %i1 ], %g1
    4814:	80 a0 60 00 	cmp  %g1, 0
    4818:	22 80 01 62 	be,a   4da0 <_vfprintf_internal+0x670>
    481c:	b0 10 00 1b 	mov  %i3, %i0
    4820:	c2 0e 60 01 	ldub  [ %i1 + 1 ], %g1
    4824:	80 a0 60 25 	cmp  %g1, 0x25
    4828:	02 80 01 59 	be  4d8c <_vfprintf_internal+0x65c>
    482c:	90 06 60 01 	add  %i1, 1, %o0
    4830:	d0 27 bf 20 	st  %o0, [ %fp + -224 ]
    4834:	40 00 02 13 	call  5080 <_ppfs_parsespec>
    4838:	90 07 bf 20 	add  %fp, -224, %o0
    483c:	40 00 01 95 	call  4e90 <_ppfs_setargs>
    4840:	90 07 bf 20 	add  %fp, -224, %o0
    4844:	c2 0f bf 46 	ldub  [ %fp + -186 ], %g1
    4848:	c8 07 bf 38 	ld  [ %fp + -200 ], %g4
    484c:	86 00 7f ff 	add  %g1, -1, %g3
    4850:	80 a1 20 00 	cmp  %g4, 0
    4854:	04 80 00 06 	ble  486c <_vfprintf_internal+0x13c>
    4858:	84 07 bf 70 	add  %fp, -144, %g2
    485c:	84 00 60 04 	add  %g1, 4, %g2
    4860:	82 07 bf 20 	add  %fp, -224, %g1
    4864:	85 28 a0 04 	sll  %g2, 4, %g2
    4868:	84 00 40 02 	add  %g1, %g2, %g2
    486c:	10 80 00 06 	b  4884 <_vfprintf_internal+0x154>
    4870:	82 10 20 00 	clr  %g1
    4874:	82 00 60 01 	inc  %g1
    4878:	88 07 80 04 	add  %fp, %g4, %g4
    487c:	c4 21 3e 8c 	st  %g2, [ %g4 + -372 ]
    4880:	84 00 a0 10 	add  %g2, 0x10, %g2
    4884:	c8 07 bf 3c 	ld  [ %fp + -196 ], %g4
    4888:	80 a0 40 04 	cmp  %g1, %g4
    488c:	06 bf ff fa 	bl  4874 <_vfprintf_internal+0x144>
    4890:	89 28 60 02 	sll  %g1, 2, %g4
    4894:	c2 07 bf 40 	ld  [ %fp + -192 ], %g1
    4898:	80 a0 60 00 	cmp  %g1, 0
    489c:	12 80 00 0b 	bne  48c8 <_vfprintf_internal+0x198>
    48a0:	80 a0 60 07 	cmp  %g1, 7
    48a4:	c2 07 be 8c 	ld  [ %fp + -372 ], %g1
    48a8:	d2 07 bf 30 	ld  [ %fp + -208 ], %o1
    48ac:	d0 00 40 00 	ld  [ %g1 ], %o0
    48b0:	92 0a 6f 00 	and  %o1, 0xf00, %o1
    48b4:	95 3e e0 1f 	sra  %i3, 0x1f, %o2
    48b8:	40 00 0b fd 	call  78ac <_store_inttype>
    48bc:	96 10 00 1b 	mov  %i3, %o3
    48c0:	10 80 01 31 	b  4d84 <_vfprintf_internal+0x654>
    48c4:	f2 07 bf 20 	ld  [ %fp + -224 ], %i1
    48c8:	18 80 00 7d 	bgu  4abc <_vfprintf_internal+0x38c>
    48cc:	80 a0 60 0f 	cmp  %g1, 0xf
    48d0:	05 00 00 05 	sethi  %hi(0x1400), %g2
    48d4:	84 18 bf 74 	xor  %g2, -140, %g2
    48d8:	84 05 c0 02 	add  %l7, %g2, %g2
    48dc:	84 00 80 01 	add  %g2, %g1, %g2
    48e0:	f2 08 bf ff 	ldub  [ %g2 + -1 ], %i1
    48e4:	80 a6 60 0a 	cmp  %i1, 0xa
    48e8:	12 80 00 0b 	bne  4914 <_vfprintf_internal+0x1e4>
    48ec:	b8 10 20 57 	mov  0x57, %i4
    48f0:	c4 07 bf 30 	ld  [ %fp + -208 ], %g2
    48f4:	88 08 a0 20 	and  %g2, 0x20, %g4
    48f8:	80 a0 00 04 	cmp  %g0, %g4
    48fc:	b8 40 3f ff 	addx  %g0, -1, %i4
    4900:	80 88 a0 40 	btst  0x40, %g2
    4904:	b8 0f 20 2b 	and  %i4, 0x2b, %i4
    4908:	02 80 00 03 	be  4914 <_vfprintf_internal+0x1e4>
    490c:	b8 07 20 2c 	add  %i4, 0x2c, %i4
    4910:	b8 17 20 80 	or  %i4, 0x80, %i4
    4914:	80 a0 60 05 	cmp  %g1, 5
    4918:	38 80 00 0a 	bgu,a   4940 <_vfprintf_internal+0x210>
    491c:	b2 20 00 19 	neg  %i1
    4920:	80 a0 60 03 	cmp  %g1, 3
    4924:	02 80 00 06 	be  493c <_vfprintf_internal+0x20c>
    4928:	80 a0 60 01 	cmp  %g1, 1
    492c:	12 80 00 05 	bne  4940 <_vfprintf_internal+0x210>
    4930:	ba 10 20 06 	mov  6, %i5
    4934:	10 80 00 05 	b  4948 <_vfprintf_internal+0x218>
    4938:	c4 07 bf 24 	ld  [ %fp + -220 ], %g2
    493c:	b8 10 20 37 	mov  0x37, %i4
    4940:	ba 10 20 0b 	mov  0xb, %i5
    4944:	c4 07 bf 24 	ld  [ %fp + -220 ], %g2
    4948:	80 a0 a0 00 	cmp  %g2, 0
    494c:	16 80 00 03 	bge  4958 <_vfprintf_internal+0x228>
    4950:	a4 10 20 20 	mov  0x20, %l2
    4954:	e4 0f bf 37 	ldub  [ %fp + -201 ], %l2
    4958:	80 a0 60 01 	cmp  %g1, 1
    495c:	02 80 00 07 	be  4978 <_vfprintf_internal+0x248>
    4960:	90 10 24 00 	mov  0x400, %o0
    4964:	82 00 e0 0a 	add  %g3, 0xa, %g1
    4968:	83 28 60 02 	sll  %g1, 2, %g1
    496c:	82 07 80 01 	add  %fp, %g1, %g1
    4970:	d0 00 7f 20 	ld  [ %g1 + -224 ], %o0
    4974:	90 0a 2f 00 	and  %o0, 0xf00, %o0
    4978:	94 10 00 19 	mov  %i1, %o2
    497c:	40 00 0b aa 	call  7824 <_load_inttype>
    4980:	d2 07 be 8c 	ld  [ %fp + -372 ], %o1
    4984:	84 10 00 08 	mov  %o0, %g2
    4988:	86 10 00 09 	mov  %o1, %g3
    498c:	98 10 00 1c 	mov  %i4, %o4
    4990:	90 07 bf 1f 	add  %fp, -225, %o0
    4994:	92 10 00 02 	mov  %g2, %o1
    4998:	94 10 00 03 	mov  %g3, %o2
    499c:	40 00 0b d3 	call  78e8 <_uintmaxtostr>
    49a0:	96 10 00 19 	mov  %i1, %o3
    49a4:	c2 07 bf 40 	ld  [ %fp + -192 ], %g1
    49a8:	80 a0 60 05 	cmp  %g1, 5
    49ac:	08 80 00 13 	bleu  49f8 <_vfprintf_internal+0x2c8>
    49b0:	b8 10 00 08 	mov  %o0, %i4
    49b4:	c4 0a 00 00 	ldub  [ %o0 ], %g2
    49b8:	80 a0 a0 2d 	cmp  %g2, 0x2d
    49bc:	12 80 00 07 	bne  49d8 <_vfprintf_internal+0x2a8>
    49c0:	c4 07 bf 30 	ld  [ %fp + -208 ], %g2
    49c4:	84 10 a0 02 	or  %g2, 2, %g2
    49c8:	b8 02 20 01 	add  %o0, 1, %i4
    49cc:	c4 27 bf 30 	st  %g2, [ %fp + -208 ]
    49d0:	10 80 00 0a 	b  49f8 <_vfprintf_internal+0x2c8>
    49d4:	ba 10 20 02 	mov  2, %i5
    49d8:	80 88 a0 02 	btst  2, %g2
    49dc:	32 80 00 07 	bne,a   49f8 <_vfprintf_internal+0x2c8>
    49e0:	ba 10 20 00 	clr  %i5
    49e4:	80 88 a0 01 	btst  1, %g2
    49e8:	32 80 00 04 	bne,a   49f8 <_vfprintf_internal+0x2c8>
    49ec:	ba 10 20 04 	mov  4, %i5
    49f0:	10 80 00 03 	b  49fc <_vfprintf_internal+0x2cc>
    49f4:	b2 07 bf 1f 	add  %fp, -225, %i1
    49f8:	b2 07 bf 1f 	add  %fp, -225, %i1
    49fc:	e0 07 bf 24 	ld  [ %fp + -220 ], %l0
    4a00:	80 a4 20 00 	cmp  %l0, 0
    4a04:	16 80 00 03 	bge  4a10 <_vfprintf_internal+0x2e0>
    4a08:	b2 26 40 1c 	sub  %i1, %i4, %i1
    4a0c:	a0 10 20 01 	mov  1, %l0
    4a10:	c4 07 bf 30 	ld  [ %fp + -208 ], %g2
    4a14:	80 88 a0 10 	btst  0x10, %g2
    4a18:	22 80 00 13 	be,a   4a64 <_vfprintf_internal+0x334>
    4a1c:	c4 0f 00 00 	ldub  [ %i4 ], %g2
    4a20:	80 a0 60 02 	cmp  %g1, 2
    4a24:	28 80 00 0f 	bleu,a   4a60 <_vfprintf_internal+0x330>
    4a28:	ba 10 20 06 	mov  6, %i5
    4a2c:	80 a0 60 03 	cmp  %g1, 3
    4a30:	22 80 00 0c 	be,a   4a60 <_vfprintf_internal+0x330>
    4a34:	ba 10 20 09 	mov  9, %i5
    4a38:	80 a0 60 04 	cmp  %g1, 4
    4a3c:	12 80 00 09 	bne  4a60 <_vfprintf_internal+0x330>
    4a40:	80 a4 00 19 	cmp  %l0, %i1
    4a44:	18 80 00 08 	bgu  4a64 <_vfprintf_internal+0x334>
    4a48:	c4 0f 00 00 	ldub  [ %i4 ], %g2
    4a4c:	80 a0 a0 30 	cmp  %g2, 0x30
    4a50:	02 80 00 05 	be  4a64 <_vfprintf_internal+0x334>
    4a54:	a0 10 20 01 	mov  1, %l0
    4a58:	10 80 00 03 	b  4a64 <_vfprintf_internal+0x334>
    4a5c:	a0 06 60 01 	add  %i1, 1, %l0
    4a60:	c4 0f 00 00 	ldub  [ %i4 ], %g2
    4a64:	80 a0 a0 30 	cmp  %g2, 0x30
    4a68:	12 80 00 11 	bne  4aac <_vfprintf_internal+0x37c>
    4a6c:	80 a4 00 19 	cmp  %l0, %i1
    4a70:	80 a7 60 05 	cmp  %i5, 5
    4a74:	34 80 00 02 	bg,a   4a7c <_vfprintf_internal+0x34c>
    4a78:	ba 10 20 0b 	mov  0xb, %i5
    4a7c:	80 a0 60 01 	cmp  %g1, 1
    4a80:	02 80 00 06 	be  4a98 <_vfprintf_internal+0x368>
    4a84:	80 a4 20 00 	cmp  %l0, 0
    4a88:	22 80 00 78 	be,a   4c68 <_vfprintf_internal+0x538>
    4a8c:	b2 10 20 00 	clr  %i1
    4a90:	10 80 00 07 	b  4aac <_vfprintf_internal+0x37c>
    4a94:	80 a4 00 19 	cmp  %l0, %i1
    4a98:	39 00 00 00 	sethi  %hi(0), %i4
    4a9c:	b2 10 20 05 	mov  5, %i1
    4aa0:	b8 1f 3f 54 	xor  %i4, -172, %i4
    4aa4:	10 80 00 71 	b  4c68 <_vfprintf_internal+0x538>
    4aa8:	b8 05 c0 1c 	add  %l7, %i4, %i4
    4aac:	28 80 00 79 	bleu,a   4c90 <_vfprintf_internal+0x560>
    4ab0:	a0 10 20 00 	clr  %l0
    4ab4:	10 80 00 77 	b  4c90 <_vfprintf_internal+0x560>
    4ab8:	a0 24 00 19 	sub  %l0, %i1, %l0
    4abc:	18 80 00 1c 	bgu  4b2c <_vfprintf_internal+0x3fc>
    4ac0:	80 a0 60 11 	cmp  %g1, 0x11
    4ac4:	c2 07 bf 30 	ld  [ %fp + -208 ], %g1
    4ac8:	80 88 68 00 	btst  0x800, %g1
    4acc:	02 80 00 05 	be  4ae0 <_vfprintf_internal+0x3b0>
    4ad0:	c2 07 be 8c 	ld  [ %fp + -372 ], %g1
    4ad4:	e0 18 40 00 	ldd  [ %g1 ], %l0
    4ad8:	10 80 00 0a 	b  4b00 <_vfprintf_internal+0x3d0>
    4adc:	e4 18 60 08 	ldd  [ %g1 + 8 ], %l2
    4ae0:	d0 18 40 00 	ldd  [ %g1 ], %o0
    4ae4:	82 07 be 78 	add  %fp, -392, %g1
    4ae8:	c2 23 a0 40 	st  %g1, [ %sp + 0x40 ]
    4aec:	40 00 09 d9 	call  7250 <_Q_dtoq>
    4af0:	01 00 00 00 	nop 
    4af4:	00 00 00 10 	unimp  0x10
    4af8:	e0 1f be 78 	ldd  [ %fp + -392 ], %l0
    4afc:	e4 1f be 80 	ldd  [ %fp + -384 ], %l2
    4b00:	e0 3f be 78 	std  %l0, [ %fp + -392 ]
    4b04:	e4 3f be 80 	std  %l2, [ %fp + -384 ]
    4b08:	90 10 00 18 	mov  %i0, %o0
    4b0c:	92 07 be 78 	add  %fp, -392, %o1
    4b10:	94 07 bf 24 	add  %fp, -220, %o2
    4b14:	17 00 00 47 	sethi  %hi(0x11c00), %o3
    4b18:	96 1a fd 98 	xor  %o3, -616, %o3
    4b1c:	40 00 0b bd 	call  7a10 <_fpmaxtostr>
    4b20:	96 05 c0 0b 	add  %l7, %o3, %o3
    4b24:	10 80 00 48 	b  4c44 <_vfprintf_internal+0x514>
    4b28:	80 a2 20 00 	cmp  %o0, 0
    4b2c:	08 80 00 9a 	bleu  4d94 <_vfprintf_internal+0x664>
    4b30:	80 a0 60 13 	cmp  %g1, 0x13
    4b34:	18 80 00 2a 	bgu  4bdc <_vfprintf_internal+0x4ac>
    4b38:	80 a0 60 14 	cmp  %g1, 0x14
    4b3c:	80 a0 60 13 	cmp  %g1, 0x13
    4b40:	12 80 00 1e 	bne  4bb8 <_vfprintf_internal+0x488>
    4b44:	c2 07 be 8c 	ld  [ %fp + -372 ], %g1
    4b48:	f8 00 40 00 	ld  [ %g1 ], %i4
    4b4c:	80 a7 20 00 	cmp  %i4, 0
    4b50:	02 80 00 0d 	be  4b84 <_vfprintf_internal+0x454>
    4b54:	c2 07 bf 24 	ld  [ %fp + -220 ], %g1
    4b58:	c2 07 bf 24 	ld  [ %fp + -220 ], %g1
    4b5c:	80 a0 60 00 	cmp  %g1, 0
    4b60:	06 80 00 03 	bl  4b6c <_vfprintf_internal+0x43c>
    4b64:	92 10 3f ff 	mov  -1, %o1
    4b68:	92 10 00 01 	mov  %g1, %o1
    4b6c:	90 10 00 1c 	mov  %i4, %o0
    4b70:	40 00 09 ac 	call  7220 <__GI_strnlen>
    4b74:	a4 10 20 20 	mov  0x20, %l2
    4b78:	ba 10 20 0b 	mov  0xb, %i5
    4b7c:	10 80 00 3b 	b  4c68 <_vfprintf_internal+0x538>
    4b80:	b2 10 00 08 	mov  %o0, %i1
    4b84:	80 a0 60 00 	cmp  %g1, 0
    4b88:	06 80 00 3a 	bl  4c70 <_vfprintf_internal+0x540>
    4b8c:	80 a0 60 05 	cmp  %g1, 5
    4b90:	39 00 00 00 	sethi  %hi(0), %i4
    4b94:	a4 10 20 20 	mov  0x20, %l2
    4b98:	b8 1f 3f 5c 	xor  %i4, -164, %i4
    4b9c:	ba 10 20 0b 	mov  0xb, %i5
    4ba0:	a0 10 20 00 	clr  %l0
    4ba4:	b2 10 20 00 	clr  %i1
    4ba8:	08 80 00 3a 	bleu  4c90 <_vfprintf_internal+0x560>
    4bac:	b8 05 c0 1c 	add  %l7, %i4, %i4
    4bb0:	10 80 00 38 	b  4c90 <_vfprintf_internal+0x560>
    4bb4:	b2 10 20 06 	mov  6, %i1
    4bb8:	c2 00 40 00 	ld  [ %g1 ], %g1
    4bbc:	b8 07 be a0 	add  %fp, -352, %i4
    4bc0:	c2 2f be a0 	stb  %g1, [ %fp + -352 ]
    4bc4:	c0 2f be a1 	clrb  [ %fp + -351 ]
    4bc8:	a4 10 20 20 	mov  0x20, %l2
    4bcc:	ba 10 20 0b 	mov  0xb, %i5
    4bd0:	a0 10 20 00 	clr  %l0
    4bd4:	10 80 00 2f 	b  4c90 <_vfprintf_internal+0x560>
    4bd8:	b2 10 20 01 	mov  1, %i1
    4bdc:	32 80 00 0b 	bne,a   4c08 <_vfprintf_internal+0x4d8>
    4be0:	c4 05 00 00 	ld  [ %l4 ], %g2
    4be4:	03 00 00 00 	sethi  %hi(0), %g1
    4be8:	82 18 7f fc 	xor  %g1, -4, %g1
    4bec:	01 00 00 00 	nop 
    4bf0:	92 07 be a0 	add  %fp, -352, %o1
    4bf4:	d0 01 c0 01 	ld  [ %g7 + %g1 ], %o0
    4bf8:	40 00 09 36 	call  70d0 <__GI___glibc_strerror_r>
    4bfc:	94 10 20 80 	mov  0x80, %o2
    4c00:	10 bf ff d6 	b  4b58 <_vfprintf_internal+0x428>
    4c04:	b8 10 00 08 	mov  %o0, %i4
    4c08:	82 10 00 02 	mov  %g2, %g1
    4c0c:	86 00 a0 0a 	add  %g2, 0xa, %g3
    4c10:	fa 08 40 00 	ldub  [ %g1 ], %i5
    4c14:	c8 07 bf 2c 	ld  [ %fp + -212 ], %g4
    4c18:	80 a7 40 04 	cmp  %i5, %g4
    4c1c:	32 80 00 0e 	bne,a   4c54 <_vfprintf_internal+0x524>
    4c20:	82 00 60 01 	inc  %g1
    4c24:	82 20 40 02 	sub  %g1, %g2, %g1
    4c28:	90 10 00 18 	mov  %i0, %o0
    4c2c:	83 28 60 02 	sll  %g1, 2, %g1
    4c30:	92 07 bf 24 	add  %fp, -220, %o1
    4c34:	c2 05 40 01 	ld  [ %l5 + %g1 ], %g1
    4c38:	9f c0 40 00 	call  %g1
    4c3c:	94 07 be 8c 	add  %fp, -372, %o2
    4c40:	80 a2 20 00 	cmp  %o0, 0
    4c44:	26 80 00 56 	bl,a   4d9c <_vfprintf_internal+0x66c>
    4c48:	b6 10 3f ff 	mov  -1, %i3
    4c4c:	10 80 00 4d 	b  4d80 <_vfprintf_internal+0x650>
    4c50:	b6 06 c0 08 	add  %i3, %o0, %i3
    4c54:	80 a0 40 03 	cmp  %g1, %g3
    4c58:	2a bf ff ef 	bcs,a   4c14 <_vfprintf_internal+0x4e4>
    4c5c:	fa 08 40 00 	ldub  [ %g1 ], %i5
    4c60:	10 80 00 4f 	b  4d9c <_vfprintf_internal+0x66c>
    4c64:	b6 10 3f ff 	mov  -1, %i3
    4c68:	10 80 00 0a 	b  4c90 <_vfprintf_internal+0x560>
    4c6c:	a0 10 20 00 	clr  %l0
    4c70:	39 00 00 00 	sethi  %hi(0), %i4
    4c74:	a4 10 20 20 	mov  0x20, %l2
    4c78:	b8 1f 3f 5c 	xor  %i4, -164, %i4
    4c7c:	ba 10 20 0b 	mov  0xb, %i5
    4c80:	b8 05 c0 1c 	add  %l7, %i4, %i4
    4c84:	a0 10 20 00 	clr  %l0
    4c88:	10 80 00 02 	b  4c90 <_vfprintf_internal+0x560>
    4c8c:	b2 10 20 06 	mov  6, %i1
    4c90:	80 a7 60 0b 	cmp  %i5, 0xb
    4c94:	02 80 00 07 	be  4cb0 <_vfprintf_internal+0x580>
    4c98:	82 04 00 19 	add  %l0, %i1, %g1
    4c9c:	80 a7 60 05 	cmp  %i5, 5
    4ca0:	14 80 00 03 	bg  4cac <_vfprintf_internal+0x57c>
    4ca4:	84 10 20 02 	mov  2, %g2
    4ca8:	84 10 20 01 	mov  1, %g2
    4cac:	82 00 40 02 	add  %g1, %g2, %g1
    4cb0:	c4 07 bf 28 	ld  [ %fp + -216 ], %g2
    4cb4:	80 a0 80 01 	cmp  %g2, %g1
    4cb8:	08 80 00 03 	bleu  4cc4 <_vfprintf_internal+0x594>
    4cbc:	a2 10 20 00 	clr  %l1
    4cc0:	a2 20 80 01 	sub  %g2, %g1, %l1
    4cc4:	b6 00 40 1b 	add  %g1, %i3, %i3
    4cc8:	a4 0c a0 ff 	and  %l2, 0xff, %l2
    4ccc:	80 a4 a0 30 	cmp  %l2, 0x30
    4cd0:	12 80 00 04 	bne  4ce0 <_vfprintf_internal+0x5b0>
    4cd4:	b6 06 c0 11 	add  %i3, %l1, %i3
    4cd8:	a0 04 00 11 	add  %l0, %l1, %l0
    4cdc:	a2 10 20 00 	clr  %l1
    4ce0:	c2 07 bf 30 	ld  [ %fp + -208 ], %g1
    4ce4:	80 88 60 08 	btst  8, %g1
    4ce8:	12 80 00 0a 	bne  4d10 <_vfprintf_internal+0x5e0>
    4cec:	92 10 00 18 	mov  %i0, %o1
    4cf0:	90 10 00 18 	mov  %i0, %o0
    4cf4:	92 10 20 20 	mov  0x20, %o1
    4cf8:	7f ff fe 60 	call  4678 <__GI_vsnprintf+0xb0>
    4cfc:	94 10 00 11 	mov  %l1, %o2
    4d00:	80 a2 00 11 	cmp  %o0, %l1
    4d04:	12 80 00 24 	bne  4d94 <_vfprintf_internal+0x664>
    4d08:	a2 10 20 00 	clr  %l1
    4d0c:	92 10 00 18 	mov  %i0, %o1
    4d10:	40 00 02 59 	call  5674 <__GI_fputs_unlocked>
    4d14:	90 06 80 1d 	add  %i2, %i5, %o0
    4d18:	90 10 00 18 	mov  %i0, %o0
    4d1c:	92 10 20 30 	mov  0x30, %o1
    4d20:	7f ff fe 56 	call  4678 <__GI_vsnprintf+0xb0>
    4d24:	94 10 00 10 	mov  %l0, %o2
    4d28:	80 a2 00 10 	cmp  %o0, %l0
    4d2c:	12 80 00 1a 	bne  4d94 <_vfprintf_internal+0x664>
    4d30:	80 a6 60 00 	cmp  %i1, 0
    4d34:	12 80 00 0a 	bne  4d5c <_vfprintf_internal+0x62c>
    4d38:	90 10 00 18 	mov  %i0, %o0
    4d3c:	92 10 20 20 	mov  0x20, %o1
    4d40:	7f ff fe 4e 	call  4678 <__GI_vsnprintf+0xb0>
    4d44:	94 10 00 11 	mov  %l1, %o2
    4d48:	80 a2 00 11 	cmp  %o0, %l1
    4d4c:	22 80 00 0e 	be,a   4d84 <_vfprintf_internal+0x654>
    4d50:	f2 07 bf 20 	ld  [ %fp + -224 ], %i1
    4d54:	10 80 00 12 	b  4d9c <_vfprintf_internal+0x66c>
    4d58:	b6 10 3f ff 	mov  -1, %i3
    4d5c:	90 10 00 1c 	mov  %i4, %o0
    4d60:	92 10 00 19 	mov  %i1, %o1
    4d64:	40 00 0a 1c 	call  75d4 <__stdio_fwrite>
    4d68:	94 10 00 18 	mov  %i0, %o2
    4d6c:	80 a2 00 19 	cmp  %o0, %i1
    4d70:	32 80 00 0b 	bne,a   4d9c <_vfprintf_internal+0x66c>
    4d74:	b6 10 3f ff 	mov  -1, %i3
    4d78:	10 bf ff f1 	b  4d3c <_vfprintf_internal+0x60c>
    4d7c:	90 10 00 18 	mov  %i0, %o0
    4d80:	f2 07 bf 20 	ld  [ %fp + -224 ], %i1
    4d84:	10 bf fe 8e 	b  47bc <_vfprintf_internal+0x8c>
    4d88:	90 10 00 19 	mov  %i1, %o0
    4d8c:	10 bf fe 8c 	b  47bc <_vfprintf_internal+0x8c>
    4d90:	b2 06 60 02 	add  %i1, 2, %i1
    4d94:	10 80 00 02 	b  4d9c <_vfprintf_internal+0x66c>
    4d98:	b6 10 3f ff 	mov  -1, %i3
    4d9c:	b0 10 00 1b 	mov  %i3, %i0
    4da0:	81 c7 e0 08 	ret 
    4da4:	81 e8 00 00 	restore 

00004da8 <_ppfs_init>:
    4da8:	9d e3 bf a0 	save  %sp, -96, %sp
    4dac:	92 10 20 00 	clr  %o1
    4db0:	90 10 00 18 	mov  %i0, %o0
    4db4:	40 00 02 7f 	call  57b0 <__GI_memset>
    4db8:	94 10 20 e0 	mov  0xe0, %o2
    4dbc:	c2 06 20 18 	ld  [ %i0 + 0x18 ], %g1
    4dc0:	82 00 7f ff 	add  %g1, -1, %g1
    4dc4:	f2 26 00 00 	st  %i1, [ %i0 ]
    4dc8:	c2 26 20 18 	st  %g1, [ %i0 + 0x18 ]
    4dcc:	84 06 20 28 	add  %i0, 0x28, %g2
    4dd0:	82 10 20 09 	mov  9, %g1
    4dd4:	86 10 20 08 	mov  8, %g3
    4dd8:	c6 20 80 00 	st  %g3, [ %g2 ]
    4ddc:	82 80 7f ff 	addcc  %g1, -1, %g1
    4de0:	12 bf ff fe 	bne  4dd8 <_ppfs_init+0x30>
    4de4:	84 00 a0 04 	add  %g2, 4, %g2
    4de8:	10 80 00 12 	b  4e30 <_ppfs_init+0x88>
    4dec:	82 10 00 19 	mov  %i1, %g1
    4df0:	32 80 00 10 	bne,a   4e30 <_ppfs_init+0x88>
    4df4:	82 00 60 01 	inc  %g1
    4df8:	84 00 60 01 	add  %g1, 1, %g2
    4dfc:	c2 08 60 01 	ldub  [ %g1 + 1 ], %g1
    4e00:	80 a0 60 25 	cmp  %g1, 0x25
    4e04:	02 80 00 0a 	be  4e2c <_ppfs_init+0x84>
    4e08:	82 10 00 02 	mov  %g2, %g1
    4e0c:	c4 26 00 00 	st  %g2, [ %i0 ]
    4e10:	40 00 00 9c 	call  5080 <_ppfs_parsespec>
    4e14:	90 10 00 18 	mov  %i0, %o0
    4e18:	80 a2 20 00 	cmp  %o0, 0
    4e1c:	06 80 00 0c 	bl  4e4c <_ppfs_init+0xa4>
    4e20:	01 00 00 00 	nop 
    4e24:	10 80 00 03 	b  4e30 <_ppfs_init+0x88>
    4e28:	c2 06 00 00 	ld  [ %i0 ], %g1
    4e2c:	82 00 60 01 	inc  %g1
    4e30:	c4 08 40 00 	ldub  [ %g1 ], %g2
    4e34:	80 a0 a0 00 	cmp  %g2, 0
    4e38:	32 bf ff ee 	bne,a   4df0 <_ppfs_init+0x48>
    4e3c:	80 a0 a0 25 	cmp  %g2, 0x25
    4e40:	f2 26 00 00 	st  %i1, [ %i0 ]
    4e44:	81 c7 e0 08 	ret 
    4e48:	91 e8 20 00 	restore  %g0, 0, %o0
    4e4c:	81 c7 e0 08 	ret 
    4e50:	91 e8 3f ff 	restore  %g0, -1, %o0

00004e54 <_ppfs_prepargs>:
    4e54:	9d e3 bf a0 	save  %sp, -96, %sp
    4e58:	f2 26 20 4c 	st  %i1, [ %i0 + 0x4c ]
    4e5c:	fa 06 20 18 	ld  [ %i0 + 0x18 ], %i5
    4e60:	80 a7 60 00 	cmp  %i5, 0
    4e64:	04 80 00 09 	ble  4e88 <_ppfs_prepargs+0x34>
    4e68:	01 00 00 00 	nop 
    4e6c:	fa 26 20 1c 	st  %i5, [ %i0 + 0x1c ]
    4e70:	c0 26 20 18 	clr  [ %i0 + 0x18 ]
    4e74:	c0 26 20 04 	clr  [ %i0 + 4 ]
    4e78:	c0 26 20 08 	clr  [ %i0 + 8 ]
    4e7c:	40 00 00 05 	call  4e90 <_ppfs_setargs>
    4e80:	90 10 00 18 	mov  %i0, %o0
    4e84:	fa 26 20 18 	st  %i5, [ %i0 + 0x18 ]
    4e88:	81 c7 e0 08 	ret 
    4e8c:	81 e8 00 00 	restore 

00004e90 <_ppfs_setargs>:
    4e90:	9d e3 bf 90 	save  %sp, -112, %sp
    4e94:	c2 06 20 18 	ld  [ %i0 + 0x18 ], %g1
    4e98:	c4 06 20 08 	ld  [ %i0 + 8 ], %g2
    4e9c:	80 a0 60 00 	cmp  %g1, 0
    4ea0:	12 80 00 59 	bne  5004 <_ppfs_setargs+0x174>
    4ea4:	03 20 00 00 	sethi  %hi(0x80000000), %g1
    4ea8:	80 a0 80 01 	cmp  %g2, %g1
    4eac:	32 80 00 0a 	bne,a   4ed4 <_ppfs_setargs+0x44>
    4eb0:	c4 06 20 04 	ld  [ %i0 + 4 ], %g2
    4eb4:	c2 06 20 4c 	ld  [ %i0 + 0x4c ], %g1
    4eb8:	c4 00 40 00 	ld  [ %g1 ], %g2
    4ebc:	82 00 60 04 	add  %g1, 4, %g1
    4ec0:	c4 26 20 50 	st  %g2, [ %i0 + 0x50 ]
    4ec4:	c4 26 20 08 	st  %g2, [ %i0 + 8 ]
    4ec8:	c2 26 20 4c 	st  %g1, [ %i0 + 0x4c ]
    4ecc:	c4 06 20 04 	ld  [ %i0 + 4 ], %g2
    4ed0:	03 20 00 00 	sethi  %hi(0x80000000), %g1
    4ed4:	80 a0 80 01 	cmp  %g2, %g1
    4ed8:	12 80 00 08 	bne  4ef8 <_ppfs_setargs+0x68>
    4edc:	ba 06 20 50 	add  %i0, 0x50, %i5
    4ee0:	c2 06 20 4c 	ld  [ %i0 + 0x4c ], %g1
    4ee4:	c4 00 40 00 	ld  [ %g1 ], %g2
    4ee8:	82 00 60 04 	add  %g1, 4, %g1
    4eec:	c4 26 20 50 	st  %g2, [ %i0 + 0x50 ]
    4ef0:	c4 26 20 04 	st  %g2, [ %i0 + 4 ]
    4ef4:	c2 26 20 4c 	st  %g1, [ %i0 + 0x4c ]
    4ef8:	10 80 00 3d 	b  4fec <_ppfs_setargs+0x15c>
    4efc:	b8 10 20 00 	clr  %i4
    4f00:	83 28 60 02 	sll  %g1, 2, %g1
    4f04:	c2 06 00 01 	ld  [ %i0 + %g1 ], %g1
    4f08:	80 a0 60 08 	cmp  %g1, 8
    4f0c:	02 80 00 38 	be  4fec <_ppfs_setargs+0x15c>
    4f10:	b8 07 20 01 	inc  %i4
    4f14:	80 a0 60 08 	cmp  %g1, 8
    4f18:	14 80 00 0d 	bg  4f4c <_ppfs_setargs+0xbc>
    4f1c:	80 a0 64 00 	cmp  %g1, 0x400
    4f20:	80 a0 60 02 	cmp  %g1, 2
    4f24:	22 80 00 2d 	be,a   4fd8 <_ppfs_setargs+0x148>
    4f28:	c2 06 20 4c 	ld  [ %i0 + 0x4c ], %g1
    4f2c:	14 80 00 04 	bg  4f3c <_ppfs_setargs+0xac>
    4f30:	80 a0 60 07 	cmp  %g1, 7
    4f34:	10 80 00 29 	b  4fd8 <_ppfs_setargs+0x148>
    4f38:	c2 06 20 4c 	ld  [ %i0 + 0x4c ], %g1
    4f3c:	32 80 00 27 	bne,a   4fd8 <_ppfs_setargs+0x148>
    4f40:	c2 06 20 4c 	ld  [ %i0 + 0x4c ], %g1
    4f44:	10 80 00 15 	b  4f98 <_ppfs_setargs+0x108>
    4f48:	f6 06 20 4c 	ld  [ %i0 + 0x4c ], %i3
    4f4c:	02 80 00 22 	be  4fd4 <_ppfs_setargs+0x144>
    4f50:	80 a0 64 00 	cmp  %g1, 0x400
    4f54:	24 80 00 21 	ble,a   4fd8 <_ppfs_setargs+0x148>
    4f58:	c2 06 20 4c 	ld  [ %i0 + 0x4c ], %g1
    4f5c:	80 a0 68 00 	cmp  %g1, 0x800
    4f60:	02 80 00 07 	be  4f7c <_ppfs_setargs+0xec>
    4f64:	f6 06 20 4c 	ld  [ %i0 + 0x4c ], %i3
    4f68:	80 a0 68 07 	cmp  %g1, 0x807
    4f6c:	32 80 00 1b 	bne,a   4fd8 <_ppfs_setargs+0x148>
    4f70:	c2 06 20 4c 	ld  [ %i0 + 0x4c ], %g1
    4f74:	10 80 00 12 	b  4fbc <_ppfs_setargs+0x12c>
    4f78:	c2 06 c0 00 	ld  [ %i3 ], %g1
    4f7c:	90 07 bf f0 	add  %fp, -16, %o0
    4f80:	92 10 00 1b 	mov  %i3, %o1
    4f84:	40 00 04 36 	call  605c <__GI_memcpy>
    4f88:	94 10 20 08 	mov  8, %o2
    4f8c:	c4 1f bf f0 	ldd  [ %fp + -16 ], %g2
    4f90:	10 80 00 08 	b  4fb0 <_ppfs_setargs+0x120>
    4f94:	c4 3f 40 00 	std  %g2, [ %i5 ]
    4f98:	90 07 bf f8 	add  %fp, -8, %o0
    4f9c:	92 10 00 1b 	mov  %i3, %o1
    4fa0:	40 00 04 2f 	call  605c <__GI_memcpy>
    4fa4:	94 10 20 08 	mov  8, %o2
    4fa8:	d1 1f bf f8 	ldd  [ %fp + -8 ], %f8
    4fac:	d1 3f 40 00 	std  %f8, [ %i5 ]
    4fb0:	b6 06 e0 08 	add  %i3, 8, %i3
    4fb4:	10 80 00 0d 	b  4fe8 <_ppfs_setargs+0x158>
    4fb8:	f6 26 20 4c 	st  %i3, [ %i0 + 0x4c ]
    4fbc:	b6 06 e0 04 	add  %i3, 4, %i3
    4fc0:	d0 18 40 00 	ldd  [ %g1 ], %o0
    4fc4:	d4 18 60 08 	ldd  [ %g1 + 8 ], %o2
    4fc8:	d0 3f 40 00 	std  %o0, [ %i5 ]
    4fcc:	10 bf ff fa 	b  4fb4 <_ppfs_setargs+0x124>
    4fd0:	d4 3f 60 08 	std  %o2, [ %i5 + 8 ]
    4fd4:	c2 06 20 4c 	ld  [ %i0 + 0x4c ], %g1
    4fd8:	c4 00 40 00 	ld  [ %g1 ], %g2
    4fdc:	c4 27 40 00 	st  %g2, [ %i5 ]
    4fe0:	82 00 60 04 	add  %g1, 4, %g1
    4fe4:	c2 26 20 4c 	st  %g1, [ %i0 + 0x4c ]
    4fe8:	ba 07 60 10 	add  %i5, 0x10, %i5
    4fec:	c2 06 20 1c 	ld  [ %i0 + 0x1c ], %g1
    4ff0:	80 a7 00 01 	cmp  %i4, %g1
    4ff4:	26 bf ff c3 	bl,a   4f00 <_ppfs_setargs+0x70>
    4ff8:	82 07 20 0a 	add  %i4, 0xa, %g1
    4ffc:	10 80 00 15 	b  5050 <_ppfs_setargs+0x1c0>
    5000:	c2 06 20 08 	ld  [ %i0 + 8 ], %g1
    5004:	80 a0 80 01 	cmp  %g2, %g1
    5008:	32 80 00 08 	bne,a   5028 <_ppfs_setargs+0x198>
    500c:	c4 06 20 04 	ld  [ %i0 + 4 ], %g2
    5010:	c2 0e 20 24 	ldub  [ %i0 + 0x24 ], %g1
    5014:	82 00 60 04 	add  %g1, 4, %g1
    5018:	83 28 60 04 	sll  %g1, 4, %g1
    501c:	c2 06 00 01 	ld  [ %i0 + %g1 ], %g1
    5020:	c2 26 20 08 	st  %g1, [ %i0 + 8 ]
    5024:	c4 06 20 04 	ld  [ %i0 + 4 ], %g2
    5028:	03 20 00 00 	sethi  %hi(0x80000000), %g1
    502c:	80 a0 80 01 	cmp  %g2, %g1
    5030:	32 80 00 08 	bne,a   5050 <_ppfs_setargs+0x1c0>
    5034:	c2 06 20 08 	ld  [ %i0 + 8 ], %g1
    5038:	c2 0e 20 25 	ldub  [ %i0 + 0x25 ], %g1
    503c:	82 00 60 04 	add  %g1, 4, %g1
    5040:	83 28 60 04 	sll  %g1, 4, %g1
    5044:	c2 06 00 01 	ld  [ %i0 + %g1 ], %g1
    5048:	c2 26 20 04 	st  %g1, [ %i0 + 4 ]
    504c:	c2 06 20 08 	ld  [ %i0 + 8 ], %g1
    5050:	80 a0 60 00 	cmp  %g1, 0
    5054:	16 80 00 09 	bge  5078 <_ppfs_setargs+0x1e8>
    5058:	82 20 00 01 	neg  %g1
    505c:	c2 26 20 08 	st  %g1, [ %i0 + 8 ]
    5060:	c2 06 20 10 	ld  [ %i0 + 0x10 ], %g1
    5064:	82 08 7f fe 	and  %g1, -2, %g1
    5068:	82 10 60 08 	or  %g1, 8, %g1
    506c:	c2 26 20 10 	st  %g1, [ %i0 + 0x10 ]
    5070:	82 10 20 20 	mov  0x20, %g1
    5074:	c2 26 20 14 	st  %g1, [ %i0 + 0x14 ]
    5078:	81 c7 e0 08 	ret 
    507c:	81 e8 00 00 	restore 

00005080 <_ppfs_parsespec>:
    5080:	9d e3 bf 78 	save  %sp, -136, %sp
    5084:	82 10 20 08 	mov  8, %g1
    5088:	2f 00 00 45 	sethi  %hi(0x11400), %l7
    508c:	40 00 2b dd 	call  10000 <__sparc_get_pc_thunk.l7>
    5090:	ae 05 e0 90 	add  %l7, 0x90, %l7	! 11490 <__sparc_get_pc_thunk.l7+0x1490>
    5094:	c2 27 bf e4 	st  %g1, [ %fp + -28 ]
    5098:	c2 27 bf e8 	st  %g1, [ %fp + -24 ]
    509c:	19 00 00 00 	sethi  %hi(0), %o4
    50a0:	03 03 33 33 	sethi  %hi(0xccccc00), %g1
    50a4:	98 1b 3f f8 	xor  %o4, -8, %o4
    50a8:	1b 1f ff ff 	sethi  %hi(0x7ffffc00), %o5
    50ac:	13 00 00 00 	sethi  %hi(0), %o1
    50b0:	92 1a 7f 64 	xor  %o1, -156, %o1
    50b4:	c0 27 bf d8 	clr  [ %fp + -40 ]
    50b8:	c0 27 bf dc 	clr  [ %fp + -36 ]
    50bc:	f8 06 20 18 	ld  [ %i0 + 0x18 ], %i4
    50c0:	c4 06 00 00 	ld  [ %i0 ], %g2
    50c4:	b6 10 20 00 	clr  %i3
    50c8:	88 10 20 00 	clr  %g4
    50cc:	b2 10 20 00 	clr  %i1
    50d0:	98 05 c0 0c 	add  %l7, %o4, %o4
    50d4:	96 10 60 cb 	or  %g1, 0xcb, %o3
    50d8:	94 10 60 cc 	or  %g1, 0xcc, %o2
    50dc:	9a 13 63 ff 	or  %o5, 0x3ff, %o5
    50e0:	10 80 00 03 	b  50ec <_ppfs_parsespec+0x6c>
    50e4:	92 05 c0 09 	add  %l7, %o1, %o1
    50e8:	84 10 00 1d 	mov  %i5, %g2
    50ec:	c2 08 80 00 	ldub  [ %g2 ], %g1
    50f0:	80 a0 60 2a 	cmp  %g1, 0x2a
    50f4:	12 80 00 06 	bne  510c <_ppfs_parsespec+0x8c>
    50f8:	ba 10 00 02 	mov  %g2, %i5
    50fc:	82 0e e0 04 	and  %i3, 4, %g1
    5100:	ba 00 a0 01 	add  %g2, 1, %i5
    5104:	82 07 80 01 	add  %fp, %g1, %g1
    5108:	c0 20 7f e4 	clr  [ %g1 + -28 ]
    510c:	10 80 00 11 	b  5150 <_ppfs_parsespec+0xd0>
    5110:	82 10 20 00 	clr  %g1
    5114:	04 80 00 09 	ble  5138 <_ppfs_parsespec+0xb8>
    5118:	86 00 40 01 	add  %g1, %g1, %g3
    511c:	80 a0 40 0a 	cmp  %g1, %o2
    5120:	32 80 00 0b 	bne,a   514c <_ppfs_parsespec+0xcc>
    5124:	82 10 00 0d 	mov  %o5, %g1
    5128:	80 a6 a0 37 	cmp  %i2, 0x37
    512c:	34 80 00 08 	bg,a   514c <_ppfs_parsespec+0xcc>
    5130:	82 10 00 0d 	mov  %o5, %g1
    5134:	86 00 40 01 	add  %g1, %g1, %g3
    5138:	9e 0b e0 ff 	and  %o7, 0xff, %o7
    513c:	83 28 60 03 	sll  %g1, 3, %g1
    5140:	9e 03 ff d0 	add  %o7, -48, %o7
    5144:	82 00 c0 01 	add  %g3, %g1, %g1
    5148:	82 00 40 0f 	add  %g1, %o7, %g1
    514c:	ba 07 60 01 	inc  %i5
    5150:	de 0f 40 00 	ldub  [ %i5 ], %o7
    5154:	d0 03 00 00 	ld  [ %o4 ], %o0
    5158:	b4 0b e0 ff 	and  %o7, 0xff, %i2
    515c:	86 06 80 1a 	add  %i2, %i2, %g3
    5160:	c6 12 00 03 	lduh  [ %o0 + %g3 ], %g3
    5164:	80 88 e0 08 	btst  8, %g3
    5168:	12 bf ff eb 	bne  5114 <_ppfs_parsespec+0x94>
    516c:	80 a0 40 0b 	cmp  %g1, %o3
    5170:	d0 08 bf ff 	ldub  [ %g2 + -1 ], %o0
    5174:	80 a2 20 25 	cmp  %o0, 0x25
    5178:	12 80 00 38 	bne  5258 <_ppfs_parsespec+0x1d8>
    517c:	86 10 00 02 	mov  %g2, %g3
    5180:	80 a6 a0 24 	cmp  %i2, 0x24
    5184:	12 80 00 0e 	bne  51bc <_ppfs_parsespec+0x13c>
    5188:	80 a7 20 00 	cmp  %i4, 0
    518c:	80 a0 60 00 	cmp  %g1, 0
    5190:	04 80 00 0b 	ble  51bc <_ppfs_parsespec+0x13c>
    5194:	80 a7 20 00 	cmp  %i4, 0
    5198:	12 80 00 04 	bne  51a8 <_ppfs_parsespec+0x128>
    519c:	84 07 60 01 	add  %i5, 1, %g2
    51a0:	81 c7 e0 08 	ret 
    51a4:	91 e8 3f ff 	restore  %g0, -1, %o0
    51a8:	80 a0 40 1c 	cmp  %g1, %i4
    51ac:	14 80 00 13 	bg  51f8 <_ppfs_parsespec+0x178>
    51b0:	c2 27 bf e0 	st  %g1, [ %fp + -32 ]
    51b4:	10 80 00 13 	b  5200 <_ppfs_parsespec+0x180>
    51b8:	ba 10 00 02 	mov  %g2, %i5
    51bc:	04 80 00 06 	ble  51d4 <_ppfs_parsespec+0x154>
    51c0:	9e 0b e0 ff 	and  %o7, 0xff, %o7
    51c4:	80 a3 e0 6d 	cmp  %o7, 0x6d
    51c8:	02 80 00 24 	be  5258 <_ppfs_parsespec+0x1d8>
    51cc:	86 10 00 02 	mov  %g2, %g3
    51d0:	30 bf ff f4 	b,a   51a0 <_ppfs_parsespec+0x120>
    51d4:	80 a7 40 02 	cmp  %i5, %g2
    51d8:	08 80 00 09 	bleu  51fc <_ppfs_parsespec+0x17c>
    51dc:	b8 10 20 00 	clr  %i4
    51e0:	f4 08 80 00 	ldub  [ %g2 ], %i2
    51e4:	80 a6 a0 30 	cmp  %i2, 0x30
    51e8:	12 80 00 1c 	bne  5258 <_ppfs_parsespec+0x1d8>
    51ec:	86 10 00 02 	mov  %g2, %g3
    51f0:	10 80 00 04 	b  5200 <_ppfs_parsespec+0x180>
    51f4:	ba 10 00 02 	mov  %g2, %i5
    51f8:	b8 10 00 01 	mov  %g1, %i4
    51fc:	ba 10 00 02 	mov  %g2, %i5
    5200:	82 10 20 01 	mov  1, %g1
    5204:	86 10 00 09 	mov  %o1, %g3
    5208:	c4 08 c0 00 	ldub  [ %g3 ], %g2
    520c:	f4 0f 40 00 	ldub  [ %i5 ], %i2
    5210:	80 a6 80 02 	cmp  %i2, %g2
    5214:	12 80 00 05 	bne  5228 <_ppfs_parsespec+0x1a8>
    5218:	86 00 e0 01 	inc  %g3
    521c:	ba 07 60 01 	inc  %i5
    5220:	10 bf ff f8 	b  5200 <_ppfs_parsespec+0x180>
    5224:	88 11 00 01 	or  %g4, %g1, %g4
    5228:	c4 08 c0 00 	ldub  [ %g3 ], %g2
    522c:	80 a0 a0 00 	cmp  %g2, 0
    5230:	12 bf ff f7 	bne  520c <_ppfs_parsespec+0x18c>
    5234:	82 00 40 01 	add  %g1, %g1, %g1
    5238:	82 09 20 0a 	and  %g4, 0xa, %g1
    523c:	83 38 60 01 	sra  %g1, 1, %g1
    5240:	88 29 00 01 	andn  %g4, %g1, %g4
    5244:	c2 0f 7f ff 	ldub  [ %i5 + -1 ], %g1
    5248:	80 a0 60 25 	cmp  %g1, 0x25
    524c:	12 bf ff a8 	bne  50ec <_ppfs_parsespec+0x6c>
    5250:	84 10 00 1d 	mov  %i5, %g2
    5254:	82 10 20 00 	clr  %g1
    5258:	c4 08 c0 00 	ldub  [ %g3 ], %g2
    525c:	80 a0 a0 2a 	cmp  %g2, 0x2a
    5260:	12 80 00 14 	bne  52b0 <_ppfs_parsespec+0x230>
    5264:	80 a6 e0 00 	cmp  %i3, 0
    5268:	80 a7 20 00 	cmp  %i4, 0
    526c:	22 80 00 0c 	be,a   529c <_ppfs_parsespec+0x21c>
    5270:	86 00 e0 01 	inc  %g3
    5274:	c4 0f 40 00 	ldub  [ %i5 ], %g2
    5278:	80 a0 a0 24 	cmp  %g2, 0x24
    527c:	12 bf ff c9 	bne  51a0 <_ppfs_parsespec+0x120>
    5280:	ba 07 60 01 	inc  %i5
    5284:	80 a0 60 00 	cmp  %g1, 0
    5288:	04 bf ff c6 	ble  51a0 <_ppfs_parsespec+0x120>
    528c:	84 0e e0 04 	and  %i3, 4, %g2
    5290:	84 07 80 02 	add  %fp, %g2, %g2
    5294:	10 80 00 05 	b  52a8 <_ppfs_parsespec+0x228>
    5298:	c2 20 bf d8 	st  %g1, [ %g2 + -40 ]
    529c:	80 a7 40 03 	cmp  %i5, %g3
    52a0:	12 bf ff c0 	bne  51a0 <_ppfs_parsespec+0x120>
    52a4:	01 00 00 00 	nop 
    52a8:	03 20 00 00 	sethi  %hi(0x80000000), %g1
    52ac:	80 a6 e0 00 	cmp  %i3, 0
    52b0:	12 80 00 0b 	bne  52dc <_ppfs_parsespec+0x25c>
    52b4:	05 00 00 05 	sethi  %hi(0x1400), %g2
    52b8:	c4 0f 40 00 	ldub  [ %i5 ], %g2
    52bc:	80 a0 a0 2e 	cmp  %g2, 0x2e
    52c0:	12 80 00 05 	bne  52d4 <_ppfs_parsespec+0x254>
    52c4:	b2 10 00 01 	mov  %g1, %i1
    52c8:	ba 07 60 01 	inc  %i5
    52cc:	10 bf ff 87 	b  50e8 <_ppfs_parsespec+0x68>
    52d0:	b6 10 3f ff 	mov  -1, %i3
    52d4:	82 10 3f ff 	mov  -1, %g1
    52d8:	05 00 00 05 	sethi  %hi(0x1400), %g2
    52dc:	84 18 bf 8c 	xor  %g2, -116, %g2
    52e0:	84 05 c0 02 	add  %l7, %g2, %g2
    52e4:	f6 0f 40 00 	ldub  [ %i5 ], %i3
    52e8:	c6 08 80 00 	ldub  [ %g2 ], %g3
    52ec:	80 a6 c0 03 	cmp  %i3, %g3
    52f0:	32 80 00 04 	bne,a   5300 <_ppfs_parsespec+0x280>
    52f4:	84 00 a0 01 	inc  %g2
    52f8:	10 80 00 06 	b  5310 <_ppfs_parsespec+0x290>
    52fc:	ba 07 60 01 	inc  %i5
    5300:	c6 08 80 00 	ldub  [ %g2 ], %g3
    5304:	80 a0 e0 00 	cmp  %g3, 0
    5308:	32 bf ff f9 	bne,a   52ec <_ppfs_parsespec+0x26c>
    530c:	f6 0f 40 00 	ldub  [ %i5 ], %i3
    5310:	07 00 00 05 	sethi  %hi(0x1400), %g3
    5314:	86 18 ff 8c 	xor  %g3, -116, %g3
    5318:	86 05 c0 03 	add  %l7, %g3, %g3
    531c:	86 20 80 03 	sub  %g2, %g3, %g3
    5320:	80 a0 e0 01 	cmp  %g3, 1
    5324:	34 80 00 0a 	bg,a   534c <_ppfs_parsespec+0x2cc>
    5328:	f6 08 a0 09 	ldub  [ %g2 + 9 ], %i3
    532c:	f6 0f 40 00 	ldub  [ %i5 ], %i3
    5330:	c6 08 80 00 	ldub  [ %g2 ], %g3
    5334:	80 a6 c0 03 	cmp  %i3, %g3
    5338:	32 80 00 05 	bne,a   534c <_ppfs_parsespec+0x2cc>
    533c:	f6 08 a0 09 	ldub  [ %g2 + 9 ], %i3
    5340:	84 00 a0 09 	add  %g2, 9, %g2
    5344:	ba 07 60 01 	inc  %i5
    5348:	f6 08 a0 09 	ldub  [ %g2 + 9 ], %i3
    534c:	c6 0f 40 00 	ldub  [ %i5 ], %g3
    5350:	80 a0 e0 00 	cmp  %g3, 0
    5354:	02 bf ff 93 	be  51a0 <_ppfs_parsespec+0x120>
    5358:	b7 2e e0 08 	sll  %i3, 8, %i3
    535c:	05 00 00 00 	sethi  %hi(0), %g2
    5360:	84 18 bf 6c 	xor  %g2, -148, %g2
    5364:	84 05 c0 02 	add  %l7, %g2, %g2
    5368:	f4 08 80 00 	ldub  [ %g2 ], %i2
    536c:	80 a0 c0 1a 	cmp  %g3, %i2
    5370:	32 80 00 2a 	bne,a   5418 <_ppfs_parsespec+0x398>
    5374:	84 00 a0 01 	inc  %g2
    5378:	07 00 00 00 	sethi  %hi(0), %g3
    537c:	86 18 ff 6c 	xor  %g3, -148, %g3
    5380:	86 05 c0 03 	add  %l7, %g3, %g3
    5384:	84 20 80 03 	sub  %g2, %g3, %g2
    5388:	80 a0 a0 11 	cmp  %g2, 0x11
    538c:	04 80 00 06 	ble  53a4 <_ppfs_parsespec+0x324>
    5390:	07 00 00 05 	sethi  %hi(0x1400), %g3
    5394:	80 8e e4 00 	btst  0x400, %i3
    5398:	32 80 00 03 	bne,a   53a4 <_ppfs_parsespec+0x324>
    539c:	84 00 bf fe 	add  %g2, -2, %g2
    53a0:	07 00 00 05 	sethi  %hi(0x1400), %g3
    53a4:	c4 26 20 20 	st  %g2, [ %i0 + 0x20 ]
    53a8:	86 18 ff a4 	xor  %g3, -92, %g3
    53ac:	86 05 c0 03 	add  %l7, %g3, %g3
    53b0:	86 00 ff ff 	add  %g3, -1, %g3
    53b4:	86 00 e0 01 	inc  %g3
    53b8:	f4 08 c0 00 	ldub  [ %g3 ], %i2
    53bc:	80 a0 80 1a 	cmp  %g2, %i2
    53c0:	34 bf ff fe 	bg,a   53b8 <_ppfs_parsespec+0x338>
    53c4:	86 00 e0 01 	inc  %g3
    53c8:	05 00 00 05 	sethi  %hi(0x1400), %g2
    53cc:	84 18 bf a4 	xor  %g2, -92, %g2
    53d0:	84 05 c0 02 	add  %l7, %g2, %g2
    53d4:	86 20 c0 02 	sub  %g3, %g2, %g3
    53d8:	05 00 00 05 	sethi  %hi(0x1400), %g2
    53dc:	84 18 bf ae 	xor  %g2, -82, %g2
    53e0:	84 05 c0 02 	add  %l7, %g2, %g2
    53e4:	86 00 c0 03 	add  %g3, %g3, %g3
    53e8:	f4 50 80 03 	ldsh  [ %g2 + %g3 ], %i2
    53ec:	05 00 00 05 	sethi  %hi(0x1400), %g2
    53f0:	84 18 bf be 	xor  %g2, -66, %g2
    53f4:	84 05 c0 02 	add  %l7, %g2, %g2
    53f8:	b4 16 c0 1a 	or  %i3, %i2, %i2
    53fc:	c6 50 80 03 	ldsh  [ %g2 + %g3 ], %g3
    5400:	84 0e 80 03 	and  %i2, %g3, %g2
    5404:	c4 27 bf ec 	st  %g2, [ %fp + -20 ]
    5408:	05 00 00 00 	sethi  %hi(0), %g2
    540c:	84 18 bf 6c 	xor  %g2, -148, %g2
    5410:	10 80 00 06 	b  5428 <_ppfs_parsespec+0x3a8>
    5414:	84 05 c0 02 	add  %l7, %g2, %g2
    5418:	f4 08 80 00 	ldub  [ %g2 ], %i2
    541c:	80 a6 a0 00 	cmp  %i2, 0
    5420:	12 bf ff d4 	bne  5370 <_ppfs_parsespec+0x2f0>
    5424:	80 a0 c0 1a 	cmp  %g3, %i2
    5428:	c6 0f 40 00 	ldub  [ %i5 ], %g3
    542c:	c2 26 20 04 	st  %g1, [ %i0 + 4 ]
    5430:	82 09 20 04 	and  %g4, 4, %g1
    5434:	80 a0 00 01 	cmp  %g0, %g1
    5438:	82 40 3f ff 	addx  %g0, -1, %g1
    543c:	82 08 7f f0 	and  %g1, -16, %g1
    5440:	82 00 60 30 	add  %g1, 0x30, %g1
    5444:	c6 26 20 0c 	st  %g3, [ %i0 + 0xc ]
    5448:	c2 26 20 14 	st  %g1, [ %i0 + 0x14 ]
    544c:	f2 26 20 08 	st  %i1, [ %i0 + 8 ]
    5450:	82 10 20 01 	mov  1, %g1
    5454:	b6 0e ef 00 	and  %i3, 0xf00, %i3
    5458:	88 09 3f fb 	and  %g4, -5, %g4
    545c:	c2 26 20 1c 	st  %g1, [ %i0 + 0x1c ]
    5460:	88 16 c0 04 	or  %i3, %g4, %g4
    5464:	c8 26 20 10 	st  %g4, [ %i0 + 0x10 ]
    5468:	c2 08 80 00 	ldub  [ %g2 ], %g1
    546c:	80 a0 60 00 	cmp  %g1, 0
    5470:	12 80 00 29 	bne  5514 <_ppfs_parsespec+0x494>
    5474:	80 a7 20 00 	cmp  %i4, 0
    5478:	c2 0f 40 00 	ldub  [ %i5 ], %g1
    547c:	80 a0 60 6d 	cmp  %g1, 0x6d
    5480:	12 80 00 06 	bne  5498 <_ppfs_parsespec+0x418>
    5484:	82 10 20 15 	mov  0x15, %g1
    5488:	82 10 20 14 	mov  0x14, %g1
    548c:	c0 26 20 1c 	clr  [ %i0 + 0x1c ]
    5490:	10 80 00 20 	b  5510 <_ppfs_parsespec+0x490>
    5494:	c2 26 20 20 	st  %g1, [ %i0 + 0x20 ]
    5498:	c2 26 20 20 	st  %g1, [ %i0 + 0x20 ]
    549c:	03 00 00 00 	sethi  %hi(0), %g1
    54a0:	82 18 7f f4 	xor  %g1, -12, %g1
    54a4:	82 05 c0 01 	add  %l7, %g1, %g1
    54a8:	c4 00 40 00 	ld  [ %g1 ], %g2
    54ac:	82 10 00 02 	mov  %g2, %g1
    54b0:	86 00 a0 0a 	add  %g2, 0xa, %g3
    54b4:	f6 08 40 00 	ldub  [ %g1 ], %i3
    54b8:	c8 0f 40 00 	ldub  [ %i5 ], %g4
    54bc:	80 a6 c0 04 	cmp  %i3, %g4
    54c0:	32 80 00 10 	bne,a   5500 <_ppfs_parsespec+0x480>
    54c4:	82 00 60 01 	inc  %g1
    54c8:	07 00 00 03 	sethi  %hi(0xc00), %g3
    54cc:	86 18 e1 90 	xor  %g3, 0x190, %g3
    54d0:	86 05 c0 03 	add  %l7, %g3, %g3
    54d4:	82 20 40 02 	sub  %g1, %g2, %g1
    54d8:	90 06 20 04 	add  %i0, 4, %o0
    54dc:	83 28 60 02 	sll  %g1, 2, %g1
    54e0:	92 10 20 05 	mov  5, %o1
    54e4:	c2 00 c0 01 	ld  [ %g3 + %g1 ], %g1
    54e8:	9f c0 40 00 	call  %g1
    54ec:	94 07 bf ec 	add  %fp, -20, %o2
    54f0:	80 a2 20 05 	cmp  %o0, 5
    54f4:	04 80 00 07 	ble  5510 <_ppfs_parsespec+0x490>
    54f8:	d0 26 20 1c 	st  %o0, [ %i0 + 0x1c ]
    54fc:	30 bf ff 29 	b,a   51a0 <_ppfs_parsespec+0x120>
    5500:	80 a0 40 03 	cmp  %g1, %g3
    5504:	2a bf ff ed 	bcs,a   54b8 <_ppfs_parsespec+0x438>
    5508:	f6 08 40 00 	ldub  [ %g1 ], %i3
    550c:	30 bf ff 25 	b,a   51a0 <_ppfs_parsespec+0x120>
    5510:	80 a7 20 00 	cmp  %i4, 0
    5514:	04 80 00 4b 	ble  5640 <_ppfs_parsespec+0x5c0>
    5518:	05 00 00 05 	sethi  %hi(0x1400), %g2
    551c:	35 00 00 05 	sethi  %hi(0x1400), %i2
    5520:	84 18 bf ce 	xor  %g2, -50, %g2
    5524:	b4 1e bf ec 	xor  %i2, -20, %i2
    5528:	82 10 20 00 	clr  %g1
    552c:	84 05 c0 02 	add  %l7, %g2, %g2
    5530:	b4 05 c0 1a 	add  %l7, %i2, %i2
    5534:	80 a0 60 02 	cmp  %g1, 2
    5538:	14 80 00 09 	bg  555c <_ppfs_parsespec+0x4dc>
    553c:	88 00 7f fe 	add  %g1, -2, %g4
    5540:	87 28 60 02 	sll  %g1, 2, %g3
    5544:	88 06 00 01 	add  %i0, %g1, %g4
    5548:	86 07 80 03 	add  %fp, %g3, %g3
    554c:	c6 00 ff d8 	ld  [ %g3 + -40 ], %g3
    5550:	c6 29 20 24 	stb  %g3, [ %g4 + 0x24 ]
    5554:	10 80 00 04 	b  5564 <_ppfs_parsespec+0x4e4>
    5558:	86 08 e0 ff 	and  %g3, 0xff, %g3
    555c:	c6 07 bf e0 	ld  [ %fp + -32 ], %g3
    5560:	86 01 00 03 	add  %g4, %g3, %g3
    5564:	80 a0 c0 1c 	cmp  %g3, %i4
    5568:	04 80 00 06 	ble  5580 <_ppfs_parsespec+0x500>
    556c:	b2 00 ff ff 	add  %g3, -1, %i1
    5570:	80 a0 e0 09 	cmp  %g3, 9
    5574:	14 bf ff 0b 	bg  51a0 <_ppfs_parsespec+0x120>
    5578:	b8 10 00 03 	mov  %g3, %i4
    557c:	b2 00 ff ff 	add  %g3, -1, %i1
    5580:	86 00 e0 09 	add  %g3, 9, %g3
    5584:	87 28 e0 02 	sll  %g3, 2, %g3
    5588:	f6 06 00 03 	ld  [ %i0 + %g3 ], %i3
    558c:	87 28 60 02 	sll  %g1, 2, %g3
    5590:	86 07 80 03 	add  %fp, %g3, %g3
    5594:	c8 00 ff e4 	ld  [ %g3 + -28 ], %g4
    5598:	80 a1 20 08 	cmp  %g4, 8
    559c:	02 80 00 21 	be  5620 <_ppfs_parsespec+0x5a0>
    55a0:	80 a6 c0 04 	cmp  %i3, %g4
    55a4:	02 80 00 1c 	be  5614 <_ppfs_parsespec+0x594>
    55a8:	80 a6 e0 08 	cmp  %i3, 8
    55ac:	02 80 00 1a 	be  5614 <_ppfs_parsespec+0x594>
    55b0:	86 00 a0 18 	add  %g2, 0x18, %g3
    55b4:	86 00 ff fe 	add  %g3, -2, %g3
    55b8:	de 50 c0 00 	ldsh  [ %g3 ], %o7
    55bc:	80 a3 c0 1b 	cmp  %o7, %i3
    55c0:	02 80 00 04 	be  55d0 <_ppfs_parsespec+0x550>
    55c4:	80 a0 c0 02 	cmp  %g3, %g2
    55c8:	38 bf ff fc 	bgu,a   55b8 <_ppfs_parsespec+0x538>
    55cc:	86 00 ff fe 	add  %g3, -2, %g3
    55d0:	86 20 c0 02 	sub  %g3, %g2, %g3
    55d4:	87 38 e0 01 	sra  %g3, 1, %g3
    55d8:	f6 0e 80 03 	ldub  [ %i2 + %g3 ], %i3
    55dc:	86 00 a0 18 	add  %g2, 0x18, %g3
    55e0:	86 00 ff fe 	add  %g3, -2, %g3
    55e4:	de 50 c0 00 	ldsh  [ %g3 ], %o7
    55e8:	80 a3 c0 04 	cmp  %o7, %g4
    55ec:	02 80 00 04 	be  55fc <_ppfs_parsespec+0x57c>
    55f0:	80 a0 c0 02 	cmp  %g3, %g2
    55f4:	38 bf ff fc 	bgu,a   55e4 <_ppfs_parsespec+0x564>
    55f8:	86 00 ff fe 	add  %g3, -2, %g3
    55fc:	86 20 c0 02 	sub  %g3, %g2, %g3
    5600:	87 38 e0 01 	sra  %g3, 1, %g3
    5604:	c6 0e 80 03 	ldub  [ %i2 + %g3 ], %g3
    5608:	80 a6 c0 03 	cmp  %i3, %g3
    560c:	34 80 00 06 	bg,a   5624 <_ppfs_parsespec+0x5a4>
    5610:	82 00 60 01 	inc  %g1
    5614:	86 06 60 0a 	add  %i1, 0xa, %g3
    5618:	87 28 e0 02 	sll  %g3, 2, %g3
    561c:	c8 26 00 03 	st  %g4, [ %i0 + %g3 ]
    5620:	82 00 60 01 	inc  %g1
    5624:	c6 06 20 1c 	ld  [ %i0 + 0x1c ], %g3
    5628:	86 00 e0 01 	inc  %g3
    562c:	80 a0 c0 01 	cmp  %g3, %g1
    5630:	16 bf ff c2 	bge  5538 <_ppfs_parsespec+0x4b8>
    5634:	80 a0 60 02 	cmp  %g1, 2
    5638:	10 80 00 0a 	b  5660 <_ppfs_parsespec+0x5e0>
    563c:	f8 26 20 18 	st  %i4, [ %i0 + 0x18 ]
    5640:	82 10 20 01 	mov  1, %g1
    5644:	d4 06 20 1c 	ld  [ %i0 + 0x1c ], %o2
    5648:	c2 2e 20 26 	stb  %g1, [ %i0 + 0x26 ]
    564c:	90 06 20 28 	add  %i0, 0x28, %o0
    5650:	92 07 bf ec 	add  %fp, -20, %o1
    5654:	40 00 02 82 	call  605c <__GI_memcpy>
    5658:	95 2a a0 02 	sll  %o2, 2, %o2
    565c:	f8 26 20 18 	st  %i4, [ %i0 + 0x18 ]
    5660:	ba 07 60 01 	inc  %i5
    5664:	fa 26 00 00 	st  %i5, [ %i0 ]
    5668:	f0 06 20 1c 	ld  [ %i0 + 0x1c ], %i0
    566c:	81 c7 e0 08 	ret 
    5670:	91 ee 20 02 	restore  %i0, 2, %o0

00005674 <__GI_fputs_unlocked>:
    5674:	9d e3 bf a0 	save  %sp, -96, %sp
    5678:	40 00 00 d0 	call  59b8 <__GI_strlen>
    567c:	90 10 00 18 	mov  %i0, %o0
    5680:	92 10 20 01 	mov  1, %o1
    5684:	ba 10 00 08 	mov  %o0, %i5
    5688:	96 10 00 19 	mov  %i1, %o3
    568c:	90 10 00 18 	mov  %i0, %o0
    5690:	40 00 00 09 	call  56b4 <__GI_fwrite_unlocked>
    5694:	94 10 00 1d 	mov  %i5, %o2
    5698:	80 a2 00 1d 	cmp  %o0, %i5
    569c:	12 80 00 04 	bne  56ac <__GI_fputs_unlocked+0x38>
    56a0:	01 00 00 00 	nop 
    56a4:	81 c7 e0 08 	ret 
    56a8:	91 e8 00 08 	restore  %g0, %o0, %o0
    56ac:	81 c7 e0 08 	ret 
    56b0:	91 e8 3f ff 	restore  %g0, -1, %o0

000056b4 <__GI_fwrite_unlocked>:
    56b4:	9d e3 bf a0 	save  %sp, -96, %sp
    56b8:	2f 00 00 43 	sethi  %hi(0x10c00), %l7
    56bc:	40 00 2a 51 	call  10000 <__sparc_get_pc_thunk.l7>
    56c0:	ae 05 e2 60 	add  %l7, 0x260, %l7	! 10e60 <__sparc_get_pc_thunk.l7+0xe60>
    56c4:	c2 16 c0 00 	lduh  [ %i3 ], %g1
    56c8:	80 88 60 40 	btst  0x40, %g1
    56cc:	02 80 00 08 	be  56ec <__GI_fwrite_unlocked+0x38>
    56d0:	80 a6 a0 00 	cmp  %i2, 0
    56d4:	02 80 00 27 	be  5770 <__GI_fwrite_unlocked+0xbc>
    56d8:	80 a6 60 00 	cmp  %i1, 0
    56dc:	12 80 00 0b 	bne  5708 <__GI_fwrite_unlocked+0x54>
    56e0:	84 10 3f ff 	mov  -1, %g2
    56e4:	81 c7 e0 08 	ret 
    56e8:	91 e8 20 00 	restore  %g0, 0, %o0
    56ec:	40 00 08 0a 	call  7714 <__stdio_trans2w>
    56f0:	90 10 00 1b 	mov  %i3, %o0
    56f4:	80 a2 20 00 	cmp  %o0, 0
    56f8:	02 bf ff f7 	be  56d4 <__GI_fwrite_unlocked+0x20>
    56fc:	80 a6 a0 00 	cmp  %i2, 0
    5700:	81 c7 e0 08 	ret 
    5704:	91 e8 20 00 	restore  %g0, 0, %o0
    5708:	81 80 20 00 	mov  %g0, %y
    570c:	01 00 00 00 	nop 
    5710:	01 00 00 00 	nop 
    5714:	01 00 00 00 	nop 
    5718:	82 70 80 19 	udiv  %g2, %i1, %g1
    571c:	80 a6 80 01 	cmp  %i2, %g1
    5720:	38 80 00 0d 	bgu,a   5754 <__GI_fwrite_unlocked+0xa0>
    5724:	c2 16 c0 00 	lduh  [ %i3 ], %g1
    5728:	90 10 00 18 	mov  %i0, %o0
    572c:	92 5e 80 19 	smul  %i2, %i1, %o1
    5730:	40 00 07 a9 	call  75d4 <__stdio_fwrite>
    5734:	94 10 00 1b 	mov  %i3, %o2
    5738:	81 80 20 00 	mov  %g0, %y
    573c:	01 00 00 00 	nop 
    5740:	01 00 00 00 	nop 
    5744:	01 00 00 00 	nop 
    5748:	b0 72 00 19 	udiv  %o0, %i1, %i0
    574c:	81 c7 e0 08 	ret 
