
.//coremark.elf:     file format elf32-sparc


Disassembly of section .text:

00000000 <_start>:
       0:	3d 00 00 80 	sethi  %hi(0x20000), %fp
       4:	9c 27 a0 40 	sub  %fp, 0x40, %sp
       8:	a0 10 20 01 	mov  1, %l0
       c:	81 94 20 00 	mov  %l0, %wim
      10:	21 00 00 04 	sethi  %hi(0x1000), %l0
      14:	a0 14 20 e7 	or  %l0, 0xe7, %l0	! 10e7 <window_underflow_trap_handler+0x83>
      18:	81 88 00 10 	mov  %l0, %psr
      1c:	21 00 00 08 	sethi  %hi(0x2000), %l0
      20:	a0 14 20 00 	mov  %l0, %l0	! 2000 <trap_table_base>
      24:	81 9c 20 00 	mov  %l0, %tbr
      28:	40 00 14 76 	call  5200 <ajit_main>
      2c:	01 00 00 00 	nop 
      30:	91 d0 20 00 	ta  0

00000034 <page_table_setup>:
      34:	81 c3 e0 08 	retl 
      38:	01 00 00 00 	nop 

0000003c <set_context_table_pointer>:
      3c:	81 c3 e0 08 	retl 
      40:	01 00 00 00 	nop 
	...

00001000 <window_overflow_trap_handler>:
    1000:	a7 50 00 00 	rd  %wim, %l3
    1004:	a9 2c e0 07 	sll  %l3, 7, %l4
    1008:	a7 34 e0 01 	srl  %l3, 1, %l3
    100c:	a6 14 c0 14 	or  %l3, %l4, %l3
    1010:	a6 0c e0 ff 	and  %l3, 0xff, %l3
    1014:	81 90 00 00 	mov  %g0, %wim
    1018:	01 00 00 00 	nop 
    101c:	01 00 00 00 	nop 
    1020:	01 00 00 00 	nop 
    1024:	81 e0 00 00 	save 
    1028:	e0 3b a0 00 	std  %l0, [ %sp ]
    102c:	e4 3b a0 08 	std  %l2, [ %sp + 8 ]
    1030:	e8 3b a0 10 	std  %l4, [ %sp + 0x10 ]
    1034:	ec 3b a0 18 	std  %l6, [ %sp + 0x18 ]
    1038:	f0 3b a0 20 	std  %i0, [ %sp + 0x20 ]
    103c:	f4 3b a0 28 	std  %i2, [ %sp + 0x28 ]
    1040:	f8 3b a0 30 	std  %i4, [ %sp + 0x30 ]
    1044:	fc 3b a0 38 	std  %fp, [ %sp + 0x38 ]
    1048:	81 e8 00 00 	restore 
    104c:	81 90 00 13 	mov  %l3, %wim
    1050:	01 00 00 00 	nop 
    1054:	01 00 00 00 	nop 
    1058:	01 00 00 00 	nop 
    105c:	81 c4 40 00 	jmp  %l1
    1060:	81 cc 80 00 	rett  %l2

00001064 <window_underflow_trap_handler>:
    1064:	a7 50 00 00 	rd  %wim, %l3
    1068:	a9 34 e0 07 	srl  %l3, 7, %l4
    106c:	a7 2c e0 01 	sll  %l3, 1, %l3
    1070:	a6 14 c0 14 	or  %l3, %l4, %l3
    1074:	a6 0c e0 ff 	and  %l3, 0xff, %l3
    1078:	81 90 00 00 	mov  %g0, %wim
    107c:	01 00 00 00 	nop 
    1080:	01 00 00 00 	nop 
    1084:	01 00 00 00 	nop 
    1088:	81 e8 00 00 	restore 
    108c:	81 e8 00 00 	restore 
    1090:	e0 1b a0 00 	ldd  [ %sp ], %l0
    1094:	e4 1b a0 08 	ldd  [ %sp + 8 ], %l2
    1098:	e8 1b a0 10 	ldd  [ %sp + 0x10 ], %l4
    109c:	ec 1b a0 18 	ldd  [ %sp + 0x18 ], %l6
    10a0:	f0 1b a0 20 	ldd  [ %sp + 0x20 ], %i0
    10a4:	f4 1b a0 28 	ldd  [ %sp + 0x28 ], %i2
    10a8:	f8 1b a0 30 	ldd  [ %sp + 0x30 ], %i4
    10ac:	fc 1b a0 38 	ldd  [ %sp + 0x38 ], %fp
    10b0:	81 e0 00 00 	save 
    10b4:	81 e0 00 00 	save 
    10b8:	81 90 00 13 	mov  %l3, %wim
    10bc:	01 00 00 00 	nop 
    10c0:	01 00 00 00 	nop 
    10c4:	01 00 00 00 	nop 
    10c8:	81 c4 40 00 	jmp  %l1
    10cc:	81 cc 80 00 	rett  %l2
    10d0:	01 00 00 00 	nop 
    10d4:	01 00 00 00 	nop 
    10d8:	01 00 00 00 	nop 
    10dc:	01 00 00 00 	nop 
    10e0:	01 00 00 00 	nop 
    10e4:	01 00 00 00 	nop 
    10e8:	01 00 00 00 	nop 
    10ec:	01 00 00 00 	nop 
    10f0:	01 00 00 00 	nop 
    10f4:	01 00 00 00 	nop 
    10f8:	01 00 00 00 	nop 
    10fc:	01 00 00 00 	nop 
    1100:	01 00 00 00 	nop 
    1104:	01 00 00 00 	nop 
    1108:	01 00 00 00 	nop 
    110c:	01 00 00 00 	nop 
    1110:	01 00 00 00 	nop 
    1114:	01 00 00 00 	nop 
    1118:	01 00 00 00 	nop 
    111c:	01 00 00 00 	nop 
    1120:	01 00 00 00 	nop 
    1124:	01 00 00 00 	nop 
    1128:	01 00 00 00 	nop 
    112c:	01 00 00 00 	nop 
    1130:	01 00 00 00 	nop 
    1134:	01 00 00 00 	nop 
    1138:	01 00 00 00 	nop 
    113c:	01 00 00 00 	nop 
    1140:	01 00 00 00 	nop 
    1144:	01 00 00 00 	nop 
    1148:	01 00 00 00 	nop 
    114c:	01 00 00 00 	nop 
    1150:	01 00 00 00 	nop 
    1154:	01 00 00 00 	nop 
    1158:	01 00 00 00 	nop 
    115c:	01 00 00 00 	nop 
    1160:	01 00 00 00 	nop 
    1164:	01 00 00 00 	nop 
    1168:	01 00 00 00 	nop 
    116c:	01 00 00 00 	nop 
    1170:	01 00 00 00 	nop 
    1174:	01 00 00 00 	nop 
    1178:	01 00 00 00 	nop 
    117c:	01 00 00 00 	nop 
    1180:	01 00 00 00 	nop 
    1184:	01 00 00 00 	nop 
    1188:	01 00 00 00 	nop 
    118c:	01 00 00 00 	nop 
    1190:	01 00 00 00 	nop 
    1194:	01 00 00 00 	nop 
    1198:	01 00 00 00 	nop 
    119c:	01 00 00 00 	nop 
    11a0:	01 00 00 00 	nop 
    11a4:	01 00 00 00 	nop 
    11a8:	01 00 00 00 	nop 
    11ac:	01 00 00 00 	nop 
    11b0:	01 00 00 00 	nop 
    11b4:	01 00 00 00 	nop 
    11b8:	01 00 00 00 	nop 
    11bc:	01 00 00 00 	nop 
    11c0:	01 00 00 00 	nop 
    11c4:	01 00 00 00 	nop 
    11c8:	01 00 00 00 	nop 
    11cc:	01 00 00 00 	nop 
    11d0:	01 00 00 00 	nop 
    11d4:	01 00 00 00 	nop 
    11d8:	01 00 00 00 	nop 
    11dc:	01 00 00 00 	nop 
    11e0:	01 00 00 00 	nop 
    11e4:	01 00 00 00 	nop 
    11e8:	01 00 00 00 	nop 
    11ec:	01 00 00 00 	nop 
    11f0:	01 00 00 00 	nop 
    11f4:	01 00 00 00 	nop 
    11f8:	01 00 00 00 	nop 
    11fc:	01 00 00 00 	nop 
    1200:	01 00 00 00 	nop 
    1204:	01 00 00 00 	nop 
    1208:	01 00 00 00 	nop 
    120c:	01 00 00 00 	nop 
    1210:	01 00 00 00 	nop 
    1214:	01 00 00 00 	nop 
    1218:	01 00 00 00 	nop 
    121c:	01 00 00 00 	nop 
    1220:	01 00 00 00 	nop 
    1224:	01 00 00 00 	nop 
    1228:	01 00 00 00 	nop 
    122c:	01 00 00 00 	nop 
    1230:	01 00 00 00 	nop 
    1234:	01 00 00 00 	nop 
    1238:	01 00 00 00 	nop 
    123c:	01 00 00 00 	nop 
    1240:	01 00 00 00 	nop 
    1244:	01 00 00 00 	nop 
    1248:	01 00 00 00 	nop 
    124c:	01 00 00 00 	nop 
    1250:	01 00 00 00 	nop 
    1254:	01 00 00 00 	nop 
    1258:	01 00 00 00 	nop 
    125c:	01 00 00 00 	nop 
    1260:	01 00 00 00 	nop 
    1264:	01 00 00 00 	nop 
    1268:	01 00 00 00 	nop 
    126c:	01 00 00 00 	nop 
    1270:	01 00 00 00 	nop 
    1274:	01 00 00 00 	nop 
    1278:	01 00 00 00 	nop 
    127c:	01 00 00 00 	nop 
    1280:	01 00 00 00 	nop 
    1284:	01 00 00 00 	nop 
    1288:	01 00 00 00 	nop 
    128c:	01 00 00 00 	nop 
    1290:	01 00 00 00 	nop 
    1294:	01 00 00 00 	nop 
    1298:	01 00 00 00 	nop 
    129c:	01 00 00 00 	nop 
    12a0:	01 00 00 00 	nop 
    12a4:	01 00 00 00 	nop 
    12a8:	01 00 00 00 	nop 
    12ac:	01 00 00 00 	nop 
    12b0:	01 00 00 00 	nop 
    12b4:	01 00 00 00 	nop 
    12b8:	01 00 00 00 	nop 
    12bc:	01 00 00 00 	nop 
    12c0:	01 00 00 00 	nop 
    12c4:	01 00 00 00 	nop 
    12c8:	01 00 00 00 	nop 
    12cc:	01 00 00 00 	nop 
    12d0:	01 00 00 00 	nop 
    12d4:	01 00 00 00 	nop 
    12d8:	01 00 00 00 	nop 
    12dc:	01 00 00 00 	nop 
    12e0:	01 00 00 00 	nop 
    12e4:	01 00 00 00 	nop 
    12e8:	01 00 00 00 	nop 
    12ec:	01 00 00 00 	nop 
    12f0:	01 00 00 00 	nop 
    12f4:	01 00 00 00 	nop 
    12f8:	01 00 00 00 	nop 
    12fc:	01 00 00 00 	nop 
    1300:	01 00 00 00 	nop 
    1304:	01 00 00 00 	nop 
    1308:	01 00 00 00 	nop 
    130c:	01 00 00 00 	nop 
    1310:	01 00 00 00 	nop 
    1314:	01 00 00 00 	nop 
    1318:	01 00 00 00 	nop 
    131c:	01 00 00 00 	nop 
    1320:	01 00 00 00 	nop 
    1324:	01 00 00 00 	nop 
    1328:	01 00 00 00 	nop 
    132c:	01 00 00 00 	nop 
    1330:	01 00 00 00 	nop 
    1334:	01 00 00 00 	nop 
    1338:	01 00 00 00 	nop 
    133c:	01 00 00 00 	nop 
    1340:	01 00 00 00 	nop 
    1344:	01 00 00 00 	nop 
    1348:	01 00 00 00 	nop 
    134c:	01 00 00 00 	nop 
    1350:	01 00 00 00 	nop 
    1354:	01 00 00 00 	nop 
    1358:	01 00 00 00 	nop 
    135c:	01 00 00 00 	nop 
    1360:	01 00 00 00 	nop 
    1364:	01 00 00 00 	nop 
    1368:	01 00 00 00 	nop 
    136c:	01 00 00 00 	nop 
    1370:	01 00 00 00 	nop 
    1374:	01 00 00 00 	nop 
    1378:	01 00 00 00 	nop 
    137c:	01 00 00 00 	nop 
    1380:	01 00 00 00 	nop 
    1384:	01 00 00 00 	nop 
    1388:	01 00 00 00 	nop 
    138c:	01 00 00 00 	nop 
    1390:	01 00 00 00 	nop 
    1394:	01 00 00 00 	nop 
    1398:	01 00 00 00 	nop 
    139c:	01 00 00 00 	nop 
    13a0:	01 00 00 00 	nop 
    13a4:	01 00 00 00 	nop 
    13a8:	01 00 00 00 	nop 
    13ac:	01 00 00 00 	nop 
    13b0:	01 00 00 00 	nop 
    13b4:	01 00 00 00 	nop 
    13b8:	01 00 00 00 	nop 
    13bc:	01 00 00 00 	nop 
    13c0:	01 00 00 00 	nop 
    13c4:	01 00 00 00 	nop 
    13c8:	01 00 00 00 	nop 
    13cc:	01 00 00 00 	nop 
    13d0:	01 00 00 00 	nop 
    13d4:	01 00 00 00 	nop 
    13d8:	01 00 00 00 	nop 
    13dc:	01 00 00 00 	nop 
    13e0:	01 00 00 00 	nop 
    13e4:	01 00 00 00 	nop 
    13e8:	01 00 00 00 	nop 
    13ec:	01 00 00 00 	nop 
    13f0:	01 00 00 00 	nop 
    13f4:	01 00 00 00 	nop 
    13f8:	01 00 00 00 	nop 
    13fc:	01 00 00 00 	nop 
    1400:	01 00 00 00 	nop 
    1404:	01 00 00 00 	nop 
    1408:	01 00 00 00 	nop 
    140c:	01 00 00 00 	nop 
    1410:	01 00 00 00 	nop 
    1414:	01 00 00 00 	nop 
    1418:	01 00 00 00 	nop 
    141c:	01 00 00 00 	nop 
    1420:	01 00 00 00 	nop 
    1424:	01 00 00 00 	nop 
    1428:	01 00 00 00 	nop 
    142c:	01 00 00 00 	nop 
    1430:	01 00 00 00 	nop 
    1434:	01 00 00 00 	nop 
    1438:	01 00 00 00 	nop 
    143c:	01 00 00 00 	nop 
    1440:	01 00 00 00 	nop 
    1444:	01 00 00 00 	nop 
    1448:	01 00 00 00 	nop 
    144c:	01 00 00 00 	nop 
    1450:	01 00 00 00 	nop 
    1454:	01 00 00 00 	nop 
    1458:	01 00 00 00 	nop 
    145c:	01 00 00 00 	nop 
    1460:	01 00 00 00 	nop 
    1464:	01 00 00 00 	nop 
    1468:	01 00 00 00 	nop 
    146c:	01 00 00 00 	nop 
    1470:	01 00 00 00 	nop 
    1474:	01 00 00 00 	nop 
    1478:	01 00 00 00 	nop 
    147c:	01 00 00 00 	nop 
    1480:	01 00 00 00 	nop 
    1484:	01 00 00 00 	nop 
    1488:	01 00 00 00 	nop 
    148c:	01 00 00 00 	nop 
    1490:	01 00 00 00 	nop 
    1494:	01 00 00 00 	nop 
    1498:	01 00 00 00 	nop 
    149c:	01 00 00 00 	nop 
    14a0:	01 00 00 00 	nop 
    14a4:	01 00 00 00 	nop 
    14a8:	01 00 00 00 	nop 
    14ac:	01 00 00 00 	nop 
    14b0:	01 00 00 00 	nop 
    14b4:	01 00 00 00 	nop 
    14b8:	01 00 00 00 	nop 
    14bc:	01 00 00 00 	nop 
    14c0:	01 00 00 00 	nop 
    14c4:	01 00 00 00 	nop 
    14c8:	01 00 00 00 	nop 
    14cc:	01 00 00 00 	nop 
    14d0:	01 00 00 00 	nop 
    14d4:	01 00 00 00 	nop 
    14d8:	01 00 00 00 	nop 
    14dc:	01 00 00 00 	nop 
    14e0:	01 00 00 00 	nop 
    14e4:	01 00 00 00 	nop 
    14e8:	01 00 00 00 	nop 
    14ec:	01 00 00 00 	nop 
    14f0:	01 00 00 00 	nop 
    14f4:	01 00 00 00 	nop 
    14f8:	01 00 00 00 	nop 
    14fc:	01 00 00 00 	nop 
    1500:	01 00 00 00 	nop 
    1504:	01 00 00 00 	nop 
    1508:	01 00 00 00 	nop 
    150c:	01 00 00 00 	nop 
    1510:	01 00 00 00 	nop 
    1514:	01 00 00 00 	nop 
    1518:	01 00 00 00 	nop 
    151c:	01 00 00 00 	nop 
    1520:	01 00 00 00 	nop 
    1524:	01 00 00 00 	nop 
    1528:	01 00 00 00 	nop 
    152c:	01 00 00 00 	nop 
    1530:	01 00 00 00 	nop 
    1534:	01 00 00 00 	nop 
    1538:	01 00 00 00 	nop 
    153c:	01 00 00 00 	nop 
    1540:	01 00 00 00 	nop 
    1544:	01 00 00 00 	nop 
    1548:	01 00 00 00 	nop 
    154c:	01 00 00 00 	nop 
    1550:	01 00 00 00 	nop 
    1554:	01 00 00 00 	nop 
    1558:	01 00 00 00 	nop 
    155c:	01 00 00 00 	nop 
    1560:	01 00 00 00 	nop 
    1564:	01 00 00 00 	nop 
    1568:	01 00 00 00 	nop 
    156c:	01 00 00 00 	nop 
    1570:	01 00 00 00 	nop 
    1574:	01 00 00 00 	nop 
    1578:	01 00 00 00 	nop 
    157c:	01 00 00 00 	nop 
    1580:	01 00 00 00 	nop 
    1584:	01 00 00 00 	nop 
    1588:	01 00 00 00 	nop 
    158c:	01 00 00 00 	nop 
    1590:	01 00 00 00 	nop 
    1594:	01 00 00 00 	nop 
    1598:	01 00 00 00 	nop 
    159c:	01 00 00 00 	nop 
    15a0:	01 00 00 00 	nop 
    15a4:	01 00 00 00 	nop 
    15a8:	01 00 00 00 	nop 
    15ac:	01 00 00 00 	nop 
    15b0:	01 00 00 00 	nop 
    15b4:	01 00 00 00 	nop 
    15b8:	01 00 00 00 	nop 
    15bc:	01 00 00 00 	nop 
    15c0:	01 00 00 00 	nop 
    15c4:	01 00 00 00 	nop 
    15c8:	01 00 00 00 	nop 
    15cc:	01 00 00 00 	nop 
    15d0:	01 00 00 00 	nop 
    15d4:	01 00 00 00 	nop 
    15d8:	01 00 00 00 	nop 
    15dc:	01 00 00 00 	nop 
    15e0:	01 00 00 00 	nop 
    15e4:	01 00 00 00 	nop 
    15e8:	01 00 00 00 	nop 
    15ec:	01 00 00 00 	nop 
    15f0:	01 00 00 00 	nop 
    15f4:	01 00 00 00 	nop 
    15f8:	01 00 00 00 	nop 
    15fc:	01 00 00 00 	nop 
    1600:	01 00 00 00 	nop 
    1604:	01 00 00 00 	nop 
    1608:	01 00 00 00 	nop 
    160c:	01 00 00 00 	nop 
    1610:	01 00 00 00 	nop 
    1614:	01 00 00 00 	nop 
    1618:	01 00 00 00 	nop 
    161c:	01 00 00 00 	nop 
    1620:	01 00 00 00 	nop 
    1624:	01 00 00 00 	nop 
    1628:	01 00 00 00 	nop 
    162c:	01 00 00 00 	nop 
    1630:	01 00 00 00 	nop 
    1634:	01 00 00 00 	nop 
    1638:	01 00 00 00 	nop 
    163c:	01 00 00 00 	nop 
    1640:	01 00 00 00 	nop 
    1644:	01 00 00 00 	nop 
    1648:	01 00 00 00 	nop 
    164c:	01 00 00 00 	nop 
    1650:	01 00 00 00 	nop 
    1654:	01 00 00 00 	nop 
    1658:	01 00 00 00 	nop 
    165c:	01 00 00 00 	nop 
    1660:	01 00 00 00 	nop 
    1664:	01 00 00 00 	nop 
    1668:	01 00 00 00 	nop 
    166c:	01 00 00 00 	nop 
    1670:	01 00 00 00 	nop 
    1674:	01 00 00 00 	nop 
    1678:	01 00 00 00 	nop 
    167c:	01 00 00 00 	nop 
    1680:	01 00 00 00 	nop 
    1684:	01 00 00 00 	nop 
    1688:	01 00 00 00 	nop 
    168c:	01 00 00 00 	nop 
    1690:	01 00 00 00 	nop 
    1694:	01 00 00 00 	nop 
    1698:	01 00 00 00 	nop 
    169c:	01 00 00 00 	nop 
    16a0:	01 00 00 00 	nop 
    16a4:	01 00 00 00 	nop 
    16a8:	01 00 00 00 	nop 
    16ac:	01 00 00 00 	nop 
    16b0:	01 00 00 00 	nop 
    16b4:	01 00 00 00 	nop 
    16b8:	01 00 00 00 	nop 
    16bc:	01 00 00 00 	nop 
    16c0:	01 00 00 00 	nop 
    16c4:	01 00 00 00 	nop 
    16c8:	01 00 00 00 	nop 
    16cc:	01 00 00 00 	nop 
    16d0:	01 00 00 00 	nop 
    16d4:	01 00 00 00 	nop 
    16d8:	01 00 00 00 	nop 
    16dc:	01 00 00 00 	nop 
    16e0:	01 00 00 00 	nop 
    16e4:	01 00 00 00 	nop 
    16e8:	01 00 00 00 	nop 
    16ec:	01 00 00 00 	nop 
    16f0:	01 00 00 00 	nop 
    16f4:	01 00 00 00 	nop 
    16f8:	01 00 00 00 	nop 
    16fc:	01 00 00 00 	nop 
    1700:	01 00 00 00 	nop 
    1704:	01 00 00 00 	nop 
    1708:	01 00 00 00 	nop 
    170c:	01 00 00 00 	nop 
    1710:	01 00 00 00 	nop 
    1714:	01 00 00 00 	nop 
    1718:	01 00 00 00 	nop 
    171c:	01 00 00 00 	nop 
    1720:	01 00 00 00 	nop 
    1724:	01 00 00 00 	nop 
    1728:	01 00 00 00 	nop 
    172c:	01 00 00 00 	nop 
    1730:	01 00 00 00 	nop 
    1734:	01 00 00 00 	nop 
    1738:	01 00 00 00 	nop 
    173c:	01 00 00 00 	nop 
    1740:	01 00 00 00 	nop 
    1744:	01 00 00 00 	nop 
    1748:	01 00 00 00 	nop 
    174c:	01 00 00 00 	nop 
    1750:	01 00 00 00 	nop 
    1754:	01 00 00 00 	nop 
    1758:	01 00 00 00 	nop 
    175c:	01 00 00 00 	nop 
    1760:	01 00 00 00 	nop 
    1764:	01 00 00 00 	nop 
    1768:	01 00 00 00 	nop 
    176c:	01 00 00 00 	nop 
    1770:	01 00 00 00 	nop 
    1774:	01 00 00 00 	nop 
    1778:	01 00 00 00 	nop 
    177c:	01 00 00 00 	nop 
    1780:	01 00 00 00 	nop 
    1784:	01 00 00 00 	nop 
    1788:	01 00 00 00 	nop 
    178c:	01 00 00 00 	nop 
    1790:	01 00 00 00 	nop 
    1794:	01 00 00 00 	nop 
    1798:	01 00 00 00 	nop 
    179c:	01 00 00 00 	nop 
    17a0:	01 00 00 00 	nop 
    17a4:	01 00 00 00 	nop 
    17a8:	01 00 00 00 	nop 
    17ac:	01 00 00 00 	nop 
    17b0:	01 00 00 00 	nop 
    17b4:	01 00 00 00 	nop 
    17b8:	01 00 00 00 	nop 
    17bc:	01 00 00 00 	nop 
    17c0:	01 00 00 00 	nop 
    17c4:	01 00 00 00 	nop 
    17c8:	01 00 00 00 	nop 
    17cc:	01 00 00 00 	nop 
    17d0:	01 00 00 00 	nop 
    17d4:	01 00 00 00 	nop 
    17d8:	01 00 00 00 	nop 
    17dc:	01 00 00 00 	nop 
    17e0:	01 00 00 00 	nop 
    17e4:	01 00 00 00 	nop 
    17e8:	01 00 00 00 	nop 
    17ec:	01 00 00 00 	nop 
    17f0:	01 00 00 00 	nop 
    17f4:	01 00 00 00 	nop 
    17f8:	01 00 00 00 	nop 
    17fc:	01 00 00 00 	nop 
    1800:	01 00 00 00 	nop 
    1804:	01 00 00 00 	nop 
    1808:	01 00 00 00 	nop 
    180c:	01 00 00 00 	nop 
    1810:	01 00 00 00 	nop 
    1814:	01 00 00 00 	nop 
    1818:	01 00 00 00 	nop 
    181c:	01 00 00 00 	nop 
    1820:	01 00 00 00 	nop 
    1824:	01 00 00 00 	nop 
    1828:	01 00 00 00 	nop 
    182c:	01 00 00 00 	nop 
    1830:	01 00 00 00 	nop 
    1834:	01 00 00 00 	nop 
    1838:	01 00 00 00 	nop 
    183c:	01 00 00 00 	nop 
    1840:	01 00 00 00 	nop 
    1844:	01 00 00 00 	nop 
    1848:	01 00 00 00 	nop 
    184c:	01 00 00 00 	nop 
    1850:	01 00 00 00 	nop 
    1854:	01 00 00 00 	nop 
    1858:	01 00 00 00 	nop 
    185c:	01 00 00 00 	nop 
    1860:	01 00 00 00 	nop 
    1864:	01 00 00 00 	nop 
    1868:	01 00 00 00 	nop 
    186c:	01 00 00 00 	nop 
    1870:	01 00 00 00 	nop 
    1874:	01 00 00 00 	nop 
    1878:	01 00 00 00 	nop 
    187c:	01 00 00 00 	nop 
    1880:	01 00 00 00 	nop 
    1884:	01 00 00 00 	nop 
    1888:	01 00 00 00 	nop 
    188c:	01 00 00 00 	nop 
    1890:	01 00 00 00 	nop 
    1894:	01 00 00 00 	nop 
    1898:	01 00 00 00 	nop 
    189c:	01 00 00 00 	nop 
    18a0:	01 00 00 00 	nop 
    18a4:	01 00 00 00 	nop 
    18a8:	01 00 00 00 	nop 
    18ac:	01 00 00 00 	nop 
    18b0:	01 00 00 00 	nop 
    18b4:	01 00 00 00 	nop 
    18b8:	01 00 00 00 	nop 
    18bc:	01 00 00 00 	nop 
    18c0:	01 00 00 00 	nop 
    18c4:	01 00 00 00 	nop 
    18c8:	01 00 00 00 	nop 
    18cc:	01 00 00 00 	nop 
    18d0:	01 00 00 00 	nop 
    18d4:	01 00 00 00 	nop 
    18d8:	01 00 00 00 	nop 
    18dc:	01 00 00 00 	nop 
    18e0:	01 00 00 00 	nop 
    18e4:	01 00 00 00 	nop 
    18e8:	01 00 00 00 	nop 
    18ec:	01 00 00 00 	nop 
    18f0:	01 00 00 00 	nop 
    18f4:	01 00 00 00 	nop 
    18f8:	01 00 00 00 	nop 
    18fc:	01 00 00 00 	nop 
    1900:	01 00 00 00 	nop 
    1904:	01 00 00 00 	nop 
    1908:	01 00 00 00 	nop 
    190c:	01 00 00 00 	nop 
    1910:	01 00 00 00 	nop 
    1914:	01 00 00 00 	nop 
    1918:	01 00 00 00 	nop 
    191c:	01 00 00 00 	nop 
    1920:	01 00 00 00 	nop 
    1924:	01 00 00 00 	nop 
    1928:	01 00 00 00 	nop 
    192c:	01 00 00 00 	nop 
    1930:	01 00 00 00 	nop 
    1934:	01 00 00 00 	nop 
    1938:	01 00 00 00 	nop 
    193c:	01 00 00 00 	nop 
    1940:	01 00 00 00 	nop 
    1944:	01 00 00 00 	nop 
    1948:	01 00 00 00 	nop 
    194c:	01 00 00 00 	nop 
    1950:	01 00 00 00 	nop 
    1954:	01 00 00 00 	nop 
    1958:	01 00 00 00 	nop 
    195c:	01 00 00 00 	nop 
    1960:	01 00 00 00 	nop 
    1964:	01 00 00 00 	nop 
    1968:	01 00 00 00 	nop 
    196c:	01 00 00 00 	nop 
    1970:	01 00 00 00 	nop 
    1974:	01 00 00 00 	nop 
    1978:	01 00 00 00 	nop 
    197c:	01 00 00 00 	nop 
    1980:	01 00 00 00 	nop 
    1984:	01 00 00 00 	nop 
    1988:	01 00 00 00 	nop 
    198c:	01 00 00 00 	nop 
    1990:	01 00 00 00 	nop 
    1994:	01 00 00 00 	nop 
    1998:	01 00 00 00 	nop 
    199c:	01 00 00 00 	nop 
    19a0:	01 00 00 00 	nop 
    19a4:	01 00 00 00 	nop 
    19a8:	01 00 00 00 	nop 
    19ac:	01 00 00 00 	nop 
    19b0:	01 00 00 00 	nop 
    19b4:	01 00 00 00 	nop 
    19b8:	01 00 00 00 	nop 
    19bc:	01 00 00 00 	nop 
    19c0:	01 00 00 00 	nop 
    19c4:	01 00 00 00 	nop 
    19c8:	01 00 00 00 	nop 
    19cc:	01 00 00 00 	nop 
    19d0:	01 00 00 00 	nop 
    19d4:	01 00 00 00 	nop 
    19d8:	01 00 00 00 	nop 
    19dc:	01 00 00 00 	nop 
    19e0:	01 00 00 00 	nop 
    19e4:	01 00 00 00 	nop 
    19e8:	01 00 00 00 	nop 
    19ec:	01 00 00 00 	nop 
    19f0:	01 00 00 00 	nop 
    19f4:	01 00 00 00 	nop 
    19f8:	01 00 00 00 	nop 
    19fc:	01 00 00 00 	nop 
    1a00:	01 00 00 00 	nop 
    1a04:	01 00 00 00 	nop 
    1a08:	01 00 00 00 	nop 
    1a0c:	01 00 00 00 	nop 
    1a10:	01 00 00 00 	nop 
    1a14:	01 00 00 00 	nop 
    1a18:	01 00 00 00 	nop 
    1a1c:	01 00 00 00 	nop 
    1a20:	01 00 00 00 	nop 
    1a24:	01 00 00 00 	nop 
    1a28:	01 00 00 00 	nop 
    1a2c:	01 00 00 00 	nop 
    1a30:	01 00 00 00 	nop 
    1a34:	01 00 00 00 	nop 
    1a38:	01 00 00 00 	nop 
    1a3c:	01 00 00 00 	nop 
    1a40:	01 00 00 00 	nop 
    1a44:	01 00 00 00 	nop 
    1a48:	01 00 00 00 	nop 
    1a4c:	01 00 00 00 	nop 
    1a50:	01 00 00 00 	nop 
    1a54:	01 00 00 00 	nop 
    1a58:	01 00 00 00 	nop 
    1a5c:	01 00 00 00 	nop 
    1a60:	01 00 00 00 	nop 
    1a64:	01 00 00 00 	nop 
    1a68:	01 00 00 00 	nop 
    1a6c:	01 00 00 00 	nop 
    1a70:	01 00 00 00 	nop 
    1a74:	01 00 00 00 	nop 
    1a78:	01 00 00 00 	nop 
    1a7c:	01 00 00 00 	nop 
    1a80:	01 00 00 00 	nop 
    1a84:	01 00 00 00 	nop 
    1a88:	01 00 00 00 	nop 
    1a8c:	01 00 00 00 	nop 
    1a90:	01 00 00 00 	nop 
    1a94:	01 00 00 00 	nop 
    1a98:	01 00 00 00 	nop 
    1a9c:	01 00 00 00 	nop 
    1aa0:	01 00 00 00 	nop 
    1aa4:	01 00 00 00 	nop 
    1aa8:	01 00 00 00 	nop 
    1aac:	01 00 00 00 	nop 
    1ab0:	01 00 00 00 	nop 
    1ab4:	01 00 00 00 	nop 
    1ab8:	01 00 00 00 	nop 
    1abc:	01 00 00 00 	nop 
    1ac0:	01 00 00 00 	nop 
    1ac4:	01 00 00 00 	nop 
    1ac8:	01 00 00 00 	nop 
    1acc:	01 00 00 00 	nop 
    1ad0:	01 00 00 00 	nop 
    1ad4:	01 00 00 00 	nop 
    1ad8:	01 00 00 00 	nop 
    1adc:	01 00 00 00 	nop 
    1ae0:	01 00 00 00 	nop 
    1ae4:	01 00 00 00 	nop 
    1ae8:	01 00 00 00 	nop 
    1aec:	01 00 00 00 	nop 
    1af0:	01 00 00 00 	nop 
    1af4:	01 00 00 00 	nop 
    1af8:	01 00 00 00 	nop 
    1afc:	01 00 00 00 	nop 
    1b00:	01 00 00 00 	nop 
    1b04:	01 00 00 00 	nop 
    1b08:	01 00 00 00 	nop 
    1b0c:	01 00 00 00 	nop 
    1b10:	01 00 00 00 	nop 
    1b14:	01 00 00 00 	nop 
    1b18:	01 00 00 00 	nop 
    1b1c:	01 00 00 00 	nop 
    1b20:	01 00 00 00 	nop 
    1b24:	01 00 00 00 	nop 
    1b28:	01 00 00 00 	nop 
    1b2c:	01 00 00 00 	nop 
    1b30:	01 00 00 00 	nop 
    1b34:	01 00 00 00 	nop 
    1b38:	01 00 00 00 	nop 
    1b3c:	01 00 00 00 	nop 
    1b40:	01 00 00 00 	nop 
    1b44:	01 00 00 00 	nop 
    1b48:	01 00 00 00 	nop 
    1b4c:	01 00 00 00 	nop 
    1b50:	01 00 00 00 	nop 
    1b54:	01 00 00 00 	nop 
    1b58:	01 00 00 00 	nop 
    1b5c:	01 00 00 00 	nop 
    1b60:	01 00 00 00 	nop 
    1b64:	01 00 00 00 	nop 
    1b68:	01 00 00 00 	nop 
    1b6c:	01 00 00 00 	nop 
    1b70:	01 00 00 00 	nop 
    1b74:	01 00 00 00 	nop 
    1b78:	01 00 00 00 	nop 
    1b7c:	01 00 00 00 	nop 
    1b80:	01 00 00 00 	nop 
    1b84:	01 00 00 00 	nop 
    1b88:	01 00 00 00 	nop 
    1b8c:	01 00 00 00 	nop 
    1b90:	01 00 00 00 	nop 
    1b94:	01 00 00 00 	nop 
    1b98:	01 00 00 00 	nop 
    1b9c:	01 00 00 00 	nop 
    1ba0:	01 00 00 00 	nop 
    1ba4:	01 00 00 00 	nop 
    1ba8:	01 00 00 00 	nop 
    1bac:	01 00 00 00 	nop 
    1bb0:	01 00 00 00 	nop 
    1bb4:	01 00 00 00 	nop 
    1bb8:	01 00 00 00 	nop 
    1bbc:	01 00 00 00 	nop 
    1bc0:	01 00 00 00 	nop 
    1bc4:	01 00 00 00 	nop 
    1bc8:	01 00 00 00 	nop 
    1bcc:	01 00 00 00 	nop 
    1bd0:	01 00 00 00 	nop 
    1bd4:	01 00 00 00 	nop 
    1bd8:	01 00 00 00 	nop 
    1bdc:	01 00 00 00 	nop 
    1be0:	01 00 00 00 	nop 
    1be4:	01 00 00 00 	nop 
    1be8:	01 00 00 00 	nop 
    1bec:	01 00 00 00 	nop 
    1bf0:	01 00 00 00 	nop 
    1bf4:	01 00 00 00 	nop 
    1bf8:	01 00 00 00 	nop 
    1bfc:	01 00 00 00 	nop 
    1c00:	01 00 00 00 	nop 
    1c04:	01 00 00 00 	nop 
    1c08:	01 00 00 00 	nop 
    1c0c:	01 00 00 00 	nop 
    1c10:	01 00 00 00 	nop 
    1c14:	01 00 00 00 	nop 
    1c18:	01 00 00 00 	nop 
    1c1c:	01 00 00 00 	nop 
    1c20:	01 00 00 00 	nop 
    1c24:	01 00 00 00 	nop 
    1c28:	01 00 00 00 	nop 
    1c2c:	01 00 00 00 	nop 
    1c30:	01 00 00 00 	nop 
    1c34:	01 00 00 00 	nop 
    1c38:	01 00 00 00 	nop 
    1c3c:	01 00 00 00 	nop 
    1c40:	01 00 00 00 	nop 
    1c44:	01 00 00 00 	nop 
    1c48:	01 00 00 00 	nop 
    1c4c:	01 00 00 00 	nop 
    1c50:	01 00 00 00 	nop 
    1c54:	01 00 00 00 	nop 
    1c58:	01 00 00 00 	nop 
    1c5c:	01 00 00 00 	nop 
    1c60:	01 00 00 00 	nop 
    1c64:	01 00 00 00 	nop 
    1c68:	01 00 00 00 	nop 
    1c6c:	01 00 00 00 	nop 
    1c70:	01 00 00 00 	nop 
    1c74:	01 00 00 00 	nop 
    1c78:	01 00 00 00 	nop 
    1c7c:	01 00 00 00 	nop 
    1c80:	01 00 00 00 	nop 
    1c84:	01 00 00 00 	nop 
    1c88:	01 00 00 00 	nop 
    1c8c:	01 00 00 00 	nop 
    1c90:	01 00 00 00 	nop 
    1c94:	01 00 00 00 	nop 
    1c98:	01 00 00 00 	nop 
    1c9c:	01 00 00 00 	nop 
    1ca0:	01 00 00 00 	nop 
    1ca4:	01 00 00 00 	nop 
    1ca8:	01 00 00 00 	nop 
    1cac:	01 00 00 00 	nop 
    1cb0:	01 00 00 00 	nop 
    1cb4:	01 00 00 00 	nop 
    1cb8:	01 00 00 00 	nop 
    1cbc:	01 00 00 00 	nop 
    1cc0:	01 00 00 00 	nop 
    1cc4:	01 00 00 00 	nop 
    1cc8:	01 00 00 00 	nop 
    1ccc:	01 00 00 00 	nop 
    1cd0:	01 00 00 00 	nop 
    1cd4:	01 00 00 00 	nop 
    1cd8:	01 00 00 00 	nop 
    1cdc:	01 00 00 00 	nop 
    1ce0:	01 00 00 00 	nop 
    1ce4:	01 00 00 00 	nop 
    1ce8:	01 00 00 00 	nop 
    1cec:	01 00 00 00 	nop 
    1cf0:	01 00 00 00 	nop 
    1cf4:	01 00 00 00 	nop 
    1cf8:	01 00 00 00 	nop 
    1cfc:	01 00 00 00 	nop 
    1d00:	01 00 00 00 	nop 
    1d04:	01 00 00 00 	nop 
    1d08:	01 00 00 00 	nop 
    1d0c:	01 00 00 00 	nop 
    1d10:	01 00 00 00 	nop 
    1d14:	01 00 00 00 	nop 
    1d18:	01 00 00 00 	nop 
    1d1c:	01 00 00 00 	nop 
    1d20:	01 00 00 00 	nop 
    1d24:	01 00 00 00 	nop 
    1d28:	01 00 00 00 	nop 
    1d2c:	01 00 00 00 	nop 
    1d30:	01 00 00 00 	nop 
    1d34:	01 00 00 00 	nop 
    1d38:	01 00 00 00 	nop 
    1d3c:	01 00 00 00 	nop 
    1d40:	01 00 00 00 	nop 
    1d44:	01 00 00 00 	nop 
    1d48:	01 00 00 00 	nop 
    1d4c:	01 00 00 00 	nop 
    1d50:	01 00 00 00 	nop 
    1d54:	01 00 00 00 	nop 
    1d58:	01 00 00 00 	nop 
    1d5c:	01 00 00 00 	nop 
    1d60:	01 00 00 00 	nop 
    1d64:	01 00 00 00 	nop 
    1d68:	01 00 00 00 	nop 
    1d6c:	01 00 00 00 	nop 
    1d70:	01 00 00 00 	nop 
    1d74:	01 00 00 00 	nop 
    1d78:	01 00 00 00 	nop 
    1d7c:	01 00 00 00 	nop 
    1d80:	01 00 00 00 	nop 
    1d84:	01 00 00 00 	nop 
    1d88:	01 00 00 00 	nop 
    1d8c:	01 00 00 00 	nop 
    1d90:	01 00 00 00 	nop 
    1d94:	01 00 00 00 	nop 
    1d98:	01 00 00 00 	nop 
    1d9c:	01 00 00 00 	nop 
    1da0:	01 00 00 00 	nop 
    1da4:	01 00 00 00 	nop 
    1da8:	01 00 00 00 	nop 
    1dac:	01 00 00 00 	nop 
    1db0:	01 00 00 00 	nop 
    1db4:	01 00 00 00 	nop 
    1db8:	01 00 00 00 	nop 
    1dbc:	01 00 00 00 	nop 
    1dc0:	01 00 00 00 	nop 
    1dc4:	01 00 00 00 	nop 
    1dc8:	01 00 00 00 	nop 
    1dcc:	01 00 00 00 	nop 
    1dd0:	01 00 00 00 	nop 
    1dd4:	01 00 00 00 	nop 
    1dd8:	01 00 00 00 	nop 
    1ddc:	01 00 00 00 	nop 
    1de0:	01 00 00 00 	nop 
    1de4:	01 00 00 00 	nop 
    1de8:	01 00 00 00 	nop 
    1dec:	01 00 00 00 	nop 
    1df0:	01 00 00 00 	nop 
    1df4:	01 00 00 00 	nop 
    1df8:	01 00 00 00 	nop 
    1dfc:	01 00 00 00 	nop 
    1e00:	01 00 00 00 	nop 
    1e04:	01 00 00 00 	nop 
    1e08:	01 00 00 00 	nop 
    1e0c:	01 00 00 00 	nop 
    1e10:	01 00 00 00 	nop 
    1e14:	01 00 00 00 	nop 
    1e18:	01 00 00 00 	nop 
    1e1c:	01 00 00 00 	nop 
    1e20:	01 00 00 00 	nop 
    1e24:	01 00 00 00 	nop 
    1e28:	01 00 00 00 	nop 
    1e2c:	01 00 00 00 	nop 
    1e30:	01 00 00 00 	nop 
    1e34:	01 00 00 00 	nop 
    1e38:	01 00 00 00 	nop 
    1e3c:	01 00 00 00 	nop 
    1e40:	01 00 00 00 	nop 
    1e44:	01 00 00 00 	nop 
    1e48:	01 00 00 00 	nop 
    1e4c:	01 00 00 00 	nop 
    1e50:	01 00 00 00 	nop 
    1e54:	01 00 00 00 	nop 
    1e58:	01 00 00 00 	nop 
    1e5c:	01 00 00 00 	nop 
    1e60:	01 00 00 00 	nop 
    1e64:	01 00 00 00 	nop 
    1e68:	01 00 00 00 	nop 
    1e6c:	01 00 00 00 	nop 
    1e70:	01 00 00 00 	nop 
    1e74:	01 00 00 00 	nop 
    1e78:	01 00 00 00 	nop 
    1e7c:	01 00 00 00 	nop 
    1e80:	01 00 00 00 	nop 
    1e84:	01 00 00 00 	nop 
    1e88:	01 00 00 00 	nop 
    1e8c:	01 00 00 00 	nop 
    1e90:	01 00 00 00 	nop 
    1e94:	01 00 00 00 	nop 
    1e98:	01 00 00 00 	nop 
    1e9c:	01 00 00 00 	nop 
    1ea0:	01 00 00 00 	nop 
    1ea4:	01 00 00 00 	nop 
    1ea8:	01 00 00 00 	nop 
    1eac:	01 00 00 00 	nop 
    1eb0:	01 00 00 00 	nop 
    1eb4:	01 00 00 00 	nop 
    1eb8:	01 00 00 00 	nop 
    1ebc:	01 00 00 00 	nop 
    1ec0:	01 00 00 00 	nop 
    1ec4:	01 00 00 00 	nop 
    1ec8:	01 00 00 00 	nop 
    1ecc:	01 00 00 00 	nop 
    1ed0:	01 00 00 00 	nop 
    1ed4:	01 00 00 00 	nop 
    1ed8:	01 00 00 00 	nop 
    1edc:	01 00 00 00 	nop 
    1ee0:	01 00 00 00 	nop 
    1ee4:	01 00 00 00 	nop 
    1ee8:	01 00 00 00 	nop 
    1eec:	01 00 00 00 	nop 
    1ef0:	01 00 00 00 	nop 
    1ef4:	01 00 00 00 	nop 
    1ef8:	01 00 00 00 	nop 
    1efc:	01 00 00 00 	nop 
    1f00:	01 00 00 00 	nop 
    1f04:	01 00 00 00 	nop 
    1f08:	01 00 00 00 	nop 
    1f0c:	01 00 00 00 	nop 
    1f10:	01 00 00 00 	nop 
    1f14:	01 00 00 00 	nop 
    1f18:	01 00 00 00 	nop 
    1f1c:	01 00 00 00 	nop 
    1f20:	01 00 00 00 	nop 
    1f24:	01 00 00 00 	nop 
    1f28:	01 00 00 00 	nop 
    1f2c:	01 00 00 00 	nop 
    1f30:	01 00 00 00 	nop 
    1f34:	01 00 00 00 	nop 
    1f38:	01 00 00 00 	nop 
    1f3c:	01 00 00 00 	nop 
    1f40:	01 00 00 00 	nop 
    1f44:	01 00 00 00 	nop 
    1f48:	01 00 00 00 	nop 
    1f4c:	01 00 00 00 	nop 
    1f50:	01 00 00 00 	nop 
    1f54:	01 00 00 00 	nop 
    1f58:	01 00 00 00 	nop 
    1f5c:	01 00 00 00 	nop 
    1f60:	01 00 00 00 	nop 
    1f64:	01 00 00 00 	nop 
    1f68:	01 00 00 00 	nop 
    1f6c:	01 00 00 00 	nop 
    1f70:	01 00 00 00 	nop 
    1f74:	01 00 00 00 	nop 
    1f78:	01 00 00 00 	nop 
    1f7c:	01 00 00 00 	nop 
    1f80:	01 00 00 00 	nop 
    1f84:	01 00 00 00 	nop 
    1f88:	01 00 00 00 	nop 
    1f8c:	01 00 00 00 	nop 
    1f90:	01 00 00 00 	nop 
    1f94:	01 00 00 00 	nop 
    1f98:	01 00 00 00 	nop 
    1f9c:	01 00 00 00 	nop 
    1fa0:	01 00 00 00 	nop 
    1fa4:	01 00 00 00 	nop 
    1fa8:	01 00 00 00 	nop 
    1fac:	01 00 00 00 	nop 
    1fb0:	01 00 00 00 	nop 
    1fb4:	01 00 00 00 	nop 
    1fb8:	01 00 00 00 	nop 
    1fbc:	01 00 00 00 	nop 
    1fc0:	01 00 00 00 	nop 
    1fc4:	01 00 00 00 	nop 
    1fc8:	01 00 00 00 	nop 
    1fcc:	01 00 00 00 	nop 
    1fd0:	01 00 00 00 	nop 
    1fd4:	01 00 00 00 	nop 
    1fd8:	01 00 00 00 	nop 
    1fdc:	01 00 00 00 	nop 
    1fe0:	01 00 00 00 	nop 
    1fe4:	01 00 00 00 	nop 
    1fe8:	01 00 00 00 	nop 
    1fec:	01 00 00 00 	nop 
    1ff0:	01 00 00 00 	nop 
    1ff4:	01 00 00 00 	nop 
    1ff8:	01 00 00 00 	nop 
    1ffc:	01 00 00 00 	nop 

00002000 <trap_table_base>:
    2000:	91 d0 20 00 	ta  0
    2004:	01 00 00 00 	nop 
    2008:	01 00 00 00 	nop 
    200c:	01 00 00 00 	nop 

00002010 <HW_trap_0x01>:
    2010:	91 d0 20 00 	ta  0
    2014:	01 00 00 00 	nop 
    2018:	01 00 00 00 	nop 
    201c:	01 00 00 00 	nop 

00002020 <HW_trap_0x02>:
    2020:	91 d0 20 00 	ta  0
    2024:	01 00 00 00 	nop 
    2028:	01 00 00 00 	nop 
    202c:	01 00 00 00 	nop 

00002030 <HW_trap_0x03>:
    2030:	91 d0 20 00 	ta  0
    2034:	01 00 00 00 	nop 
    2038:	01 00 00 00 	nop 
    203c:	01 00 00 00 	nop 

00002040 <HW_trap_0x04>:
    2040:	91 d0 20 00 	ta  0
    2044:	01 00 00 00 	nop 
    2048:	01 00 00 00 	nop 
    204c:	01 00 00 00 	nop 

00002050 <HW_trap_0x05>:
    2050:	10 bf fb ec 	b  1000 <window_overflow_trap_handler>
    2054:	01 00 00 00 	nop 
    2058:	01 00 00 00 	nop 
    205c:	01 00 00 00 	nop 

00002060 <HW_trap_0x06>:
    2060:	10 bf fc 01 	b  1064 <window_underflow_trap_handler>
    2064:	01 00 00 00 	nop 
    2068:	01 00 00 00 	nop 
    206c:	01 00 00 00 	nop 

00002070 <HW_trap_0x07>:
    2070:	91 d0 20 00 	ta  0
    2074:	01 00 00 00 	nop 
    2078:	01 00 00 00 	nop 
    207c:	01 00 00 00 	nop 

00002080 <HW_trap_0x08>:
    2080:	91 d0 20 00 	ta  0
    2084:	01 00 00 00 	nop 
    2088:	01 00 00 00 	nop 
    208c:	01 00 00 00 	nop 

00002090 <HW_trap_0x09>:
    2090:	91 d0 20 00 	ta  0
    2094:	01 00 00 00 	nop 
    2098:	01 00 00 00 	nop 
    209c:	01 00 00 00 	nop 

000020a0 <HW_trap_0x0a>:
    20a0:	91 d0 20 00 	ta  0
    20a4:	01 00 00 00 	nop 
    20a8:	01 00 00 00 	nop 
    20ac:	01 00 00 00 	nop 

000020b0 <HW_trap_0x0b>:
    20b0:	91 d0 20 00 	ta  0
    20b4:	01 00 00 00 	nop 
    20b8:	01 00 00 00 	nop 
    20bc:	01 00 00 00 	nop 

000020c0 <HW_trap_0x0c>:
    20c0:	91 d0 20 00 	ta  0
    20c4:	01 00 00 00 	nop 
    20c8:	01 00 00 00 	nop 
    20cc:	01 00 00 00 	nop 

000020d0 <HW_trap_0x0d>:
    20d0:	91 d0 20 00 	ta  0
    20d4:	01 00 00 00 	nop 
    20d8:	01 00 00 00 	nop 
    20dc:	01 00 00 00 	nop 

000020e0 <HW_trap_0x0e>:
    20e0:	91 d0 20 00 	ta  0
    20e4:	01 00 00 00 	nop 
    20e8:	01 00 00 00 	nop 
    20ec:	01 00 00 00 	nop 

000020f0 <HW_trap_0x0f>:
    20f0:	91 d0 20 00 	ta  0
    20f4:	01 00 00 00 	nop 
    20f8:	01 00 00 00 	nop 
    20fc:	01 00 00 00 	nop 

00002100 <HW_trap_0x10>:
    2100:	91 d0 20 00 	ta  0
    2104:	01 00 00 00 	nop 
    2108:	01 00 00 00 	nop 
    210c:	01 00 00 00 	nop 

00002110 <HW_trap_0x11>:
    2110:	91 d0 20 00 	ta  0
    2114:	01 00 00 00 	nop 
    2118:	01 00 00 00 	nop 
    211c:	01 00 00 00 	nop 

00002120 <HW_trap_0x12>:
    2120:	91 d0 20 00 	ta  0
    2124:	01 00 00 00 	nop 
    2128:	01 00 00 00 	nop 
    212c:	01 00 00 00 	nop 

00002130 <HW_trap_0x13>:
    2130:	91 d0 20 00 	ta  0
    2134:	01 00 00 00 	nop 
    2138:	01 00 00 00 	nop 
    213c:	01 00 00 00 	nop 

00002140 <HW_trap_0x14>:
    2140:	91 d0 20 00 	ta  0
    2144:	01 00 00 00 	nop 
    2148:	01 00 00 00 	nop 
    214c:	01 00 00 00 	nop 

00002150 <HW_trap_0x15>:
    2150:	91 d0 20 00 	ta  0
    2154:	01 00 00 00 	nop 
    2158:	01 00 00 00 	nop 
    215c:	01 00 00 00 	nop 

00002160 <HW_trap_0x16>:
    2160:	91 d0 20 00 	ta  0
    2164:	01 00 00 00 	nop 
    2168:	01 00 00 00 	nop 
    216c:	01 00 00 00 	nop 

00002170 <HW_trap_0x17>:
    2170:	91 d0 20 00 	ta  0
    2174:	01 00 00 00 	nop 
    2178:	01 00 00 00 	nop 
    217c:	01 00 00 00 	nop 

00002180 <HW_trap_0x18>:
    2180:	91 d0 20 00 	ta  0
    2184:	01 00 00 00 	nop 
    2188:	01 00 00 00 	nop 
    218c:	01 00 00 00 	nop 

00002190 <HW_trap_0x19>:
    2190:	91 d0 20 00 	ta  0
    2194:	01 00 00 00 	nop 
    2198:	01 00 00 00 	nop 
    219c:	01 00 00 00 	nop 

000021a0 <HW_trap_0x1a>:
    21a0:	91 d0 20 00 	ta  0
    21a4:	01 00 00 00 	nop 
    21a8:	01 00 00 00 	nop 
    21ac:	01 00 00 00 	nop 

000021b0 <HW_trap_0x1b>:
    21b0:	91 d0 20 00 	ta  0
    21b4:	01 00 00 00 	nop 
    21b8:	01 00 00 00 	nop 
    21bc:	01 00 00 00 	nop 

000021c0 <HW_trap_0x1c>:
    21c0:	91 d0 20 00 	ta  0
    21c4:	01 00 00 00 	nop 
    21c8:	01 00 00 00 	nop 
    21cc:	01 00 00 00 	nop 

000021d0 <HW_trap_0x1d>:
    21d0:	91 d0 20 00 	ta  0
    21d4:	01 00 00 00 	nop 
    21d8:	01 00 00 00 	nop 
    21dc:	01 00 00 00 	nop 

000021e0 <HW_trap_0x1e>:
    21e0:	91 d0 20 00 	ta  0
    21e4:	01 00 00 00 	nop 
    21e8:	01 00 00 00 	nop 
    21ec:	01 00 00 00 	nop 

000021f0 <HW_trap_0x1f>:
    21f0:	91 d0 20 00 	ta  0
    21f4:	01 00 00 00 	nop 
    21f8:	01 00 00 00 	nop 
    21fc:	01 00 00 00 	nop 

00002200 <HW_trap_0x20>:
    2200:	91 d0 20 00 	ta  0
    2204:	01 00 00 00 	nop 
    2208:	01 00 00 00 	nop 
    220c:	01 00 00 00 	nop 

00002210 <HW_trap_0x21>:
    2210:	91 d0 20 00 	ta  0
    2214:	01 00 00 00 	nop 
    2218:	01 00 00 00 	nop 
    221c:	01 00 00 00 	nop 

00002220 <HW_trap_0x22>:
    2220:	91 d0 20 00 	ta  0
    2224:	01 00 00 00 	nop 
    2228:	01 00 00 00 	nop 
    222c:	01 00 00 00 	nop 

00002230 <HW_trap_0x23>:
    2230:	91 d0 20 00 	ta  0
    2234:	01 00 00 00 	nop 
    2238:	01 00 00 00 	nop 
    223c:	01 00 00 00 	nop 

00002240 <HW_trap_0x24>:
    2240:	91 d0 20 00 	ta  0
    2244:	01 00 00 00 	nop 
    2248:	01 00 00 00 	nop 
    224c:	01 00 00 00 	nop 

00002250 <HW_trap_0x25>:
    2250:	91 d0 20 00 	ta  0
    2254:	01 00 00 00 	nop 
    2258:	01 00 00 00 	nop 
    225c:	01 00 00 00 	nop 

00002260 <HW_trap_0x26>:
    2260:	91 d0 20 00 	ta  0
    2264:	01 00 00 00 	nop 
    2268:	01 00 00 00 	nop 
    226c:	01 00 00 00 	nop 

00002270 <HW_trap_0x27>:
    2270:	91 d0 20 00 	ta  0
    2274:	01 00 00 00 	nop 
    2278:	01 00 00 00 	nop 
    227c:	01 00 00 00 	nop 

00002280 <HW_trap_0x28>:
    2280:	91 d0 20 00 	ta  0
    2284:	01 00 00 00 	nop 
    2288:	01 00 00 00 	nop 
    228c:	01 00 00 00 	nop 

00002290 <HW_trap_0x29>:
    2290:	91 d0 20 00 	ta  0
    2294:	01 00 00 00 	nop 
    2298:	01 00 00 00 	nop 
    229c:	01 00 00 00 	nop 

000022a0 <HW_trap_0x2a>:
    22a0:	91 d0 20 00 	ta  0
    22a4:	01 00 00 00 	nop 
    22a8:	01 00 00 00 	nop 
    22ac:	01 00 00 00 	nop 

000022b0 <HW_trap_0x2b>:
    22b0:	91 d0 20 00 	ta  0
    22b4:	01 00 00 00 	nop 
    22b8:	01 00 00 00 	nop 
    22bc:	01 00 00 00 	nop 

000022c0 <HW_trap_0x2c>:
    22c0:	91 d0 20 00 	ta  0
    22c4:	01 00 00 00 	nop 
    22c8:	01 00 00 00 	nop 
    22cc:	01 00 00 00 	nop 

000022d0 <HW_trap_0x2d>:
    22d0:	91 d0 20 00 	ta  0
    22d4:	01 00 00 00 	nop 
    22d8:	01 00 00 00 	nop 
    22dc:	01 00 00 00 	nop 

000022e0 <HW_trap_0x2e>:
    22e0:	91 d0 20 00 	ta  0
    22e4:	01 00 00 00 	nop 
    22e8:	01 00 00 00 	nop 
    22ec:	01 00 00 00 	nop 

000022f0 <HW_trap_0x2f>:
    22f0:	91 d0 20 00 	ta  0
    22f4:	01 00 00 00 	nop 
    22f8:	01 00 00 00 	nop 
    22fc:	01 00 00 00 	nop 

00002300 <HW_trap_0x30>:
    2300:	91 d0 20 00 	ta  0
    2304:	01 00 00 00 	nop 
    2308:	01 00 00 00 	nop 
    230c:	01 00 00 00 	nop 

00002310 <HW_trap_0x31>:
    2310:	91 d0 20 00 	ta  0
    2314:	01 00 00 00 	nop 
    2318:	01 00 00 00 	nop 
    231c:	01 00 00 00 	nop 

00002320 <HW_trap_0x32>:
    2320:	91 d0 20 00 	ta  0
    2324:	01 00 00 00 	nop 
    2328:	01 00 00 00 	nop 
    232c:	01 00 00 00 	nop 

00002330 <HW_trap_0x33>:
    2330:	91 d0 20 00 	ta  0
    2334:	01 00 00 00 	nop 
    2338:	01 00 00 00 	nop 
    233c:	01 00 00 00 	nop 

00002340 <HW_trap_0x34>:
    2340:	91 d0 20 00 	ta  0
    2344:	01 00 00 00 	nop 
    2348:	01 00 00 00 	nop 
    234c:	01 00 00 00 	nop 

00002350 <HW_trap_0x35>:
    2350:	91 d0 20 00 	ta  0
    2354:	01 00 00 00 	nop 
    2358:	01 00 00 00 	nop 
    235c:	01 00 00 00 	nop 

00002360 <HW_trap_0x36>:
    2360:	91 d0 20 00 	ta  0
    2364:	01 00 00 00 	nop 
    2368:	01 00 00 00 	nop 
    236c:	01 00 00 00 	nop 

00002370 <HW_trap_0x37>:
    2370:	91 d0 20 00 	ta  0
    2374:	01 00 00 00 	nop 
    2378:	01 00 00 00 	nop 
    237c:	01 00 00 00 	nop 

00002380 <HW_trap_0x38>:
    2380:	91 d0 20 00 	ta  0
    2384:	01 00 00 00 	nop 
    2388:	01 00 00 00 	nop 
    238c:	01 00 00 00 	nop 

00002390 <HW_trap_0x39>:
    2390:	91 d0 20 00 	ta  0
    2394:	01 00 00 00 	nop 
    2398:	01 00 00 00 	nop 
    239c:	01 00 00 00 	nop 

000023a0 <HW_trap_0x3a>:
    23a0:	91 d0 20 00 	ta  0
    23a4:	01 00 00 00 	nop 
    23a8:	01 00 00 00 	nop 
    23ac:	01 00 00 00 	nop 

000023b0 <HW_trap_0x3b>:
    23b0:	91 d0 20 00 	ta  0
    23b4:	01 00 00 00 	nop 
    23b8:	01 00 00 00 	nop 
    23bc:	01 00 00 00 	nop 

000023c0 <HW_trap_0x3c>:
    23c0:	91 d0 20 00 	ta  0
    23c4:	01 00 00 00 	nop 
    23c8:	01 00 00 00 	nop 
    23cc:	01 00 00 00 	nop 

000023d0 <HW_trap_0x3d>:
    23d0:	91 d0 20 00 	ta  0
    23d4:	01 00 00 00 	nop 
    23d8:	01 00 00 00 	nop 
    23dc:	01 00 00 00 	nop 

000023e0 <HW_trap_0x3e>:
    23e0:	91 d0 20 00 	ta  0
    23e4:	01 00 00 00 	nop 
    23e8:	01 00 00 00 	nop 
    23ec:	01 00 00 00 	nop 

000023f0 <HW_trap_0x3f>:
    23f0:	91 d0 20 00 	ta  0
    23f4:	01 00 00 00 	nop 
    23f8:	01 00 00 00 	nop 
    23fc:	01 00 00 00 	nop 

00002400 <HW_trap_0x40>:
    2400:	91 d0 20 00 	ta  0
    2404:	01 00 00 00 	nop 
    2408:	01 00 00 00 	nop 
    240c:	01 00 00 00 	nop 

00002410 <HW_trap_0x41>:
    2410:	91 d0 20 00 	ta  0
    2414:	01 00 00 00 	nop 
    2418:	01 00 00 00 	nop 
    241c:	01 00 00 00 	nop 

00002420 <HW_trap_0x42>:
    2420:	91 d0 20 00 	ta  0
    2424:	01 00 00 00 	nop 
    2428:	01 00 00 00 	nop 
    242c:	01 00 00 00 	nop 

00002430 <HW_trap_0x43>:
    2430:	91 d0 20 00 	ta  0
    2434:	01 00 00 00 	nop 
    2438:	01 00 00 00 	nop 
    243c:	01 00 00 00 	nop 

00002440 <HW_trap_0x44>:
    2440:	91 d0 20 00 	ta  0
    2444:	01 00 00 00 	nop 
    2448:	01 00 00 00 	nop 
    244c:	01 00 00 00 	nop 

00002450 <HW_trap_0x45>:
    2450:	91 d0 20 00 	ta  0
    2454:	01 00 00 00 	nop 
    2458:	01 00 00 00 	nop 
    245c:	01 00 00 00 	nop 

00002460 <HW_trap_0x46>:
    2460:	91 d0 20 00 	ta  0
    2464:	01 00 00 00 	nop 
    2468:	01 00 00 00 	nop 
    246c:	01 00 00 00 	nop 

00002470 <HW_trap_0x47>:
    2470:	91 d0 20 00 	ta  0
    2474:	01 00 00 00 	nop 
    2478:	01 00 00 00 	nop 
    247c:	01 00 00 00 	nop 

00002480 <HW_trap_0x48>:
    2480:	91 d0 20 00 	ta  0
    2484:	01 00 00 00 	nop 
    2488:	01 00 00 00 	nop 
    248c:	01 00 00 00 	nop 

00002490 <HW_trap_0x49>:
    2490:	91 d0 20 00 	ta  0
    2494:	01 00 00 00 	nop 
    2498:	01 00 00 00 	nop 
    249c:	01 00 00 00 	nop 

000024a0 <HW_trap_0x4a>:
    24a0:	91 d0 20 00 	ta  0
    24a4:	01 00 00 00 	nop 
    24a8:	01 00 00 00 	nop 
    24ac:	01 00 00 00 	nop 

000024b0 <HW_trap_0x4b>:
    24b0:	91 d0 20 00 	ta  0
    24b4:	01 00 00 00 	nop 
    24b8:	01 00 00 00 	nop 
    24bc:	01 00 00 00 	nop 

000024c0 <HW_trap_0x4c>:
    24c0:	91 d0 20 00 	ta  0
    24c4:	01 00 00 00 	nop 
    24c8:	01 00 00 00 	nop 
    24cc:	01 00 00 00 	nop 

000024d0 <HW_trap_0x4d>:
    24d0:	91 d0 20 00 	ta  0
    24d4:	01 00 00 00 	nop 
    24d8:	01 00 00 00 	nop 
    24dc:	01 00 00 00 	nop 

000024e0 <HW_trap_0x4e>:
    24e0:	91 d0 20 00 	ta  0
    24e4:	01 00 00 00 	nop 
    24e8:	01 00 00 00 	nop 
    24ec:	01 00 00 00 	nop 

000024f0 <HW_trap_0x4f>:
    24f0:	91 d0 20 00 	ta  0
    24f4:	01 00 00 00 	nop 
    24f8:	01 00 00 00 	nop 
    24fc:	01 00 00 00 	nop 

00002500 <HW_trap_0x50>:
    2500:	91 d0 20 00 	ta  0
    2504:	01 00 00 00 	nop 
    2508:	01 00 00 00 	nop 
    250c:	01 00 00 00 	nop 

00002510 <HW_trap_0x51>:
    2510:	91 d0 20 00 	ta  0
    2514:	01 00 00 00 	nop 
    2518:	01 00 00 00 	nop 
    251c:	01 00 00 00 	nop 

00002520 <HW_trap_0x52>:
    2520:	91 d0 20 00 	ta  0
    2524:	01 00 00 00 	nop 
    2528:	01 00 00 00 	nop 
    252c:	01 00 00 00 	nop 

00002530 <HW_trap_0x53>:
    2530:	91 d0 20 00 	ta  0
    2534:	01 00 00 00 	nop 
    2538:	01 00 00 00 	nop 
    253c:	01 00 00 00 	nop 

00002540 <HW_trap_0x54>:
    2540:	91 d0 20 00 	ta  0
    2544:	01 00 00 00 	nop 
    2548:	01 00 00 00 	nop 
    254c:	01 00 00 00 	nop 

00002550 <HW_trap_0x55>:
    2550:	91 d0 20 00 	ta  0
    2554:	01 00 00 00 	nop 
    2558:	01 00 00 00 	nop 
    255c:	01 00 00 00 	nop 

00002560 <HW_trap_0x56>:
    2560:	91 d0 20 00 	ta  0
    2564:	01 00 00 00 	nop 
    2568:	01 00 00 00 	nop 
    256c:	01 00 00 00 	nop 

00002570 <HW_trap_0x57>:
    2570:	91 d0 20 00 	ta  0
    2574:	01 00 00 00 	nop 
    2578:	01 00 00 00 	nop 
    257c:	01 00 00 00 	nop 

00002580 <HW_trap_0x58>:
    2580:	91 d0 20 00 	ta  0
    2584:	01 00 00 00 	nop 
    2588:	01 00 00 00 	nop 
    258c:	01 00 00 00 	nop 

00002590 <HW_trap_0x59>:
    2590:	91 d0 20 00 	ta  0
    2594:	01 00 00 00 	nop 
    2598:	01 00 00 00 	nop 
    259c:	01 00 00 00 	nop 

000025a0 <HW_trap_0x5a>:
    25a0:	91 d0 20 00 	ta  0
    25a4:	01 00 00 00 	nop 
    25a8:	01 00 00 00 	nop 
    25ac:	01 00 00 00 	nop 

000025b0 <HW_trap_0x5b>:
    25b0:	91 d0 20 00 	ta  0
    25b4:	01 00 00 00 	nop 
    25b8:	01 00 00 00 	nop 
    25bc:	01 00 00 00 	nop 

000025c0 <HW_trap_0x5c>:
    25c0:	91 d0 20 00 	ta  0
    25c4:	01 00 00 00 	nop 
    25c8:	01 00 00 00 	nop 
    25cc:	01 00 00 00 	nop 

000025d0 <HW_trap_0x5d>:
    25d0:	91 d0 20 00 	ta  0
    25d4:	01 00 00 00 	nop 
    25d8:	01 00 00 00 	nop 
    25dc:	01 00 00 00 	nop 

000025e0 <HW_trap_0x5e>:
    25e0:	91 d0 20 00 	ta  0
    25e4:	01 00 00 00 	nop 
    25e8:	01 00 00 00 	nop 
    25ec:	01 00 00 00 	nop 

000025f0 <HW_trap_0x5f>:
    25f0:	91 d0 20 00 	ta  0
    25f4:	01 00 00 00 	nop 
    25f8:	01 00 00 00 	nop 
    25fc:	01 00 00 00 	nop 

00002600 <HW_trap_0x60>:
    2600:	91 d0 20 00 	ta  0
    2604:	01 00 00 00 	nop 
    2608:	01 00 00 00 	nop 
    260c:	01 00 00 00 	nop 

00002610 <HW_trap_0x61>:
    2610:	91 d0 20 00 	ta  0
    2614:	01 00 00 00 	nop 
    2618:	01 00 00 00 	nop 
    261c:	01 00 00 00 	nop 

00002620 <HW_trap_0x62>:
    2620:	91 d0 20 00 	ta  0
    2624:	01 00 00 00 	nop 
    2628:	01 00 00 00 	nop 
    262c:	01 00 00 00 	nop 

00002630 <HW_trap_0x63>:
    2630:	91 d0 20 00 	ta  0
    2634:	01 00 00 00 	nop 
    2638:	01 00 00 00 	nop 
    263c:	01 00 00 00 	nop 

00002640 <HW_trap_0x64>:
    2640:	91 d0 20 00 	ta  0
    2644:	01 00 00 00 	nop 
    2648:	01 00 00 00 	nop 
    264c:	01 00 00 00 	nop 

00002650 <HW_trap_0x65>:
    2650:	91 d0 20 00 	ta  0
    2654:	01 00 00 00 	nop 
    2658:	01 00 00 00 	nop 
    265c:	01 00 00 00 	nop 

00002660 <HW_trap_0x66>:
    2660:	91 d0 20 00 	ta  0
    2664:	01 00 00 00 	nop 
    2668:	01 00 00 00 	nop 
    266c:	01 00 00 00 	nop 

00002670 <HW_trap_0x67>:
    2670:	91 d0 20 00 	ta  0
    2674:	01 00 00 00 	nop 
    2678:	01 00 00 00 	nop 
    267c:	01 00 00 00 	nop 

00002680 <HW_trap_0x68>:
    2680:	91 d0 20 00 	ta  0
    2684:	01 00 00 00 	nop 
    2688:	01 00 00 00 	nop 
    268c:	01 00 00 00 	nop 

00002690 <HW_trap_0x69>:
    2690:	91 d0 20 00 	ta  0
    2694:	01 00 00 00 	nop 
    2698:	01 00 00 00 	nop 
    269c:	01 00 00 00 	nop 

000026a0 <HW_trap_0x6a>:
    26a0:	91 d0 20 00 	ta  0
    26a4:	01 00 00 00 	nop 
    26a8:	01 00 00 00 	nop 
    26ac:	01 00 00 00 	nop 

000026b0 <HW_trap_0x6b>:
    26b0:	91 d0 20 00 	ta  0
    26b4:	01 00 00 00 	nop 
    26b8:	01 00 00 00 	nop 
    26bc:	01 00 00 00 	nop 

000026c0 <HW_trap_0x6c>:
    26c0:	91 d0 20 00 	ta  0
    26c4:	01 00 00 00 	nop 
    26c8:	01 00 00 00 	nop 
    26cc:	01 00 00 00 	nop 

000026d0 <HW_trap_0x6d>:
    26d0:	91 d0 20 00 	ta  0
    26d4:	01 00 00 00 	nop 
    26d8:	01 00 00 00 	nop 
    26dc:	01 00 00 00 	nop 

000026e0 <HW_trap_0x6e>:
    26e0:	91 d0 20 00 	ta  0
    26e4:	01 00 00 00 	nop 
    26e8:	01 00 00 00 	nop 
    26ec:	01 00 00 00 	nop 

000026f0 <HW_trap_0x6f>:
    26f0:	91 d0 20 00 	ta  0
    26f4:	01 00 00 00 	nop 
    26f8:	01 00 00 00 	nop 
    26fc:	01 00 00 00 	nop 

00002700 <HW_trap_0x70>:
    2700:	91 d0 20 00 	ta  0
    2704:	01 00 00 00 	nop 
    2708:	01 00 00 00 	nop 
    270c:	01 00 00 00 	nop 

00002710 <HW_trap_0x71>:
    2710:	91 d0 20 00 	ta  0
    2714:	01 00 00 00 	nop 
    2718:	01 00 00 00 	nop 
    271c:	01 00 00 00 	nop 

00002720 <HW_trap_0x72>:
    2720:	91 d0 20 00 	ta  0
    2724:	01 00 00 00 	nop 
    2728:	01 00 00 00 	nop 
    272c:	01 00 00 00 	nop 

00002730 <HW_trap_0x73>:
    2730:	91 d0 20 00 	ta  0
    2734:	01 00 00 00 	nop 
    2738:	01 00 00 00 	nop 
    273c:	01 00 00 00 	nop 

00002740 <HW_trap_0x74>:
    2740:	91 d0 20 00 	ta  0
    2744:	01 00 00 00 	nop 
    2748:	01 00 00 00 	nop 
    274c:	01 00 00 00 	nop 

00002750 <HW_trap_0x75>:
    2750:	91 d0 20 00 	ta  0
    2754:	01 00 00 00 	nop 
    2758:	01 00 00 00 	nop 
    275c:	01 00 00 00 	nop 

00002760 <HW_trap_0x76>:
    2760:	91 d0 20 00 	ta  0
    2764:	01 00 00 00 	nop 
    2768:	01 00 00 00 	nop 
    276c:	01 00 00 00 	nop 

00002770 <HW_trap_0x77>:
    2770:	91 d0 20 00 	ta  0
    2774:	01 00 00 00 	nop 
    2778:	01 00 00 00 	nop 
    277c:	01 00 00 00 	nop 

00002780 <HW_trap_0x78>:
    2780:	91 d0 20 00 	ta  0
    2784:	01 00 00 00 	nop 
    2788:	01 00 00 00 	nop 
    278c:	01 00 00 00 	nop 

00002790 <HW_trap_0x79>:
    2790:	91 d0 20 00 	ta  0
    2794:	01 00 00 00 	nop 
    2798:	01 00 00 00 	nop 
    279c:	01 00 00 00 	nop 

000027a0 <HW_trap_0x7a>:
    27a0:	91 d0 20 00 	ta  0
    27a4:	01 00 00 00 	nop 
    27a8:	01 00 00 00 	nop 
    27ac:	01 00 00 00 	nop 

000027b0 <HW_trap_0x7b>:
    27b0:	91 d0 20 00 	ta  0
    27b4:	01 00 00 00 	nop 
    27b8:	01 00 00 00 	nop 
    27bc:	01 00 00 00 	nop 

000027c0 <HW_trap_0x7c>:
    27c0:	91 d0 20 00 	ta  0
    27c4:	01 00 00 00 	nop 
    27c8:	01 00 00 00 	nop 
    27cc:	01 00 00 00 	nop 

000027d0 <HW_trap_0x7d>:
    27d0:	91 d0 20 00 	ta  0
    27d4:	01 00 00 00 	nop 
    27d8:	01 00 00 00 	nop 
    27dc:	01 00 00 00 	nop 

000027e0 <HW_trap_0x7e>:
    27e0:	91 d0 20 00 	ta  0
    27e4:	01 00 00 00 	nop 
    27e8:	01 00 00 00 	nop 
    27ec:	01 00 00 00 	nop 

000027f0 <HW_trap_0x7f>:
    27f0:	91 d0 20 00 	ta  0
    27f4:	01 00 00 00 	nop 
    27f8:	01 00 00 00 	nop 
    27fc:	01 00 00 00 	nop 

00002800 <SW_trap_0x80>:
    2800:	91 d0 20 00 	ta  0
    2804:	01 00 00 00 	nop 
    2808:	01 00 00 00 	nop 
    280c:	01 00 00 00 	nop 

00002810 <SW_trap_0x81>:
    2810:	91 d0 20 00 	ta  0
    2814:	01 00 00 00 	nop 
    2818:	01 00 00 00 	nop 
    281c:	01 00 00 00 	nop 

00002820 <SW_trap_0x82>:
    2820:	91 d0 20 00 	ta  0
    2824:	01 00 00 00 	nop 
    2828:	01 00 00 00 	nop 
    282c:	01 00 00 00 	nop 

00002830 <SW_trap_0x83>:
    2830:	91 d0 20 00 	ta  0
    2834:	01 00 00 00 	nop 
    2838:	01 00 00 00 	nop 
    283c:	01 00 00 00 	nop 

00002840 <SW_trap_0x84>:
    2840:	91 d0 20 00 	ta  0
    2844:	01 00 00 00 	nop 
    2848:	01 00 00 00 	nop 
    284c:	01 00 00 00 	nop 

00002850 <SW_trap_0x85>:
    2850:	91 d0 20 00 	ta  0
    2854:	01 00 00 00 	nop 
    2858:	01 00 00 00 	nop 
    285c:	01 00 00 00 	nop 

00002860 <SW_trap_0x86>:
    2860:	91 d0 20 00 	ta  0
    2864:	01 00 00 00 	nop 
    2868:	01 00 00 00 	nop 
    286c:	01 00 00 00 	nop 

00002870 <SW_trap_0x87>:
    2870:	91 d0 20 00 	ta  0
    2874:	01 00 00 00 	nop 
    2878:	01 00 00 00 	nop 
    287c:	01 00 00 00 	nop 

00002880 <SW_trap_0x88>:
    2880:	91 d0 20 00 	ta  0
    2884:	01 00 00 00 	nop 
    2888:	01 00 00 00 	nop 
    288c:	01 00 00 00 	nop 

00002890 <SW_trap_0x89>:
    2890:	91 d0 20 00 	ta  0
    2894:	01 00 00 00 	nop 
    2898:	01 00 00 00 	nop 
    289c:	01 00 00 00 	nop 

000028a0 <SW_trap_0x8a>:
    28a0:	91 d0 20 00 	ta  0
    28a4:	01 00 00 00 	nop 
    28a8:	01 00 00 00 	nop 
    28ac:	01 00 00 00 	nop 

000028b0 <SW_trap_0x8b>:
    28b0:	91 d0 20 00 	ta  0
    28b4:	01 00 00 00 	nop 
    28b8:	01 00 00 00 	nop 
    28bc:	01 00 00 00 	nop 

000028c0 <SW_trap_0x8c>:
    28c0:	91 d0 20 00 	ta  0
    28c4:	01 00 00 00 	nop 
    28c8:	01 00 00 00 	nop 
    28cc:	01 00 00 00 	nop 

000028d0 <SW_trap_0x8d>:
    28d0:	91 d0 20 00 	ta  0
    28d4:	01 00 00 00 	nop 
    28d8:	01 00 00 00 	nop 
    28dc:	01 00 00 00 	nop 

000028e0 <SW_trap_0x8e>:
    28e0:	91 d0 20 00 	ta  0
    28e4:	01 00 00 00 	nop 
    28e8:	01 00 00 00 	nop 
    28ec:	01 00 00 00 	nop 

000028f0 <SW_trap_0x8f>:
    28f0:	91 d0 20 00 	ta  0
    28f4:	01 00 00 00 	nop 
    28f8:	01 00 00 00 	nop 
    28fc:	01 00 00 00 	nop 

00002900 <SW_trap_0x90>:
    2900:	91 d0 20 00 	ta  0
    2904:	01 00 00 00 	nop 
    2908:	01 00 00 00 	nop 
    290c:	01 00 00 00 	nop 

00002910 <SW_trap_0x91>:
    2910:	91 d0 20 00 	ta  0
    2914:	01 00 00 00 	nop 
    2918:	01 00 00 00 	nop 
    291c:	01 00 00 00 	nop 

00002920 <SW_trap_0x92>:
    2920:	91 d0 20 00 	ta  0
    2924:	01 00 00 00 	nop 
    2928:	01 00 00 00 	nop 
    292c:	01 00 00 00 	nop 

00002930 <SW_trap_0x93>:
    2930:	91 d0 20 00 	ta  0
    2934:	01 00 00 00 	nop 
    2938:	01 00 00 00 	nop 
    293c:	01 00 00 00 	nop 

00002940 <SW_trap_0x94>:
    2940:	91 d0 20 00 	ta  0
    2944:	01 00 00 00 	nop 
    2948:	01 00 00 00 	nop 
    294c:	01 00 00 00 	nop 

00002950 <SW_trap_0x95>:
    2950:	91 d0 20 00 	ta  0
    2954:	01 00 00 00 	nop 
    2958:	01 00 00 00 	nop 
    295c:	01 00 00 00 	nop 

00002960 <SW_trap_0x96>:
    2960:	91 d0 20 00 	ta  0
    2964:	01 00 00 00 	nop 
    2968:	01 00 00 00 	nop 
    296c:	01 00 00 00 	nop 

00002970 <SW_trap_0x97>:
    2970:	91 d0 20 00 	ta  0
    2974:	01 00 00 00 	nop 
    2978:	01 00 00 00 	nop 
    297c:	01 00 00 00 	nop 

00002980 <SW_trap_0x98>:
    2980:	91 d0 20 00 	ta  0
    2984:	01 00 00 00 	nop 
    2988:	01 00 00 00 	nop 
    298c:	01 00 00 00 	nop 

00002990 <SW_trap_0x99>:
    2990:	91 d0 20 00 	ta  0
    2994:	01 00 00 00 	nop 
    2998:	01 00 00 00 	nop 
    299c:	01 00 00 00 	nop 

000029a0 <SW_trap_0x9a>:
    29a0:	91 d0 20 00 	ta  0
    29a4:	01 00 00 00 	nop 
    29a8:	01 00 00 00 	nop 
    29ac:	01 00 00 00 	nop 

000029b0 <SW_trap_0x9b>:
    29b0:	91 d0 20 00 	ta  0
    29b4:	01 00 00 00 	nop 
    29b8:	01 00 00 00 	nop 
    29bc:	01 00 00 00 	nop 

000029c0 <SW_trap_0x9c>:
    29c0:	91 d0 20 00 	ta  0
    29c4:	01 00 00 00 	nop 
    29c8:	01 00 00 00 	nop 
    29cc:	01 00 00 00 	nop 

000029d0 <SW_trap_0x9d>:
    29d0:	91 d0 20 00 	ta  0
    29d4:	01 00 00 00 	nop 
    29d8:	01 00 00 00 	nop 
    29dc:	01 00 00 00 	nop 

000029e0 <SW_trap_0x9e>:
    29e0:	91 d0 20 00 	ta  0
    29e4:	01 00 00 00 	nop 
    29e8:	01 00 00 00 	nop 
    29ec:	01 00 00 00 	nop 

000029f0 <SW_trap_0x9f>:
    29f0:	91 d0 20 00 	ta  0
    29f4:	01 00 00 00 	nop 
    29f8:	01 00 00 00 	nop 
    29fc:	01 00 00 00 	nop 

00002a00 <SW_trap_0xa0>:
    2a00:	91 d0 20 00 	ta  0
    2a04:	01 00 00 00 	nop 
    2a08:	01 00 00 00 	nop 
    2a0c:	01 00 00 00 	nop 

00002a10 <SW_trap_0xa1>:
    2a10:	91 d0 20 00 	ta  0
    2a14:	01 00 00 00 	nop 
    2a18:	01 00 00 00 	nop 
    2a1c:	01 00 00 00 	nop 

00002a20 <SW_trap_0xa2>:
    2a20:	91 d0 20 00 	ta  0
    2a24:	01 00 00 00 	nop 
    2a28:	01 00 00 00 	nop 
    2a2c:	01 00 00 00 	nop 

00002a30 <SW_trap_0xa3>:
    2a30:	91 d0 20 00 	ta  0
    2a34:	01 00 00 00 	nop 
    2a38:	01 00 00 00 	nop 
    2a3c:	01 00 00 00 	nop 

00002a40 <SW_trap_0xa4>:
    2a40:	91 d0 20 00 	ta  0
    2a44:	01 00 00 00 	nop 
    2a48:	01 00 00 00 	nop 
    2a4c:	01 00 00 00 	nop 

00002a50 <SW_trap_0xa5>:
    2a50:	91 d0 20 00 	ta  0
    2a54:	01 00 00 00 	nop 
    2a58:	01 00 00 00 	nop 
    2a5c:	01 00 00 00 	nop 

00002a60 <SW_trap_0xa6>:
    2a60:	91 d0 20 00 	ta  0
    2a64:	01 00 00 00 	nop 
    2a68:	01 00 00 00 	nop 
    2a6c:	01 00 00 00 	nop 

00002a70 <SW_trap_0xa7>:
    2a70:	91 d0 20 00 	ta  0
    2a74:	01 00 00 00 	nop 
    2a78:	01 00 00 00 	nop 
    2a7c:	01 00 00 00 	nop 

00002a80 <SW_trap_0xa8>:
    2a80:	91 d0 20 00 	ta  0
    2a84:	01 00 00 00 	nop 
    2a88:	01 00 00 00 	nop 
    2a8c:	01 00 00 00 	nop 

00002a90 <SW_trap_0xa9>:
    2a90:	91 d0 20 00 	ta  0
    2a94:	01 00 00 00 	nop 
    2a98:	01 00 00 00 	nop 
    2a9c:	01 00 00 00 	nop 

00002aa0 <SW_trap_0xaa>:
    2aa0:	91 d0 20 00 	ta  0
    2aa4:	01 00 00 00 	nop 
    2aa8:	01 00 00 00 	nop 
    2aac:	01 00 00 00 	nop 

00002ab0 <SW_trap_0xab>:
    2ab0:	91 d0 20 00 	ta  0
    2ab4:	01 00 00 00 	nop 
    2ab8:	01 00 00 00 	nop 
    2abc:	01 00 00 00 	nop 

00002ac0 <SW_trap_0xac>:
    2ac0:	91 d0 20 00 	ta  0
    2ac4:	01 00 00 00 	nop 
    2ac8:	01 00 00 00 	nop 
    2acc:	01 00 00 00 	nop 

00002ad0 <SW_trap_0xad>:
    2ad0:	91 d0 20 00 	ta  0
    2ad4:	01 00 00 00 	nop 
    2ad8:	01 00 00 00 	nop 
    2adc:	01 00 00 00 	nop 

00002ae0 <SW_trap_0xae>:
    2ae0:	91 d0 20 00 	ta  0
    2ae4:	01 00 00 00 	nop 
    2ae8:	01 00 00 00 	nop 
    2aec:	01 00 00 00 	nop 

00002af0 <SW_trap_0xaf>:
    2af0:	91 d0 20 00 	ta  0
    2af4:	01 00 00 00 	nop 
    2af8:	01 00 00 00 	nop 
    2afc:	01 00 00 00 	nop 

00002b00 <SW_trap_0xb0>:
    2b00:	91 d0 20 00 	ta  0
    2b04:	01 00 00 00 	nop 
    2b08:	01 00 00 00 	nop 
    2b0c:	01 00 00 00 	nop 

00002b10 <SW_trap_0xb1>:
    2b10:	91 d0 20 00 	ta  0
    2b14:	01 00 00 00 	nop 
    2b18:	01 00 00 00 	nop 
    2b1c:	01 00 00 00 	nop 

00002b20 <SW_trap_0xb2>:
    2b20:	91 d0 20 00 	ta  0
    2b24:	01 00 00 00 	nop 
    2b28:	01 00 00 00 	nop 
    2b2c:	01 00 00 00 	nop 

00002b30 <SW_trap_0xb3>:
    2b30:	91 d0 20 00 	ta  0
    2b34:	01 00 00 00 	nop 
    2b38:	01 00 00 00 	nop 
    2b3c:	01 00 00 00 	nop 

00002b40 <SW_trap_0xb4>:
    2b40:	91 d0 20 00 	ta  0
    2b44:	01 00 00 00 	nop 
    2b48:	01 00 00 00 	nop 
    2b4c:	01 00 00 00 	nop 

00002b50 <SW_trap_0xb5>:
    2b50:	91 d0 20 00 	ta  0
    2b54:	01 00 00 00 	nop 
    2b58:	01 00 00 00 	nop 
    2b5c:	01 00 00 00 	nop 

00002b60 <SW_trap_0xb6>:
    2b60:	91 d0 20 00 	ta  0
    2b64:	01 00 00 00 	nop 
    2b68:	01 00 00 00 	nop 
    2b6c:	01 00 00 00 	nop 

00002b70 <SW_trap_0xb7>:
    2b70:	91 d0 20 00 	ta  0
    2b74:	01 00 00 00 	nop 
    2b78:	01 00 00 00 	nop 
    2b7c:	01 00 00 00 	nop 

00002b80 <SW_trap_0xb8>:
    2b80:	91 d0 20 00 	ta  0
    2b84:	01 00 00 00 	nop 
    2b88:	01 00 00 00 	nop 
    2b8c:	01 00 00 00 	nop 

00002b90 <SW_trap_0xb9>:
    2b90:	91 d0 20 00 	ta  0
    2b94:	01 00 00 00 	nop 
    2b98:	01 00 00 00 	nop 
    2b9c:	01 00 00 00 	nop 

00002ba0 <SW_trap_0xba>:
    2ba0:	91 d0 20 00 	ta  0
    2ba4:	01 00 00 00 	nop 
    2ba8:	01 00 00 00 	nop 
    2bac:	01 00 00 00 	nop 

00002bb0 <SW_trap_0xbb>:
    2bb0:	91 d0 20 00 	ta  0
    2bb4:	01 00 00 00 	nop 
    2bb8:	01 00 00 00 	nop 
    2bbc:	01 00 00 00 	nop 

00002bc0 <SW_trap_0xbc>:
    2bc0:	91 d0 20 00 	ta  0
    2bc4:	01 00 00 00 	nop 
    2bc8:	01 00 00 00 	nop 
    2bcc:	01 00 00 00 	nop 

00002bd0 <SW_trap_0xbd>:
    2bd0:	91 d0 20 00 	ta  0
    2bd4:	01 00 00 00 	nop 
    2bd8:	01 00 00 00 	nop 
    2bdc:	01 00 00 00 	nop 

00002be0 <SW_trap_0xbe>:
    2be0:	91 d0 20 00 	ta  0
    2be4:	01 00 00 00 	nop 
    2be8:	01 00 00 00 	nop 
    2bec:	01 00 00 00 	nop 

00002bf0 <SW_trap_0xbf>:
    2bf0:	91 d0 20 00 	ta  0
    2bf4:	01 00 00 00 	nop 
    2bf8:	01 00 00 00 	nop 
    2bfc:	01 00 00 00 	nop 

00002c00 <SW_trap_0xc0>:
    2c00:	91 d0 20 00 	ta  0
    2c04:	01 00 00 00 	nop 
    2c08:	01 00 00 00 	nop 
    2c0c:	01 00 00 00 	nop 

00002c10 <SW_trap_0xc1>:
    2c10:	91 d0 20 00 	ta  0
    2c14:	01 00 00 00 	nop 
    2c18:	01 00 00 00 	nop 
    2c1c:	01 00 00 00 	nop 

00002c20 <SW_trap_0xc2>:
    2c20:	91 d0 20 00 	ta  0
    2c24:	01 00 00 00 	nop 
    2c28:	01 00 00 00 	nop 
    2c2c:	01 00 00 00 	nop 

00002c30 <SW_trap_0xc3>:
    2c30:	91 d0 20 00 	ta  0
    2c34:	01 00 00 00 	nop 
    2c38:	01 00 00 00 	nop 
    2c3c:	01 00 00 00 	nop 

00002c40 <SW_trap_0xc4>:
    2c40:	91 d0 20 00 	ta  0
    2c44:	01 00 00 00 	nop 
    2c48:	01 00 00 00 	nop 
    2c4c:	01 00 00 00 	nop 

00002c50 <SW_trap_0xc5>:
    2c50:	91 d0 20 00 	ta  0
    2c54:	01 00 00 00 	nop 
    2c58:	01 00 00 00 	nop 
    2c5c:	01 00 00 00 	nop 

00002c60 <SW_trap_0xc6>:
    2c60:	91 d0 20 00 	ta  0
    2c64:	01 00 00 00 	nop 
    2c68:	01 00 00 00 	nop 
    2c6c:	01 00 00 00 	nop 

00002c70 <SW_trap_0xc7>:
    2c70:	91 d0 20 00 	ta  0
    2c74:	01 00 00 00 	nop 
    2c78:	01 00 00 00 	nop 
    2c7c:	01 00 00 00 	nop 

00002c80 <SW_trap_0xc8>:
    2c80:	91 d0 20 00 	ta  0
    2c84:	01 00 00 00 	nop 
    2c88:	01 00 00 00 	nop 
    2c8c:	01 00 00 00 	nop 

00002c90 <SW_trap_0xc9>:
    2c90:	91 d0 20 00 	ta  0
    2c94:	01 00 00 00 	nop 
    2c98:	01 00 00 00 	nop 
    2c9c:	01 00 00 00 	nop 

00002ca0 <SW_trap_0xca>:
    2ca0:	91 d0 20 00 	ta  0
    2ca4:	01 00 00 00 	nop 
    2ca8:	01 00 00 00 	nop 
    2cac:	01 00 00 00 	nop 

00002cb0 <SW_trap_0xcb>:
    2cb0:	91 d0 20 00 	ta  0
    2cb4:	01 00 00 00 	nop 
    2cb8:	01 00 00 00 	nop 
    2cbc:	01 00 00 00 	nop 

00002cc0 <SW_trap_0xcc>:
    2cc0:	91 d0 20 00 	ta  0
    2cc4:	01 00 00 00 	nop 
    2cc8:	01 00 00 00 	nop 
    2ccc:	01 00 00 00 	nop 

00002cd0 <SW_trap_0xcd>:
    2cd0:	91 d0 20 00 	ta  0
    2cd4:	01 00 00 00 	nop 
    2cd8:	01 00 00 00 	nop 
    2cdc:	01 00 00 00 	nop 

00002ce0 <SW_trap_0xce>:
    2ce0:	91 d0 20 00 	ta  0
    2ce4:	01 00 00 00 	nop 
    2ce8:	01 00 00 00 	nop 
    2cec:	01 00 00 00 	nop 

00002cf0 <SW_trap_0xcf>:
    2cf0:	91 d0 20 00 	ta  0
    2cf4:	01 00 00 00 	nop 
    2cf8:	01 00 00 00 	nop 
    2cfc:	01 00 00 00 	nop 

00002d00 <SW_trap_0xd0>:
    2d00:	91 d0 20 00 	ta  0
    2d04:	01 00 00 00 	nop 
    2d08:	01 00 00 00 	nop 
    2d0c:	01 00 00 00 	nop 

00002d10 <SW_trap_0xd1>:
    2d10:	91 d0 20 00 	ta  0
    2d14:	01 00 00 00 	nop 
    2d18:	01 00 00 00 	nop 
    2d1c:	01 00 00 00 	nop 

00002d20 <SW_trap_0xd2>:
    2d20:	91 d0 20 00 	ta  0
    2d24:	01 00 00 00 	nop 
    2d28:	01 00 00 00 	nop 
    2d2c:	01 00 00 00 	nop 

00002d30 <SW_trap_0xd3>:
    2d30:	91 d0 20 00 	ta  0
    2d34:	01 00 00 00 	nop 
    2d38:	01 00 00 00 	nop 
    2d3c:	01 00 00 00 	nop 

00002d40 <SW_trap_0xd4>:
    2d40:	91 d0 20 00 	ta  0
    2d44:	01 00 00 00 	nop 
    2d48:	01 00 00 00 	nop 
    2d4c:	01 00 00 00 	nop 

00002d50 <SW_trap_0xd5>:
    2d50:	91 d0 20 00 	ta  0
    2d54:	01 00 00 00 	nop 
    2d58:	01 00 00 00 	nop 
    2d5c:	01 00 00 00 	nop 

00002d60 <SW_trap_0xd6>:
    2d60:	91 d0 20 00 	ta  0
    2d64:	01 00 00 00 	nop 
    2d68:	01 00 00 00 	nop 
    2d6c:	01 00 00 00 	nop 

00002d70 <SW_trap_0xd7>:
    2d70:	91 d0 20 00 	ta  0
    2d74:	01 00 00 00 	nop 
    2d78:	01 00 00 00 	nop 
    2d7c:	01 00 00 00 	nop 

00002d80 <SW_trap_0xd8>:
    2d80:	91 d0 20 00 	ta  0
    2d84:	01 00 00 00 	nop 
    2d88:	01 00 00 00 	nop 
    2d8c:	01 00 00 00 	nop 

00002d90 <SW_trap_0xd9>:
    2d90:	91 d0 20 00 	ta  0
    2d94:	01 00 00 00 	nop 
    2d98:	01 00 00 00 	nop 
    2d9c:	01 00 00 00 	nop 

00002da0 <SW_trap_0xda>:
    2da0:	91 d0 20 00 	ta  0
    2da4:	01 00 00 00 	nop 
    2da8:	01 00 00 00 	nop 
    2dac:	01 00 00 00 	nop 

00002db0 <SW_trap_0xdb>:
    2db0:	91 d0 20 00 	ta  0
    2db4:	01 00 00 00 	nop 
    2db8:	01 00 00 00 	nop 
    2dbc:	01 00 00 00 	nop 

00002dc0 <SW_trap_0xdc>:
    2dc0:	91 d0 20 00 	ta  0
    2dc4:	01 00 00 00 	nop 
    2dc8:	01 00 00 00 	nop 
    2dcc:	01 00 00 00 	nop 

00002dd0 <SW_trap_0xdd>:
    2dd0:	91 d0 20 00 	ta  0
    2dd4:	01 00 00 00 	nop 
    2dd8:	01 00 00 00 	nop 
    2ddc:	01 00 00 00 	nop 

00002de0 <SW_trap_0xde>:
    2de0:	91 d0 20 00 	ta  0
    2de4:	01 00 00 00 	nop 
    2de8:	01 00 00 00 	nop 
    2dec:	01 00 00 00 	nop 

00002df0 <SW_trap_0xdf>:
    2df0:	91 d0 20 00 	ta  0
    2df4:	01 00 00 00 	nop 
    2df8:	01 00 00 00 	nop 
    2dfc:	01 00 00 00 	nop 

00002e00 <SW_trap_0xe0>:
    2e00:	91 d0 20 00 	ta  0
    2e04:	01 00 00 00 	nop 
    2e08:	01 00 00 00 	nop 
    2e0c:	01 00 00 00 	nop 

00002e10 <SW_trap_0xe1>:
    2e10:	91 d0 20 00 	ta  0
    2e14:	01 00 00 00 	nop 
    2e18:	01 00 00 00 	nop 
    2e1c:	01 00 00 00 	nop 

00002e20 <SW_trap_0xe2>:
    2e20:	91 d0 20 00 	ta  0
    2e24:	01 00 00 00 	nop 
    2e28:	01 00 00 00 	nop 
    2e2c:	01 00 00 00 	nop 

00002e30 <SW_trap_0xe3>:
    2e30:	91 d0 20 00 	ta  0
    2e34:	01 00 00 00 	nop 
    2e38:	01 00 00 00 	nop 
    2e3c:	01 00 00 00 	nop 

00002e40 <SW_trap_0xe4>:
    2e40:	91 d0 20 00 	ta  0
    2e44:	01 00 00 00 	nop 
    2e48:	01 00 00 00 	nop 
    2e4c:	01 00 00 00 	nop 

00002e50 <SW_trap_0xe5>:
    2e50:	91 d0 20 00 	ta  0
    2e54:	01 00 00 00 	nop 
    2e58:	01 00 00 00 	nop 
    2e5c:	01 00 00 00 	nop 

00002e60 <SW_trap_0xe6>:
    2e60:	91 d0 20 00 	ta  0
    2e64:	01 00 00 00 	nop 
    2e68:	01 00 00 00 	nop 
    2e6c:	01 00 00 00 	nop 

00002e70 <SW_trap_0xe7>:
    2e70:	91 d0 20 00 	ta  0
    2e74:	01 00 00 00 	nop 
    2e78:	01 00 00 00 	nop 
    2e7c:	01 00 00 00 	nop 

00002e80 <SW_trap_0xe8>:
    2e80:	91 d0 20 00 	ta  0
    2e84:	01 00 00 00 	nop 
    2e88:	01 00 00 00 	nop 
    2e8c:	01 00 00 00 	nop 

00002e90 <SW_trap_0xe9>:
    2e90:	91 d0 20 00 	ta  0
    2e94:	01 00 00 00 	nop 
    2e98:	01 00 00 00 	nop 
    2e9c:	01 00 00 00 	nop 

00002ea0 <SW_trap_0xea>:
    2ea0:	91 d0 20 00 	ta  0
    2ea4:	01 00 00 00 	nop 
    2ea8:	01 00 00 00 	nop 
    2eac:	01 00 00 00 	nop 

00002eb0 <SW_trap_0xeb>:
    2eb0:	91 d0 20 00 	ta  0
    2eb4:	01 00 00 00 	nop 
    2eb8:	01 00 00 00 	nop 
    2ebc:	01 00 00 00 	nop 

00002ec0 <SW_trap_0xec>:
    2ec0:	91 d0 20 00 	ta  0
    2ec4:	01 00 00 00 	nop 
    2ec8:	01 00 00 00 	nop 
    2ecc:	01 00 00 00 	nop 

00002ed0 <SW_trap_0xed>:
    2ed0:	91 d0 20 00 	ta  0
    2ed4:	01 00 00 00 	nop 
    2ed8:	01 00 00 00 	nop 
    2edc:	01 00 00 00 	nop 

00002ee0 <SW_trap_0xee>:
    2ee0:	91 d0 20 00 	ta  0
    2ee4:	01 00 00 00 	nop 
    2ee8:	01 00 00 00 	nop 
    2eec:	01 00 00 00 	nop 

00002ef0 <SW_trap_0xef>:
    2ef0:	91 d0 20 00 	ta  0
    2ef4:	01 00 00 00 	nop 
    2ef8:	01 00 00 00 	nop 
    2efc:	01 00 00 00 	nop 

00002f00 <SW_trap_0xf0>:
    2f00:	91 d0 20 00 	ta  0
    2f04:	01 00 00 00 	nop 
    2f08:	01 00 00 00 	nop 
    2f0c:	01 00 00 00 	nop 

00002f10 <SW_trap_0xf1>:
    2f10:	91 d0 20 00 	ta  0
    2f14:	01 00 00 00 	nop 
    2f18:	01 00 00 00 	nop 
    2f1c:	01 00 00 00 	nop 

00002f20 <SW_trap_0xf2>:
    2f20:	91 d0 20 00 	ta  0
    2f24:	01 00 00 00 	nop 
    2f28:	01 00 00 00 	nop 
    2f2c:	01 00 00 00 	nop 

00002f30 <SW_trap_0xf3>:
    2f30:	91 d0 20 00 	ta  0
    2f34:	01 00 00 00 	nop 
    2f38:	01 00 00 00 	nop 
    2f3c:	01 00 00 00 	nop 

00002f40 <SW_trap_0xf4>:
    2f40:	91 d0 20 00 	ta  0
    2f44:	01 00 00 00 	nop 
    2f48:	01 00 00 00 	nop 
    2f4c:	01 00 00 00 	nop 

00002f50 <SW_trap_0xf5>:
    2f50:	91 d0 20 00 	ta  0
    2f54:	01 00 00 00 	nop 
    2f58:	01 00 00 00 	nop 
    2f5c:	01 00 00 00 	nop 

00002f60 <SW_trap_0xf6>:
    2f60:	91 d0 20 00 	ta  0
    2f64:	01 00 00 00 	nop 
    2f68:	01 00 00 00 	nop 
    2f6c:	01 00 00 00 	nop 

00002f70 <SW_trap_0xf7>:
    2f70:	91 d0 20 00 	ta  0
    2f74:	01 00 00 00 	nop 
    2f78:	01 00 00 00 	nop 
    2f7c:	01 00 00 00 	nop 

00002f80 <SW_trap_0xf8>:
    2f80:	91 d0 20 00 	ta  0
    2f84:	01 00 00 00 	nop 
    2f88:	01 00 00 00 	nop 
    2f8c:	01 00 00 00 	nop 

00002f90 <SW_trap_0xf9>:
    2f90:	91 d0 20 00 	ta  0
    2f94:	01 00 00 00 	nop 
    2f98:	01 00 00 00 	nop 
    2f9c:	01 00 00 00 	nop 

00002fa0 <SW_trap_0xfa>:
    2fa0:	91 d0 20 00 	ta  0
    2fa4:	01 00 00 00 	nop 
    2fa8:	01 00 00 00 	nop 
    2fac:	01 00 00 00 	nop 

00002fb0 <SW_trap_0xfb>:
    2fb0:	91 d0 20 00 	ta  0
    2fb4:	01 00 00 00 	nop 
    2fb8:	01 00 00 00 	nop 
    2fbc:	01 00 00 00 	nop 

00002fc0 <SW_trap_0xfc>:
    2fc0:	91 d0 20 00 	ta  0
    2fc4:	01 00 00 00 	nop 
    2fc8:	01 00 00 00 	nop 
    2fcc:	01 00 00 00 	nop 

00002fd0 <SW_trap_0xfd>:
    2fd0:	91 d0 20 00 	ta  0
    2fd4:	01 00 00 00 	nop 
    2fd8:	01 00 00 00 	nop 
    2fdc:	01 00 00 00 	nop 

00002fe0 <SW_trap_0xfe>:
    2fe0:	91 d0 20 00 	ta  0
    2fe4:	01 00 00 00 	nop 
    2fe8:	01 00 00 00 	nop 
    2fec:	01 00 00 00 	nop 
    2ff0:	01 00 00 00 	nop 
    2ff4:	01 00 00 00 	nop 
    2ff8:	01 00 00 00 	nop 
    2ffc:	01 00 00 00 	nop 
    3000:	00 00 3a 54 	unimp  0x3a54
    3004:	00 00 38 c0 	unimp  0x38c0
    3008:	00 00 38 c0 	unimp  0x38c0
    300c:	00 00 38 c0 	unimp  0x38c0
    3010:	00 00 38 c0 	unimp  0x38c0
    3014:	00 00 38 c0 	unimp  0x38c0
    3018:	00 00 38 c0 	unimp  0x38c0
    301c:	00 00 38 c0 	unimp  0x38c0
    3020:	00 00 38 c0 	unimp  0x38c0
    3024:	00 00 38 c0 	unimp  0x38c0
    3028:	00 00 38 c0 	unimp  0x38c0
    302c:	00 00 38 c0 	unimp  0x38c0
    3030:	00 00 38 c0 	unimp  0x38c0
    3034:	00 00 38 c0 	unimp  0x38c0
    3038:	00 00 38 c0 	unimp  0x38c0
    303c:	00 00 38 c0 	unimp  0x38c0
    3040:	00 00 38 c0 	unimp  0x38c0
    3044:	00 00 38 c0 	unimp  0x38c0
    3048:	00 00 38 c0 	unimp  0x38c0
    304c:	00 00 38 c0 	unimp  0x38c0
    3050:	00 00 38 c0 	unimp  0x38c0
    3054:	00 00 38 c0 	unimp  0x38c0
    3058:	00 00 38 c0 	unimp  0x38c0
    305c:	00 00 3f 00 	unimp  0x3f00
    3060:	00 00 38 c0 	unimp  0x38c0
    3064:	00 00 38 c0 	unimp  0x38c0
    3068:	00 00 38 c0 	unimp  0x38c0
    306c:	00 00 38 c0 	unimp  0x38c0
    3070:	00 00 38 c0 	unimp  0x38c0
    3074:	00 00 38 c0 	unimp  0x38c0
    3078:	00 00 38 c0 	unimp  0x38c0
    307c:	00 00 38 c0 	unimp  0x38c0
    3080:	00 00 3a 58 	unimp  0x3a58
    3084:	00 00 38 c0 	unimp  0x38c0
    3088:	00 00 47 58 	unimp  0x4758
    308c:	00 00 47 4c 	unimp  0x474c
    3090:	00 00 38 c0 	unimp  0x38c0
    3094:	00 00 42 20 	unimp  0x4220
    3098:	00 00 38 c0 	unimp  0x38c0
    309c:	00 00 38 c0 	unimp  0x38c0
    30a0:	00 00 47 4c 	unimp  0x474c
    30a4:	00 00 38 c0 	unimp  0x38c0
    30a8:	00 00 38 c0 	unimp  0x38c0
    30ac:	00 00 38 c0 	unimp  0x38c0
    30b0:	00 00 38 c0 	unimp  0x38c0
    30b4:	00 00 38 c0 	unimp  0x38c0
    30b8:	00 00 42 18 	unimp  0x4218
    30bc:	00 00 41 e4 	unimp  0x41e4
    30c0:	00 00 38 c0 	unimp  0x38c0
    30c4:	00 00 38 c0 	unimp  0x38c0
    30c8:	00 00 3f 2c 	unimp  0x3f2c
    30cc:	00 00 38 c0 	unimp  0x38c0
    30d0:	00 00 47 44 	unimp  0x4744
    30d4:	00 00 38 c0 	unimp  0x38c0
    30d8:	00 00 38 c0 	unimp  0x38c0
    30dc:	00 00 47 3c 	unimp  0x473c
    30e0:	00 00 39 9c 	unimp  0x399c
    30e4:	00 00 38 20 	unimp  0x3820
    30e8:	00 00 38 20 	unimp  0x3820
    30ec:	00 00 39 90 	unimp  0x3990
    30f0:	00 00 38 20 	unimp  0x3820
    30f4:	00 00 38 20 	unimp  0x3820
    30f8:	00 00 38 20 	unimp  0x3820
    30fc:	00 00 38 20 	unimp  0x3820
    3100:	00 00 38 20 	unimp  0x3820
    3104:	00 00 38 20 	unimp  0x3820
    3108:	00 00 38 20 	unimp  0x3820
    310c:	00 00 39 84 	unimp  0x3984
    3110:	00 00 38 20 	unimp  0x3820
    3114:	00 00 39 78 	unimp  0x3978
    3118:	00 00 38 20 	unimp  0x3820
    311c:	00 00 38 20 	unimp  0x3820
    3120:	00 00 39 6c 	unimp  0x396c

00003124 <number>:
    3124:	9d e3 bf 58 	save  %sp, -168, %sp
    3128:	80 8f 60 40 	btst  0x40, %i5
    312c:	02 80 01 28 	be  35cc <number+0x4a8>
    3130:	1f 00 00 80 	sethi  %hi(0x20000), %o7
    3134:	1f 00 00 80 	sethi  %hi(0x20000), %o7
    3138:	9e 13 e0 48 	or  %o7, 0x48, %o7	! 20048 <state_known_crc+0x34>
    313c:	80 8f 60 10 	btst  0x10, %i5
    3140:	32 80 00 02 	bne,a   3148 <number+0x24>
    3144:	ba 0f 7f fe 	and  %i5, -2, %i5
    3148:	82 06 bf fe 	add  %i2, -2, %g1
    314c:	80 a0 60 22 	cmp  %g1, 0x22
    3150:	18 80 01 32 	bgu  3618 <number+0x4f4>
    3154:	82 0f 60 01 	and  %i5, 1, %g1
    3158:	80 a0 00 01 	cmp  %g0, %g1
    315c:	94 10 20 00 	clr  %o2
    3160:	9a 40 3f ff 	addx  %g0, -1, %o5
    3164:	80 8f 60 02 	btst  2, %i5
    3168:	9a 0b 60 f0 	and  %o5, 0xf0, %o5
    316c:	02 80 00 0c 	be  319c <number+0x78>
    3170:	9a 03 60 30 	add  %o5, 0x30, %o5
    3174:	80 a6 60 00 	cmp  %i1, 0
    3178:	06 80 01 39 	bl  365c <number+0x538>
    317c:	80 8f 60 04 	btst  4, %i5
    3180:	32 80 01 29 	bne,a   3624 <number+0x500>
    3184:	b6 06 ff ff 	add  %i3, -1, %i3
    3188:	80 8f 60 08 	btst  8, %i5
    318c:	02 80 00 05 	be  31a0 <number+0x7c>
    3190:	92 8f 60 20 	andcc  %i5, 0x20, %o1
    3194:	b6 06 ff ff 	add  %i3, -1, %i3
    3198:	94 10 20 20 	mov  0x20, %o2
    319c:	92 8f 60 20 	andcc  %i5, 0x20, %o1
    31a0:	02 80 00 08 	be  31c0 <number+0x9c>
    31a4:	80 a6 60 00 	cmp  %i1, 0
    31a8:	80 a6 a0 10 	cmp  %i2, 0x10
    31ac:	02 80 01 27 	be  3648 <number+0x524>
    31b0:	82 1e a0 08 	xor  %i2, 8, %g1
    31b4:	80 a0 00 01 	cmp  %g0, %g1
    31b8:	b6 46 ff ff 	addx  %i3, -1, %i3
    31bc:	80 a6 60 00 	cmp  %i1, 0
    31c0:	12 80 01 06 	bne  35d8 <number+0x4b4>
    31c4:	82 10 20 00 	clr  %g1
    31c8:	82 10 20 30 	mov  0x30, %g1
    31cc:	88 07 bf b8 	add  %fp, -72, %g4
    31d0:	c2 2f bf b8 	stb  %g1, [ %fp + -72 ]
    31d4:	82 10 20 01 	mov  1, %g1
    31d8:	80 a0 40 1c 	cmp  %g1, %i4
    31dc:	16 80 00 03 	bge  31e8 <number+0xc4>
    31e0:	98 10 00 01 	mov  %g1, %o4
    31e4:	98 10 00 1c 	mov  %i4, %o4
    31e8:	80 8f 60 11 	btst  0x11, %i5
    31ec:	12 80 00 39 	bne  32d0 <number+0x1ac>
    31f0:	b6 26 c0 0c 	sub  %i3, %o4, %i3
    31f4:	80 a6 e0 00 	cmp  %i3, 0
    31f8:	04 80 01 25 	ble  368c <number+0x568>
    31fc:	9e 06 ff ff 	add  %i3, -1, %o7
    3200:	84 20 00 18 	neg  %i0, %g2
    3204:	a2 10 00 1b 	mov  %i3, %l1
    3208:	84 08 a0 03 	and  %g2, 3, %g2
    320c:	80 a6 c0 02 	cmp  %i3, %g2
    3210:	08 80 00 03 	bleu  321c <number+0xf8>
    3214:	b8 10 00 1b 	mov  %i3, %i4
    3218:	b8 10 00 02 	mov  %g2, %i4
    321c:	80 a6 e0 03 	cmp  %i3, 3
    3220:	28 80 00 02 	bleu,a   3228 <number+0x104>
    3224:	b8 10 00 1b 	mov  %i3, %i4
    3228:	80 a7 20 00 	cmp  %i4, 0
    322c:	02 80 00 0c 	be  325c <number+0x138>
    3230:	84 10 00 18 	mov  %i0, %g2
    3234:	96 10 20 20 	mov  0x20, %o3
    3238:	d6 28 80 00 	stb  %o3, [ %g2 ]
    323c:	84 00 a0 01 	inc  %g2
    3240:	86 20 80 18 	sub  %g2, %i0, %g3
    3244:	80 a7 00 03 	cmp  %i4, %g3
    3248:	18 bf ff fc 	bgu  3238 <number+0x114>
    324c:	9e 03 ff ff 	add  %o7, -1, %o7
    3250:	80 a6 c0 1c 	cmp  %i3, %i4
    3254:	22 80 00 1e 	be,a   32cc <number+0x1a8>
    3258:	b6 10 3f ff 	mov  -1, %i3
    325c:	b6 26 c0 1c 	sub  %i3, %i4, %i3
    3260:	97 36 e0 02 	srl  %i3, 2, %o3
    3264:	a1 2a e0 02 	sll  %o3, 2, %l0
    3268:	80 a4 20 00 	cmp  %l0, 0
    326c:	02 80 00 0e 	be  32a4 <number+0x180>
    3270:	b8 06 00 1c 	add  %i0, %i4, %i4
    3274:	11 08 08 08 	sethi  %hi(0x20202000), %o0
    3278:	86 10 20 00 	clr  %g3
    327c:	90 12 20 20 	or  %o0, 0x20, %o0
    3280:	d0 27 00 00 	st  %o0, [ %i4 ]
    3284:	86 00 e0 01 	inc  %g3
    3288:	80 a0 c0 0b 	cmp  %g3, %o3
    328c:	0a bf ff fd 	bcs  3280 <number+0x15c>
    3290:	b8 07 20 04 	add  %i4, 4, %i4
    3294:	84 00 80 10 	add  %g2, %l0, %g2
    3298:	80 a6 c0 10 	cmp  %i3, %l0
    329c:	02 80 00 0b 	be  32c8 <number+0x1a4>
    32a0:	9e 23 c0 10 	sub  %o7, %l0, %o7
    32a4:	86 10 20 00 	clr  %g3
    32a8:	9e 03 e0 01 	inc  %o7
    32ac:	b6 10 20 20 	mov  0x20, %i3
    32b0:	f6 28 80 03 	stb  %i3, [ %g2 + %g3 ]
    32b4:	86 00 e0 01 	inc  %g3
    32b8:	b8 23 c0 03 	sub  %o7, %g3, %i4
    32bc:	80 a7 20 00 	cmp  %i4, 0
    32c0:	34 bf ff fd 	bg,a   32b4 <number+0x190>
    32c4:	f6 28 80 03 	stb  %i3, [ %g2 + %g3 ]
    32c8:	b6 10 3f ff 	mov  -1, %i3
    32cc:	b0 06 00 11 	add  %i0, %l1, %i0
    32d0:	80 8a a0 ff 	btst  0xff, %o2
    32d4:	02 80 00 04 	be  32e4 <number+0x1c0>
    32d8:	80 a2 60 00 	cmp  %o1, 0
    32dc:	d4 2e 00 00 	stb  %o2, [ %i0 ]
    32e0:	b0 06 20 01 	inc  %i0
    32e4:	02 80 00 08 	be  3304 <number+0x1e0>
    32e8:	80 8f 60 10 	btst  0x10, %i5
    32ec:	80 a6 a0 08 	cmp  %i2, 8
    32f0:	02 80 00 d2 	be  3638 <number+0x514>
    32f4:	80 a6 a0 10 	cmp  %i2, 0x10
    32f8:	22 80 00 e0 	be,a   3678 <number+0x554>
    32fc:	84 10 20 30 	mov  0x30, %g2
    3300:	80 8f 60 10 	btst  0x10, %i5
    3304:	12 80 00 3b 	bne  33f0 <number+0x2cc>
    3308:	80 a3 00 01 	cmp  %o4, %g1
    330c:	80 a6 e0 00 	cmp  %i3, 0
    3310:	04 80 00 e1 	ble  3694 <number+0x570>
    3314:	b8 06 ff ff 	add  %i3, -1, %i4
    3318:	ba 20 00 18 	neg  %i0, %i5
    331c:	ba 0f 60 03 	and  %i5, 3, %i5
    3320:	80 a7 40 1b 	cmp  %i5, %i3
    3324:	38 80 00 02 	bgu,a   332c <number+0x208>
    3328:	ba 10 00 1b 	mov  %i3, %i5
    332c:	80 a6 e0 03 	cmp  %i3, 3
    3330:	28 80 00 02 	bleu,a   3338 <number+0x214>
    3334:	ba 10 00 1b 	mov  %i3, %i5
    3338:	80 a7 60 00 	cmp  %i5, 0
    333c:	02 80 00 0b 	be  3368 <number+0x244>
    3340:	84 10 00 18 	mov  %i0, %g2
    3344:	da 28 80 00 	stb  %o5, [ %g2 ]
    3348:	84 00 a0 01 	inc  %g2
    334c:	86 20 80 18 	sub  %g2, %i0, %g3
    3350:	80 a7 40 03 	cmp  %i5, %g3
    3354:	18 bf ff fc 	bgu  3344 <number+0x220>
    3358:	b8 07 3f ff 	add  %i4, -1, %i4
    335c:	80 a6 c0 1d 	cmp  %i3, %i5
    3360:	22 80 00 22 	be,a   33e8 <number+0x2c4>
    3364:	b0 06 00 1b 	add  %i0, %i3, %i0
    3368:	94 26 c0 1d 	sub  %i3, %i5, %o2
    336c:	b5 32 a0 02 	srl  %o2, 2, %i2
    3370:	97 2e a0 02 	sll  %i2, 2, %o3
    3374:	80 a2 e0 00 	cmp  %o3, 0
    3378:	02 80 00 13 	be  33c4 <number+0x2a0>
    337c:	ba 06 00 1d 	add  %i0, %i5, %i5
    3380:	9e 0b 60 ff 	and  %o5, 0xff, %o7
    3384:	87 2b e0 10 	sll  %o7, 0x10, %g3
    3388:	91 2b e0 18 	sll  %o7, 0x18, %o0
    338c:	93 2b e0 08 	sll  %o7, 8, %o1
    3390:	90 12 00 03 	or  %o0, %g3, %o0
    3394:	92 12 00 09 	or  %o0, %o1, %o1
    3398:	86 10 20 00 	clr  %g3
    339c:	9e 12 40 0f 	or  %o1, %o7, %o7
    33a0:	de 27 40 00 	st  %o7, [ %i5 ]
    33a4:	86 00 e0 01 	inc  %g3
    33a8:	80 a0 c0 1a 	cmp  %g3, %i2
    33ac:	0a bf ff fd 	bcs  33a0 <number+0x27c>
    33b0:	ba 07 60 04 	add  %i5, 4, %i5
    33b4:	84 00 80 0b 	add  %g2, %o3, %g2
    33b8:	80 a2 80 0b 	cmp  %o2, %o3
    33bc:	02 80 00 0a 	be  33e4 <number+0x2c0>
    33c0:	b8 27 00 0b 	sub  %i4, %o3, %i4
    33c4:	86 10 20 00 	clr  %g3
    33c8:	b8 07 20 01 	inc  %i4
    33cc:	da 28 80 03 	stb  %o5, [ %g2 + %g3 ]
    33d0:	86 00 e0 01 	inc  %g3
    33d4:	ba 27 00 03 	sub  %i4, %g3, %i5
    33d8:	80 a7 60 00 	cmp  %i5, 0
    33dc:	34 bf ff fd 	bg,a   33d0 <number+0x2ac>
    33e0:	da 28 80 03 	stb  %o5, [ %g2 + %g3 ]
    33e4:	b0 06 00 1b 	add  %i0, %i3, %i0
    33e8:	b6 10 3f ff 	mov  -1, %i3
    33ec:	80 a3 00 01 	cmp  %o4, %g1
    33f0:	04 80 00 34 	ble  34c0 <number+0x39c>
    33f4:	b8 03 3f ff 	add  %o4, -1, %i4
    33f8:	9a 23 00 01 	sub  %o4, %g1, %o5
    33fc:	ba 20 00 18 	neg  %i0, %i5
    3400:	ba 0f 60 03 	and  %i5, 3, %i5
    3404:	80 a7 40 0d 	cmp  %i5, %o5
    3408:	38 80 00 02 	bgu,a   3410 <number+0x2ec>
    340c:	ba 10 00 0d 	mov  %o5, %i5
    3410:	80 a3 60 03 	cmp  %o5, 3
    3414:	28 80 00 02 	bleu,a   341c <number+0x2f8>
    3418:	ba 10 00 0d 	mov  %o5, %i5
    341c:	80 a7 60 00 	cmp  %i5, 0
    3420:	02 80 00 0c 	be  3450 <number+0x32c>
    3424:	84 10 00 18 	mov  %i0, %g2
    3428:	b4 10 20 30 	mov  0x30, %i2
    342c:	f4 28 80 00 	stb  %i2, [ %g2 ]
    3430:	84 00 a0 01 	inc  %g2
    3434:	86 20 80 18 	sub  %g2, %i0, %g3
    3438:	80 a7 40 03 	cmp  %i5, %g3
    343c:	18 bf ff fc 	bgu  342c <number+0x308>
    3440:	b8 07 3f ff 	add  %i4, -1, %i4
    3444:	80 a3 40 1d 	cmp  %o5, %i5
    3448:	22 80 00 1e 	be,a   34c0 <number+0x39c>
    344c:	b0 06 00 0d 	add  %i0, %o5, %i0
    3450:	96 23 40 1d 	sub  %o5, %i5, %o3
    3454:	b5 32 e0 02 	srl  %o3, 2, %i2
    3458:	99 2e a0 02 	sll  %i2, 2, %o4
    345c:	80 a3 20 00 	cmp  %o4, 0
    3460:	02 80 00 0e 	be  3498 <number+0x374>
    3464:	ba 06 00 1d 	add  %i0, %i5, %i5
    3468:	1f 0c 0c 0c 	sethi  %hi(0x30303000), %o7
    346c:	86 10 20 00 	clr  %g3
    3470:	9e 13 e0 30 	or  %o7, 0x30, %o7
    3474:	de 27 40 00 	st  %o7, [ %i5 ]
    3478:	86 00 e0 01 	inc  %g3
    347c:	80 a6 80 03 	cmp  %i2, %g3
    3480:	18 bf ff fd 	bgu  3474 <number+0x350>
    3484:	ba 07 60 04 	add  %i5, 4, %i5
    3488:	84 00 80 0c 	add  %g2, %o4, %g2
    348c:	80 a2 c0 0c 	cmp  %o3, %o4
    3490:	02 80 00 0b 	be  34bc <number+0x398>
    3494:	b8 27 00 0c 	sub  %i4, %o4, %i4
    3498:	86 10 20 00 	clr  %g3
    349c:	b8 07 20 01 	inc  %i4
    34a0:	b4 10 20 30 	mov  0x30, %i2
    34a4:	f4 28 80 03 	stb  %i2, [ %g2 + %g3 ]
    34a8:	86 00 e0 01 	inc  %g3
    34ac:	ba 27 00 03 	sub  %i4, %g3, %i5
    34b0:	80 a0 40 1d 	cmp  %g1, %i5
    34b4:	26 bf ff fd 	bl,a   34a8 <number+0x384>
    34b8:	f4 28 80 03 	stb  %i2, [ %g2 + %g3 ]
    34bc:	b0 06 00 0d 	add  %i0, %o5, %i0
    34c0:	82 10 00 19 	mov  %i1, %g1
    34c4:	84 10 00 18 	mov  %i0, %g2
    34c8:	c6 09 00 01 	ldub  [ %g4 + %g1 ], %g3
    34cc:	c6 28 80 00 	stb  %g3, [ %g2 ]
    34d0:	82 00 7f ff 	add  %g1, -1, %g1
    34d4:	86 00 60 01 	add  %g1, 1, %g3
    34d8:	80 a0 e0 00 	cmp  %g3, 0
    34dc:	14 bf ff fb 	bg  34c8 <number+0x3a4>
    34e0:	84 00 a0 01 	inc  %g2
    34e4:	82 38 00 19 	xnor  %g0, %i1, %g1
    34e8:	88 06 ff ff 	add  %i3, -1, %g4
    34ec:	83 38 60 1f 	sra  %g1, 0x1f, %g1
    34f0:	80 a6 e0 00 	cmp  %i3, 0
    34f4:	82 0e 40 01 	and  %i1, %g1, %g1
    34f8:	82 00 60 01 	inc  %g1
    34fc:	04 80 00 48 	ble  361c <number+0x4f8>
    3500:	b0 06 00 01 	add  %i0, %g1, %i0
    3504:	86 20 00 18 	neg  %i0, %g3
    3508:	86 08 e0 03 	and  %g3, 3, %g3
    350c:	80 a0 c0 1b 	cmp  %g3, %i3
    3510:	38 80 00 02 	bgu,a   3518 <number+0x3f4>
    3514:	86 10 00 1b 	mov  %i3, %g3
    3518:	80 a6 e0 03 	cmp  %i3, 3
    351c:	28 80 00 02 	bleu,a   3524 <number+0x400>
    3520:	86 10 00 1b 	mov  %i3, %g3
    3524:	80 a0 e0 00 	cmp  %g3, 0
    3528:	02 80 00 0c 	be  3558 <number+0x434>
    352c:	82 10 00 18 	mov  %i0, %g1
    3530:	ba 10 20 20 	mov  0x20, %i5
    3534:	fa 28 40 00 	stb  %i5, [ %g1 ]
    3538:	82 00 60 01 	inc  %g1
    353c:	84 20 40 18 	sub  %g1, %i0, %g2
    3540:	80 a0 c0 02 	cmp  %g3, %g2
    3544:	18 bf ff fc 	bgu  3534 <number+0x410>
    3548:	88 01 3f ff 	add  %g4, -1, %g4
    354c:	80 a6 c0 03 	cmp  %i3, %g3
    3550:	02 80 00 1d 	be  35c4 <number+0x4a0>
    3554:	01 00 00 00 	nop 
    3558:	b2 26 c0 03 	sub  %i3, %g3, %i1
    355c:	bb 36 60 02 	srl  %i1, 2, %i5
    3560:	b5 2f 60 02 	sll  %i5, 2, %i2
    3564:	80 a6 a0 00 	cmp  %i2, 0
    3568:	02 80 00 0e 	be  35a0 <number+0x47c>
    356c:	86 06 00 03 	add  %i0, %g3, %g3
    3570:	39 08 08 08 	sethi  %hi(0x20202000), %i4
    3574:	84 10 20 00 	clr  %g2
    3578:	b8 17 20 20 	or  %i4, 0x20, %i4
    357c:	f8 20 c0 00 	st  %i4, [ %g3 ]
    3580:	84 00 a0 01 	inc  %g2
    3584:	80 a0 80 1d 	cmp  %g2, %i5
    3588:	0a bf ff fd 	bcs  357c <number+0x458>
    358c:	86 00 e0 04 	add  %g3, 4, %g3
    3590:	82 00 40 1a 	add  %g1, %i2, %g1
    3594:	80 a6 40 1a 	cmp  %i1, %i2
    3598:	02 80 00 0b 	be  35c4 <number+0x4a0>
    359c:	88 21 00 1a 	sub  %g4, %i2, %g4
    35a0:	84 10 20 00 	clr  %g2
    35a4:	88 01 20 01 	inc  %g4
    35a8:	ba 10 20 20 	mov  0x20, %i5
    35ac:	fa 28 40 02 	stb  %i5, [ %g1 + %g2 ]
    35b0:	84 00 a0 01 	inc  %g2
    35b4:	86 21 00 02 	sub  %g4, %g2, %g3
    35b8:	80 a0 e0 00 	cmp  %g3, 0
    35bc:	34 bf ff fd 	bg,a   35b0 <number+0x48c>
    35c0:	fa 28 40 02 	stb  %i5, [ %g1 + %g2 ]
    35c4:	81 c7 e0 08 	ret 
    35c8:	91 ee 00 1b 	restore  %i0, %i3, %o0
    35cc:	10 bf fe dc 	b  313c <number+0x18>
    35d0:	9e 13 e0 20 	or  %o7, 0x20, %o7
    35d4:	82 10 20 00 	clr  %g1
    35d8:	88 07 bf b8 	add  %fp, -72, %g4
    35dc:	81 80 20 00 	mov  %g0, %y
    35e0:	01 00 00 00 	nop 
    35e4:	01 00 00 00 	nop 
    35e8:	01 00 00 00 	nop 
    35ec:	84 76 40 1a 	udiv  %i1, %i2, %g2
    35f0:	86 58 80 1a 	smul  %g2, %i2, %g3
    35f4:	b2 26 40 03 	sub  %i1, %g3, %i1
    35f8:	c6 0b c0 19 	ldub  [ %o7 + %i1 ], %g3
    35fc:	c6 29 00 01 	stb  %g3, [ %g4 + %g1 ]
    3600:	b2 10 00 02 	mov  %g2, %i1
    3604:	80 a0 a0 00 	cmp  %g2, 0
    3608:	12 bf ff f5 	bne  35dc <number+0x4b8>
    360c:	82 00 60 01 	inc  %g1
    3610:	10 bf fe f2 	b  31d8 <number+0xb4>
    3614:	b2 00 7f ff 	add  %g1, -1, %i1
    3618:	b0 10 20 00 	clr  %i0
    361c:	81 c7 e0 08 	ret 
    3620:	81 e8 00 00 	restore 
    3624:	92 8f 60 20 	andcc  %i5, 0x20, %o1
    3628:	02 bf fe e5 	be  31bc <number+0x98>
    362c:	94 10 20 2b 	mov  0x2b, %o2
    3630:	10 bf fe df 	b  31ac <number+0x88>
    3634:	80 a6 a0 10 	cmp  %i2, 0x10
    3638:	84 10 20 30 	mov  0x30, %g2
    363c:	c4 2e 00 00 	stb  %g2, [ %i0 ]
    3640:	10 bf ff 30 	b  3300 <number+0x1dc>
    3644:	b0 06 20 01 	inc  %i0
    3648:	80 a6 60 00 	cmp  %i1, 0
    364c:	12 bf ff e2 	bne  35d4 <number+0x4b0>
    3650:	b6 06 ff fe 	add  %i3, -2, %i3
    3654:	10 bf fe de 	b  31cc <number+0xa8>
    3658:	82 10 20 30 	mov  0x30, %g1
    365c:	b2 20 00 19 	neg  %i1
    3660:	b6 06 ff ff 	add  %i3, -1, %i3
    3664:	92 8f 60 20 	andcc  %i5, 0x20, %o1
    3668:	02 bf fe d5 	be  31bc <number+0x98>
    366c:	94 10 20 2d 	mov  0x2d, %o2
    3670:	10 bf fe cf 	b  31ac <number+0x88>
    3674:	80 a6 a0 10 	cmp  %i2, 0x10
    3678:	c4 2e 00 00 	stb  %g2, [ %i0 ]
    367c:	84 10 20 78 	mov  0x78, %g2
    3680:	c4 2e 20 01 	stb  %g2, [ %i0 + 1 ]
    3684:	10 bf ff 1f 	b  3300 <number+0x1dc>
    3688:	b0 06 20 02 	add  %i0, 2, %i0
    368c:	10 bf ff 11 	b  32d0 <number+0x1ac>
    3690:	b6 10 00 0f 	mov  %o7, %i3
    3694:	10 bf ff 56 	b  33ec <number+0x2c8>
    3698:	b6 10 00 1c 	mov  %i4, %i3

0000369c <memcpy>:
    369c:	80 a2 a0 00 	cmp  %o2, 0
    36a0:	04 80 00 27 	ble  373c <memcpy+0xa0>
    36a4:	82 02 60 04 	add  %o1, 4, %g1
    36a8:	80 a2 00 01 	cmp  %o0, %g1
    36ac:	82 02 20 04 	add  %o0, 4, %g1
    36b0:	88 60 3f ff 	subx  %g0, -1, %g4
    36b4:	80 a2 40 01 	cmp  %o1, %g1
    36b8:	84 60 3f ff 	subx  %g0, -1, %g2
    36bc:	9b 32 a0 02 	srl  %o2, 2, %o5
    36c0:	88 11 00 02 	or  %g4, %g2, %g4
    36c4:	83 2b 60 02 	sll  %o5, 2, %g1
    36c8:	80 a2 a0 03 	cmp  %o2, 3
    36cc:	08 80 00 1e 	bleu  3744 <memcpy+0xa8>
    36d0:	84 10 20 01 	mov  1, %g2
    36d4:	86 12 40 08 	or  %o1, %o0, %g3
    36d8:	86 08 e0 03 	and  %g3, 3, %g3
    36dc:	80 a0 00 03 	cmp  %g0, %g3
    36e0:	84 09 00 02 	and  %g4, %g2, %g2
    36e4:	86 60 3f ff 	subx  %g0, -1, %g3
    36e8:	80 88 80 03 	btst  %g2, %g3
    36ec:	02 80 00 1a 	be  3754 <memcpy+0xb8>
    36f0:	80 a0 60 00 	cmp  %g1, 0
    36f4:	02 80 00 18 	be  3754 <memcpy+0xb8>
    36f8:	84 10 20 00 	clr  %g2
    36fc:	86 10 20 00 	clr  %g3
    3700:	c8 02 40 02 	ld  [ %o1 + %g2 ], %g4
    3704:	c8 22 00 02 	st  %g4, [ %o0 + %g2 ]
    3708:	86 00 e0 01 	inc  %g3
    370c:	80 a3 40 03 	cmp  %o5, %g3
    3710:	18 bf ff fc 	bgu  3700 <memcpy+0x64>
    3714:	84 00 a0 04 	add  %g2, 4, %g2
    3718:	80 a2 80 01 	cmp  %o2, %g1
    371c:	02 80 00 0c 	be  374c <memcpy+0xb0>
    3720:	01 00 00 00 	nop 
    3724:	c4 0a 40 01 	ldub  [ %o1 + %g1 ], %g2
    3728:	c4 2a 00 01 	stb  %g2, [ %o0 + %g1 ]
    372c:	82 00 60 01 	inc  %g1
    3730:	80 a2 80 01 	cmp  %o2, %g1
    3734:	34 bf ff fd 	bg,a   3728 <memcpy+0x8c>
    3738:	c4 0a 40 01 	ldub  [ %o1 + %g1 ], %g2
    373c:	81 c3 e0 08 	retl 
    3740:	01 00 00 00 	nop 
    3744:	10 bf ff e4 	b  36d4 <memcpy+0x38>
    3748:	84 10 20 00 	clr  %g2	! 0 <_start>
    374c:	81 c3 e0 08 	retl 
    3750:	01 00 00 00 	nop 
    3754:	10 bf ff f4 	b  3724 <memcpy+0x88>
    3758:	82 10 20 00 	clr  %g1	! 0 <_start>

0000375c <uart_send_char>:
    375c:	9d e3 bf a0 	save  %sp, -96, %sp
    3760:	40 00 12 16 	call  7fb8 <__ajit_serial_putchar_via_bypass__>
    3764:	90 10 00 18 	mov  %i0, %o0
    3768:	80 a2 20 00 	cmp  %o0, 0
    376c:	02 bf ff fd 	be  3760 <uart_send_char+0x4>
    3770:	01 00 00 00 	nop 
    3774:	81 c7 e0 08 	ret 
    3778:	81 e8 00 00 	restore 

0000377c <ee_printf>:
    377c:	9d e3 bd d8 	save  %sp, -552, %sp
    3780:	f6 27 a0 50 	st  %i3, [ %fp + 0x50 ]
    3784:	fa 27 a0 58 	st  %i5, [ %fp + 0x58 ]
    3788:	a4 07 a0 48 	add  %fp, 0x48, %l2
    378c:	f2 27 a0 48 	st  %i1, [ %fp + 0x48 ]
    3790:	f4 27 a0 4c 	st  %i2, [ %fp + 0x4c ]
    3794:	f8 27 a0 54 	st  %i4, [ %fp + 0x54 ]
    3798:	e4 27 be 4c 	st  %l2, [ %fp + -436 ]
    379c:	c4 0e 00 00 	ldub  [ %i0 ], %g2
    37a0:	b6 07 bf 00 	add  %fp, -256, %i3
    37a4:	83 28 a0 18 	sll  %g2, 0x18, %g1
    37a8:	80 a0 60 00 	cmp  %g1, 0
    37ac:	02 80 00 58 	be  390c <ee_printf+0x190>
    37b0:	ba 10 00 1b 	mov  %i3, %i5
    37b4:	23 08 08 08 	sethi  %hi(0x20202000), %l1
    37b8:	21 3f c0 3f 	sethi  %hi(0xff00fc00), %l0
    37bc:	33 3f ff c0 	sethi  %hi(0xffff0000), %i1
    37c0:	35 0c 0c 0c 	sethi  %hi(0x30303000), %i2
    37c4:	a2 14 60 20 	or  %l1, 0x20, %l1
    37c8:	a0 14 23 ff 	or  %l0, 0x3ff, %l0
    37cc:	b2 16 60 ff 	or  %i1, 0xff, %i1
    37d0:	10 80 00 08 	b  37f0 <ee_printf+0x74>
    37d4:	b4 16 a0 30 	or  %i2, 0x30, %i2
    37d8:	ba 07 60 01 	inc  %i5
    37dc:	c4 0e 20 01 	ldub  [ %i0 + 1 ], %g2
    37e0:	83 28 a0 18 	sll  %g2, 0x18, %g1
    37e4:	80 a0 60 00 	cmp  %g1, 0
    37e8:	02 80 00 49 	be  390c <ee_printf+0x190>
    37ec:	b0 06 20 01 	inc  %i0
    37f0:	83 38 60 18 	sra  %g1, 0x18, %g1
    37f4:	80 a0 60 25 	cmp  %g1, 0x25
    37f8:	32 bf ff f8 	bne,a   37d8 <ee_printf+0x5c>
    37fc:	c4 2f 40 00 	stb  %g2, [ %i5 ]
    3800:	9a 10 20 00 	clr  %o5
    3804:	39 00 00 0c 	sethi  %hi(0x3000), %i4
    3808:	c2 0e 20 01 	ldub  [ %i0 + 1 ], %g1
    380c:	86 00 7f e0 	add  %g1, -32, %g3
    3810:	86 08 e0 ff 	and  %g3, 0xff, %g3
    3814:	80 a0 e0 10 	cmp  %g3, 0x10
    3818:	08 80 00 50 	bleu  3958 <ee_printf+0x1dc>
    381c:	84 06 20 01 	add  %i0, 1, %g2
    3820:	86 00 7f d0 	add  %g1, -48, %g3
    3824:	86 08 e0 ff 	and  %g3, 0xff, %g3
    3828:	80 a0 e0 09 	cmp  %g3, 9
    382c:	18 80 00 5f 	bgu  39a8 <ee_printf+0x22c>
    3830:	87 28 60 18 	sll  %g1, 0x18, %g3
    3834:	b8 10 20 00 	clr  %i4
    3838:	86 07 00 1c 	add  %i4, %i4, %g3
    383c:	83 28 60 18 	sll  %g1, 0x18, %g1
    3840:	83 38 60 18 	sra  %g1, 0x18, %g1
    3844:	b9 2f 20 03 	sll  %i4, 3, %i4
    3848:	84 00 a0 01 	inc  %g2
    384c:	b8 00 c0 1c 	add  %g3, %i4, %i4
    3850:	b8 07 00 01 	add  %i4, %g1, %i4
    3854:	c2 08 80 00 	ldub  [ %g2 ], %g1
    3858:	86 00 7f d0 	add  %g1, -48, %g3
    385c:	86 08 e0 ff 	and  %g3, 0xff, %g3
    3860:	80 a0 e0 09 	cmp  %g3, 9
    3864:	08 bf ff f5 	bleu  3838 <ee_printf+0xbc>
    3868:	b8 07 3f d0 	add  %i4, -48, %i4
    386c:	87 28 60 18 	sll  %g1, 0x18, %g3
    3870:	b0 10 00 02 	mov  %g2, %i0
    3874:	87 38 e0 18 	sra  %g3, 0x18, %g3
    3878:	80 a0 e0 2e 	cmp  %g3, 0x2e
    387c:	02 80 00 54 	be  39cc <ee_printf+0x250>
    3880:	a6 10 3f ff 	mov  -1, %l3
    3884:	84 08 7f df 	and  %g1, -33, %g2
    3888:	85 28 a0 18 	sll  %g2, 0x18, %g2
    388c:	85 38 a0 18 	sra  %g2, 0x18, %g2
    3890:	80 a0 a0 4c 	cmp  %g2, 0x4c
    3894:	12 80 00 06 	bne  38ac <ee_printf+0x130>
    3898:	86 10 3f ff 	mov  -1, %g3
    389c:	87 28 60 18 	sll  %g1, 0x18, %g3
    38a0:	c2 0e 20 01 	ldub  [ %i0 + 1 ], %g1
    38a4:	87 38 e0 18 	sra  %g3, 0x18, %g3
    38a8:	b0 06 20 01 	inc  %i0
    38ac:	84 00 7f bf 	add  %g1, -65, %g2
    38b0:	84 08 a0 ff 	and  %g2, 0xff, %g2
    38b4:	80 a0 a0 37 	cmp  %g2, 0x37
    38b8:	08 80 00 5b 	bleu  3a24 <ee_printf+0x2a8>
    38bc:	85 28 a0 02 	sll  %g2, 2, %g2
    38c0:	85 28 60 18 	sll  %g1, 0x18, %g2
    38c4:	85 38 a0 18 	sra  %g2, 0x18, %g2
    38c8:	80 a0 a0 25 	cmp  %g2, 0x25
    38cc:	22 80 00 0a 	be,a   38f4 <ee_printf+0x178>
    38d0:	c2 2f 40 00 	stb  %g1, [ %i5 ]
    38d4:	82 10 20 25 	mov  0x25, %g1
    38d8:	c2 2f 40 00 	stb  %g1, [ %i5 ]
    38dc:	ba 07 60 01 	inc  %i5
    38e0:	c4 4e 00 00 	ldsb  [ %i0 ], %g2
    38e4:	80 a0 a0 00 	cmp  %g2, 0
    38e8:	02 80 00 09 	be  390c <ee_printf+0x190>
    38ec:	c2 0e 00 00 	ldub  [ %i0 ], %g1
    38f0:	c2 2f 40 00 	stb  %g1, [ %i5 ]
    38f4:	ba 07 60 01 	inc  %i5
    38f8:	c4 0e 20 01 	ldub  [ %i0 + 1 ], %g2
    38fc:	83 28 a0 18 	sll  %g2, 0x18, %g1
    3900:	80 a0 60 00 	cmp  %g1, 0
    3904:	12 bf ff bb 	bne  37f0 <ee_printf+0x74>
    3908:	b0 06 20 01 	inc  %i0
    390c:	c0 2f 40 00 	clrb  [ %i5 ]
    3910:	fa 0f bf 00 	ldub  [ %fp + -256 ], %i5
    3914:	bb 2f 60 18 	sll  %i5, 0x18, %i5
    3918:	80 a7 60 00 	cmp  %i5, 0
    391c:	02 80 00 0d 	be  3950 <ee_printf+0x1d4>
    3920:	b0 10 20 00 	clr  %i0
    3924:	40 00 11 a5 	call  7fb8 <__ajit_serial_putchar_via_bypass__>
    3928:	91 3f 60 18 	sra  %i5, 0x18, %o0
    392c:	80 a2 20 00 	cmp  %o0, 0
    3930:	02 bf ff fd 	be  3924 <ee_printf+0x1a8>
    3934:	01 00 00 00 	nop 
    3938:	b0 06 20 01 	inc  %i0
    393c:	fa 0e c0 18 	ldub  [ %i3 + %i0 ], %i5
    3940:	bb 2f 60 18 	sll  %i5, 0x18, %i5
    3944:	80 a7 60 00 	cmp  %i5, 0
    3948:	12 bf ff f7 	bne  3924 <ee_printf+0x1a8>
    394c:	01 00 00 00 	nop 
    3950:	81 c7 e0 08 	ret 
    3954:	81 e8 00 00 	restore 
    3958:	88 17 20 e0 	or  %i4, 0xe0, %g4
    395c:	87 28 e0 02 	sll  %g3, 2, %g3
    3960:	c6 01 00 03 	ld  [ %g4 + %g3 ], %g3
    3964:	81 c0 c0 00 	jmp  %g3
    3968:	01 00 00 00 	nop 
    396c:	9a 13 60 01 	or  %o5, 1, %o5
    3970:	10 bf ff a6 	b  3808 <ee_printf+0x8c>
    3974:	b0 10 00 02 	mov  %g2, %i0
    3978:	9a 13 60 10 	or  %o5, 0x10, %o5
    397c:	10 bf ff a3 	b  3808 <ee_printf+0x8c>
    3980:	b0 10 00 02 	mov  %g2, %i0
    3984:	9a 13 60 04 	or  %o5, 4, %o5
    3988:	10 bf ff a0 	b  3808 <ee_printf+0x8c>
    398c:	b0 10 00 02 	mov  %g2, %i0
    3990:	9a 13 60 20 	or  %o5, 0x20, %o5
    3994:	10 bf ff 9d 	b  3808 <ee_printf+0x8c>
    3998:	b0 10 00 02 	mov  %g2, %i0
    399c:	9a 13 60 08 	or  %o5, 8, %o5
    39a0:	10 bf ff 9a 	b  3808 <ee_printf+0x8c>
    39a4:	b0 10 00 02 	mov  %g2, %i0
    39a8:	89 38 e0 18 	sra  %g3, 0x18, %g4
    39ac:	80 a1 20 2a 	cmp  %g4, 0x2a
    39b0:	02 80 03 a3 	be  483c <ee_printf+0x10c0>
    39b4:	87 38 e0 18 	sra  %g3, 0x18, %g3
    39b8:	b0 10 00 02 	mov  %g2, %i0
    39bc:	b8 10 3f ff 	mov  -1, %i4
    39c0:	80 a0 e0 2e 	cmp  %g3, 0x2e
    39c4:	12 bf ff b0 	bne  3884 <ee_printf+0x108>
    39c8:	a6 10 3f ff 	mov  -1, %l3
    39cc:	c2 0e 20 01 	ldub  [ %i0 + 1 ], %g1
    39d0:	86 00 7f d0 	add  %g1, -48, %g3
    39d4:	86 08 e0 ff 	and  %g3, 0xff, %g3
    39d8:	80 a0 e0 09 	cmp  %g3, 9
    39dc:	18 80 00 17 	bgu  3a38 <ee_printf+0x2bc>
    39e0:	84 06 20 01 	add  %i0, 1, %g2
    39e4:	a6 10 20 00 	clr  %l3
    39e8:	86 04 c0 13 	add  %l3, %l3, %g3
    39ec:	83 28 60 18 	sll  %g1, 0x18, %g1
    39f0:	83 38 60 18 	sra  %g1, 0x18, %g1
    39f4:	a7 2c e0 03 	sll  %l3, 3, %l3
    39f8:	84 00 a0 01 	inc  %g2
    39fc:	a6 00 c0 13 	add  %g3, %l3, %l3
    3a00:	a6 04 c0 01 	add  %l3, %g1, %l3
    3a04:	c2 08 80 00 	ldub  [ %g2 ], %g1
    3a08:	86 00 7f d0 	add  %g1, -48, %g3
    3a0c:	86 08 e0 ff 	and  %g3, 0xff, %g3
    3a10:	80 a0 e0 09 	cmp  %g3, 9
    3a14:	08 bf ff f5 	bleu  39e8 <ee_printf+0x26c>
    3a18:	a6 04 ff d0 	add  %l3, -48, %l3
    3a1c:	10 bf ff 9a 	b  3884 <ee_printf+0x108>
    3a20:	b0 10 00 02 	mov  %g2, %i0
    3a24:	09 00 00 0c 	sethi  %hi(0x3000), %g4
    3a28:	88 11 20 00 	mov  %g4, %g4	! 3000 <SW_trap_0xfe+0x20>
    3a2c:	c4 01 00 02 	ld  [ %g4 + %g2 ], %g2
    3a30:	81 c0 80 00 	jmp  %g2
    3a34:	01 00 00 00 	nop 
    3a38:	87 28 60 18 	sll  %g1, 0x18, %g3
    3a3c:	87 38 e0 18 	sra  %g3, 0x18, %g3
    3a40:	80 a0 e0 2a 	cmp  %g3, 0x2a
    3a44:	02 80 04 a8 	be  4ce4 <ee_printf+0x1568>
    3a48:	a6 10 20 00 	clr  %l3
    3a4c:	10 bf ff 8e 	b  3884 <ee_printf+0x108>
    3a50:	b0 10 00 02 	mov  %g2, %i0
    3a54:	9a 13 60 40 	or  %o5, 0x40, %o5
    3a58:	80 a0 e0 6c 	cmp  %g3, 0x6c
    3a5c:	02 80 03 e1 	be  49e0 <ee_printf+0x1264>
    3a60:	c4 04 80 00 	ld  [ %l2 ], %g2
    3a64:	c6 08 80 00 	ldub  [ %g2 ], %g3
    3a68:	80 a0 e0 00 	cmp  %g3, 0
    3a6c:	02 80 03 7d 	be  4860 <ee_printf+0x10e4>
    3a70:	a4 04 a0 04 	add  %l2, 4, %l2
    3a74:	80 a0 e0 63 	cmp  %g3, 0x63
    3a78:	04 80 04 b3 	ble  4d44 <ee_printf+0x15c8>
    3a7c:	80 a0 e0 09 	cmp  %g3, 9
    3a80:	97 38 e0 1f 	sra  %g3, 0x1f, %o3
    3a84:	81 82 e0 00 	mov  %o3, %y
    3a88:	01 00 00 00 	nop 
    3a8c:	01 00 00 00 	nop 
    3a90:	01 00 00 00 	nop 
    3a94:	88 78 e0 64 	sdiv  %g3, 0x64, %g4
    3a98:	9e 59 20 64 	smul  %g4, 0x64, %o7
    3a9c:	03 00 00 80 	sethi  %hi(0x20000), %g1
    3aa0:	86 20 c0 0f 	sub  %g3, %o7, %g3
    3aa4:	82 10 60 20 	or  %g1, 0x20, %g1
    3aa8:	de 08 40 04 	ldub  [ %g1 + %g4 ], %o7
    3aac:	99 38 e0 1f 	sra  %g3, 0x1f, %o4
    3ab0:	81 83 20 00 	mov  %o4, %y
    3ab4:	01 00 00 00 	nop 
    3ab8:	01 00 00 00 	nop 
    3abc:	01 00 00 00 	nop 
    3ac0:	88 78 e0 0a 	sdiv  %g3, 0xa, %g4
    3ac4:	de 2f be b0 	stb  %o7, [ %fp + -336 ]
    3ac8:	d8 08 40 04 	ldub  [ %g1 + %g4 ], %o4
    3acc:	9e 01 00 04 	add  %g4, %g4, %o7
    3ad0:	89 29 20 03 	sll  %g4, 3, %g4
    3ad4:	9e 03 c0 04 	add  %o7, %g4, %o7
    3ad8:	d8 2f be b1 	stb  %o4, [ %fp + -335 ]
    3adc:	86 20 c0 0f 	sub  %g3, %o7, %g3
    3ae0:	88 10 20 04 	mov  4, %g4
    3ae4:	9e 10 20 03 	mov  3, %o7
    3ae8:	98 10 20 02 	mov  2, %o4
    3aec:	c2 08 40 03 	ldub  [ %g1 + %g3 ], %g1
    3af0:	98 07 80 0c 	add  %fp, %o4, %o4
    3af4:	c2 2b 3e b0 	stb  %g1, [ %o4 + -336 ]
    3af8:	98 07 80 0f 	add  %fp, %o7, %o4
    3afc:	82 10 20 2e 	mov  0x2e, %g1
    3b00:	c2 2b 3e b0 	stb  %g1, [ %o4 + -336 ]
    3b04:	c6 08 a0 01 	ldub  [ %g2 + 1 ], %g3
    3b08:	80 a0 e0 00 	cmp  %g3, 0
    3b0c:	02 80 03 60 	be  488c <ee_printf+0x1110>
    3b10:	82 07 80 04 	add  %fp, %g4, %g1
    3b14:	80 a0 e0 63 	cmp  %g3, 0x63
    3b18:	04 80 04 81 	ble  4d1c <ee_printf+0x15a0>
    3b1c:	80 a0 e0 09 	cmp  %g3, 9
    3b20:	83 38 e0 1f 	sra  %g3, 0x1f, %g1
    3b24:	81 80 60 00 	mov  %g1, %y
    3b28:	01 00 00 00 	nop 
    3b2c:	01 00 00 00 	nop 
    3b30:	01 00 00 00 	nop 
    3b34:	96 78 e0 64 	sdiv  %g3, 0x64, %o3
    3b38:	88 07 80 04 	add  %fp, %g4, %g4
    3b3c:	03 00 00 80 	sethi  %hi(0x20000), %g1
    3b40:	82 10 60 20 	or  %g1, 0x20, %g1	! 20020 <state_known_crc+0xc>
    3b44:	d4 08 40 0b 	ldub  [ %g1 + %o3 ], %o2
    3b48:	96 5a e0 64 	smul  %o3, 0x64, %o3
    3b4c:	d4 29 3e b0 	stb  %o2, [ %g4 + -336 ]
    3b50:	86 20 c0 0b 	sub  %g3, %o3, %g3
    3b54:	88 03 e0 03 	add  %o7, 3, %g4
    3b58:	97 38 e0 1f 	sra  %g3, 0x1f, %o3
    3b5c:	81 82 e0 00 	mov  %o3, %y
    3b60:	01 00 00 00 	nop 
    3b64:	01 00 00 00 	nop 
    3b68:	01 00 00 00 	nop 
    3b6c:	9e 78 e0 0a 	sdiv  %g3, 0xa, %o7
    3b70:	d4 08 40 0f 	ldub  [ %g1 + %o7 ], %o2
    3b74:	96 03 c0 0f 	add  %o7, %o7, %o3
    3b78:	d4 2b 3e b2 	stb  %o2, [ %o4 + -334 ]
    3b7c:	9f 2b e0 03 	sll  %o7, 3, %o7
    3b80:	9e 02 c0 0f 	add  %o3, %o7, %o7
    3b84:	86 20 c0 0f 	sub  %g3, %o7, %g3
    3b88:	9e 07 80 04 	add  %fp, %g4, %o7
    3b8c:	c2 08 40 03 	ldub  [ %g1 + %g3 ], %g1
    3b90:	c2 2b fe b0 	stb  %g1, [ %o7 + -336 ]
    3b94:	88 01 20 01 	inc  %g4
    3b98:	82 10 20 2e 	mov  0x2e, %g1
    3b9c:	98 07 80 04 	add  %fp, %g4, %o4
    3ba0:	c2 2b 3e b0 	stb  %g1, [ %o4 + -336 ]
    3ba4:	c6 08 a0 02 	ldub  [ %g2 + 2 ], %g3
    3ba8:	80 a0 e0 00 	cmp  %g3, 0
    3bac:	02 80 03 42 	be  48b4 <ee_printf+0x1138>
    3bb0:	9e 01 20 01 	add  %g4, 1, %o7
    3bb4:	80 a0 e0 63 	cmp  %g3, 0x63
    3bb8:	04 80 04 54 	ble  4d08 <ee_printf+0x158c>
    3bbc:	80 a0 e0 09 	cmp  %g3, 9
    3bc0:	83 38 e0 1f 	sra  %g3, 0x1f, %g1
    3bc4:	81 80 60 00 	mov  %g1, %y
    3bc8:	01 00 00 00 	nop 
    3bcc:	01 00 00 00 	nop 
    3bd0:	01 00 00 00 	nop 
    3bd4:	96 78 e0 64 	sdiv  %g3, 0x64, %o3
    3bd8:	9e 07 80 0f 	add  %fp, %o7, %o7
    3bdc:	03 00 00 80 	sethi  %hi(0x20000), %g1
    3be0:	82 10 60 20 	or  %g1, 0x20, %g1	! 20020 <state_known_crc+0xc>
    3be4:	d4 08 40 0b 	ldub  [ %g1 + %o3 ], %o2
    3be8:	96 5a e0 64 	smul  %o3, 0x64, %o3
    3bec:	d4 2b fe b0 	stb  %o2, [ %o7 + -336 ]
    3bf0:	86 20 c0 0b 	sub  %g3, %o3, %g3
    3bf4:	9e 01 20 03 	add  %g4, 3, %o7
    3bf8:	97 38 e0 1f 	sra  %g3, 0x1f, %o3
    3bfc:	81 82 e0 00 	mov  %o3, %y
    3c00:	01 00 00 00 	nop 
    3c04:	01 00 00 00 	nop 
    3c08:	01 00 00 00 	nop 
    3c0c:	88 78 e0 0a 	sdiv  %g3, 0xa, %g4
    3c10:	d4 08 40 04 	ldub  [ %g1 + %g4 ], %o2
    3c14:	96 01 00 04 	add  %g4, %g4, %o3
    3c18:	d4 2b 3e b2 	stb  %o2, [ %o4 + -334 ]
    3c1c:	89 29 20 03 	sll  %g4, 3, %g4
    3c20:	88 02 c0 04 	add  %o3, %g4, %g4
    3c24:	86 20 c0 04 	sub  %g3, %g4, %g3
    3c28:	c2 08 40 03 	ldub  [ %g1 + %g3 ], %g1
    3c2c:	88 07 80 0f 	add  %fp, %o7, %g4
    3c30:	c2 29 3e b0 	stb  %g1, [ %g4 + -336 ]
    3c34:	86 03 e0 01 	add  %o7, 1, %g3
    3c38:	82 10 20 2e 	mov  0x2e, %g1
    3c3c:	88 07 80 03 	add  %fp, %g3, %g4
    3c40:	c2 29 3e b0 	stb  %g1, [ %g4 + -336 ]
    3c44:	c4 08 a0 03 	ldub  [ %g2 + 3 ], %g2
    3c48:	80 a0 a0 00 	cmp  %g2, 0
    3c4c:	02 80 03 25 	be  48e0 <ee_printf+0x1164>
    3c50:	98 00 e0 01 	add  %g3, 1, %o4
    3c54:	80 a0 a0 63 	cmp  %g2, 0x63
    3c58:	04 80 04 36 	ble  4d30 <ee_printf+0x15b4>
    3c5c:	80 a0 a0 09 	cmp  %g2, 9
    3c60:	83 38 a0 1f 	sra  %g2, 0x1f, %g1
    3c64:	81 80 60 00 	mov  %g1, %y
    3c68:	01 00 00 00 	nop 
    3c6c:	01 00 00 00 	nop 
    3c70:	01 00 00 00 	nop 
    3c74:	9e 78 a0 64 	sdiv  %g2, 0x64, %o7
    3c78:	98 07 80 0c 	add  %fp, %o4, %o4
    3c7c:	03 00 00 80 	sethi  %hi(0x20000), %g1
    3c80:	82 10 60 20 	or  %g1, 0x20, %g1	! 20020 <state_known_crc+0xc>
    3c84:	d6 08 40 0f 	ldub  [ %g1 + %o7 ], %o3
    3c88:	9e 5b e0 64 	smul  %o7, 0x64, %o7
    3c8c:	d6 2b 3e b0 	stb  %o3, [ %o4 + -336 ]
    3c90:	84 20 80 0f 	sub  %g2, %o7, %g2
    3c94:	98 00 e0 03 	add  %g3, 3, %o4
    3c98:	97 38 a0 1f 	sra  %g2, 0x1f, %o3
    3c9c:	81 82 e0 00 	mov  %o3, %y
    3ca0:	01 00 00 00 	nop 
    3ca4:	01 00 00 00 	nop 
    3ca8:	01 00 00 00 	nop 
    3cac:	86 78 a0 0a 	sdiv  %g2, 0xa, %g3
    3cb0:	d6 08 40 03 	ldub  [ %g1 + %g3 ], %o3
    3cb4:	9e 00 c0 03 	add  %g3, %g3, %o7
    3cb8:	d6 29 3e b2 	stb  %o3, [ %g4 + -334 ]
    3cbc:	87 28 e0 03 	sll  %g3, 3, %g3
    3cc0:	86 03 c0 03 	add  %o7, %g3, %g3
    3cc4:	84 20 80 03 	sub  %g2, %g3, %g2
    3cc8:	86 07 80 0c 	add  %fp, %o4, %g3
    3ccc:	c2 08 40 02 	ldub  [ %g1 + %g2 ], %g1
    3cd0:	98 03 20 01 	inc  %o4
    3cd4:	c2 28 fe b0 	stb  %g1, [ %g3 + -336 ]
    3cd8:	80 8b 60 10 	btst  0x10, %o5
    3cdc:	12 80 00 38 	bne  3dbc <ee_printf+0x640>
    3ce0:	96 93 20 00 	orcc  %o4, 0, %o3
    3ce4:	80 a7 00 0c 	cmp  %i4, %o4
    3ce8:	04 80 04 e6 	ble  5080 <ee_printf+0x1904>
    3cec:	88 07 3f ff 	add  %i4, -1, %g4
    3cf0:	b8 27 00 0c 	sub  %i4, %o4, %i4
    3cf4:	82 20 00 1d 	neg  %i5, %g1
    3cf8:	82 08 60 03 	and  %g1, 3, %g1
    3cfc:	80 a7 00 01 	cmp  %i4, %g1
    3d00:	08 80 00 03 	bleu  3d0c <ee_printf+0x590>
    3d04:	86 10 00 1c 	mov  %i4, %g3
    3d08:	86 10 00 01 	mov  %g1, %g3
    3d0c:	80 a7 20 03 	cmp  %i4, 3
    3d10:	28 80 00 02 	bleu,a   3d18 <ee_printf+0x59c>
    3d14:	86 10 00 1c 	mov  %i4, %g3
    3d18:	80 a0 e0 00 	cmp  %g3, 0
    3d1c:	02 80 00 0c 	be  3d4c <ee_printf+0x5d0>
    3d20:	82 10 00 1d 	mov  %i5, %g1
    3d24:	9e 10 20 20 	mov  0x20, %o7
    3d28:	de 28 40 00 	stb  %o7, [ %g1 ]
    3d2c:	82 00 60 01 	inc  %g1
    3d30:	84 20 40 1d 	sub  %g1, %i5, %g2
    3d34:	80 a0 c0 02 	cmp  %g3, %g2
    3d38:	18 bf ff fc 	bgu  3d28 <ee_printf+0x5ac>
    3d3c:	88 01 3f ff 	add  %g4, -1, %g4
    3d40:	80 a7 00 03 	cmp  %i4, %g3
    3d44:	22 80 00 1c 	be,a   3db4 <ee_printf+0x638>
    3d48:	ba 07 40 1c 	add  %i5, %i4, %i5
    3d4c:	96 27 00 03 	sub  %i4, %g3, %o3
    3d50:	9f 32 e0 02 	srl  %o3, 2, %o7
    3d54:	9b 2b e0 02 	sll  %o7, 2, %o5
    3d58:	80 a3 60 00 	cmp  %o5, 0
    3d5c:	02 80 00 0c 	be  3d8c <ee_printf+0x610>
    3d60:	86 07 40 03 	add  %i5, %g3, %g3
    3d64:	84 10 20 00 	clr  %g2
    3d68:	e2 20 c0 00 	st  %l1, [ %g3 ]
    3d6c:	84 00 a0 01 	inc  %g2
    3d70:	80 a0 80 0f 	cmp  %g2, %o7
    3d74:	0a bf ff fd 	bcs  3d68 <ee_printf+0x5ec>
    3d78:	86 00 e0 04 	add  %g3, 4, %g3
    3d7c:	82 00 40 0d 	add  %g1, %o5, %g1
    3d80:	80 a2 c0 0d 	cmp  %o3, %o5
    3d84:	02 80 00 0b 	be  3db0 <ee_printf+0x634>
    3d88:	88 21 00 0d 	sub  %g4, %o5, %g4
    3d8c:	84 10 20 00 	clr  %g2
    3d90:	88 01 20 01 	inc  %g4
    3d94:	9e 10 20 20 	mov  0x20, %o7
    3d98:	de 28 40 02 	stb  %o7, [ %g1 + %g2 ]
    3d9c:	84 00 a0 01 	inc  %g2
    3da0:	86 21 00 02 	sub  %g4, %g2, %g3
    3da4:	80 a0 c0 0c 	cmp  %g3, %o4
    3da8:	34 bf ff fd 	bg,a   3d9c <ee_printf+0x620>
    3dac:	de 28 40 02 	stb  %o7, [ %g1 + %g2 ]
    3db0:	ba 07 40 1c 	add  %i5, %i4, %i5
    3db4:	b8 03 3f ff 	add  %o4, -1, %i4
    3db8:	96 93 20 00 	orcc  %o4, 0, %o3
    3dbc:	24 80 00 02 	ble,a   3dc4 <ee_printf+0x648>
    3dc0:	96 10 20 01 	mov  1, %o3
    3dc4:	9b 32 e0 02 	srl  %o3, 2, %o5
    3dc8:	80 8f 60 03 	btst  3, %i5
    3dcc:	12 80 04 d2 	bne  5114 <ee_printf+0x1998>
    3dd0:	83 2b 60 02 	sll  %o5, 2, %g1
    3dd4:	80 a0 60 00 	cmp  %g1, 0
    3dd8:	02 80 04 cf 	be  5114 <ee_printf+0x1998>
    3ddc:	84 10 20 00 	clr  %g2
    3de0:	86 10 20 00 	clr  %g3
    3de4:	88 07 be b0 	add  %fp, -336, %g4
    3de8:	de 01 00 02 	ld  [ %g4 + %g2 ], %o7
    3dec:	de 27 40 02 	st  %o7, [ %i5 + %g2 ]
    3df0:	86 00 e0 01 	inc  %g3
    3df4:	80 a3 40 03 	cmp  %o5, %g3
    3df8:	18 bf ff fc 	bgu  3de8 <ee_printf+0x66c>
    3dfc:	84 00 a0 04 	add  %g2, 4, %g2
    3e00:	80 a2 c0 01 	cmp  %o3, %g1
    3e04:	02 80 00 09 	be  3e28 <ee_printf+0x6ac>
    3e08:	86 07 40 01 	add  %i5, %g1, %g3
    3e0c:	86 20 c0 01 	sub  %g3, %g1, %g3
    3e10:	c4 09 00 01 	ldub  [ %g4 + %g1 ], %g2
    3e14:	c4 28 c0 01 	stb  %g2, [ %g3 + %g1 ]
    3e18:	82 00 60 01 	inc  %g1
    3e1c:	80 a3 00 01 	cmp  %o4, %g1
    3e20:	34 bf ff fd 	bg,a   3e14 <ee_printf+0x698>
    3e24:	c4 09 00 01 	ldub  [ %g4 + %g1 ], %g2
    3e28:	ba 07 40 0b 	add  %i5, %o3, %i5
    3e2c:	80 a7 00 0c 	cmp  %i4, %o4
    3e30:	04 80 00 32 	ble  3ef8 <ee_printf+0x77c>
    3e34:	88 07 3f ff 	add  %i4, -1, %g4
    3e38:	b8 27 00 0c 	sub  %i4, %o4, %i4
    3e3c:	86 20 00 1d 	neg  %i5, %g3
    3e40:	86 08 e0 03 	and  %g3, 3, %g3
    3e44:	80 a0 c0 1c 	cmp  %g3, %i4
    3e48:	38 80 00 02 	bgu,a   3e50 <ee_printf+0x6d4>
    3e4c:	86 10 00 1c 	mov  %i4, %g3
    3e50:	80 a7 20 03 	cmp  %i4, 3
    3e54:	28 80 00 02 	bleu,a   3e5c <ee_printf+0x6e0>
    3e58:	86 10 00 1c 	mov  %i4, %g3
    3e5c:	80 a0 e0 00 	cmp  %g3, 0
    3e60:	02 80 00 0c 	be  3e90 <ee_printf+0x714>
    3e64:	82 10 00 1d 	mov  %i5, %g1
    3e68:	9e 10 20 20 	mov  0x20, %o7
    3e6c:	de 28 40 00 	stb  %o7, [ %g1 ]
    3e70:	82 00 60 01 	inc  %g1
    3e74:	84 20 40 1d 	sub  %g1, %i5, %g2
    3e78:	80 a0 c0 02 	cmp  %g3, %g2
    3e7c:	18 bf ff fc 	bgu  3e6c <ee_printf+0x6f0>
    3e80:	88 01 3f ff 	add  %g4, -1, %g4
    3e84:	80 a7 00 03 	cmp  %i4, %g3
    3e88:	22 80 00 1c 	be,a   3ef8 <ee_printf+0x77c>
    3e8c:	ba 07 40 1c 	add  %i5, %i4, %i5
    3e90:	96 27 00 03 	sub  %i4, %g3, %o3
    3e94:	9f 32 e0 02 	srl  %o3, 2, %o7
    3e98:	9b 2b e0 02 	sll  %o7, 2, %o5
    3e9c:	80 a3 60 00 	cmp  %o5, 0
    3ea0:	02 80 00 0c 	be  3ed0 <ee_printf+0x754>
    3ea4:	86 07 40 03 	add  %i5, %g3, %g3
    3ea8:	84 10 20 00 	clr  %g2
    3eac:	e2 20 c0 00 	st  %l1, [ %g3 ]
    3eb0:	84 00 a0 01 	inc  %g2
    3eb4:	80 a0 80 0f 	cmp  %g2, %o7
    3eb8:	0a bf ff fd 	bcs  3eac <ee_printf+0x730>
    3ebc:	86 00 e0 04 	add  %g3, 4, %g3
    3ec0:	82 00 40 0d 	add  %g1, %o5, %g1
    3ec4:	80 a2 c0 0d 	cmp  %o3, %o5
    3ec8:	02 80 00 0b 	be  3ef4 <ee_printf+0x778>
    3ecc:	88 21 00 0d 	sub  %g4, %o5, %g4
    3ed0:	84 10 20 00 	clr  %g2
    3ed4:	88 01 20 01 	inc  %g4
    3ed8:	9e 10 20 20 	mov  0x20, %o7
    3edc:	de 28 40 02 	stb  %o7, [ %g1 + %g2 ]
    3ee0:	84 00 a0 01 	inc  %g2
    3ee4:	86 21 00 02 	sub  %g4, %g2, %g3
    3ee8:	80 a3 00 03 	cmp  %o4, %g3
    3eec:	26 bf ff fd 	bl,a   3ee0 <ee_printf+0x764>
    3ef0:	de 28 40 02 	stb  %o7, [ %g1 + %g2 ]
    3ef4:	ba 07 40 1c 	add  %i5, %i4, %i5
    3ef8:	10 bf fe 3a 	b  37e0 <ee_printf+0x64>
    3efc:	c4 0e 20 01 	ldub  [ %i0 + 1 ], %g2
    3f00:	9a 13 60 40 	or  %o5, 0x40, %o5
    3f04:	94 10 20 10 	mov  0x10, %o2
    3f08:	d2 04 80 00 	ld  [ %l2 ], %o1
    3f0c:	90 10 00 1d 	mov  %i5, %o0
    3f10:	96 10 00 1c 	mov  %i4, %o3
    3f14:	7f ff fc 84 	call  3124 <number>
    3f18:	98 10 00 13 	mov  %l3, %o4
    3f1c:	a4 04 a0 04 	add  %l2, 4, %l2
    3f20:	ba 10 00 08 	mov  %o0, %i5
    3f24:	10 bf fe 2f 	b  37e0 <ee_printf+0x64>
    3f28:	c4 0e 20 01 	ldub  [ %i0 + 1 ], %g2
    3f2c:	c8 04 80 00 	ld  [ %l2 ], %g4
    3f30:	80 a1 20 00 	cmp  %g4, 0
    3f34:	02 80 04 50 	be  5074 <ee_printf+0x18f8>
    3f38:	a4 04 a0 04 	add  %l2, 4, %l2
    3f3c:	c2 49 00 00 	ldsb  [ %g4 ], %g1
    3f40:	80 a0 60 00 	cmp  %g1, 0
    3f44:	02 80 04 51 	be  5088 <ee_printf+0x190c>
    3f48:	80 a4 e0 00 	cmp  %l3, 0
    3f4c:	22 80 00 0c 	be,a   3f7c <ee_printf+0x800>
    3f50:	86 10 20 00 	clr  %g3
    3f54:	10 80 00 04 	b  3f64 <ee_printf+0x7e8>
    3f58:	86 10 00 04 	mov  %g4, %g3
    3f5c:	22 80 00 08 	be,a   3f7c <ee_printf+0x800>
    3f60:	86 20 c0 04 	sub  %g3, %g4, %g3
    3f64:	86 00 e0 01 	inc  %g3
    3f68:	c2 48 c0 00 	ldsb  [ %g3 ], %g1
    3f6c:	80 a0 60 00 	cmp  %g1, 0
    3f70:	32 bf ff fb 	bne,a   3f5c <ee_printf+0x7e0>
    3f74:	a6 84 ff ff 	addcc  %l3, -1, %l3
    3f78:	86 20 c0 04 	sub  %g3, %g4, %g3
    3f7c:	80 8b 60 10 	btst  0x10, %o5
    3f80:	12 80 00 38 	bne  4060 <ee_printf+0x8e4>
    3f84:	80 a0 e0 00 	cmp  %g3, 0
    3f88:	80 a7 00 03 	cmp  %i4, %g3
    3f8c:	04 80 04 43 	ble  5098 <ee_printf+0x191c>
    3f90:	9a 07 3f ff 	add  %i4, -1, %o5
    3f94:	b8 27 00 03 	sub  %i4, %g3, %i4
    3f98:	82 20 00 1d 	neg  %i5, %g1
    3f9c:	82 08 60 03 	and  %g1, 3, %g1
    3fa0:	80 a7 00 01 	cmp  %i4, %g1
    3fa4:	08 80 00 03 	bleu  3fb0 <ee_printf+0x834>
    3fa8:	9e 10 00 1c 	mov  %i4, %o7
    3fac:	9e 10 00 01 	mov  %g1, %o7
    3fb0:	80 a7 20 03 	cmp  %i4, 3
    3fb4:	28 80 00 02 	bleu,a   3fbc <ee_printf+0x840>
    3fb8:	9e 10 00 1c 	mov  %i4, %o7
    3fbc:	80 a3 e0 00 	cmp  %o7, 0
    3fc0:	02 80 00 0c 	be  3ff0 <ee_printf+0x874>
    3fc4:	82 10 00 1d 	mov  %i5, %g1
    3fc8:	98 10 20 20 	mov  0x20, %o4
    3fcc:	d8 28 40 00 	stb  %o4, [ %g1 ]
    3fd0:	82 00 60 01 	inc  %g1
    3fd4:	84 20 40 1d 	sub  %g1, %i5, %g2
    3fd8:	80 a3 c0 02 	cmp  %o7, %g2
    3fdc:	18 bf ff fc 	bgu  3fcc <ee_printf+0x850>
    3fe0:	9a 03 7f ff 	add  %o5, -1, %o5
    3fe4:	80 a7 00 0f 	cmp  %i4, %o7
    3fe8:	22 80 00 1c 	be,a   4058 <ee_printf+0x8dc>
    3fec:	ba 07 40 1c 	add  %i5, %i4, %i5
    3ff0:	94 27 00 0f 	sub  %i4, %o7, %o2
    3ff4:	99 32 a0 02 	srl  %o2, 2, %o4
    3ff8:	97 2b 20 02 	sll  %o4, 2, %o3
    3ffc:	80 a2 e0 00 	cmp  %o3, 0
    4000:	02 80 00 0c 	be  4030 <ee_printf+0x8b4>
    4004:	9e 07 40 0f 	add  %i5, %o7, %o7
    4008:	84 10 20 00 	clr  %g2
    400c:	e2 23 c0 00 	st  %l1, [ %o7 ]
    4010:	84 00 a0 01 	inc  %g2
    4014:	80 a0 80 0c 	cmp  %g2, %o4
    4018:	0a bf ff fd 	bcs  400c <ee_printf+0x890>
    401c:	9e 03 e0 04 	add  %o7, 4, %o7
    4020:	82 00 40 0b 	add  %g1, %o3, %g1
    4024:	80 a2 80 0b 	cmp  %o2, %o3
    4028:	02 80 00 0b 	be  4054 <ee_printf+0x8d8>
    402c:	9a 23 40 0b 	sub  %o5, %o3, %o5
    4030:	84 10 20 00 	clr  %g2
    4034:	9a 03 60 01 	inc  %o5
    4038:	98 10 20 20 	mov  0x20, %o4
    403c:	d8 28 40 02 	stb  %o4, [ %g1 + %g2 ]
    4040:	84 00 a0 01 	inc  %g2
    4044:	9e 23 40 02 	sub  %o5, %g2, %o7
    4048:	80 a0 c0 0f 	cmp  %g3, %o7
    404c:	26 bf ff fd 	bl,a   4040 <ee_printf+0x8c4>
    4050:	d8 28 40 02 	stb  %o4, [ %g1 + %g2 ]
    4054:	ba 07 40 1c 	add  %i5, %i4, %i5
    4058:	b8 00 ff ff 	add  %g3, -1, %i4
    405c:	80 a0 e0 00 	cmp  %g3, 0
    4060:	04 80 00 2d 	ble  4114 <ee_printf+0x998>
    4064:	9b 30 e0 02 	srl  %g3, 2, %o5
    4068:	82 07 60 04 	add  %i5, 4, %g1
    406c:	80 a1 00 01 	cmp  %g4, %g1
    4070:	82 01 20 04 	add  %g4, 4, %g1
    4074:	84 60 3f ff 	subx  %g0, -1, %g2
    4078:	80 a7 40 01 	cmp  %i5, %g1
    407c:	82 60 3f ff 	subx  %g0, -1, %g1
    4080:	84 10 80 01 	or  %g2, %g1, %g2
    4084:	99 2b 60 02 	sll  %o5, 2, %o4
    4088:	80 a0 e0 03 	cmp  %g3, 3
    408c:	08 80 02 51 	bleu  49d0 <ee_printf+0x1254>
    4090:	82 10 20 01 	mov  1, %g1
    4094:	9e 17 40 04 	or  %i5, %g4, %o7
    4098:	9e 0b e0 03 	and  %o7, 3, %o7
    409c:	80 a0 00 0f 	cmp  %g0, %o7
    40a0:	82 08 80 01 	and  %g2, %g1, %g1
    40a4:	84 60 3f ff 	subx  %g0, -1, %g2
    40a8:	80 88 40 02 	btst  %g1, %g2
    40ac:	02 80 04 29 	be  5150 <ee_printf+0x19d4>
    40b0:	80 a3 20 00 	cmp  %o4, 0
    40b4:	02 80 04 27 	be  5150 <ee_printf+0x19d4>
    40b8:	84 10 20 00 	clr  %g2
    40bc:	82 10 20 00 	clr  %g1
    40c0:	de 01 00 01 	ld  [ %g4 + %g1 ], %o7
    40c4:	de 27 40 01 	st  %o7, [ %i5 + %g1 ]
    40c8:	84 00 a0 01 	inc  %g2
    40cc:	80 a3 40 02 	cmp  %o5, %g2
    40d0:	18 bf ff fc 	bgu  40c0 <ee_printf+0x944>
    40d4:	82 00 60 04 	add  %g1, 4, %g1
    40d8:	82 10 00 0c 	mov  %o4, %g1
    40dc:	88 01 00 0c 	add  %g4, %o4, %g4
    40e0:	80 a0 c0 01 	cmp  %g3, %g1
    40e4:	02 80 00 0b 	be  4110 <ee_printf+0x994>
    40e8:	98 07 40 0c 	add  %i5, %o4, %o4
    40ec:	84 20 00 01 	neg  %g1, %g2
    40f0:	9a 01 00 02 	add  %g4, %g2, %o5
    40f4:	9e 03 00 02 	add  %o4, %g2, %o7
    40f8:	da 0b 40 01 	ldub  [ %o5 + %g1 ], %o5
    40fc:	da 2b c0 01 	stb  %o5, [ %o7 + %g1 ]
    4100:	82 00 60 01 	inc  %g1
    4104:	80 a0 c0 01 	cmp  %g3, %g1
    4108:	14 bf ff fc 	bg  40f8 <ee_printf+0x97c>
    410c:	9a 01 00 02 	add  %g4, %g2, %o5
    4110:	ba 07 40 03 	add  %i5, %g3, %i5
    4114:	80 a7 00 03 	cmp  %i4, %g3
    4118:	04 bf ff 78 	ble  3ef8 <ee_printf+0x77c>
    411c:	9e 07 3f ff 	add  %i4, -1, %o7
    4120:	b8 27 00 03 	sub  %i4, %g3, %i4
    4124:	88 20 00 1d 	neg  %i5, %g4
    4128:	88 09 20 03 	and  %g4, 3, %g4
    412c:	80 a1 00 1c 	cmp  %g4, %i4
    4130:	38 80 00 02 	bgu,a   4138 <ee_printf+0x9bc>
    4134:	88 10 00 1c 	mov  %i4, %g4
    4138:	80 a7 20 03 	cmp  %i4, 3
    413c:	28 80 00 02 	bleu,a   4144 <ee_printf+0x9c8>
    4140:	88 10 00 1c 	mov  %i4, %g4
    4144:	80 a1 20 00 	cmp  %g4, 0
    4148:	02 80 00 0c 	be  4178 <ee_printf+0x9fc>
    414c:	82 10 00 1d 	mov  %i5, %g1
    4150:	9a 10 20 20 	mov  0x20, %o5
    4154:	da 28 40 00 	stb  %o5, [ %g1 ]
    4158:	82 00 60 01 	inc  %g1
    415c:	84 20 40 1d 	sub  %g1, %i5, %g2
    4160:	80 a1 00 02 	cmp  %g4, %g2
    4164:	18 bf ff fc 	bgu  4154 <ee_printf+0x9d8>
    4168:	9e 03 ff ff 	add  %o7, -1, %o7
    416c:	80 a7 00 04 	cmp  %i4, %g4
    4170:	22 bf ff 62 	be,a   3ef8 <ee_printf+0x77c>
    4174:	ba 07 40 1c 	add  %i5, %i4, %i5
    4178:	96 27 00 04 	sub  %i4, %g4, %o3
    417c:	9b 32 e0 02 	srl  %o3, 2, %o5
    4180:	99 2b 60 02 	sll  %o5, 2, %o4
    4184:	80 a3 20 00 	cmp  %o4, 0
    4188:	02 80 00 0c 	be  41b8 <ee_printf+0xa3c>
    418c:	88 07 40 04 	add  %i5, %g4, %g4
    4190:	84 10 20 00 	clr  %g2
    4194:	e2 21 00 00 	st  %l1, [ %g4 ]
    4198:	84 00 a0 01 	inc  %g2
    419c:	80 a0 80 0d 	cmp  %g2, %o5
    41a0:	0a bf ff fd 	bcs  4194 <ee_printf+0xa18>
    41a4:	88 01 20 04 	add  %g4, 4, %g4
    41a8:	82 00 40 0c 	add  %g1, %o4, %g1
    41ac:	80 a2 c0 0c 	cmp  %o3, %o4
    41b0:	02 bf ff 51 	be  3ef4 <ee_printf+0x778>
    41b4:	9e 23 c0 0c 	sub  %o7, %o4, %o7
    41b8:	84 10 20 00 	clr  %g2
    41bc:	9e 03 e0 01 	inc  %o7
    41c0:	9a 10 20 20 	mov  0x20, %o5
    41c4:	da 28 40 02 	stb  %o5, [ %g1 + %g2 ]
    41c8:	84 00 a0 01 	inc  %g2
    41cc:	88 23 c0 02 	sub  %o7, %g2, %g4
    41d0:	80 a0 c0 04 	cmp  %g3, %g4
    41d4:	26 bf ff fd 	bl,a   41c8 <ee_printf+0xa4c>
    41d8:	da 28 40 02 	stb  %o5, [ %g1 + %g2 ]
    41dc:	10 bf ff 47 	b  3ef8 <ee_printf+0x77c>
    41e0:	ba 07 40 1c 	add  %i5, %i4, %i5
    41e4:	80 a7 3f ff 	cmp  %i4, -1
    41e8:	22 80 01 fc 	be,a   49d8 <ee_printf+0x125c>
    41ec:	9a 13 60 01 	or  %o5, 1, %o5
    41f0:	d2 04 80 00 	ld  [ %l2 ], %o1
    41f4:	90 10 00 1d 	mov  %i5, %o0
    41f8:	94 10 20 10 	mov  0x10, %o2
    41fc:	96 10 00 1c 	mov  %i4, %o3
    4200:	7f ff fb c9 	call  3124 <number>
    4204:	98 10 00 13 	mov  %l3, %o4
    4208:	a4 04 a0 04 	add  %l2, 4, %l2
    420c:	ba 10 00 08 	mov  %o0, %i5
    4210:	10 bf fd 74 	b  37e0 <ee_printf+0x64>
    4214:	c4 0e 20 01 	ldub  [ %i0 + 1 ], %g2
    4218:	10 bf ff 3c 	b  3f08 <ee_printf+0x78c>
    421c:	94 10 20 08 	mov  8, %o2
    4220:	92 10 00 12 	mov  %l2, %o1
    4224:	da 27 be 44 	st  %o5, [ %fp + -444 ]
    4228:	90 07 be 58 	add  %fp, -424, %o0
    422c:	7f ff fd 1c 	call  369c <memcpy>
    4230:	94 10 20 08 	mov  8, %o2
    4234:	da 07 be 44 	ld  [ %fp + -444 ], %o5
    4238:	a4 04 a0 08 	add  %l2, 8, %l2
    423c:	80 8b 60 10 	btst  0x10, %o5
    4240:	02 80 00 03 	be  424c <ee_printf+0xad0>
    4244:	d1 1f be 58 	ldd  [ %fp + -424 ], %f8
    4248:	9a 0b 7f fe 	and  %o5, -2, %o5
    424c:	aa 13 60 02 	or  %o5, 2, %l5
    4250:	82 0d 60 01 	and  %l5, 1, %g1
    4254:	80 a0 00 01 	cmp  %g0, %g1
    4258:	03 00 00 80 	sethi  %hi(0x20000), %g1
    425c:	a8 40 3f ff 	addx  %g0, -1, %l4
    4260:	d5 18 60 78 	ldd  [ %g1 + 0x78 ], %f10
    4264:	a8 0d 20 f0 	and  %l4, 0xf0, %l4
    4268:	81 aa 0a ca 	fcmped  %f8, %f10
    426c:	01 00 00 00 	nop 
    4270:	09 80 03 06 	fbl  4e88 <ee_printf+0x170c>
    4274:	a8 05 20 30 	add  %l4, 0x30, %l4
    4278:	80 8d 60 04 	btst  4, %l5
    427c:	02 80 02 c9 	be  4da0 <ee_printf+0x1624>
    4280:	80 8d 60 08 	btst  8, %l5
    4284:	b8 07 3f ff 	add  %i4, -1, %i4
    4288:	ac 10 20 2b 	mov  0x2b, %l6
    428c:	80 a4 ff ff 	cmp  %l3, -1
    4290:	22 80 00 02 	be,a   4298 <ee_printf+0xb1c>
    4294:	a6 10 20 06 	mov  6, %l3
    4298:	d1 3f be 38 	std  %f8, [ %fp + -456 ]
    429c:	94 10 00 13 	mov  %l3, %o2
    42a0:	d0 1f be 38 	ldd  [ %fp + -456 ], %o0
    42a4:	96 07 be 50 	add  %fp, -432, %o3
    42a8:	98 07 be 54 	add  %fp, -428, %o4
    42ac:	40 00 14 56 	call  9404 <fcvtbuf>
    42b0:	9a 07 be b0 	add  %fp, -336, %o5
    42b4:	c4 07 be 54 	ld  [ %fp + -428 ], %g2
    42b8:	80 a0 a0 00 	cmp  %g2, 0
    42bc:	02 80 00 05 	be  42d0 <ee_printf+0xb54>
    42c0:	82 07 be 60 	add  %fp, -416, %g1
    42c4:	84 10 20 2d 	mov  0x2d, %g2
    42c8:	82 07 be 61 	add  %fp, -415, %g1
    42cc:	c4 2f be 60 	stb  %g2, [ %fp + -416 ]
    42d0:	c4 4a 00 00 	ldsb  [ %o0 ], %g2
    42d4:	80 a0 a0 00 	cmp  %g2, 0
    42d8:	12 80 02 f2 	bne  4ea0 <ee_printf+0x1724>
    42dc:	da 0a 00 00 	ldub  [ %o0 ], %o5
    42e0:	84 10 20 30 	mov  0x30, %g2
    42e4:	80 a4 e0 00 	cmp  %l3, 0
    42e8:	02 80 03 9f 	be  5164 <ee_printf+0x19e8>
    42ec:	c4 28 40 00 	stb  %g2, [ %g1 ]
    42f0:	84 10 20 2e 	mov  0x2e, %g2
    42f4:	c4 28 60 01 	stb  %g2, [ %g1 + 1 ]
    42f8:	88 94 e0 00 	orcc  %l3, 0, %g4
    42fc:	04 80 03 98 	ble  515c <ee_printf+0x19e0>
    4300:	82 00 60 02 	add  %g1, 2, %g1
    4304:	84 20 00 01 	neg  %g1, %g2
    4308:	84 08 a0 03 	and  %g2, 3, %g2
    430c:	80 a1 00 02 	cmp  %g4, %g2
    4310:	08 80 00 03 	bleu  431c <ee_printf+0xba0>
    4314:	9e 10 00 04 	mov  %g4, %o7
    4318:	9e 10 00 02 	mov  %g2, %o7
    431c:	80 a1 20 03 	cmp  %g4, 3
    4320:	28 80 00 02 	bleu,a   4328 <ee_printf+0xbac>
    4324:	9e 10 00 04 	mov  %g4, %o7
    4328:	84 10 00 01 	mov  %g1, %g2
    432c:	80 a3 e0 00 	cmp  %o7, 0
    4330:	02 80 00 0b 	be  435c <ee_printf+0xbe0>
    4334:	86 10 20 00 	clr  %g3
    4338:	9a 10 20 30 	mov  0x30, %o5
    433c:	da 28 80 00 	stb  %o5, [ %g2 ]
    4340:	86 00 e0 01 	inc  %g3
    4344:	80 a3 c0 03 	cmp  %o7, %g3
    4348:	18 bf ff fd 	bgu  433c <ee_printf+0xbc0>
    434c:	84 00 a0 01 	inc  %g2
    4350:	80 a1 00 0f 	cmp  %g4, %o7
    4354:	22 80 00 1a 	be,a   43bc <ee_printf+0xc40>
    4358:	c0 28 40 04 	clrb  [ %g1 + %g4 ]
    435c:	94 21 00 0f 	sub  %g4, %o7, %o2
    4360:	97 32 a0 02 	srl  %o2, 2, %o3
    4364:	99 2a e0 02 	sll  %o3, 2, %o4
    4368:	80 a3 20 00 	cmp  %o4, 0
    436c:	02 80 00 0c 	be  439c <ee_printf+0xc20>
    4370:	9e 00 40 0f 	add  %g1, %o7, %o7
    4374:	9a 10 20 00 	clr  %o5
    4378:	f4 23 c0 00 	st  %i2, [ %o7 ]
    437c:	9a 03 60 01 	inc  %o5
    4380:	80 a3 40 0b 	cmp  %o5, %o3
    4384:	0a bf ff fd 	bcs  4378 <ee_printf+0xbfc>
    4388:	9e 03 e0 04 	add  %o7, 4, %o7
    438c:	84 00 80 0c 	add  %g2, %o4, %g2
    4390:	80 a2 80 0c 	cmp  %o2, %o4
    4394:	02 80 00 09 	be  43b8 <ee_printf+0xc3c>
    4398:	86 00 c0 0c 	add  %g3, %o4, %g3
    439c:	9e 10 20 30 	mov  0x30, %o7
    43a0:	84 20 80 03 	sub  %g2, %g3, %g2
    43a4:	de 28 80 03 	stb  %o7, [ %g2 + %g3 ]
    43a8:	86 00 e0 01 	inc  %g3
    43ac:	80 a4 c0 03 	cmp  %l3, %g3
    43b0:	34 bf ff fe 	bg,a   43a8 <ee_printf+0xc2c>
    43b4:	de 28 80 03 	stb  %o7, [ %g2 + %g3 ]
    43b8:	c0 28 40 04 	clrb  [ %g1 + %g4 ]
    43bc:	c2 0f be 60 	ldub  [ %fp + -416 ], %g1
    43c0:	83 28 60 18 	sll  %g1, 0x18, %g1
    43c4:	80 a0 60 00 	cmp  %g1, 0
    43c8:	22 80 00 0e 	be,a   4400 <ee_printf+0xc84>
    43cc:	98 10 20 00 	clr  %o4
    43d0:	88 07 be 60 	add  %fp, -416, %g4
    43d4:	84 07 bf 60 	add  %fp, -160, %g2
    43d8:	10 80 00 04 	b  43e8 <ee_printf+0xc6c>
    43dc:	98 10 00 04 	mov  %g4, %o4
    43e0:	22 80 00 08 	be,a   4400 <ee_printf+0xc84>
    43e4:	98 23 00 04 	sub  %o4, %g4, %o4
    43e8:	98 03 20 01 	inc  %o4
    43ec:	c2 4b 00 00 	ldsb  [ %o4 ], %g1
    43f0:	80 a0 60 00 	cmp  %g1, 0
    43f4:	12 bf ff fb 	bne  43e0 <ee_printf+0xc64>
    43f8:	80 a3 00 02 	cmp  %o4, %g2
    43fc:	98 23 00 04 	sub  %o4, %g4, %o4
    4400:	80 8d 60 11 	btst  0x11, %l5
    4404:	12 80 00 36 	bne  44dc <ee_printf+0xd60>
    4408:	b8 27 00 0c 	sub  %i4, %o4, %i4
    440c:	80 a7 20 00 	cmp  %i4, 0
    4410:	04 80 03 20 	ble  5090 <ee_printf+0x1914>
    4414:	88 07 3f ff 	add  %i4, -1, %g4
    4418:	82 20 00 1d 	neg  %i5, %g1
    441c:	82 08 60 03 	and  %g1, 3, %g1
    4420:	80 a7 00 01 	cmp  %i4, %g1
    4424:	08 80 00 03 	bleu  4430 <ee_printf+0xcb4>
    4428:	86 10 00 1c 	mov  %i4, %g3
    442c:	86 10 00 01 	mov  %g1, %g3
    4430:	80 a7 20 03 	cmp  %i4, 3
    4434:	28 80 00 02 	bleu,a   443c <ee_printf+0xcc0>
    4438:	86 10 00 1c 	mov  %i4, %g3
    443c:	80 a0 e0 00 	cmp  %g3, 0
    4440:	02 80 00 0c 	be  4470 <ee_printf+0xcf4>
    4444:	82 10 00 1d 	mov  %i5, %g1
    4448:	9e 10 20 20 	mov  0x20, %o7
    444c:	de 28 40 00 	stb  %o7, [ %g1 ]
    4450:	82 00 60 01 	inc  %g1
    4454:	84 20 40 1d 	sub  %g1, %i5, %g2
    4458:	80 a0 c0 02 	cmp  %g3, %g2
    445c:	18 bf ff fc 	bgu  444c <ee_printf+0xcd0>
    4460:	88 01 3f ff 	add  %g4, -1, %g4
    4464:	80 a7 00 03 	cmp  %i4, %g3
    4468:	22 80 00 1c 	be,a   44d8 <ee_printf+0xd5c>
    446c:	ba 07 40 1c 	add  %i5, %i4, %i5
    4470:	96 27 00 03 	sub  %i4, %g3, %o3
    4474:	9f 32 e0 02 	srl  %o3, 2, %o7
    4478:	9b 2b e0 02 	sll  %o7, 2, %o5
    447c:	80 a3 60 00 	cmp  %o5, 0
    4480:	02 80 00 0c 	be  44b0 <ee_printf+0xd34>
    4484:	86 07 40 03 	add  %i5, %g3, %g3
    4488:	84 10 20 00 	clr  %g2
    448c:	e2 20 c0 00 	st  %l1, [ %g3 ]
    4490:	84 00 a0 01 	inc  %g2
    4494:	80 a0 80 0f 	cmp  %g2, %o7
    4498:	0a bf ff fd 	bcs  448c <ee_printf+0xd10>
    449c:	86 00 e0 04 	add  %g3, 4, %g3
    44a0:	82 00 40 0d 	add  %g1, %o5, %g1
    44a4:	80 a2 c0 0d 	cmp  %o3, %o5
    44a8:	02 80 00 0b 	be  44d4 <ee_printf+0xd58>
    44ac:	88 21 00 0d 	sub  %g4, %o5, %g4
    44b0:	84 10 20 00 	clr  %g2
    44b4:	88 01 20 01 	inc  %g4
    44b8:	9e 10 20 20 	mov  0x20, %o7
    44bc:	de 28 40 02 	stb  %o7, [ %g1 + %g2 ]
    44c0:	84 00 a0 01 	inc  %g2
    44c4:	86 21 00 02 	sub  %g4, %g2, %g3
    44c8:	80 a0 e0 00 	cmp  %g3, 0
    44cc:	34 bf ff fd 	bg,a   44c0 <ee_printf+0xd44>
    44d0:	de 28 40 02 	stb  %o7, [ %g1 + %g2 ]
    44d4:	ba 07 40 1c 	add  %i5, %i4, %i5
    44d8:	b8 10 3f ff 	mov  -1, %i4
    44dc:	80 8d a0 ff 	btst  0xff, %l6
    44e0:	02 80 00 04 	be  44f0 <ee_printf+0xd74>
    44e4:	80 8d 60 10 	btst  0x10, %l5
    44e8:	ec 2f 40 00 	stb  %l6, [ %i5 ]
    44ec:	ba 07 60 01 	inc  %i5
    44f0:	12 80 00 3d 	bne  45e4 <ee_printf+0xe68>
    44f4:	80 a3 20 00 	cmp  %o4, 0
    44f8:	80 a7 20 00 	cmp  %i4, 0
    44fc:	04 80 02 ec 	ble  50ac <ee_printf+0x1930>
    4500:	88 07 3f ff 	add  %i4, -1, %g4
    4504:	86 20 00 1d 	neg  %i5, %g3
    4508:	86 08 e0 03 	and  %g3, 3, %g3
    450c:	80 a0 c0 1c 	cmp  %g3, %i4
    4510:	38 80 00 02 	bgu,a   4518 <ee_printf+0xd9c>
    4514:	86 10 00 1c 	mov  %i4, %g3
    4518:	80 a7 20 03 	cmp  %i4, 3
    451c:	28 80 00 02 	bleu,a   4524 <ee_printf+0xda8>
    4520:	86 10 00 1c 	mov  %i4, %g3
    4524:	80 a0 e0 00 	cmp  %g3, 0
    4528:	02 80 00 0b 	be  4554 <ee_printf+0xdd8>
    452c:	82 10 00 1d 	mov  %i5, %g1
    4530:	e8 28 40 00 	stb  %l4, [ %g1 ]
    4534:	82 00 60 01 	inc  %g1
    4538:	84 20 40 1d 	sub  %g1, %i5, %g2
    453c:	80 a0 c0 02 	cmp  %g3, %g2
    4540:	18 bf ff fc 	bgu  4530 <ee_printf+0xdb4>
    4544:	88 01 3f ff 	add  %g4, -1, %g4
    4548:	80 a7 00 03 	cmp  %i4, %g3
    454c:	22 80 00 24 	be,a   45dc <ee_printf+0xe60>
    4550:	ba 07 40 1c 	add  %i5, %i4, %i5
    4554:	94 27 00 03 	sub  %i4, %g3, %o2
    4558:	9f 32 a0 02 	srl  %o2, 2, %o7
    455c:	97 2b e0 02 	sll  %o7, 2, %o3
    4560:	80 a2 e0 00 	cmp  %o3, 0
    4564:	02 80 00 15 	be  45b8 <ee_printf+0xe3c>
    4568:	86 07 40 03 	add  %i5, %g3, %g3
    456c:	9a 0d 20 ff 	and  %l4, 0xff, %o5
    4570:	85 2b 60 10 	sll  %o5, 0x10, %g2
    4574:	91 2b 60 18 	sll  %o5, 0x18, %o0
    4578:	93 2b 60 08 	sll  %o5, 8, %o1
    457c:	90 0a 00 10 	and  %o0, %l0, %o0
    4580:	90 12 00 02 	or  %o0, %g2, %o0
    4584:	84 10 20 00 	clr  %g2
    4588:	90 0a 00 19 	and  %o0, %i1, %o0
    458c:	92 12 00 09 	or  %o0, %o1, %o1
    4590:	9a 12 40 0d 	or  %o1, %o5, %o5
    4594:	da 20 c0 00 	st  %o5, [ %g3 ]
    4598:	84 00 a0 01 	inc  %g2
    459c:	80 a0 80 0f 	cmp  %g2, %o7
    45a0:	0a bf ff fd 	bcs  4594 <ee_printf+0xe18>
    45a4:	86 00 e0 04 	add  %g3, 4, %g3
    45a8:	82 00 40 0b 	add  %g1, %o3, %g1
    45ac:	80 a2 80 0b 	cmp  %o2, %o3
    45b0:	02 80 00 0a 	be  45d8 <ee_printf+0xe5c>
    45b4:	88 21 00 0b 	sub  %g4, %o3, %g4
    45b8:	84 10 20 00 	clr  %g2
    45bc:	88 01 20 01 	inc  %g4
    45c0:	e8 28 40 02 	stb  %l4, [ %g1 + %g2 ]
    45c4:	84 00 a0 01 	inc  %g2
    45c8:	86 21 00 02 	sub  %g4, %g2, %g3
    45cc:	80 a0 e0 00 	cmp  %g3, 0
    45d0:	34 bf ff fd 	bg,a   45c4 <ee_printf+0xe48>
    45d4:	e8 28 40 02 	stb  %l4, [ %g1 + %g2 ]
    45d8:	ba 07 40 1c 	add  %i5, %i4, %i5
    45dc:	b8 10 3f ff 	mov  -1, %i4
    45e0:	80 a3 20 00 	cmp  %o4, 0
    45e4:	04 80 00 24 	ble  4674 <ee_printf+0xef8>
    45e8:	80 a7 20 00 	cmp  %i4, 0
    45ec:	82 0f 60 03 	and  %i5, 3, %g1
    45f0:	80 a0 00 01 	cmp  %g0, %g1
    45f4:	9b 33 20 02 	srl  %o4, 2, %o5
    45f8:	86 60 3f ff 	subx  %g0, -1, %g3
    45fc:	83 2b 60 02 	sll  %o5, 2, %g1
    4600:	80 a3 20 03 	cmp  %o4, 3
    4604:	18 80 00 03 	bgu  4610 <ee_printf+0xe94>
    4608:	84 10 20 01 	mov  1, %g2
    460c:	84 10 20 00 	clr  %g2
    4610:	80 88 c0 02 	btst  %g3, %g2
    4614:	02 80 02 cb 	be  5140 <ee_printf+0x19c4>
    4618:	80 a0 60 00 	cmp  %g1, 0
    461c:	02 80 02 c9 	be  5140 <ee_printf+0x19c4>
    4620:	84 10 20 00 	clr  %g2
    4624:	86 10 20 00 	clr  %g3
    4628:	88 07 be 60 	add  %fp, -416, %g4
    462c:	de 01 00 02 	ld  [ %g4 + %g2 ], %o7
    4630:	de 27 40 02 	st  %o7, [ %i5 + %g2 ]
    4634:	86 00 e0 01 	inc  %g3
    4638:	80 a3 40 03 	cmp  %o5, %g3
    463c:	18 bf ff fc 	bgu  462c <ee_printf+0xeb0>
    4640:	84 00 a0 04 	add  %g2, 4, %g2
    4644:	80 a3 00 01 	cmp  %o4, %g1
    4648:	02 80 00 09 	be  466c <ee_printf+0xef0>
    464c:	86 07 40 01 	add  %i5, %g1, %g3
    4650:	86 20 c0 01 	sub  %g3, %g1, %g3
    4654:	c4 09 00 01 	ldub  [ %g4 + %g1 ], %g2
    4658:	c4 28 c0 01 	stb  %g2, [ %g3 + %g1 ]
    465c:	82 00 60 01 	inc  %g1
    4660:	80 a3 00 01 	cmp  %o4, %g1
    4664:	34 bf ff fd 	bg,a   4658 <ee_printf+0xedc>
    4668:	c4 09 00 01 	ldub  [ %g4 + %g1 ], %g2
    466c:	ba 07 40 0c 	add  %i5, %o4, %i5
    4670:	80 a7 20 00 	cmp  %i4, 0
    4674:	04 bf fe 21 	ble  3ef8 <ee_printf+0x77c>
    4678:	88 07 3f ff 	add  %i4, -1, %g4
    467c:	86 20 00 1d 	neg  %i5, %g3
    4680:	86 08 e0 03 	and  %g3, 3, %g3
    4684:	80 a0 c0 1c 	cmp  %g3, %i4
    4688:	38 80 00 02 	bgu,a   4690 <ee_printf+0xf14>
    468c:	86 10 00 1c 	mov  %i4, %g3
    4690:	80 a7 20 03 	cmp  %i4, 3
    4694:	28 80 00 02 	bleu,a   469c <ee_printf+0xf20>
    4698:	86 10 00 1c 	mov  %i4, %g3
    469c:	80 a0 e0 00 	cmp  %g3, 0
    46a0:	02 80 00 0c 	be  46d0 <ee_printf+0xf54>
    46a4:	82 10 00 1d 	mov  %i5, %g1
    46a8:	9e 10 20 20 	mov  0x20, %o7
    46ac:	de 28 40 00 	stb  %o7, [ %g1 ]
    46b0:	82 00 60 01 	inc  %g1
    46b4:	84 20 40 1d 	sub  %g1, %i5, %g2
    46b8:	80 a0 c0 02 	cmp  %g3, %g2
    46bc:	18 bf ff fc 	bgu  46ac <ee_printf+0xf30>
    46c0:	88 01 3f ff 	add  %g4, -1, %g4
    46c4:	80 a7 00 03 	cmp  %i4, %g3
    46c8:	22 bf fe 0c 	be,a   3ef8 <ee_printf+0x77c>
    46cc:	ba 07 40 1c 	add  %i5, %i4, %i5
    46d0:	98 27 00 03 	sub  %i4, %g3, %o4
    46d4:	9f 33 20 02 	srl  %o4, 2, %o7
    46d8:	9b 2b e0 02 	sll  %o7, 2, %o5
    46dc:	80 a3 60 00 	cmp  %o5, 0
    46e0:	02 80 00 0c 	be  4710 <ee_printf+0xf94>
    46e4:	86 07 40 03 	add  %i5, %g3, %g3
    46e8:	84 10 20 00 	clr  %g2
    46ec:	e2 20 c0 00 	st  %l1, [ %g3 ]
    46f0:	84 00 a0 01 	inc  %g2
    46f4:	80 a0 80 0f 	cmp  %g2, %o7
    46f8:	0a bf ff fd 	bcs  46ec <ee_printf+0xf70>
    46fc:	86 00 e0 04 	add  %g3, 4, %g3
    4700:	82 00 40 0d 	add  %g1, %o5, %g1
    4704:	80 a3 00 0d 	cmp  %o4, %o5
    4708:	02 bf fd fb 	be  3ef4 <ee_printf+0x778>
    470c:	88 21 00 0d 	sub  %g4, %o5, %g4
    4710:	84 10 20 00 	clr  %g2
    4714:	88 01 20 01 	inc  %g4
    4718:	9e 10 20 20 	mov  0x20, %o7
    471c:	de 28 40 02 	stb  %o7, [ %g1 + %g2 ]
    4720:	84 00 a0 01 	inc  %g2
    4724:	86 21 00 02 	sub  %g4, %g2, %g3
    4728:	80 a0 e0 00 	cmp  %g3, 0
    472c:	34 bf ff fd 	bg,a   4720 <ee_printf+0xfa4>
    4730:	de 28 40 02 	stb  %o7, [ %g1 + %g2 ]
    4734:	10 bf fd f1 	b  3ef8 <ee_printf+0x77c>
    4738:	ba 07 40 1c 	add  %i5, %i4, %i5
    473c:	10 bf fd f3 	b  3f08 <ee_printf+0x78c>
    4740:	94 10 20 10 	mov  0x10, %o2
    4744:	10 bf fd f1 	b  3f08 <ee_printf+0x78c>
    4748:	94 10 20 0a 	mov  0xa, %o2
    474c:	9a 13 60 02 	or  %o5, 2, %o5
    4750:	10 bf fd ee 	b  3f08 <ee_printf+0x78c>
    4754:	94 10 20 0a 	mov  0xa, %o2
    4758:	80 8b 60 10 	btst  0x10, %o5
    475c:	32 80 00 67 	bne,a   48f8 <ee_printf+0x117c>
    4760:	c2 04 80 00 	ld  [ %l2 ], %g1
    4764:	b8 07 3f ff 	add  %i4, -1, %i4
    4768:	84 97 20 00 	orcc  %i4, 0, %g2
    476c:	04 80 00 62 	ble  48f4 <ee_printf+0x1178>
    4770:	82 20 00 1d 	neg  %i5, %g1
    4774:	82 08 60 03 	and  %g1, 3, %g1
    4778:	80 a7 00 01 	cmp  %i4, %g1
    477c:	08 80 00 03 	bleu  4788 <ee_printf+0x100c>
    4780:	88 10 00 1c 	mov  %i4, %g4
    4784:	88 10 00 01 	mov  %g1, %g4
    4788:	80 a7 20 03 	cmp  %i4, 3
    478c:	28 80 00 02 	bleu,a   4794 <ee_printf+0x1018>
    4790:	88 10 00 1c 	mov  %i4, %g4
    4794:	80 a1 20 00 	cmp  %g4, 0
    4798:	02 80 00 0c 	be  47c8 <ee_printf+0x104c>
    479c:	82 10 00 1d 	mov  %i5, %g1
    47a0:	9e 10 20 20 	mov  0x20, %o7
    47a4:	de 28 40 00 	stb  %o7, [ %g1 ]
    47a8:	82 00 60 01 	inc  %g1
    47ac:	86 20 40 1d 	sub  %g1, %i5, %g3
    47b0:	80 a1 00 03 	cmp  %g4, %g3
    47b4:	18 bf ff fc 	bgu  47a4 <ee_printf+0x1028>
    47b8:	84 00 bf ff 	add  %g2, -1, %g2
    47bc:	80 a7 00 04 	cmp  %i4, %g4
    47c0:	22 80 00 19 	be,a   4824 <ee_printf+0x10a8>
    47c4:	c4 04 80 00 	ld  [ %l2 ], %g2
    47c8:	98 27 00 04 	sub  %i4, %g4, %o4
    47cc:	9f 33 20 02 	srl  %o4, 2, %o7
    47d0:	9b 2b e0 02 	sll  %o7, 2, %o5
    47d4:	80 a3 60 00 	cmp  %o5, 0
    47d8:	02 80 00 0c 	be  4808 <ee_printf+0x108c>
    47dc:	86 10 20 00 	clr  %g3
    47e0:	88 07 40 04 	add  %i5, %g4, %g4
    47e4:	e2 21 00 00 	st  %l1, [ %g4 ]
    47e8:	86 00 e0 01 	inc  %g3
    47ec:	80 a0 c0 0f 	cmp  %g3, %o7
    47f0:	0a bf ff fd 	bcs  47e4 <ee_printf+0x1068>
    47f4:	88 01 20 04 	add  %g4, 4, %g4
    47f8:	82 00 40 0d 	add  %g1, %o5, %g1
    47fc:	80 a3 00 0d 	cmp  %o4, %o5
    4800:	02 80 00 08 	be  4820 <ee_printf+0x10a4>
    4804:	84 20 80 0d 	sub  %g2, %o5, %g2
    4808:	86 10 20 20 	mov  0x20, %g3
    480c:	c6 28 40 00 	stb  %g3, [ %g1 ]
    4810:	84 00 bf ff 	add  %g2, -1, %g2
    4814:	80 a0 a0 00 	cmp  %g2, 0
    4818:	14 bf ff fd 	bg  480c <ee_printf+0x1090>
    481c:	82 00 60 01 	inc  %g1
    4820:	c4 04 80 00 	ld  [ %l2 ], %g2
    4824:	82 07 40 1c 	add  %i5, %i4, %g1
    4828:	c4 2f 40 1c 	stb  %g2, [ %i5 + %i4 ]
    482c:	a4 04 a0 04 	add  %l2, 4, %l2
    4830:	ba 00 60 01 	add  %g1, 1, %i5
    4834:	10 bf fb eb 	b  37e0 <ee_printf+0x64>
    4838:	c4 0e 20 01 	ldub  [ %i0 + 1 ], %g2
    483c:	f8 04 80 00 	ld  [ %l2 ], %i4
    4840:	84 06 20 02 	add  %i0, 2, %g2
    4844:	a4 04 a0 04 	add  %l2, 4, %l2
    4848:	80 a7 20 00 	cmp  %i4, 0
    484c:	16 bf fc 08 	bge  386c <ee_printf+0xf0>
    4850:	c2 0e 20 02 	ldub  [ %i0 + 2 ], %g1
    4854:	b8 20 00 1c 	neg  %i4
    4858:	10 bf fc 05 	b  386c <ee_printf+0xf0>
    485c:	9a 13 60 10 	or  %o5, 0x10, %o5
    4860:	82 10 20 30 	mov  0x30, %g1
    4864:	c2 2f be b0 	stb  %g1, [ %fp + -336 ]
    4868:	9e 10 20 01 	mov  1, %o7
    486c:	82 10 20 2e 	mov  0x2e, %g1
    4870:	98 07 80 0f 	add  %fp, %o7, %o4
    4874:	c2 2b 3e b0 	stb  %g1, [ %o4 + -336 ]
    4878:	c6 08 a0 01 	ldub  [ %g2 + 1 ], %g3
    487c:	80 a0 e0 00 	cmp  %g3, 0
    4880:	12 bf fc a5 	bne  3b14 <ee_printf+0x398>
    4884:	88 10 20 02 	mov  2, %g4
    4888:	82 07 80 04 	add  %fp, %g4, %g1
    488c:	86 10 20 30 	mov  0x30, %g3
    4890:	c6 28 7e b0 	stb  %g3, [ %g1 + -336 ]
    4894:	88 03 e0 02 	add  %o7, 2, %g4
    4898:	82 10 20 2e 	mov  0x2e, %g1
    489c:	98 07 80 04 	add  %fp, %g4, %o4
    48a0:	c2 2b 3e b0 	stb  %g1, [ %o4 + -336 ]
    48a4:	c6 08 a0 02 	ldub  [ %g2 + 2 ], %g3
    48a8:	80 a0 e0 00 	cmp  %g3, 0
    48ac:	12 bf fc c2 	bne  3bb4 <ee_printf+0x438>
    48b0:	9e 01 20 01 	add  %g4, 1, %o7
    48b4:	82 10 20 30 	mov  0x30, %g1
    48b8:	9e 07 80 0f 	add  %fp, %o7, %o7
    48bc:	c2 2b fe b0 	stb  %g1, [ %o7 + -336 ]
    48c0:	86 01 20 02 	add  %g4, 2, %g3
    48c4:	82 10 20 2e 	mov  0x2e, %g1
    48c8:	88 07 80 03 	add  %fp, %g3, %g4
    48cc:	c2 29 3e b0 	stb  %g1, [ %g4 + -336 ]
    48d0:	c4 08 a0 03 	ldub  [ %g2 + 3 ], %g2
    48d4:	80 a0 a0 00 	cmp  %g2, 0
    48d8:	12 bf fc df 	bne  3c54 <ee_printf+0x4d8>
    48dc:	98 00 e0 01 	add  %g3, 1, %o4
    48e0:	82 07 80 0c 	add  %fp, %o4, %g1
    48e4:	84 10 20 30 	mov  0x30, %g2
    48e8:	98 00 e0 02 	add  %g3, 2, %o4
    48ec:	10 bf fc fb 	b  3cd8 <ee_printf+0x55c>
    48f0:	c4 28 7e b0 	stb  %g2, [ %g1 + -336 ]
    48f4:	c2 04 80 00 	ld  [ %l2 ], %g1
    48f8:	c2 2f 40 00 	stb  %g1, [ %i5 ]
    48fc:	b8 07 3f ff 	add  %i4, -1, %i4
    4900:	98 07 60 01 	add  %i5, 1, %o4
    4904:	84 97 20 00 	orcc  %i4, 0, %g2
    4908:	04 80 01 e6 	ble  50a0 <ee_printf+0x1924>
    490c:	a4 04 a0 04 	add  %l2, 4, %l2
    4910:	88 20 00 0c 	neg  %o4, %g4
    4914:	88 09 20 03 	and  %g4, 3, %g4
    4918:	80 a1 00 1c 	cmp  %g4, %i4
    491c:	38 80 00 02 	bgu,a   4924 <ee_printf+0x11a8>
    4920:	88 10 00 1c 	mov  %i4, %g4
    4924:	80 a7 20 03 	cmp  %i4, 3
    4928:	28 80 00 02 	bleu,a   4930 <ee_printf+0x11b4>
    492c:	88 10 00 1c 	mov  %i4, %g4
    4930:	80 a1 20 00 	cmp  %g4, 0
    4934:	02 80 00 0d 	be  4968 <ee_printf+0x11ec>
    4938:	82 10 00 0c 	mov  %o4, %g1
    493c:	9a 38 00 1d 	xnor  %g0, %i5, %o5
    4940:	9e 10 20 20 	mov  0x20, %o7
    4944:	de 28 40 00 	stb  %o7, [ %g1 ]
    4948:	82 00 60 01 	inc  %g1
    494c:	86 00 40 0d 	add  %g1, %o5, %g3
    4950:	80 a1 00 03 	cmp  %g4, %g3
    4954:	18 bf ff fc 	bgu  4944 <ee_printf+0x11c8>
    4958:	84 00 bf ff 	add  %g2, -1, %g2
    495c:	80 a7 00 04 	cmp  %i4, %g4
    4960:	22 80 00 1a 	be,a   49c8 <ee_printf+0x124c>
    4964:	ba 03 00 1c 	add  %o4, %i4, %i5
    4968:	96 27 00 04 	sub  %i4, %g4, %o3
    496c:	9f 32 e0 02 	srl  %o3, 2, %o7
    4970:	9b 2b e0 02 	sll  %o7, 2, %o5
    4974:	80 a3 60 00 	cmp  %o5, 0
    4978:	02 80 00 0d 	be  49ac <ee_printf+0x1230>
    497c:	88 01 20 01 	inc  %g4
    4980:	86 10 20 00 	clr  %g3
    4984:	ba 07 40 04 	add  %i5, %g4, %i5
    4988:	e2 27 40 00 	st  %l1, [ %i5 ]
    498c:	86 00 e0 01 	inc  %g3
    4990:	80 a0 c0 0f 	cmp  %g3, %o7
    4994:	0a bf ff fd 	bcs  4988 <ee_printf+0x120c>
    4998:	ba 07 60 04 	add  %i5, 4, %i5
    499c:	82 00 40 0d 	add  %g1, %o5, %g1
    49a0:	80 a2 c0 0d 	cmp  %o3, %o5
    49a4:	02 80 00 08 	be  49c4 <ee_printf+0x1248>
    49a8:	84 20 80 0d 	sub  %g2, %o5, %g2
    49ac:	86 10 20 20 	mov  0x20, %g3
    49b0:	c6 28 40 00 	stb  %g3, [ %g1 ]
    49b4:	84 00 bf ff 	add  %g2, -1, %g2
    49b8:	80 a0 a0 00 	cmp  %g2, 0
    49bc:	14 bf ff fd 	bg  49b0 <ee_printf+0x1234>
    49c0:	82 00 60 01 	inc  %g1
    49c4:	ba 03 00 1c 	add  %o4, %i4, %i5
    49c8:	10 bf fb 86 	b  37e0 <ee_printf+0x64>
    49cc:	c4 0e 20 01 	ldub  [ %i0 + 1 ], %g2
    49d0:	10 bf fd b1 	b  4094 <ee_printf+0x918>
    49d4:	82 10 20 00 	clr  %g1
    49d8:	10 bf fe 06 	b  41f0 <ee_printf+0xa74>
    49dc:	b8 10 20 08 	mov  8, %i4
    49e0:	80 8b 60 40 	btst  0x40, %o5
    49e4:	02 80 00 ec 	be  4d94 <ee_printf+0x1618>
    49e8:	a4 04 a0 04 	add  %l2, 4, %l2
    49ec:	03 00 00 80 	sethi  %hi(0x20000), %g1
    49f0:	82 10 60 48 	or  %g1, 0x48, %g1	! 20048 <state_known_crc+0x34>
    49f4:	c8 08 80 00 	ldub  [ %g2 ], %g4
    49f8:	9e 09 20 ff 	and  %g4, 0xff, %o7
    49fc:	88 09 20 0f 	and  %g4, 0xf, %g4
    4a00:	c8 08 40 04 	ldub  [ %g1 + %g4 ], %g4
    4a04:	86 10 20 3a 	mov  0x3a, %g3
    4a08:	c8 2f be b1 	stb  %g4, [ %fp + -335 ]
    4a0c:	c6 2f be b2 	stb  %g3, [ %fp + -334 ]
    4a10:	9f 33 e0 04 	srl  %o7, 4, %o7
    4a14:	de 08 40 0f 	ldub  [ %g1 + %o7 ], %o7
    4a18:	de 2f be b0 	stb  %o7, [ %fp + -336 ]
    4a1c:	c8 08 a0 01 	ldub  [ %g2 + 1 ], %g4
    4a20:	98 09 20 ff 	and  %g4, 0xff, %o4
    4a24:	88 09 20 0f 	and  %g4, 0xf, %g4
    4a28:	99 33 20 04 	srl  %o4, 4, %o4
    4a2c:	de 08 40 04 	ldub  [ %g1 + %g4 ], %o7
    4a30:	c8 08 40 0c 	ldub  [ %g1 + %o4 ], %g4
    4a34:	c6 2f be b5 	stb  %g3, [ %fp + -331 ]
    4a38:	de 2f be b4 	stb  %o7, [ %fp + -332 ]
    4a3c:	c8 2f be b3 	stb  %g4, [ %fp + -333 ]
    4a40:	c8 08 a0 02 	ldub  [ %g2 + 2 ], %g4
    4a44:	98 09 20 ff 	and  %g4, 0xff, %o4
    4a48:	88 09 20 0f 	and  %g4, 0xf, %g4
    4a4c:	99 33 20 04 	srl  %o4, 4, %o4
    4a50:	de 08 40 04 	ldub  [ %g1 + %g4 ], %o7
    4a54:	c8 08 40 0c 	ldub  [ %g1 + %o4 ], %g4
    4a58:	c6 2f be b8 	stb  %g3, [ %fp + -328 ]
    4a5c:	de 2f be b7 	stb  %o7, [ %fp + -329 ]
    4a60:	c8 2f be b6 	stb  %g4, [ %fp + -330 ]
    4a64:	c8 08 a0 03 	ldub  [ %g2 + 3 ], %g4
    4a68:	98 09 20 ff 	and  %g4, 0xff, %o4
    4a6c:	88 09 20 0f 	and  %g4, 0xf, %g4
    4a70:	99 33 20 04 	srl  %o4, 4, %o4
    4a74:	de 08 40 04 	ldub  [ %g1 + %g4 ], %o7
    4a78:	c8 08 40 0c 	ldub  [ %g1 + %o4 ], %g4
    4a7c:	c6 2f be bb 	stb  %g3, [ %fp + -325 ]
    4a80:	de 2f be ba 	stb  %o7, [ %fp + -326 ]
    4a84:	c8 2f be b9 	stb  %g4, [ %fp + -327 ]
    4a88:	c8 08 a0 04 	ldub  [ %g2 + 4 ], %g4
    4a8c:	c6 2f be be 	stb  %g3, [ %fp + -322 ]
    4a90:	86 09 20 ff 	and  %g4, 0xff, %g3
    4a94:	87 30 e0 04 	srl  %g3, 4, %g3
    4a98:	c6 08 40 03 	ldub  [ %g1 + %g3 ], %g3
    4a9c:	88 09 20 0f 	and  %g4, 0xf, %g4
    4aa0:	c6 2f be bc 	stb  %g3, [ %fp + -324 ]
    4aa4:	c8 08 40 04 	ldub  [ %g1 + %g4 ], %g4
    4aa8:	c8 2f be bd 	stb  %g4, [ %fp + -323 ]
    4aac:	c4 08 a0 05 	ldub  [ %g2 + 5 ], %g2
    4ab0:	86 08 a0 ff 	and  %g2, 0xff, %g3
    4ab4:	87 30 e0 04 	srl  %g3, 4, %g3
    4ab8:	c6 08 40 03 	ldub  [ %g1 + %g3 ], %g3
    4abc:	c6 2f be bf 	stb  %g3, [ %fp + -321 ]
    4ac0:	84 08 a0 0f 	and  %g2, 0xf, %g2
    4ac4:	80 8b 60 10 	btst  0x10, %o5
    4ac8:	c2 08 40 02 	ldub  [ %g1 + %g2 ], %g1
    4acc:	12 80 00 36 	bne  4ba4 <ee_printf+0x1428>
    4ad0:	c2 2f be c0 	stb  %g1, [ %fp + -320 ]
    4ad4:	80 a7 20 11 	cmp  %i4, 0x11
    4ad8:	04 80 01 77 	ble  50b4 <ee_printf+0x1938>
    4adc:	88 07 3f ff 	add  %i4, -1, %g4
    4ae0:	b8 07 3f ef 	add  %i4, -17, %i4
    4ae4:	82 20 00 1d 	neg  %i5, %g1
    4ae8:	82 08 60 03 	and  %g1, 3, %g1
    4aec:	80 a7 00 01 	cmp  %i4, %g1
    4af0:	18 80 00 ea 	bgu  4e98 <ee_printf+0x171c>
    4af4:	86 10 00 1c 	mov  %i4, %g3
    4af8:	80 a7 20 03 	cmp  %i4, 3
    4afc:	28 80 00 02 	bleu,a   4b04 <ee_printf+0x1388>
    4b00:	86 10 00 1c 	mov  %i4, %g3
    4b04:	80 a0 e0 00 	cmp  %g3, 0
    4b08:	02 80 00 0c 	be  4b38 <ee_printf+0x13bc>
    4b0c:	82 10 00 1d 	mov  %i5, %g1
    4b10:	9e 10 20 20 	mov  0x20, %o7
    4b14:	de 28 40 00 	stb  %o7, [ %g1 ]
    4b18:	82 00 60 01 	inc  %g1
    4b1c:	84 20 40 1d 	sub  %g1, %i5, %g2
    4b20:	80 a0 c0 02 	cmp  %g3, %g2
    4b24:	18 bf ff fc 	bgu  4b14 <ee_printf+0x1398>
    4b28:	88 01 3f ff 	add  %g4, -1, %g4
    4b2c:	80 a7 00 03 	cmp  %i4, %g3
    4b30:	22 80 00 1c 	be,a   4ba0 <ee_printf+0x1424>
    4b34:	ba 07 40 1c 	add  %i5, %i4, %i5
    4b38:	98 27 00 03 	sub  %i4, %g3, %o4
    4b3c:	9f 33 20 02 	srl  %o4, 2, %o7
    4b40:	9b 2b e0 02 	sll  %o7, 2, %o5
    4b44:	80 a3 60 00 	cmp  %o5, 0
    4b48:	02 80 00 0c 	be  4b78 <ee_printf+0x13fc>
    4b4c:	86 07 40 03 	add  %i5, %g3, %g3
    4b50:	84 10 20 00 	clr  %g2
    4b54:	e2 20 c0 00 	st  %l1, [ %g3 ]
    4b58:	84 00 a0 01 	inc  %g2
    4b5c:	80 a0 80 0f 	cmp  %g2, %o7
    4b60:	0a bf ff fd 	bcs  4b54 <ee_printf+0x13d8>
    4b64:	86 00 e0 04 	add  %g3, 4, %g3
    4b68:	82 00 40 0d 	add  %g1, %o5, %g1
    4b6c:	80 a3 00 0d 	cmp  %o4, %o5
    4b70:	02 80 00 0b 	be  4b9c <ee_printf+0x1420>
    4b74:	88 21 00 0d 	sub  %g4, %o5, %g4
    4b78:	84 10 20 00 	clr  %g2
    4b7c:	88 01 20 01 	inc  %g4
    4b80:	9e 10 20 20 	mov  0x20, %o7
    4b84:	de 28 40 02 	stb  %o7, [ %g1 + %g2 ]
    4b88:	84 00 a0 01 	inc  %g2
    4b8c:	86 21 00 02 	sub  %g4, %g2, %g3
    4b90:	80 a0 e0 11 	cmp  %g3, 0x11
    4b94:	34 bf ff fd 	bg,a   4b88 <ee_printf+0x140c>
    4b98:	de 28 40 02 	stb  %o7, [ %g1 + %g2 ]
    4b9c:	ba 07 40 1c 	add  %i5, %i4, %i5
    4ba0:	b8 10 20 10 	mov  0x10, %i4
    4ba4:	80 8f 60 03 	btst  3, %i5
    4ba8:	12 80 01 5f 	bne  5124 <ee_printf+0x19a8>
    4bac:	c2 07 be b0 	ld  [ %fp + -336 ], %g1
    4bb0:	c2 27 40 00 	st  %g1, [ %i5 ]
    4bb4:	c2 07 be b4 	ld  [ %fp + -332 ], %g1
    4bb8:	c2 27 60 04 	st  %g1, [ %i5 + 4 ]
    4bbc:	c2 07 be b8 	ld  [ %fp + -328 ], %g1
    4bc0:	86 07 60 10 	add  %i5, 0x10, %g3
    4bc4:	c2 27 60 08 	st  %g1, [ %i5 + 8 ]
    4bc8:	9e 10 20 01 	mov  1, %o7
    4bcc:	c2 07 be bc 	ld  [ %fp + -324 ], %g1
    4bd0:	84 10 20 10 	mov  0x10, %g2
    4bd4:	c2 27 60 0c 	st  %g1, [ %i5 + 0xc ]
    4bd8:	82 10 00 02 	mov  %g2, %g1
    4bdc:	9e 00 80 0f 	add  %g2, %o7, %o7
    4be0:	86 20 c0 02 	sub  %g3, %g2, %g3
    4be4:	88 07 be b0 	add  %fp, -336, %g4
    4be8:	c4 09 00 01 	ldub  [ %g4 + %g1 ], %g2
    4bec:	c4 28 c0 01 	stb  %g2, [ %g3 + %g1 ]
    4bf0:	82 00 60 01 	inc  %g1
    4bf4:	80 a0 40 0f 	cmp  %g1, %o7
    4bf8:	32 bf ff fd 	bne,a   4bec <ee_printf+0x1470>
    4bfc:	c4 09 00 01 	ldub  [ %g4 + %g1 ], %g2
    4c00:	98 07 60 11 	add  %i5, 0x11, %o4
    4c04:	80 a7 20 11 	cmp  %i4, 0x11
    4c08:	04 80 01 26 	ble  50a0 <ee_printf+0x1924>
    4c0c:	86 07 3f ff 	add  %i4, -1, %g3
    4c10:	b8 07 3f ef 	add  %i4, -17, %i4
    4c14:	88 20 00 0c 	neg  %o4, %g4
    4c18:	88 09 20 03 	and  %g4, 3, %g4
    4c1c:	80 a1 00 1c 	cmp  %g4, %i4
    4c20:	38 80 00 02 	bgu,a   4c28 <ee_printf+0x14ac>
    4c24:	88 10 00 1c 	mov  %i4, %g4
    4c28:	80 a7 20 03 	cmp  %i4, 3
    4c2c:	28 80 00 02 	bleu,a   4c34 <ee_printf+0x14b8>
    4c30:	88 10 00 1c 	mov  %i4, %g4
    4c34:	80 a1 20 00 	cmp  %g4, 0
    4c38:	02 80 00 0e 	be  4c70 <ee_printf+0x14f4>
    4c3c:	82 10 00 0c 	mov  %o4, %g1
    4c40:	9e 10 3f ef 	mov  -17, %o7
    4c44:	9a 10 20 20 	mov  0x20, %o5
    4c48:	9e 23 c0 1d 	sub  %o7, %i5, %o7
    4c4c:	da 28 40 00 	stb  %o5, [ %g1 ]
    4c50:	82 00 60 01 	inc  %g1
    4c54:	84 00 40 0f 	add  %g1, %o7, %g2
    4c58:	80 a1 00 02 	cmp  %g4, %g2
    4c5c:	18 bf ff fc 	bgu  4c4c <ee_printf+0x14d0>
    4c60:	86 00 ff ff 	add  %g3, -1, %g3
    4c64:	80 a7 00 04 	cmp  %i4, %g4
    4c68:	22 80 00 1d 	be,a   4cdc <ee_printf+0x1560>
    4c6c:	ba 03 00 1c 	add  %o4, %i4, %i5
    4c70:	96 27 00 04 	sub  %i4, %g4, %o3
    4c74:	9f 32 e0 02 	srl  %o3, 2, %o7
    4c78:	9b 2b e0 02 	sll  %o7, 2, %o5
    4c7c:	80 a3 60 00 	cmp  %o5, 0
    4c80:	02 80 00 0d 	be  4cb4 <ee_printf+0x1538>
    4c84:	88 01 20 11 	add  %g4, 0x11, %g4
    4c88:	84 10 20 00 	clr  %g2
    4c8c:	ba 07 40 04 	add  %i5, %g4, %i5
    4c90:	e2 27 40 00 	st  %l1, [ %i5 ]
    4c94:	84 00 a0 01 	inc  %g2
    4c98:	80 a0 80 0f 	cmp  %g2, %o7
    4c9c:	0a bf ff fd 	bcs  4c90 <ee_printf+0x1514>
    4ca0:	ba 07 60 04 	add  %i5, 4, %i5
    4ca4:	82 00 40 0d 	add  %g1, %o5, %g1
    4ca8:	80 a2 c0 0d 	cmp  %o3, %o5
    4cac:	02 80 00 0b 	be  4cd8 <ee_printf+0x155c>
    4cb0:	86 20 c0 0d 	sub  %g3, %o5, %g3
    4cb4:	84 10 20 00 	clr  %g2
    4cb8:	86 00 e0 01 	inc  %g3
    4cbc:	ba 10 20 20 	mov  0x20, %i5
    4cc0:	fa 28 40 02 	stb  %i5, [ %g1 + %g2 ]
    4cc4:	84 00 a0 01 	inc  %g2
    4cc8:	88 20 c0 02 	sub  %g3, %g2, %g4
    4ccc:	80 a1 20 11 	cmp  %g4, 0x11
    4cd0:	34 bf ff fd 	bg,a   4cc4 <ee_printf+0x1548>
    4cd4:	fa 28 40 02 	stb  %i5, [ %g1 + %g2 ]
    4cd8:	ba 03 00 1c 	add  %o4, %i4, %i5
    4cdc:	10 bf fa c1 	b  37e0 <ee_printf+0x64>
    4ce0:	c4 0e 20 01 	ldub  [ %i0 + 1 ], %g2
    4ce4:	e6 04 80 00 	ld  [ %l2 ], %l3
    4ce8:	84 06 20 02 	add  %i0, 2, %g2
    4cec:	a4 04 a0 04 	add  %l2, 4, %l2
    4cf0:	80 a4 e0 00 	cmp  %l3, 0
    4cf4:	16 bf fb 4a 	bge  3a1c <ee_printf+0x2a0>
    4cf8:	c2 0e 20 02 	ldub  [ %i0 + 2 ], %g1
    4cfc:	a6 10 20 00 	clr  %l3
    4d00:	10 bf fa e1 	b  3884 <ee_printf+0x108>
    4d04:	b0 10 00 02 	mov  %g2, %i0
    4d08:	34 80 00 3b 	bg,a   4df4 <ee_printf+0x1678>
    4d0c:	9e 07 80 0f 	add  %fp, %o7, %o7
    4d10:	03 00 00 80 	sethi  %hi(0x20000), %g1
    4d14:	10 bf fb c5 	b  3c28 <ee_printf+0x4ac>
    4d18:	82 10 60 20 	or  %g1, 0x20, %g1	! 20020 <state_known_crc+0xc>
    4d1c:	34 80 00 26 	bg,a   4db4 <ee_printf+0x1638>
    4d20:	88 07 80 04 	add  %fp, %g4, %g4
    4d24:	03 00 00 80 	sethi  %hi(0x20000), %g1
    4d28:	10 bf fb 98 	b  3b88 <ee_printf+0x40c>
    4d2c:	82 10 60 20 	or  %g1, 0x20, %g1	! 20020 <state_known_crc+0xc>
    4d30:	34 80 00 41 	bg,a   4e34 <ee_printf+0x16b8>
    4d34:	98 07 80 0c 	add  %fp, %o4, %o4
    4d38:	03 00 00 80 	sethi  %hi(0x20000), %g1
    4d3c:	10 bf fb e3 	b  3cc8 <ee_printf+0x54c>
    4d40:	82 10 60 20 	or  %g1, 0x20, %g1	! 20020 <state_known_crc+0xc>
    4d44:	24 80 00 4c 	ble,a   4e74 <ee_printf+0x16f8>
    4d48:	03 00 00 80 	sethi  %hi(0x20000), %g1
    4d4c:	83 38 e0 1f 	sra  %g3, 0x1f, %g1
    4d50:	81 80 60 00 	mov  %g1, %y
    4d54:	01 00 00 00 	nop 
    4d58:	01 00 00 00 	nop 
    4d5c:	01 00 00 00 	nop 
    4d60:	88 78 e0 0a 	sdiv  %g3, 0xa, %g4
    4d64:	03 00 00 80 	sethi  %hi(0x20000), %g1
    4d68:	99 29 20 03 	sll  %g4, 3, %o4
    4d6c:	96 01 00 04 	add  %g4, %g4, %o3
    4d70:	82 10 60 20 	or  %g1, 0x20, %g1
    4d74:	de 08 40 04 	ldub  [ %g1 + %g4 ], %o7
    4d78:	88 02 c0 0c 	add  %o3, %o4, %g4
    4d7c:	de 2f be b0 	stb  %o7, [ %fp + -336 ]
    4d80:	86 20 c0 04 	sub  %g3, %g4, %g3
    4d84:	9e 10 20 02 	mov  2, %o7
    4d88:	88 10 20 03 	mov  3, %g4
    4d8c:	10 bf fb 58 	b  3aec <ee_printf+0x370>
    4d90:	98 10 20 01 	mov  1, %o4
    4d94:	03 00 00 80 	sethi  %hi(0x20000), %g1
    4d98:	10 bf ff 17 	b  49f4 <ee_printf+0x1278>
    4d9c:	82 10 60 20 	or  %g1, 0x20, %g1	! 20020 <state_known_crc+0xc>
    4da0:	02 bf fd 3b 	be  428c <ee_printf+0xb10>
    4da4:	ac 10 20 00 	clr  %l6
    4da8:	b8 07 3f ff 	add  %i4, -1, %i4
    4dac:	10 bf fd 38 	b  428c <ee_printf+0xb10>
    4db0:	ac 10 20 20 	mov  0x20, %l6
    4db4:	83 38 e0 1f 	sra  %g3, 0x1f, %g1
    4db8:	81 80 60 00 	mov  %g1, %y
    4dbc:	01 00 00 00 	nop 
    4dc0:	01 00 00 00 	nop 
    4dc4:	01 00 00 00 	nop 
    4dc8:	98 78 e0 0a 	sdiv  %g3, 0xa, %o4
    4dcc:	03 00 00 80 	sethi  %hi(0x20000), %g1
    4dd0:	92 03 00 0c 	add  %o4, %o4, %o1
    4dd4:	82 10 60 20 	or  %g1, 0x20, %g1
    4dd8:	95 2b 20 03 	sll  %o4, 3, %o2
    4ddc:	d6 08 40 0c 	ldub  [ %g1 + %o4 ], %o3
    4de0:	98 02 40 0a 	add  %o1, %o2, %o4
    4de4:	d6 29 3e b0 	stb  %o3, [ %g4 + -336 ]
    4de8:	86 20 c0 0c 	sub  %g3, %o4, %g3
    4dec:	10 bf fb 67 	b  3b88 <ee_printf+0x40c>
    4df0:	88 03 e0 02 	add  %o7, 2, %g4
    4df4:	83 38 e0 1f 	sra  %g3, 0x1f, %g1
    4df8:	81 80 60 00 	mov  %g1, %y
    4dfc:	01 00 00 00 	nop 
    4e00:	01 00 00 00 	nop 
    4e04:	01 00 00 00 	nop 
    4e08:	98 78 e0 0a 	sdiv  %g3, 0xa, %o4
    4e0c:	03 00 00 80 	sethi  %hi(0x20000), %g1
    4e10:	92 03 00 0c 	add  %o4, %o4, %o1
    4e14:	82 10 60 20 	or  %g1, 0x20, %g1
    4e18:	95 2b 20 03 	sll  %o4, 3, %o2
    4e1c:	d6 08 40 0c 	ldub  [ %g1 + %o4 ], %o3
    4e20:	98 02 40 0a 	add  %o1, %o2, %o4
    4e24:	d6 2b fe b0 	stb  %o3, [ %o7 + -336 ]
    4e28:	86 20 c0 0c 	sub  %g3, %o4, %g3
    4e2c:	10 bf fb 7f 	b  3c28 <ee_printf+0x4ac>
    4e30:	9e 01 20 02 	add  %g4, 2, %o7
    4e34:	9f 38 a0 1f 	sra  %g2, 0x1f, %o7
    4e38:	81 83 e0 00 	mov  %o7, %y
    4e3c:	01 00 00 00 	nop 
    4e40:	01 00 00 00 	nop 
    4e44:	01 00 00 00 	nop 
    4e48:	88 78 a0 0a 	sdiv  %g2, 0xa, %g4
    4e4c:	03 00 00 80 	sethi  %hi(0x20000), %g1
    4e50:	94 01 00 04 	add  %g4, %g4, %o2
    4e54:	82 10 60 20 	or  %g1, 0x20, %g1
    4e58:	97 29 20 03 	sll  %g4, 3, %o3
    4e5c:	de 08 40 04 	ldub  [ %g1 + %g4 ], %o7
    4e60:	88 02 80 0b 	add  %o2, %o3, %g4
    4e64:	de 2b 3e b0 	stb  %o7, [ %o4 + -336 ]
    4e68:	84 20 80 04 	sub  %g2, %g4, %g2
    4e6c:	10 bf fb 97 	b  3cc8 <ee_printf+0x54c>
    4e70:	98 00 e0 02 	add  %g3, 2, %o4
    4e74:	88 10 20 02 	mov  2, %g4
    4e78:	9e 10 20 01 	mov  1, %o7
    4e7c:	98 10 20 00 	clr  %o4
    4e80:	10 bf fb 1b 	b  3aec <ee_printf+0x370>
    4e84:	82 10 60 20 	or  %g1, 0x20, %g1
    4e88:	91 a0 00 a8 	fnegs  %f8, %f8
    4e8c:	b8 07 3f ff 	add  %i4, -1, %i4
    4e90:	10 bf fc ff 	b  428c <ee_printf+0xb10>
    4e94:	ac 10 20 2d 	mov  0x2d, %l6
    4e98:	10 bf ff 18 	b  4af8 <ee_printf+0x137c>
    4e9c:	86 10 00 01 	mov  %g1, %g3
    4ea0:	c6 07 be 50 	ld  [ %fp + -432 ], %g3
    4ea4:	84 10 00 08 	mov  %o0, %g2
    4ea8:	80 a0 e0 00 	cmp  %g3, 0
    4eac:	14 80 00 0b 	bg  4ed8 <ee_printf+0x175c>
    4eb0:	9e 10 20 2e 	mov  0x2e, %o7
    4eb4:	10 80 00 10 	b  4ef4 <ee_printf+0x1778>
    4eb8:	84 10 20 30 	mov  0x30, %g2
    4ebc:	da 28 40 00 	stb  %o5, [ %g1 ]
    4ec0:	84 00 a0 01 	inc  %g2
    4ec4:	82 00 60 01 	inc  %g1
    4ec8:	c8 48 80 00 	ldsb  [ %g2 ], %g4
    4ecc:	80 a1 20 00 	cmp  %g4, 0
    4ed0:	02 80 00 43 	be  4fdc <ee_printf+0x1860>
    4ed4:	da 08 80 00 	ldub  [ %g2 ], %o5
    4ed8:	88 20 80 08 	sub  %g2, %o0, %g4
    4edc:	80 a0 c0 04 	cmp  %g3, %g4
    4ee0:	32 bf ff f8 	bne,a   4ec0 <ee_printf+0x1744>
    4ee4:	da 28 40 00 	stb  %o5, [ %g1 ]
    4ee8:	de 28 40 00 	stb  %o7, [ %g1 ]
    4eec:	10 bf ff f4 	b  4ebc <ee_printf+0x1740>
    4ef0:	82 00 60 01 	inc  %g1
    4ef4:	c4 28 40 00 	stb  %g2, [ %g1 ]
    4ef8:	84 10 20 2e 	mov  0x2e, %g2
    4efc:	c4 28 60 01 	stb  %g2, [ %g1 + 1 ]
    4f00:	84 a0 00 03 	subcc  %g0, %g3, %g2
    4f04:	02 80 00 2f 	be  4fc0 <ee_printf+0x1844>
    4f08:	82 00 60 02 	add  %g1, 2, %g1
    4f0c:	86 20 00 01 	neg  %g1, %g3
    4f10:	86 08 e0 03 	and  %g3, 3, %g3
    4f14:	80 a0 c0 02 	cmp  %g3, %g2
    4f18:	38 80 00 02 	bgu,a   4f20 <ee_printf+0x17a4>
    4f1c:	86 10 00 02 	mov  %g2, %g3
    4f20:	80 a0 a0 03 	cmp  %g2, 3
    4f24:	28 80 00 02 	bleu,a   4f2c <ee_printf+0x17b0>
    4f28:	86 10 00 02 	mov  %g2, %g3
    4f2c:	88 10 00 01 	mov  %g1, %g4
    4f30:	80 a0 e0 00 	cmp  %g3, 0
    4f34:	02 80 00 0b 	be  4f60 <ee_printf+0x17e4>
    4f38:	9e 10 20 00 	clr  %o7
    4f3c:	98 10 20 30 	mov  0x30, %o4
    4f40:	d8 29 00 00 	stb  %o4, [ %g4 ]
    4f44:	9e 03 e0 01 	inc  %o7
    4f48:	80 a0 c0 0f 	cmp  %g3, %o7
    4f4c:	18 bf ff fd 	bgu  4f40 <ee_printf+0x17c4>
    4f50:	88 01 20 01 	inc  %g4
    4f54:	80 a0 80 03 	cmp  %g2, %g3
    4f58:	22 80 00 1a 	be,a   4fc0 <ee_printf+0x1844>
    4f5c:	82 00 40 02 	add  %g1, %g2, %g1
    4f60:	94 20 80 03 	sub  %g2, %g3, %o2
    4f64:	93 32 a0 02 	srl  %o2, 2, %o1
    4f68:	99 2a 60 02 	sll  %o1, 2, %o4
    4f6c:	80 a3 20 00 	cmp  %o4, 0
    4f70:	02 80 00 0c 	be  4fa0 <ee_printf+0x1824>
    4f74:	86 00 40 03 	add  %g1, %g3, %g3
    4f78:	96 10 20 00 	clr  %o3
    4f7c:	f4 20 c0 00 	st  %i2, [ %g3 ]
    4f80:	96 02 e0 01 	inc  %o3
    4f84:	80 a2 c0 09 	cmp  %o3, %o1
    4f88:	0a bf ff fd 	bcs  4f7c <ee_printf+0x1800>
    4f8c:	86 00 e0 04 	add  %g3, 4, %g3
    4f90:	88 01 00 0c 	add  %g4, %o4, %g4
    4f94:	80 a2 80 0c 	cmp  %o2, %o4
    4f98:	02 80 00 09 	be  4fbc <ee_printf+0x1840>
    4f9c:	9e 03 c0 0c 	add  %o7, %o4, %o7
    4fa0:	86 10 20 30 	mov  0x30, %g3
    4fa4:	88 21 00 0f 	sub  %g4, %o7, %g4
    4fa8:	c6 29 00 0f 	stb  %g3, [ %g4 + %o7 ]
    4fac:	9e 03 e0 01 	inc  %o7
    4fb0:	80 a0 80 0f 	cmp  %g2, %o7
    4fb4:	34 bf ff fe 	bg,a   4fac <ee_printf+0x1830>
    4fb8:	c6 29 00 0f 	stb  %g3, [ %g4 + %o7 ]
    4fbc:	82 00 40 02 	add  %g1, %g2, %g1
    4fc0:	da 28 40 00 	stb  %o5, [ %g1 ]
    4fc4:	90 02 20 01 	inc  %o0
    4fc8:	82 00 60 01 	inc  %g1
    4fcc:	c4 4a 00 00 	ldsb  [ %o0 ], %g2
    4fd0:	80 a0 a0 00 	cmp  %g2, 0
    4fd4:	12 bf ff fb 	bne  4fc0 <ee_printf+0x1844>
    4fd8:	da 0a 00 00 	ldub  [ %o0 ], %o5
    4fdc:	80 8d 60 20 	btst  0x20, %l5
    4fe0:	02 bf fc f7 	be  43bc <ee_printf+0xc40>
    4fe4:	c0 28 40 00 	clrb  [ %g1 ]
    4fe8:	80 a4 e0 00 	cmp  %l3, 0
    4fec:	12 bf fc f5 	bne  43c0 <ee_printf+0xc44>
    4ff0:	c2 0f be 60 	ldub  [ %fp + -416 ], %g1
    4ff4:	c2 4f be 60 	ldsb  [ %fp + -416 ], %g1
    4ff8:	80 a0 60 00 	cmp  %g1, 0
    4ffc:	02 80 00 4e 	be  5134 <ee_printf+0x19b8>
    5000:	c4 0f be 60 	ldub  [ %fp + -416 ], %g2
    5004:	80 a0 60 2e 	cmp  %g1, 0x2e
    5008:	02 bf fc f2 	be  43d0 <ee_printf+0xc54>
    500c:	82 08 bf df 	and  %g2, -33, %g1
    5010:	83 28 60 18 	sll  %g1, 0x18, %g1
    5014:	83 38 60 18 	sra  %g1, 0x18, %g1
    5018:	80 a0 60 45 	cmp  %g1, 0x45
    501c:	02 80 00 28 	be  50bc <ee_printf+0x1940>
    5020:	84 07 be 60 	add  %fp, -416, %g2
    5024:	10 80 00 0b 	b  5050 <ee_printf+0x18d4>
    5028:	82 07 be 61 	add  %fp, -415, %g1
    502c:	80 a0 e0 2e 	cmp  %g3, 0x2e
    5030:	22 bf fc e9 	be,a   43d4 <ee_printf+0xc58>
    5034:	88 07 be 60 	add  %fp, -416, %g4
    5038:	86 09 3f df 	and  %g4, -33, %g3
    503c:	87 28 e0 18 	sll  %g3, 0x18, %g3
    5040:	87 38 e0 18 	sra  %g3, 0x18, %g3
    5044:	80 a0 e0 45 	cmp  %g3, 0x45
    5048:	02 80 00 1d 	be  50bc <ee_printf+0x1940>
    504c:	82 00 60 01 	inc  %g1
    5050:	c6 48 40 00 	ldsb  [ %g1 ], %g3
    5054:	84 10 00 01 	mov  %g1, %g2
    5058:	80 a0 e0 00 	cmp  %g3, 0
    505c:	12 bf ff f4 	bne  502c <ee_printf+0x18b0>
    5060:	c8 08 40 00 	ldub  [ %g1 ], %g4
    5064:	c0 28 a0 01 	clrb  [ %g2 + 1 ]
    5068:	82 10 20 2e 	mov  0x2e, %g1
    506c:	10 bf fc d4 	b  43bc <ee_printf+0xc40>
    5070:	c2 28 80 00 	stb  %g1, [ %g2 ]
    5074:	09 00 00 80 	sethi  %hi(0x20000), %g4
    5078:	10 bf fb b1 	b  3f3c <ee_printf+0x7c0>
    507c:	88 11 20 70 	or  %g4, 0x70, %g4	! 20070 <state_known_crc+0x5c>
    5080:	10 bf fb 4e 	b  3db8 <ee_printf+0x63c>
    5084:	b8 10 00 04 	mov  %g4, %i4
    5088:	10 bf fb bd 	b  3f7c <ee_printf+0x800>
    508c:	86 10 20 00 	clr  %g3
    5090:	10 bf fd 13 	b  44dc <ee_printf+0xd60>
    5094:	b8 10 00 04 	mov  %g4, %i4
    5098:	10 bf fb f1 	b  405c <ee_printf+0x8e0>
    509c:	b8 10 00 0d 	mov  %o5, %i4
    50a0:	ba 10 00 0c 	mov  %o4, %i5
    50a4:	10 bf f9 cf 	b  37e0 <ee_printf+0x64>
    50a8:	c4 0e 20 01 	ldub  [ %i0 + 1 ], %g2
    50ac:	10 bf fd 4d 	b  45e0 <ee_printf+0xe64>
    50b0:	b8 10 00 04 	mov  %g4, %i4
    50b4:	10 bf fe bc 	b  4ba4 <ee_printf+0x1428>
    50b8:	b8 10 00 04 	mov  %g4, %i4
    50bc:	88 00 a1 00 	add  %g2, 0x100, %g4
    50c0:	10 80 00 04 	b  50d0 <ee_printf+0x1954>
    50c4:	82 10 00 02 	mov  %g2, %g1
    50c8:	22 80 00 08 	be,a   50e8 <ee_printf+0x196c>
    50cc:	82 20 40 02 	sub  %g1, %g2, %g1
    50d0:	82 00 60 01 	inc  %g1
    50d4:	c6 48 40 00 	ldsb  [ %g1 ], %g3
    50d8:	80 a0 e0 00 	cmp  %g3, 0
    50dc:	12 bf ff fb 	bne  50c8 <ee_printf+0x194c>
    50e0:	80 a0 40 04 	cmp  %g1, %g4
    50e4:	82 20 40 02 	sub  %g1, %g2, %g1
    50e8:	80 a0 60 00 	cmp  %g1, 0
    50ec:	24 bf ff e0 	ble,a   506c <ee_printf+0x18f0>
    50f0:	82 10 20 2e 	mov  0x2e, %g1
    50f4:	c8 08 80 01 	ldub  [ %g2 + %g1 ], %g4
    50f8:	86 00 80 01 	add  %g2, %g1, %g3
    50fc:	82 80 7f ff 	addcc  %g1, -1, %g1
    5100:	12 bf ff fd 	bne  50f4 <ee_printf+0x1978>
    5104:	c8 28 e0 01 	stb  %g4, [ %g3 + 1 ]
    5108:	82 10 20 2e 	mov  0x2e, %g1
    510c:	10 bf fc ac 	b  43bc <ee_printf+0xc40>
    5110:	c2 28 80 00 	stb  %g1, [ %g2 ]
    5114:	86 10 00 1d 	mov  %i5, %g3
    5118:	82 10 20 00 	clr  %g1
    511c:	10 bf fb 3c 	b  3e0c <ee_printf+0x690>
    5120:	88 07 be b0 	add  %fp, -336, %g4
    5124:	86 10 00 1d 	mov  %i5, %g3
    5128:	9e 10 20 11 	mov  0x11, %o7
    512c:	10 bf fe ab 	b  4bd8 <ee_printf+0x145c>
    5130:	84 10 20 00 	clr  %g2
    5134:	84 07 be 60 	add  %fp, -416, %g2
    5138:	10 bf ff cc 	b  5068 <ee_printf+0x18ec>
    513c:	c0 28 a0 01 	clrb  [ %g2 + 1 ]
    5140:	86 10 00 1d 	mov  %i5, %g3
    5144:	82 10 20 00 	clr  %g1
    5148:	10 bf fd 42 	b  4650 <ee_printf+0xed4>
    514c:	88 07 be 60 	add  %fp, -416, %g4
    5150:	98 10 00 1d 	mov  %i5, %o4
    5154:	10 bf fb e6 	b  40ec <ee_printf+0x970>
    5158:	82 10 20 00 	clr  %g1
    515c:	10 bf fc 6a 	b  4304 <ee_printf+0xb88>
    5160:	88 10 20 01 	mov  1, %g4
    5164:	80 8d 60 20 	btst  0x20, %l5
    5168:	12 bf ff a3 	bne  4ff4 <ee_printf+0x1878>
    516c:	c0 28 60 01 	clrb  [ %g1 + 1 ]
    5170:	10 bf fc 94 	b  43c0 <ee_printf+0xc44>
    5174:	c2 0f be 60 	ldub  [ %fp + -416 ], %g1

00005178 <iterate>:
    5178:	9d e3 bf a0 	save  %sp, -96, %sp
    517c:	c0 36 20 38 	clrh  [ %i0 + 0x38 ]
    5180:	c0 36 20 3a 	clrh  [ %i0 + 0x3a ]
    5184:	c0 36 20 3c 	clrh  [ %i0 + 0x3c ]
    5188:	c0 36 20 3e 	clrh  [ %i0 + 0x3e ]
    518c:	f8 06 20 1c 	ld  [ %i0 + 0x1c ], %i4
    5190:	80 a7 20 00 	cmp  %i4, 0
    5194:	02 80 00 19 	be  51f8 <iterate+0x80>
    5198:	ba 10 20 00 	clr  %i5
    519c:	92 10 20 01 	mov  1, %o1
    51a0:	40 00 08 2f 	call  725c <core_bench_list>
    51a4:	90 10 00 18 	mov  %i0, %o0
    51a8:	d2 16 20 38 	lduh  [ %i0 + 0x38 ], %o1
    51ac:	91 2a 20 10 	sll  %o0, 0x10, %o0
    51b0:	40 00 11 91 	call  97f4 <crcu16>
    51b4:	91 32 20 10 	srl  %o0, 0x10, %o0
    51b8:	92 10 3f ff 	mov  -1, %o1
    51bc:	d0 36 20 38 	sth  %o0, [ %i0 + 0x38 ]
    51c0:	40 00 08 27 	call  725c <core_bench_list>
    51c4:	90 10 00 18 	mov  %i0, %o0
    51c8:	d2 16 20 38 	lduh  [ %i0 + 0x38 ], %o1
    51cc:	91 2a 20 10 	sll  %o0, 0x10, %o0
    51d0:	40 00 11 89 	call  97f4 <crcu16>
    51d4:	91 32 20 10 	srl  %o0, 0x10, %o0
    51d8:	80 a7 60 00 	cmp  %i5, 0
    51dc:	12 80 00 03 	bne  51e8 <iterate+0x70>
    51e0:	d0 36 20 38 	sth  %o0, [ %i0 + 0x38 ]
    51e4:	d0 36 20 3a 	sth  %o0, [ %i0 + 0x3a ]
    51e8:	ba 07 60 01 	inc  %i5
    51ec:	80 a7 40 1c 	cmp  %i5, %i4
    51f0:	12 bf ff ec 	bne  51a0 <iterate+0x28>
    51f4:	92 10 20 01 	mov  1, %o1
    51f8:	81 c7 e0 08 	ret 
    51fc:	91 e8 20 00 	restore  %g0, 0, %o0

00005200 <ajit_main>:
    5200:	9d e3 b7 80 	save  %sp, -2176, %sp
    5204:	40 00 0f 3a 	call  8eec <portable_init>
    5208:	90 07 b8 2a 	add  %fp, -2006, %o0
    520c:	40 00 10 8f 	call  9448 <get_seed_32>
    5210:	90 10 20 01 	mov  1, %o0
    5214:	d0 37 b7 e8 	sth  %o0, [ %fp + -2072 ]
    5218:	40 00 10 8c 	call  9448 <get_seed_32>
    521c:	90 10 20 02 	mov  2, %o0
    5220:	d0 37 b7 ea 	sth  %o0, [ %fp + -2070 ]
    5224:	40 00 10 89 	call  9448 <get_seed_32>
    5228:	90 10 20 03 	mov  3, %o0
    522c:	d0 37 b7 ec 	sth  %o0, [ %fp + -2068 ]
    5230:	40 00 10 86 	call  9448 <get_seed_32>
    5234:	90 10 20 04 	mov  4, %o0
    5238:	d0 27 b8 04 	st  %o0, [ %fp + -2044 ]
    523c:	40 00 10 83 	call  9448 <get_seed_32>
    5240:	90 10 20 05 	mov  5, %o0
    5244:	82 92 20 00 	orcc  %o0, 0, %g1
    5248:	22 80 01 a6 	be,a   58e0 <ajit_main+0x6e0>
    524c:	82 10 20 07 	mov  7, %g1
    5250:	88 08 60 01 	and  %g1, 1, %g4
    5254:	c2 27 b8 08 	st  %g1, [ %fp + -2040 ]
    5258:	b6 10 00 04 	mov  %g4, %i3
    525c:	c4 07 b7 e8 	ld  [ %fp + -2072 ], %g2
    5260:	80 a0 a0 00 	cmp  %g2, 0
    5264:	12 80 01 83 	bne  5870 <ajit_main+0x670>
    5268:	07 00 00 40 	sethi  %hi(0x10000), %g3
    526c:	c4 57 b7 ec 	ldsh  [ %fp + -2068 ], %g2
    5270:	80 a0 a0 00 	cmp  %g2, 0
    5274:	22 80 01 7a 	be,a   585c <ajit_main+0x65c>
    5278:	c0 37 b7 e8 	clrh  [ %fp + -2072 ]
    527c:	80 a0 00 04 	cmp  %g0, %g4
    5280:	84 07 b8 30 	add  %fp, -2000, %g2
    5284:	c0 37 b8 28 	clrh  [ %fp + -2008 ]
    5288:	c4 27 b7 f0 	st  %g2, [ %fp + -2064 ]
    528c:	86 40 20 00 	addx  %g0, 0, %g3
    5290:	84 88 60 02 	andcc  %g1, 2, %g2
    5294:	02 80 00 03 	be  52a0 <ajit_main+0xa0>
    5298:	ba 00 e0 01 	add  %g3, 1, %i5
    529c:	86 10 00 1d 	mov  %i5, %g3
    52a0:	ba 88 60 04 	andcc  %g1, 4, %i5
    52a4:	02 80 00 03 	be  52b0 <ajit_main+0xb0>
    52a8:	b8 00 e0 01 	add  %g3, 1, %i4
    52ac:	86 10 00 1c 	mov  %i4, %g3
    52b0:	87 28 e0 10 	sll  %g3, 0x10, %g3
    52b4:	b8 10 27 d0 	mov  0x7d0, %i4
    52b8:	87 30 e0 10 	srl  %g3, 0x10, %g3
    52bc:	81 80 20 00 	mov  %g0, %y
    52c0:	01 00 00 00 	nop 
    52c4:	01 00 00 00 	nop 
    52c8:	01 00 00 00 	nop 
    52cc:	90 77 00 03 	udiv  %i4, %g3, %o0
    52d0:	d0 27 b8 00 	st  %o0, [ %fp + -2048 ]
    52d4:	80 a1 20 00 	cmp  %g4, 0
    52d8:	02 80 00 05 	be  52ec <ajit_main+0xec>
    52dc:	86 10 20 00 	clr  %g3
    52e0:	c8 07 b7 f0 	ld  [ %fp + -2064 ], %g4
    52e4:	86 10 20 01 	mov  1, %g3
    52e8:	c8 27 b7 f4 	st  %g4, [ %fp + -2060 ]
    52ec:	80 a0 a0 00 	cmp  %g2, 0
    52f0:	02 80 00 09 	be  5314 <ajit_main+0x114>
    52f4:	80 a7 60 00 	cmp  %i5, 0
    52f8:	89 28 e0 10 	sll  %g3, 0x10, %g4
    52fc:	f8 07 b7 f0 	ld  [ %fp + -2064 ], %i4
    5300:	89 31 20 10 	srl  %g4, 0x10, %g4
    5304:	86 00 e0 01 	inc  %g3
    5308:	88 59 00 08 	smul  %g4, %o0, %g4
    530c:	88 07 00 04 	add  %i4, %g4, %g4
    5310:	c8 27 b7 f8 	st  %g4, [ %fp + -2056 ]
    5314:	02 80 00 08 	be  5334 <ajit_main+0x134>
    5318:	80 a6 e0 00 	cmp  %i3, 0
    531c:	87 28 e0 10 	sll  %g3, 0x10, %g3
    5320:	c8 07 b7 f0 	ld  [ %fp + -2064 ], %g4
    5324:	87 30 e0 10 	srl  %g3, 0x10, %g3
    5328:	86 58 c0 08 	smul  %g3, %o0, %g3
    532c:	86 01 00 03 	add  %g4, %g3, %g3
    5330:	c6 27 b7 fc 	st  %g3, [ %fp + -2052 ]
    5334:	02 80 00 09 	be  5358 <ajit_main+0x158>
    5338:	80 a0 a0 00 	cmp  %g2, 0
    533c:	d2 07 b7 f4 	ld  [ %fp + -2060 ], %o1
    5340:	40 00 06 b8 	call  6e20 <core_list_init>
    5344:	d4 57 b7 e8 	ldsh  [ %fp + -2072 ], %o2
    5348:	c2 07 b8 08 	ld  [ %fp + -2040 ], %g1
    534c:	d0 27 b8 0c 	st  %o0, [ %fp + -2036 ]
    5350:	84 08 60 02 	and  %g1, 2, %g2
    5354:	80 a0 a0 00 	cmp  %g2, 0
    5358:	32 80 01 38 	bne,a   5838 <ajit_main+0x638>
    535c:	c2 57 b7 e8 	ldsh  [ %fp + -2072 ], %g1
    5360:	80 88 60 04 	btst  4, %g1
    5364:	12 80 01 30 	bne  5824 <ajit_main+0x624>
    5368:	d0 07 b8 00 	ld  [ %fp + -2048 ], %o0
    536c:	c2 07 b8 04 	ld  [ %fp + -2044 ], %g1
    5370:	80 a0 60 00 	cmp  %g1, 0
    5374:	02 80 00 fd 	be  5768 <ajit_main+0x568>
    5378:	82 10 20 01 	mov  1, %g1
    537c:	40 00 0e b5 	call  8e50 <start_time>
    5380:	ba 10 20 00 	clr  %i5
    5384:	40 00 10 31 	call  9448 <get_seed_32>
    5388:	90 10 20 04 	mov  4, %o0
    538c:	c0 37 b8 20 	clrh  [ %fp + -2016 ]
    5390:	d0 27 b8 04 	st  %o0, [ %fp + -2044 ]
    5394:	c0 37 b8 22 	clrh  [ %fp + -2014 ]
    5398:	c0 37 b8 24 	clrh  [ %fp + -2012 ]
    539c:	c0 37 b8 26 	clrh  [ %fp + -2010 ]
    53a0:	80 a2 20 00 	cmp  %o0, 0
    53a4:	02 80 00 19 	be  5408 <ajit_main+0x208>
    53a8:	b8 10 00 08 	mov  %o0, %i4
    53ac:	92 10 20 01 	mov  1, %o1
    53b0:	40 00 07 ab 	call  725c <core_bench_list>
    53b4:	90 07 b7 e8 	add  %fp, -2072, %o0
    53b8:	d2 17 b8 20 	lduh  [ %fp + -2016 ], %o1
    53bc:	91 2a 20 10 	sll  %o0, 0x10, %o0
    53c0:	40 00 11 0d 	call  97f4 <crcu16>
    53c4:	91 32 20 10 	srl  %o0, 0x10, %o0
    53c8:	92 10 3f ff 	mov  -1, %o1
    53cc:	d0 37 b8 20 	sth  %o0, [ %fp + -2016 ]
    53d0:	40 00 07 a3 	call  725c <core_bench_list>
    53d4:	90 07 b7 e8 	add  %fp, -2072, %o0
    53d8:	d2 17 b8 20 	lduh  [ %fp + -2016 ], %o1
    53dc:	91 2a 20 10 	sll  %o0, 0x10, %o0
    53e0:	40 00 11 05 	call  97f4 <crcu16>
    53e4:	91 32 20 10 	srl  %o0, 0x10, %o0
    53e8:	80 a7 60 00 	cmp  %i5, 0
    53ec:	12 80 00 03 	bne  53f8 <ajit_main+0x1f8>
    53f0:	d0 37 b8 20 	sth  %o0, [ %fp + -2016 ]
    53f4:	d0 37 b8 22 	sth  %o0, [ %fp + -2014 ]
    53f8:	ba 07 60 01 	inc  %i5
    53fc:	80 a7 00 1d 	cmp  %i4, %i5
    5400:	32 bf ff ec 	bne,a   53b0 <ajit_main+0x1b0>
    5404:	92 10 20 01 	mov  1, %o1
    5408:	40 00 0e 9e 	call  8e80 <stop_time>
    540c:	01 00 00 00 	nop 
    5410:	40 00 0e a8 	call  8eb0 <get_time>
    5414:	01 00 00 00 	nop 
    5418:	92 10 20 00 	clr  %o1	! 0 <_start>
    541c:	b2 10 00 08 	mov  %o0, %i1
    5420:	40 00 15 3d 	call  a914 <crc16>
    5424:	d0 57 b7 e8 	ldsh  [ %fp + -2072 ], %o0
    5428:	93 2a 20 10 	sll  %o0, 0x10, %o1
    542c:	d0 57 b7 ea 	ldsh  [ %fp + -2070 ], %o0
    5430:	40 00 15 39 	call  a914 <crc16>
    5434:	93 32 60 10 	srl  %o1, 0x10, %o1
    5438:	93 2a 20 10 	sll  %o0, 0x10, %o1
    543c:	d0 57 b7 ec 	ldsh  [ %fp + -2068 ], %o0
    5440:	40 00 15 35 	call  a914 <crc16>
    5444:	93 32 60 10 	srl  %o1, 0x10, %o1
    5448:	93 2a 20 10 	sll  %o0, 0x10, %o1
    544c:	d0 57 b8 02 	ldsh  [ %fp + -2046 ], %o0
    5450:	40 00 15 31 	call  a914 <crc16>
    5454:	93 32 60 10 	srl  %o1, 0x10, %o1
    5458:	91 2a 20 10 	sll  %o0, 0x10, %o0
    545c:	05 00 00 1e 	sethi  %hi(0x7800), %g2
    5460:	83 32 20 10 	srl  %o0, 0x10, %g1
    5464:	84 10 a3 05 	or  %g2, 0x305, %g2
    5468:	80 a0 40 02 	cmp  %g1, %g2
    546c:	02 80 01 b5 	be  5b40 <ajit_main+0x940>
    5470:	d0 27 b7 e4 	st  %o0, [ %fp + -2076 ]
    5474:	80 a0 40 02 	cmp  %g1, %g2
    5478:	08 80 01 1e 	bleu  58f0 <ajit_main+0x6f0>
    547c:	05 00 00 06 	sethi  %hi(0x1800), %g2
    5480:	05 00 00 22 	sethi  %hi(0x8800), %g2
    5484:	84 10 a2 02 	or  %g2, 0x202, %g2	! 8a02 <__ajit_read_spi_master_register_via_vmap__+0x12>
    5488:	80 a0 40 02 	cmp  %g1, %g2
    548c:	02 80 01 a7 	be  5b28 <ajit_main+0x928>
    5490:	05 00 00 3a 	sethi  %hi(0xe800), %g2
    5494:	84 10 a1 f5 	or  %g2, 0x1f5, %g2	! e9f5 <check_data_types+0x3b39>
    5498:	80 a0 40 02 	cmp  %g1, %g2
    549c:	02 80 01 78 	be  5a7c <ajit_main+0x87c>
    54a0:	ae 10 20 03 	mov  3, %l7
    54a4:	ba 10 3f ff 	mov  -1, %i5
    54a8:	31 00 00 81 	sethi  %hi(0x20400), %i0
    54ac:	40 00 16 84 	call  aebc <check_data_types>
    54b0:	01 00 00 00 	nop 
    54b4:	90 0a 20 ff 	and  %o0, 0xff, %o0
    54b8:	d2 07 b8 00 	ld  [ %fp + -2048 ], %o1
    54bc:	ba 02 00 1d 	add  %o0, %i5, %i5
    54c0:	11 00 00 80 	sethi  %hi(0x20000), %o0
    54c4:	7f ff f8 ae 	call  377c <ee_printf>
    54c8:	90 12 22 30 	or  %o0, 0x230, %o0	! 20230 <state_known_crc+0x21c>
    54cc:	92 10 00 19 	mov  %i1, %o1
    54d0:	11 00 00 80 	sethi  %hi(0x20000), %o0
    54d4:	7f ff f8 aa 	call  377c <ee_printf>
    54d8:	90 12 22 48 	or  %o0, 0x248, %o0	! 20248 <state_known_crc+0x234>
    54dc:	40 00 0e 7b 	call  8ec8 <time_in_secs>
    54e0:	90 10 00 19 	mov  %i1, %o0
    54e4:	92 10 00 08 	mov  %o0, %o1
    54e8:	11 00 00 80 	sethi  %hi(0x20000), %o0
    54ec:	7f ff f8 a4 	call  377c <ee_printf>
    54f0:	90 12 22 60 	or  %o0, 0x260, %o0	! 20260 <state_known_crc+0x24c>
    54f4:	90 10 00 19 	mov  %i1, %o0
    54f8:	40 00 0e 74 	call  8ec8 <time_in_secs>
    54fc:	b6 10 00 1d 	mov  %i5, %i3
    5500:	80 a2 20 00 	cmp  %o0, 0
    5504:	12 80 01 76 	bne  5adc <ajit_main+0x8dc>
    5508:	c2 07 b8 04 	ld  [ %fp + -2044 ], %g1
    550c:	40 00 0e 6f 	call  8ec8 <time_in_secs>
    5510:	90 10 00 19 	mov  %i1, %o0
    5514:	80 a2 20 09 	cmp  %o0, 9
    5518:	28 80 01 6c 	bleu,a   5ac8 <ajit_main+0x8c8>
    551c:	b6 07 60 01 	add  %i5, 1, %i3
    5520:	c2 07 b8 04 	ld  [ %fp + -2044 ], %g1
    5524:	d2 06 22 78 	ld  [ %i0 + 0x278 ], %o1
    5528:	11 00 00 80 	sethi  %hi(0x20000), %o0
    552c:	92 5a 40 01 	smul  %o1, %g1, %o1
    5530:	7f ff f8 93 	call  377c <ee_printf>
    5534:	90 12 22 d0 	or  %o0, 0x2d0, %o0
    5538:	11 00 00 80 	sethi  %hi(0x20000), %o0
    553c:	13 00 00 80 	sethi  %hi(0x20000), %o1
    5540:	90 12 22 e8 	or  %o0, 0x2e8, %o0
    5544:	7f ff f8 8e 	call  377c <ee_printf>
    5548:	92 12 63 00 	or  %o1, 0x300, %o1
    554c:	11 00 00 80 	sethi  %hi(0x20000), %o0
    5550:	13 00 00 80 	sethi  %hi(0x20000), %o1
    5554:	90 12 23 18 	or  %o0, 0x318, %o0
    5558:	7f ff f8 89 	call  377c <ee_printf>
    555c:	92 12 63 30 	or  %o1, 0x330, %o1
    5560:	11 00 00 80 	sethi  %hi(0x20000), %o0
    5564:	13 00 00 80 	sethi  %hi(0x20000), %o1
    5568:	90 12 23 78 	or  %o0, 0x378, %o0
    556c:	7f ff f8 84 	call  377c <ee_printf>
    5570:	92 12 63 90 	or  %o1, 0x390, %o1
    5574:	c2 07 b7 e4 	ld  [ %fp + -2076 ], %g1
    5578:	11 00 00 80 	sethi  %hi(0x20000), %o0
    557c:	93 30 60 10 	srl  %g1, 0x10, %o1
    5580:	7f ff f8 7f 	call  377c <ee_printf>
    5584:	90 12 23 98 	or  %o0, 0x398, %o0
    5588:	c4 07 b8 08 	ld  [ %fp + -2040 ], %g2
    558c:	80 88 a0 01 	btst  1, %g2
    5590:	02 80 00 1a 	be  55f8 <ajit_main+0x3f8>
    5594:	c2 06 22 78 	ld  [ %i0 + 0x278 ], %g1
    5598:	80 a0 60 00 	cmp  %g1, 0
    559c:	02 80 01 75 	be  5b70 <ajit_main+0x970>
    55a0:	3b 00 00 81 	sethi  %hi(0x20400), %i5
    55a4:	35 00 00 80 	sethi  %hi(0x20000), %i2
    55a8:	b8 10 20 00 	clr  %i4
    55ac:	ba 17 62 78 	or  %i5, 0x278, %i5
    55b0:	b4 16 a3 b8 	or  %i2, 0x3b8, %i2
    55b4:	93 2f 20 10 	sll  %i4, 0x10, %o1
    55b8:	93 32 60 10 	srl  %o1, 0x10, %o1
    55bc:	85 2a 60 02 	sll  %o1, 2, %g2
    55c0:	83 2a 60 06 	sll  %o1, 6, %g1
    55c4:	82 00 80 01 	add  %g2, %g1, %g1
    55c8:	82 07 80 01 	add  %fp, %g1, %g1
    55cc:	90 10 00 1a 	mov  %i2, %o0
    55d0:	7f ff f8 6b 	call  377c <ee_printf>
    55d4:	d4 10 78 22 	lduh  [ %g1 + -2014 ], %o2
    55d8:	b8 07 20 01 	inc  %i4
    55dc:	c2 07 40 00 	ld  [ %i5 ], %g1
    55e0:	85 2f 20 10 	sll  %i4, 0x10, %g2
    55e4:	85 30 a0 10 	srl  %g2, 0x10, %g2
    55e8:	80 a0 80 01 	cmp  %g2, %g1
    55ec:	0a bf ff f3 	bcs  55b8 <ajit_main+0x3b8>
    55f0:	93 2f 20 10 	sll  %i4, 0x10, %o1
    55f4:	c4 07 b8 08 	ld  [ %fp + -2040 ], %g2
    55f8:	80 88 a0 02 	btst  2, %g2
    55fc:	02 80 00 1c 	be  566c <ajit_main+0x46c>
    5600:	80 88 a0 04 	btst  4, %g2
    5604:	80 a0 60 00 	cmp  %g1, 0
    5608:	22 80 00 4b 	be,a   5734 <ajit_main+0x534>
    560c:	b7 2e e0 10 	sll  %i3, 0x10, %i3
    5610:	3b 00 00 81 	sethi  %hi(0x20400), %i5
    5614:	35 00 00 80 	sethi  %hi(0x20000), %i2
    5618:	b8 10 20 00 	clr  %i4
    561c:	ba 17 62 78 	or  %i5, 0x278, %i5
    5620:	b4 16 a3 d8 	or  %i2, 0x3d8, %i2
    5624:	93 2f 20 10 	sll  %i4, 0x10, %o1
    5628:	93 32 60 10 	srl  %o1, 0x10, %o1
    562c:	85 2a 60 02 	sll  %o1, 2, %g2
    5630:	83 2a 60 06 	sll  %o1, 6, %g1
    5634:	82 00 80 01 	add  %g2, %g1, %g1
    5638:	82 07 80 01 	add  %fp, %g1, %g1
    563c:	90 10 00 1a 	mov  %i2, %o0
    5640:	7f ff f8 4f 	call  377c <ee_printf>
    5644:	d4 10 78 24 	lduh  [ %g1 + -2012 ], %o2
    5648:	b8 07 20 01 	inc  %i4
    564c:	c2 07 40 00 	ld  [ %i5 ], %g1
    5650:	85 2f 20 10 	sll  %i4, 0x10, %g2
    5654:	85 30 a0 10 	srl  %g2, 0x10, %g2
    5658:	80 a0 80 01 	cmp  %g2, %g1
    565c:	0a bf ff f3 	bcs  5628 <ajit_main+0x428>
    5660:	93 2f 20 10 	sll  %i4, 0x10, %o1
    5664:	c4 07 b8 08 	ld  [ %fp + -2040 ], %g2
    5668:	80 88 a0 04 	btst  4, %g2
    566c:	02 80 00 1a 	be  56d4 <ajit_main+0x4d4>
    5670:	80 a0 60 00 	cmp  %g1, 0
    5674:	22 80 00 30 	be,a   5734 <ajit_main+0x534>
    5678:	b7 2e e0 10 	sll  %i3, 0x10, %i3
    567c:	3b 00 00 81 	sethi  %hi(0x20400), %i5
    5680:	35 00 00 80 	sethi  %hi(0x20000), %i2
    5684:	b8 10 20 00 	clr  %i4
    5688:	ba 17 62 78 	or  %i5, 0x278, %i5
    568c:	b4 16 a3 f8 	or  %i2, 0x3f8, %i2
    5690:	93 2f 20 10 	sll  %i4, 0x10, %o1
    5694:	93 32 60 10 	srl  %o1, 0x10, %o1
    5698:	85 2a 60 02 	sll  %o1, 2, %g2
    569c:	83 2a 60 06 	sll  %o1, 6, %g1
    56a0:	82 00 80 01 	add  %g2, %g1, %g1
    56a4:	82 07 80 01 	add  %fp, %g1, %g1
    56a8:	90 10 00 1a 	mov  %i2, %o0
    56ac:	7f ff f8 34 	call  377c <ee_printf>
    56b0:	d4 10 78 26 	lduh  [ %g1 + -2010 ], %o2
    56b4:	b8 07 20 01 	inc  %i4
    56b8:	c2 07 40 00 	ld  [ %i5 ], %g1
    56bc:	85 2f 20 10 	sll  %i4, 0x10, %g2
    56c0:	85 30 a0 10 	srl  %g2, 0x10, %g2
    56c4:	80 a0 80 01 	cmp  %g2, %g1
    56c8:	0a bf ff f3 	bcs  5694 <ajit_main+0x494>
    56cc:	93 2f 20 10 	sll  %i4, 0x10, %o1
    56d0:	80 a0 60 00 	cmp  %g1, 0
    56d4:	22 80 00 18 	be,a   5734 <ajit_main+0x534>
    56d8:	b7 2e e0 10 	sll  %i3, 0x10, %i3
    56dc:	3b 00 00 81 	sethi  %hi(0x20400), %i5
    56e0:	35 00 00 81 	sethi  %hi(0x20400), %i2
    56e4:	b8 10 20 00 	clr  %i4
    56e8:	ba 17 62 78 	or  %i5, 0x278, %i5
    56ec:	b4 16 a0 18 	or  %i2, 0x18, %i2
    56f0:	93 2f 20 10 	sll  %i4, 0x10, %o1
    56f4:	93 32 60 10 	srl  %o1, 0x10, %o1
    56f8:	85 2a 60 02 	sll  %o1, 2, %g2
    56fc:	83 2a 60 06 	sll  %o1, 6, %g1
    5700:	82 00 80 01 	add  %g2, %g1, %g1
    5704:	82 07 80 01 	add  %fp, %g1, %g1
    5708:	90 10 00 1a 	mov  %i2, %o0
    570c:	7f ff f8 1c 	call  377c <ee_printf>
    5710:	d4 10 78 20 	lduh  [ %g1 + -2016 ], %o2
    5714:	b8 07 20 01 	inc  %i4
    5718:	c2 07 40 00 	ld  [ %i5 ], %g1
    571c:	85 2f 20 10 	sll  %i4, 0x10, %g2
    5720:	85 30 a0 10 	srl  %g2, 0x10, %g2
    5724:	80 a0 80 01 	cmp  %g2, %g1
    5728:	0a bf ff f3 	bcs  56f4 <ajit_main+0x4f4>
    572c:	93 2f 20 10 	sll  %i4, 0x10, %o1
    5730:	b7 2e e0 10 	sll  %i3, 0x10, %i3
    5734:	b7 3e e0 10 	sra  %i3, 0x10, %i3
    5738:	80 a6 e0 00 	cmp  %i3, 0
    573c:	22 80 00 dd 	be,a   5ab0 <ajit_main+0x8b0>
    5740:	11 00 00 81 	sethi  %hi(0x20400), %o0
    5744:	24 80 00 f3 	ble,a   5b10 <ajit_main+0x910>
    5748:	11 00 00 81 	sethi  %hi(0x20400), %o0
    574c:	11 00 00 81 	sethi  %hi(0x20400), %o0
    5750:	7f ff f8 0b 	call  377c <ee_printf>
    5754:	90 12 20 88 	or  %o0, 0x88, %o0	! 20488 <state_known_crc+0x474>
    5758:	40 00 0e 04 	call  8f68 <portable_fini>
    575c:	90 07 b8 2a 	add  %fp, -2006, %o0
    5760:	81 c7 e0 08 	ret 
    5764:	81 e8 00 00 	restore 
    5768:	84 00 40 01 	add  %g1, %g1, %g2
    576c:	83 28 60 03 	sll  %g1, 3, %g1
    5770:	82 00 80 01 	add  %g2, %g1, %g1
    5774:	40 00 0d b7 	call  8e50 <start_time>
    5778:	c2 27 b8 04 	st  %g1, [ %fp + -2044 ]
    577c:	c0 37 b8 20 	clrh  [ %fp + -2016 ]
    5780:	c0 37 b8 22 	clrh  [ %fp + -2014 ]
    5784:	c0 37 b8 24 	clrh  [ %fp + -2012 ]
    5788:	c0 37 b8 26 	clrh  [ %fp + -2010 ]
    578c:	f8 07 b8 04 	ld  [ %fp + -2044 ], %i4
    5790:	80 a7 20 00 	cmp  %i4, 0
    5794:	02 80 00 19 	be  57f8 <ajit_main+0x5f8>
    5798:	ba 10 20 00 	clr  %i5
    579c:	92 10 20 01 	mov  1, %o1
    57a0:	40 00 06 af 	call  725c <core_bench_list>
    57a4:	90 07 b7 e8 	add  %fp, -2072, %o0
    57a8:	d2 17 b8 20 	lduh  [ %fp + -2016 ], %o1
    57ac:	91 2a 20 10 	sll  %o0, 0x10, %o0
    57b0:	40 00 10 11 	call  97f4 <crcu16>
    57b4:	91 32 20 10 	srl  %o0, 0x10, %o0
    57b8:	92 10 3f ff 	mov  -1, %o1
    57bc:	d0 37 b8 20 	sth  %o0, [ %fp + -2016 ]
    57c0:	40 00 06 a7 	call  725c <core_bench_list>
    57c4:	90 07 b7 e8 	add  %fp, -2072, %o0
    57c8:	d2 17 b8 20 	lduh  [ %fp + -2016 ], %o1
    57cc:	91 2a 20 10 	sll  %o0, 0x10, %o0
    57d0:	40 00 10 09 	call  97f4 <crcu16>
    57d4:	91 32 20 10 	srl  %o0, 0x10, %o0
    57d8:	80 a7 60 00 	cmp  %i5, 0
    57dc:	12 80 00 03 	bne  57e8 <ajit_main+0x5e8>
    57e0:	d0 37 b8 20 	sth  %o0, [ %fp + -2016 ]
    57e4:	d0 37 b8 22 	sth  %o0, [ %fp + -2014 ]
    57e8:	ba 07 60 01 	inc  %i5
    57ec:	80 a7 40 1c 	cmp  %i5, %i4
    57f0:	12 bf ff ec 	bne  57a0 <ajit_main+0x5a0>
    57f4:	92 10 20 01 	mov  1, %o1
    57f8:	40 00 0d a2 	call  8e80 <stop_time>
    57fc:	01 00 00 00 	nop 
    5800:	40 00 0d ac 	call  8eb0 <get_time>
    5804:	01 00 00 00 	nop 
    5808:	40 00 0d b0 	call  8ec8 <time_in_secs>
    580c:	01 00 00 00 	nop 
    5810:	80 a2 20 00 	cmp  %o0, 0
    5814:	12 80 00 25 	bne  58a8 <ajit_main+0x6a8>
    5818:	c2 07 b8 04 	ld  [ %fp + -2044 ], %g1
    581c:	10 bf ff d4 	b  576c <ajit_main+0x56c>
    5820:	84 00 40 01 	add  %g1, %g1, %g2
    5824:	d2 57 b7 e8 	ldsh  [ %fp + -2072 ], %o1
    5828:	40 00 00 e4 	call  5bb8 <core_init_state>
    582c:	d4 07 b7 fc 	ld  [ %fp + -2052 ], %o2
    5830:	10 bf fe d0 	b  5370 <ajit_main+0x170>
    5834:	c2 07 b8 04 	ld  [ %fp + -2044 ], %g1
    5838:	d4 57 b7 ea 	ldsh  [ %fp + -2070 ], %o2
    583c:	d0 07 b8 00 	ld  [ %fp + -2048 ], %o0
    5840:	95 2a a0 10 	sll  %o2, 0x10, %o2
    5844:	d2 07 b7 f8 	ld  [ %fp + -2056 ], %o1
    5848:	94 12 80 01 	or  %o2, %g1, %o2
    584c:	40 00 03 c7 	call  6768 <core_init_matrix>
    5850:	96 07 b8 10 	add  %fp, -2032, %o3
    5854:	10 bf fe c3 	b  5360 <ajit_main+0x160>
    5858:	c2 07 b8 08 	ld  [ %fp + -2040 ], %g1
    585c:	c0 37 b7 ea 	clrh  [ %fp + -2070 ]
    5860:	86 10 20 66 	mov  0x66, %g3
    5864:	c4 07 b7 e8 	ld  [ %fp + -2072 ], %g2
    5868:	c6 37 b7 ec 	sth  %g3, [ %fp + -2068 ]
    586c:	07 00 00 40 	sethi  %hi(0x10000), %g3
    5870:	80 a0 80 03 	cmp  %g2, %g3
    5874:	12 bf fe 83 	bne  5280 <ajit_main+0x80>
    5878:	80 a0 00 04 	cmp  %g0, %g4
    587c:	c4 57 b7 ec 	ldsh  [ %fp + -2068 ], %g2
    5880:	80 a0 a0 00 	cmp  %g2, 0
    5884:	12 bf fe 7f 	bne  5280 <ajit_main+0x80>
    5888:	80 a0 00 04 	cmp  %g0, %g4
    588c:	05 00 00 0d 	sethi  %hi(0x3400), %g2
    5890:	86 10 20 66 	mov  0x66, %g3
    5894:	84 10 a0 15 	or  %g2, 0x15, %g2
    5898:	c6 37 b7 ec 	sth  %g3, [ %fp + -2068 ]
    589c:	c4 37 b7 e8 	sth  %g2, [ %fp + -2072 ]
    58a0:	10 bf fe 78 	b  5280 <ajit_main+0x80>
    58a4:	c4 37 b7 ea 	sth  %g2, [ %fp + -2070 ]
    58a8:	82 10 20 0a 	mov  0xa, %g1
    58ac:	81 80 20 00 	mov  %g0, %y
    58b0:	01 00 00 00 	nop 
    58b4:	01 00 00 00 	nop 
    58b8:	01 00 00 00 	nop 
    58bc:	92 70 40 08 	udiv  %g1, %o0, %o1
    58c0:	c2 07 b8 04 	ld  [ %fp + -2044 ], %g1
    58c4:	11 00 00 80 	sethi  %hi(0x20000), %o0
    58c8:	92 02 60 01 	inc  %o1
    58cc:	90 12 20 80 	or  %o0, 0x80, %o0
    58d0:	92 5a 40 01 	smul  %o1, %g1, %o1
    58d4:	7f ff f7 aa 	call  377c <ee_printf>
    58d8:	d2 27 b8 04 	st  %o1, [ %fp + -2044 ]
    58dc:	30 bf fe a8 	b,a   537c <ajit_main+0x17c>
    58e0:	b6 10 20 01 	mov  1, %i3
    58e4:	c2 27 b8 08 	st  %g1, [ %fp + -2040 ]
    58e8:	10 bf fe 5d 	b  525c <ajit_main+0x5c>
    58ec:	88 10 20 01 	mov  1, %g4
    58f0:	84 10 a0 f2 	or  %g2, 0xf2, %g2
    58f4:	80 a0 40 02 	cmp  %g1, %g2
    58f8:	02 80 00 98 	be  5b58 <ajit_main+0x958>
    58fc:	05 00 00 13 	sethi  %hi(0x4c00), %g2
    5900:	84 10 a2 af 	or  %g2, 0x2af, %g2	! 4eaf <ee_printf+0x1733>
    5904:	80 a0 40 02 	cmp  %g1, %g2
    5908:	32 bf fe e8 	bne,a   54a8 <ajit_main+0x2a8>
    590c:	ba 10 3f ff 	mov  -1, %i5
    5910:	11 00 00 80 	sethi  %hi(0x20000), %o0
    5914:	ae 10 20 02 	mov  2, %l7
    5918:	7f ff f7 99 	call  377c <ee_printf>
    591c:	90 12 21 00 	or  %o0, 0x100, %o0
    5920:	31 00 00 81 	sethi  %hi(0x20400), %i0
    5924:	c2 06 22 78 	ld  [ %i0 + 0x278 ], %g1	! 20678 <default_num_contexts>
    5928:	80 a0 60 00 	cmp  %g1, 0
    592c:	02 bf fe e0 	be  54ac <ajit_main+0x2ac>
    5930:	ba 10 20 00 	clr  %i5
    5934:	a6 10 20 00 	clr  %l3
    5938:	b4 10 20 00 	clr  %i2
    593c:	ba 16 22 78 	or  %i0, 0x278, %i5
    5940:	25 00 00 80 	sethi  %hi(0x20000), %l2
    5944:	23 00 00 80 	sethi  %hi(0x20000), %l1
    5948:	10 80 00 0c 	b  5978 <ajit_main+0x778>
    594c:	21 00 00 80 	sethi  %hi(0x20000), %l0
    5950:	86 07 80 03 	add  %fp, %g3, %g3
    5954:	c2 10 f8 28 	lduh  [ %g3 + -2008 ], %g1
    5958:	b4 06 a0 01 	inc  %i2
    595c:	82 00 40 13 	add  %g1, %l3, %g1
    5960:	87 2e a0 10 	sll  %i2, 0x10, %g3
    5964:	c4 07 40 00 	ld  [ %i5 ], %g2
    5968:	87 30 e0 10 	srl  %g3, 0x10, %g3
    596c:	80 a0 c0 02 	cmp  %g3, %g2
    5970:	1a 80 00 41 	bcc  5a74 <ajit_main+0x874>
    5974:	a6 10 00 01 	mov  %g1, %l3
    5978:	b7 2e a0 10 	sll  %i2, 0x10, %i3
    597c:	b7 36 e0 10 	srl  %i3, 0x10, %i3
    5980:	ad 2e e0 02 	sll  %i3, 2, %l6
    5984:	ab 2e e0 06 	sll  %i3, 6, %l5
    5988:	a8 05 80 15 	add  %l6, %l5, %l4
    598c:	b8 07 80 14 	add  %fp, %l4, %i4
    5990:	c0 37 38 28 	clrh  [ %i4 + -2008 ]
    5994:	c2 07 38 08 	ld  [ %i4 + -2040 ], %g1
    5998:	80 88 60 01 	btst  1, %g1
    599c:	02 80 00 11 	be  59e0 <ajit_main+0x7e0>
    59a0:	80 88 60 02 	btst  2, %g1
    59a4:	98 14 a0 00 	mov  %l2, %o4
    59a8:	9e 05 c0 17 	add  %l7, %l7, %o7
    59ac:	d4 17 38 22 	lduh  [ %i4 + -2014 ], %o2
    59b0:	d6 13 00 0f 	lduh  [ %o4 + %o7 ], %o3
    59b4:	80 a2 80 0b 	cmp  %o2, %o3
    59b8:	02 80 00 09 	be  59dc <ajit_main+0x7dc>
    59bc:	92 10 00 1b 	mov  %i3, %o1
    59c0:	11 00 00 80 	sethi  %hi(0x20000), %o0
    59c4:	7f ff f7 6e 	call  377c <ee_printf>
    59c8:	90 12 21 98 	or  %o0, 0x198, %o0	! 20198 <state_known_crc+0x184>
    59cc:	de 17 38 28 	lduh  [ %i4 + -2008 ], %o7
    59d0:	c2 07 38 08 	ld  [ %i4 + -2040 ], %g1
    59d4:	9e 03 e0 01 	inc  %o7
    59d8:	de 37 38 28 	sth  %o7, [ %i4 + -2008 ]
    59dc:	80 88 60 02 	btst  2, %g1
    59e0:	02 80 00 12 	be  5a28 <ajit_main+0x828>
    59e4:	80 88 60 04 	btst  4, %g1
    59e8:	b8 07 80 14 	add  %fp, %l4, %i4
    59ec:	98 14 60 0a 	or  %l1, 0xa, %o4
    59f0:	9e 05 c0 17 	add  %l7, %l7, %o7
    59f4:	d4 17 38 24 	lduh  [ %i4 + -2012 ], %o2
    59f8:	d6 13 00 0f 	lduh  [ %o4 + %o7 ], %o3
    59fc:	80 a2 80 0b 	cmp  %o2, %o3
    5a00:	02 80 00 09 	be  5a24 <ajit_main+0x824>
    5a04:	92 10 00 1b 	mov  %i3, %o1
    5a08:	11 00 00 80 	sethi  %hi(0x20000), %o0
    5a0c:	7f ff f7 5c 	call  377c <ee_printf>
    5a10:	90 12 21 c8 	or  %o0, 0x1c8, %o0	! 201c8 <state_known_crc+0x1b4>
    5a14:	de 17 38 28 	lduh  [ %i4 + -2008 ], %o7
    5a18:	c2 07 38 08 	ld  [ %i4 + -2040 ], %g1
    5a1c:	9e 03 e0 01 	inc  %o7
    5a20:	de 37 38 28 	sth  %o7, [ %i4 + -2008 ]
    5a24:	80 88 60 04 	btst  4, %g1
    5a28:	02 bf ff ca 	be  5950 <ajit_main+0x750>
    5a2c:	86 05 80 15 	add  %l6, %l5, %g3
    5a30:	b8 07 80 14 	add  %fp, %l4, %i4
    5a34:	84 14 20 14 	or  %l0, 0x14, %g2
    5a38:	82 05 c0 17 	add  %l7, %l7, %g1
    5a3c:	d4 17 38 26 	lduh  [ %i4 + -2010 ], %o2
    5a40:	d6 10 80 01 	lduh  [ %g2 + %g1 ], %o3
    5a44:	80 a2 80 0b 	cmp  %o2, %o3
    5a48:	32 80 00 12 	bne,a   5a90 <ajit_main+0x890>
    5a4c:	11 00 00 80 	sethi  %hi(0x20000), %o0
    5a50:	c2 17 38 28 	lduh  [ %i4 + -2008 ], %g1
    5a54:	b4 06 a0 01 	inc  %i2
    5a58:	82 00 40 13 	add  %g1, %l3, %g1
    5a5c:	87 2e a0 10 	sll  %i2, 0x10, %g3
    5a60:	c4 07 40 00 	ld  [ %i5 ], %g2
    5a64:	87 30 e0 10 	srl  %g3, 0x10, %g3
    5a68:	80 a0 c0 02 	cmp  %g3, %g2
    5a6c:	0a bf ff c3 	bcs  5978 <ajit_main+0x778>
    5a70:	a6 10 00 01 	mov  %g1, %l3
    5a74:	10 bf fe 8e 	b  54ac <ajit_main+0x2ac>
    5a78:	ba 10 00 01 	mov  %g1, %i5
    5a7c:	11 00 00 80 	sethi  %hi(0x20000), %o0
    5a80:	7f ff f7 3f 	call  377c <ee_printf>
    5a84:	90 12 21 38 	or  %o0, 0x138, %o0	! 20138 <state_known_crc+0x124>
    5a88:	10 bf ff a7 	b  5924 <ajit_main+0x724>
    5a8c:	31 00 00 81 	sethi  %hi(0x20400), %i0
    5a90:	92 10 00 1b 	mov  %i3, %o1
    5a94:	7f ff f7 3a 	call  377c <ee_printf>
    5a98:	90 12 22 00 	or  %o0, 0x200, %o0
    5a9c:	c4 17 38 28 	lduh  [ %i4 + -2008 ], %g2
    5aa0:	84 00 a0 01 	inc  %g2
    5aa4:	82 10 00 02 	mov  %g2, %g1
    5aa8:	10 bf ff ac 	b  5958 <ajit_main+0x758>
    5aac:	c4 37 38 28 	sth  %g2, [ %i4 + -2008 ]
    5ab0:	7f ff f7 33 	call  377c <ee_printf>
    5ab4:	90 12 20 38 	or  %o0, 0x38, %o0
    5ab8:	40 00 0d 2c 	call  8f68 <portable_fini>
    5abc:	90 07 b8 2a 	add  %fp, -2006, %o0
    5ac0:	81 c7 e0 08 	ret 
    5ac4:	81 e8 00 00 	restore 
    5ac8:	11 00 00 80 	sethi  %hi(0x20000), %o0
    5acc:	7f ff f7 2c 	call  377c <ee_printf>
    5ad0:	90 12 22 90 	or  %o0, 0x290, %o0	! 20290 <state_known_crc+0x27c>
    5ad4:	10 bf fe 94 	b  5524 <ajit_main+0x324>
    5ad8:	c2 07 b8 04 	ld  [ %fp + -2044 ], %g1
    5adc:	f8 06 22 78 	ld  [ %i0 + 0x278 ], %i4
    5ae0:	90 10 00 19 	mov  %i1, %o0
    5ae4:	40 00 0c f9 	call  8ec8 <time_in_secs>
    5ae8:	b8 5f 00 01 	smul  %i4, %g1, %i4
    5aec:	81 80 20 00 	mov  %g0, %y
    5af0:	01 00 00 00 	nop 
    5af4:	01 00 00 00 	nop 
    5af8:	01 00 00 00 	nop 
    5afc:	92 77 00 08 	udiv  %i4, %o0, %o1
    5b00:	11 00 00 80 	sethi  %hi(0x20000), %o0
    5b04:	7f ff f7 1e 	call  377c <ee_printf>
    5b08:	90 12 22 78 	or  %o0, 0x278, %o0	! 20278 <state_known_crc+0x264>
    5b0c:	30 bf fe 80 	b,a   550c <ajit_main+0x30c>
    5b10:	7f ff f7 1b 	call  377c <ee_printf>
    5b14:	90 12 20 a0 	or  %o0, 0xa0, %o0
    5b18:	40 00 0d 14 	call  8f68 <portable_fini>
    5b1c:	90 07 b8 2a 	add  %fp, -2006, %o0
    5b20:	81 c7 e0 08 	ret 
    5b24:	81 e8 00 00 	restore 
    5b28:	ae 10 20 00 	clr  %l7
    5b2c:	11 00 00 80 	sethi  %hi(0x20000), %o0
    5b30:	7f ff f7 13 	call  377c <ee_printf>
    5b34:	90 12 20 a0 	or  %o0, 0xa0, %o0	! 200a0 <state_known_crc+0x8c>
    5b38:	10 bf ff 7b 	b  5924 <ajit_main+0x724>
    5b3c:	31 00 00 81 	sethi  %hi(0x20400), %i0
    5b40:	ae 10 20 01 	mov  1, %l7
    5b44:	11 00 00 80 	sethi  %hi(0x20000), %o0
    5b48:	7f ff f7 0d 	call  377c <ee_printf>
    5b4c:	90 12 20 d0 	or  %o0, 0xd0, %o0	! 200d0 <state_known_crc+0xbc>
    5b50:	10 bf ff 75 	b  5924 <ajit_main+0x724>
    5b54:	31 00 00 81 	sethi  %hi(0x20400), %i0
    5b58:	ae 10 20 04 	mov  4, %l7
    5b5c:	11 00 00 80 	sethi  %hi(0x20000), %o0
    5b60:	7f ff f7 07 	call  377c <ee_printf>
    5b64:	90 12 21 68 	or  %o0, 0x168, %o0	! 20168 <state_known_crc+0x154>
    5b68:	10 bf ff 6f 	b  5924 <ajit_main+0x724>
    5b6c:	31 00 00 81 	sethi  %hi(0x20400), %i0
    5b70:	80 88 a0 02 	btst  2, %g2
    5b74:	02 bf fe bd 	be  5668 <ajit_main+0x468>
    5b78:	82 10 20 00 	clr  %g1
    5b7c:	10 bf fe ee 	b  5734 <ajit_main+0x534>
    5b80:	b7 2e e0 10 	sll  %i3, 0x10, %i3
    5b84:	00 00 5d cc 	unimp  0x5dcc
    5b88:	00 00 5d cc 	unimp  0x5dcc
    5b8c:	00 00 5d e4 	unimp  0x5de4
    5b90:	00 00 5d e4 	unimp  0x5de4
    5b94:	00 00 5d fc 	unimp  0x5dfc
    5b98:	00 00 5e 64 	unimp  0x5e64
    5b9c:	00 00 5e b8 	unimp  0x5eb8
    5ba0:	00 00 5f 8c 	unimp  0x5f8c
    5ba4:	00 00 5f b4 	unimp  0x5fb4
    5ba8:	00 00 5f 60 	unimp  0x5f60
    5bac:	00 00 5f 3c 	unimp  0x5f3c
    5bb0:	00 00 5f 18 	unimp  0x5f18
    5bb4:	00 00 5e f0 	unimp  0x5ef0

00005bb8 <core_init_state>:
    5bb8:	9d e3 bf a0 	save  %sp, -96, %sp
    5bbc:	88 10 20 00 	clr  %g4
    5bc0:	96 06 3f ff 	add  %i0, -1, %o3
    5bc4:	b6 10 20 00 	clr  %i3
    5bc8:	ba 10 20 00 	clr  %i5
    5bcc:	92 10 20 2c 	mov  0x2c, %o1
    5bd0:	25 00 00 81 	sethi  %hi(0x20400), %l2
    5bd4:	15 00 00 16 	sethi  %hi(0x5800), %o2
    5bd8:	23 00 00 81 	sethi  %hi(0x20400), %l1
    5bdc:	21 00 00 81 	sethi  %hi(0x20400), %l0
    5be0:	11 00 00 81 	sethi  %hi(0x20400), %o0
    5be4:	98 07 40 1b 	add  %i5, %i3, %o4
    5be8:	9a 03 20 01 	add  %o4, 1, %o5
    5bec:	80 a2 c0 0d 	cmp  %o3, %o5
    5bf0:	08 80 00 43 	bleu  5cfc <core_init_state+0x144>
    5bf4:	80 a6 00 1d 	cmp  %i0, %i5
    5bf8:	80 a6 e0 00 	cmp  %i3, 0
    5bfc:	22 80 00 2d 	be,a   5cb0 <core_init_state+0xf8>
    5c00:	b2 06 60 01 	inc  %i1
    5c04:	ba 06 80 1d 	add  %i2, %i5, %i5
    5c08:	82 07 60 04 	add  %i5, 4, %g1
    5c0c:	80 a1 00 01 	cmp  %g4, %g1
    5c10:	82 01 20 04 	add  %g4, 4, %g1
    5c14:	86 60 3f ff 	subx  %g0, -1, %g3
    5c18:	80 a7 40 01 	cmp  %i5, %g1
    5c1c:	84 60 3f ff 	subx  %g0, -1, %g2
    5c20:	9f 36 e0 02 	srl  %i3, 2, %o7
    5c24:	86 10 c0 02 	or  %g3, %g2, %g3
    5c28:	83 2b e0 02 	sll  %o7, 2, %g1
    5c2c:	80 a6 e0 03 	cmp  %i3, 3
    5c30:	18 80 00 03 	bgu  5c3c <core_init_state+0x84>
    5c34:	84 10 20 01 	mov  1, %g2
    5c38:	84 10 20 00 	clr  %g2
    5c3c:	b8 17 40 04 	or  %i5, %g4, %i4
    5c40:	b8 0f 20 03 	and  %i4, 3, %i4
    5c44:	80 a0 00 1c 	cmp  %g0, %i4
    5c48:	84 08 c0 02 	and  %g3, %g2, %g2
    5c4c:	86 60 3f ff 	subx  %g0, -1, %g3
    5c50:	80 88 80 03 	btst  %g2, %g3
    5c54:	02 80 00 72 	be  5e1c <core_init_state+0x264>
    5c58:	80 a0 60 00 	cmp  %g1, 0
    5c5c:	02 80 00 70 	be  5e1c <core_init_state+0x264>
    5c60:	84 10 20 00 	clr  %g2
    5c64:	86 10 20 00 	clr  %g3
    5c68:	f8 01 00 02 	ld  [ %g4 + %g2 ], %i4
    5c6c:	f8 27 40 02 	st  %i4, [ %i5 + %g2 ]
    5c70:	86 00 e0 01 	inc  %g3
    5c74:	80 a3 c0 03 	cmp  %o7, %g3
    5c78:	18 bf ff fc 	bgu  5c68 <core_init_state+0xb0>
    5c7c:	84 00 a0 04 	add  %g2, 4, %g2
    5c80:	80 a6 c0 01 	cmp  %i3, %g1
    5c84:	22 80 00 09 	be,a   5ca8 <core_init_state+0xf0>
    5c88:	d2 2e 80 0c 	stb  %o1, [ %i2 + %o4 ]
    5c8c:	c4 09 00 01 	ldub  [ %g4 + %g1 ], %g2
    5c90:	c4 2f 40 01 	stb  %g2, [ %i5 + %g1 ]
    5c94:	82 00 60 01 	inc  %g1
    5c98:	80 a6 c0 01 	cmp  %i3, %g1
    5c9c:	38 bf ff fd 	bgu,a   5c90 <core_init_state+0xd8>
    5ca0:	c4 09 00 01 	ldub  [ %g4 + %g1 ], %g2
    5ca4:	d2 2e 80 0c 	stb  %o1, [ %i2 + %o4 ]
    5ca8:	ba 10 00 0d 	mov  %o5, %i5
    5cac:	b2 06 60 01 	inc  %i1
    5cb0:	85 2e 60 10 	sll  %i1, 0x10, %g2
    5cb4:	b3 38 a0 10 	sra  %g2, 0x10, %i1
    5cb8:	82 0e 60 07 	and  %i1, 7, %g1
    5cbc:	82 00 7f fd 	add  %g1, -3, %g1
    5cc0:	83 28 60 10 	sll  %g1, 0x10, %g1
    5cc4:	83 30 60 10 	srl  %g1, 0x10, %g1
    5cc8:	80 a0 60 04 	cmp  %g1, 4
    5ccc:	28 80 00 3c 	bleu,a   5dbc <core_init_state+0x204>
    5cd0:	84 12 a3 84 	or  %o2, 0x384, %g2
    5cd4:	82 14 a2 68 	or  %l2, 0x268, %g1
    5cd8:	85 30 a0 11 	srl  %g2, 0x11, %g2
    5cdc:	b6 10 20 04 	mov  4, %i3
    5ce0:	84 08 a0 0c 	and  %g2, 0xc, %g2
    5ce4:	98 07 40 1b 	add  %i5, %i3, %o4
    5ce8:	9a 03 20 01 	add  %o4, 1, %o5
    5cec:	80 a2 c0 0d 	cmp  %o3, %o5
    5cf0:	18 bf ff c2 	bgu  5bf8 <core_init_state+0x40>
    5cf4:	c8 00 40 02 	ld  [ %g1 + %g2 ], %g4
    5cf8:	80 a6 00 1d 	cmp  %i0, %i5
    5cfc:	08 80 00 2e 	bleu  5db4 <core_init_state+0x1fc>
    5d00:	86 10 00 1d 	mov  %i5, %g3
    5d04:	88 26 00 1d 	sub  %i0, %i5, %g4
    5d08:	b6 06 80 1d 	add  %i2, %i5, %i3
    5d0c:	84 20 00 1b 	neg  %i3, %g2
    5d10:	84 08 a0 03 	and  %g2, 3, %g2
    5d14:	80 a0 80 04 	cmp  %g2, %g4
    5d18:	18 80 00 3f 	bgu  5e14 <core_init_state+0x25c>
    5d1c:	82 38 00 1d 	xnor  %g0, %i5, %g1
    5d20:	82 06 00 01 	add  %i0, %g1, %g1
    5d24:	82 00 60 01 	inc  %g1
    5d28:	80 a0 60 03 	cmp  %g1, 3
    5d2c:	28 80 00 02 	bleu,a   5d34 <core_init_state+0x17c>
    5d30:	84 10 00 01 	mov  %g1, %g2
    5d34:	80 a0 a0 00 	cmp  %g2, 0
    5d38:	22 80 00 0b 	be,a   5d64 <core_init_state+0x1ac>
    5d3c:	88 21 00 02 	sub  %g4, %g2, %g4
    5d40:	c0 2e 80 1d 	clrb  [ %i2 + %i5 ]
    5d44:	ba 07 60 01 	inc  %i5
    5d48:	82 27 40 03 	sub  %i5, %g3, %g1
    5d4c:	80 a0 80 01 	cmp  %g2, %g1
    5d50:	38 bf ff fd 	bgu,a   5d44 <core_init_state+0x18c>
    5d54:	c0 2e 80 1d 	clrb  [ %i2 + %i5 ]
    5d58:	80 a1 00 02 	cmp  %g4, %g2
    5d5c:	02 80 00 16 	be  5db4 <core_init_state+0x1fc>
    5d60:	88 21 00 02 	sub  %g4, %g2, %g4
    5d64:	87 31 20 02 	srl  %g4, 2, %g3
    5d68:	b9 28 e0 02 	sll  %g3, 2, %i4
    5d6c:	80 a7 20 00 	cmp  %i4, 0
    5d70:	22 80 00 0d 	be,a   5da4 <core_init_state+0x1ec>
    5d74:	c0 2e 80 1d 	clrb  [ %i2 + %i5 ]
    5d78:	84 06 c0 02 	add  %i3, %g2, %g2
    5d7c:	82 10 20 00 	clr  %g1
    5d80:	c0 20 80 00 	clr  [ %g2 ]
    5d84:	82 00 60 01 	inc  %g1
    5d88:	80 a0 40 03 	cmp  %g1, %g3
    5d8c:	0a bf ff fd 	bcs  5d80 <core_init_state+0x1c8>
    5d90:	84 00 a0 04 	add  %g2, 4, %g2
    5d94:	80 a1 00 1c 	cmp  %g4, %i4
    5d98:	02 80 00 07 	be  5db4 <core_init_state+0x1fc>
    5d9c:	ba 07 40 1c 	add  %i5, %i4, %i5
    5da0:	c0 2e 80 1d 	clrb  [ %i2 + %i5 ]
    5da4:	ba 07 60 01 	inc  %i5
    5da8:	80 a6 00 1d 	cmp  %i0, %i5
    5dac:	38 bf ff fe 	bgu,a   5da4 <core_init_state+0x1ec>
    5db0:	c0 2e 80 1d 	clrb  [ %i2 + %i5 ]
    5db4:	81 c7 e0 08 	ret 
    5db8:	81 e8 00 00 	restore 
    5dbc:	83 28 60 02 	sll  %g1, 2, %g1
    5dc0:	c2 00 80 01 	ld  [ %g2 + %g1 ], %g1
    5dc4:	81 c0 40 00 	jmp  %g1
    5dc8:	01 00 00 00 	nop 
    5dcc:	84 12 22 58 	or  %o0, 0x258, %g2
    5dd0:	83 36 60 01 	srl  %i1, 1, %g1
    5dd4:	b6 10 20 08 	mov  8, %i3
    5dd8:	82 08 60 0c 	and  %g1, 0xc, %g1
    5ddc:	10 bf ff 82 	b  5be4 <core_init_state+0x2c>
    5de0:	c8 00 80 01 	ld  [ %g2 + %g1 ], %g4
    5de4:	84 14 22 48 	or  %l0, 0x248, %g2
    5de8:	83 36 60 01 	srl  %i1, 1, %g1
    5dec:	b6 10 20 08 	mov  8, %i3
    5df0:	82 08 60 0c 	and  %g1, 0xc, %g1
    5df4:	10 bf ff 7c 	b  5be4 <core_init_state+0x2c>
    5df8:	c8 00 80 01 	ld  [ %g2 + %g1 ], %g4
    5dfc:	84 14 62 38 	or  %l1, 0x238, %g2
    5e00:	83 36 60 01 	srl  %i1, 1, %g1
    5e04:	b6 10 20 08 	mov  8, %i3
    5e08:	82 08 60 0c 	and  %g1, 0xc, %g1
    5e0c:	10 bf ff 76 	b  5be4 <core_init_state+0x2c>
    5e10:	c8 00 80 01 	ld  [ %g2 + %g1 ], %g4
    5e14:	10 bf ff c3 	b  5d20 <core_init_state+0x168>
    5e18:	84 10 00 04 	mov  %g4, %g2
    5e1c:	10 bf ff 9c 	b  5c8c <core_init_state+0xd4>
    5e20:	82 10 20 00 	clr  %g1

00005e24 <core_state_transition>:
    5e24:	da 02 00 00 	ld  [ %o0 ], %o5
    5e28:	c2 0b 40 00 	ldub  [ %o5 ], %g1
    5e2c:	88 88 60 ff 	andcc  %g1, 0xff, %g4
    5e30:	02 80 00 90 	be  6070 <core_state_transition+0x24c>
    5e34:	94 10 00 08 	mov  %o0, %o2
    5e38:	80 a1 20 2c 	cmp  %g4, 0x2c
    5e3c:	02 80 00 8f 	be  6078 <core_state_transition+0x254>
    5e40:	84 03 60 01 	add  %o5, 1, %g2
    5e44:	86 10 00 0d 	mov  %o5, %g3
    5e48:	90 10 20 00 	clr  %o0
    5e4c:	17 00 00 16 	sethi  %hi(0x5800), %o3
    5e50:	98 12 e3 98 	or  %o3, 0x398, %o4	! 5b98 <ajit_main+0x998>
    5e54:	9b 2a 20 02 	sll  %o0, 2, %o5
    5e58:	da 03 00 0d 	ld  [ %o4 + %o5 ], %o5
    5e5c:	81 c3 40 00 	jmp  %o5
    5e60:	01 00 00 00 	nop 
    5e64:	82 00 7f d0 	add  %g1, -48, %g1
    5e68:	82 08 60 ff 	and  %g1, 0xff, %g1
    5e6c:	80 a0 60 09 	cmp  %g1, 9
    5e70:	08 80 00 0f 	bleu  5eac <core_state_transition+0x88>
    5e74:	90 10 20 04 	mov  4, %o0
    5e78:	80 a1 20 2d 	cmp  %g4, 0x2d
    5e7c:	22 80 00 70 	be,a   603c <core_state_transition+0x218>
    5e80:	c2 02 40 00 	ld  [ %o1 ], %g1
    5e84:	80 a1 20 2b 	cmp  %g4, 0x2b
    5e88:	22 80 00 6d 	be,a   603c <core_state_transition+0x218>
    5e8c:	c2 02 40 00 	ld  [ %o1 ], %g1
    5e90:	80 a1 20 2e 	cmp  %g4, 0x2e
    5e94:	02 80 00 06 	be  5eac <core_state_transition+0x88>
    5e98:	90 10 20 05 	mov  5, %o0
    5e9c:	c2 02 60 04 	ld  [ %o1 + 4 ], %g1
    5ea0:	90 10 20 01 	mov  1, %o0
    5ea4:	82 00 60 01 	inc  %g1
    5ea8:	c2 22 60 04 	st  %g1, [ %o1 + 4 ]
    5eac:	c2 02 40 00 	ld  [ %o1 ], %g1
    5eb0:	82 00 60 01 	inc  %g1
    5eb4:	c2 22 40 00 	st  %g1, [ %o1 ]
    5eb8:	c2 08 e0 01 	ldub  [ %g3 + 1 ], %g1
    5ebc:	88 88 60 ff 	andcc  %g1, 0xff, %g4
    5ec0:	02 80 00 0a 	be  5ee8 <core_state_transition+0xc4>
    5ec4:	9a 10 00 02 	mov  %g2, %o5
    5ec8:	80 a2 20 01 	cmp  %o0, 1
    5ecc:	22 80 00 43 	be,a   5fd8 <core_state_transition+0x1b4>
    5ed0:	90 10 20 01 	mov  1, %o0
    5ed4:	84 00 a0 01 	inc  %g2
    5ed8:	80 a1 20 2c 	cmp  %g4, 0x2c
    5edc:	12 bf ff dd 	bne  5e50 <core_state_transition+0x2c>
    5ee0:	86 00 e0 01 	inc  %g3
    5ee4:	9a 03 60 01 	inc  %o5
    5ee8:	81 c3 e0 08 	retl 
    5eec:	da 22 80 00 	st  %o5, [ %o2 ]
    5ef0:	82 00 7f d0 	add  %g1, -48, %g1
    5ef4:	82 08 60 ff 	and  %g1, 0xff, %g1
    5ef8:	80 a0 60 09 	cmp  %g1, 9
    5efc:	38 80 00 4a 	bgu,a   6024 <core_state_transition+0x200>
    5f00:	c2 02 60 04 	ld  [ %o1 + 4 ], %g1
    5f04:	c2 08 e0 01 	ldub  [ %g3 + 1 ], %g1
    5f08:	88 88 60 ff 	andcc  %g1, 0xff, %g4
    5f0c:	12 bf ff f2 	bne  5ed4 <core_state_transition+0xb0>
    5f10:	9a 10 00 02 	mov  %g2, %o5
    5f14:	30 bf ff f5 	b,a   5ee8 <core_state_transition+0xc4>
    5f18:	82 00 7f d0 	add  %g1, -48, %g1
    5f1c:	82 08 60 ff 	and  %g1, 0xff, %g1
    5f20:	80 a0 60 09 	cmp  %g1, 9
    5f24:	18 80 00 43 	bgu  6030 <core_state_transition+0x20c>
    5f28:	c2 02 60 18 	ld  [ %o1 + 0x18 ], %g1
    5f2c:	90 10 20 07 	mov  7, %o0
    5f30:	82 00 60 01 	inc  %g1
    5f34:	10 bf ff f4 	b  5f04 <core_state_transition+0xe0>
    5f38:	c2 22 60 18 	st  %g1, [ %o1 + 0x18 ]
    5f3c:	88 08 60 df 	and  %g1, 0xdf, %g4
    5f40:	80 a1 20 45 	cmp  %g4, 0x45
    5f44:	12 80 00 2b 	bne  5ff0 <core_state_transition+0x1cc>
    5f48:	82 00 7f d0 	add  %g1, -48, %g1
    5f4c:	c2 02 60 14 	ld  [ %o1 + 0x14 ], %g1
    5f50:	90 10 20 03 	mov  3, %o0
    5f54:	82 00 60 01 	inc  %g1
    5f58:	10 bf ff eb 	b  5f04 <core_state_transition+0xe0>
    5f5c:	c2 22 60 14 	st  %g1, [ %o1 + 0x14 ]
    5f60:	80 a1 20 2e 	cmp  %g4, 0x2e
    5f64:	02 80 00 3a 	be  604c <core_state_transition+0x228>
    5f68:	82 00 7f d0 	add  %g1, -48, %g1
    5f6c:	82 08 60 ff 	and  %g1, 0xff, %g1
    5f70:	80 a0 60 09 	cmp  %g1, 9
    5f74:	28 bf ff e5 	bleu,a   5f08 <core_state_transition+0xe4>
    5f78:	c2 08 e0 01 	ldub  [ %g3 + 1 ], %g1
    5f7c:	c2 02 60 10 	ld  [ %o1 + 0x10 ], %g1
    5f80:	82 00 60 01 	inc  %g1
    5f84:	10 80 00 13 	b  5fd0 <core_state_transition+0x1ac>
    5f88:	c2 22 60 10 	st  %g1, [ %o1 + 0x10 ]
    5f8c:	82 00 7f d0 	add  %g1, -48, %g1
    5f90:	82 08 60 ff 	and  %g1, 0xff, %g1
    5f94:	80 a0 60 09 	cmp  %g1, 9
    5f98:	18 80 00 1e 	bgu  6010 <core_state_transition+0x1ec>
    5f9c:	80 a1 20 2e 	cmp  %g4, 0x2e
    5fa0:	c2 02 60 08 	ld  [ %o1 + 8 ], %g1
    5fa4:	90 10 20 04 	mov  4, %o0
    5fa8:	82 00 60 01 	inc  %g1
    5fac:	10 bf ff d6 	b  5f04 <core_state_transition+0xe0>
    5fb0:	c2 22 60 08 	st  %g1, [ %o1 + 8 ]
    5fb4:	80 a1 20 2d 	cmp  %g4, 0x2d
    5fb8:	02 80 00 0a 	be  5fe0 <core_state_transition+0x1bc>
    5fbc:	c2 02 60 0c 	ld  [ %o1 + 0xc ], %g1
    5fc0:	80 a1 20 2b 	cmp  %g4, 0x2b
    5fc4:	02 80 00 08 	be  5fe4 <core_state_transition+0x1c0>
    5fc8:	82 00 60 01 	inc  %g1
    5fcc:	c2 22 60 0c 	st  %g1, [ %o1 + 0xc ]
    5fd0:	9a 10 00 02 	mov  %g2, %o5
    5fd4:	90 10 20 01 	mov  1, %o0
    5fd8:	81 c3 e0 08 	retl 
    5fdc:	da 22 80 00 	st  %o5, [ %o2 ]
    5fe0:	82 00 60 01 	inc  %g1
    5fe4:	90 10 20 06 	mov  6, %o0
    5fe8:	10 bf ff c7 	b  5f04 <core_state_transition+0xe0>
    5fec:	c2 22 60 0c 	st  %g1, [ %o1 + 0xc ]
    5ff0:	82 08 60 ff 	and  %g1, 0xff, %g1
    5ff4:	80 a0 60 09 	cmp  %g1, 9
    5ff8:	28 bf ff c4 	bleu,a   5f08 <core_state_transition+0xe4>
    5ffc:	c2 08 e0 01 	ldub  [ %g3 + 1 ], %g1
    6000:	c2 02 60 14 	ld  [ %o1 + 0x14 ], %g1
    6004:	82 00 60 01 	inc  %g1
    6008:	10 bf ff f2 	b  5fd0 <core_state_transition+0x1ac>
    600c:	c2 22 60 14 	st  %g1, [ %o1 + 0x14 ]
    6010:	02 80 00 14 	be  6060 <core_state_transition+0x23c>
    6014:	c2 02 60 08 	ld  [ %o1 + 8 ], %g1
    6018:	82 00 60 01 	inc  %g1
    601c:	10 bf ff ed 	b  5fd0 <core_state_transition+0x1ac>
    6020:	c2 22 60 08 	st  %g1, [ %o1 + 8 ]
    6024:	82 00 60 01 	inc  %g1
    6028:	10 bf ff ea 	b  5fd0 <core_state_transition+0x1ac>
    602c:	c2 22 60 04 	st  %g1, [ %o1 + 4 ]
    6030:	82 00 60 01 	inc  %g1
    6034:	10 bf ff e7 	b  5fd0 <core_state_transition+0x1ac>
    6038:	c2 22 60 18 	st  %g1, [ %o1 + 0x18 ]
    603c:	90 10 20 02 	mov  2, %o0
    6040:	82 00 60 01 	inc  %g1
    6044:	10 bf ff 9d 	b  5eb8 <core_state_transition+0x94>
    6048:	c2 22 40 00 	st  %g1, [ %o1 ]
    604c:	c2 02 60 10 	ld  [ %o1 + 0x10 ], %g1
    6050:	90 10 20 05 	mov  5, %o0
    6054:	82 00 60 01 	inc  %g1
    6058:	10 bf ff ab 	b  5f04 <core_state_transition+0xe0>
    605c:	c2 22 60 10 	st  %g1, [ %o1 + 0x10 ]
    6060:	90 10 20 05 	mov  5, %o0
    6064:	82 00 60 01 	inc  %g1
    6068:	10 bf ff a7 	b  5f04 <core_state_transition+0xe0>
    606c:	c2 22 60 08 	st  %g1, [ %o1 + 8 ]
    6070:	10 bf ff 9e 	b  5ee8 <core_state_transition+0xc4>
    6074:	90 10 20 00 	clr  %o0
    6078:	90 10 20 00 	clr  %o0
    607c:	10 bf ff 9b 	b  5ee8 <core_state_transition+0xc4>
    6080:	9a 03 60 01 	inc  %o5

00006084 <core_bench_state>:
    6084:	9d e3 bf 58 	save  %sp, -168, %sp
    6088:	c0 27 bf e0 	clr  [ %fp + -32 ]
    608c:	c0 27 bf e4 	clr  [ %fp + -28 ]
    6090:	c0 27 bf e8 	clr  [ %fp + -24 ]
    6094:	c0 27 bf ec 	clr  [ %fp + -20 ]
    6098:	c0 27 bf f0 	clr  [ %fp + -16 ]
    609c:	c0 27 bf f4 	clr  [ %fp + -12 ]
    60a0:	c0 27 bf f8 	clr  [ %fp + -8 ]
    60a4:	c0 27 bf fc 	clr  [ %fp + -4 ]
    60a8:	c0 27 bf c0 	clr  [ %fp + -64 ]
    60ac:	c0 27 bf c4 	clr  [ %fp + -60 ]
    60b0:	c0 27 bf c8 	clr  [ %fp + -56 ]
    60b4:	c0 27 bf cc 	clr  [ %fp + -52 ]
    60b8:	c0 27 bf d0 	clr  [ %fp + -48 ]
    60bc:	c0 27 bf d4 	clr  [ %fp + -44 ]
    60c0:	c0 27 bf d8 	clr  [ %fp + -40 ]
    60c4:	c0 27 bf dc 	clr  [ %fp + -36 ]
    60c8:	c2 0e 40 00 	ldub  [ %i1 ], %g1
    60cc:	80 a0 60 00 	cmp  %g1, 0
    60d0:	02 80 00 12 	be  6118 <core_bench_state+0x94>
    60d4:	84 10 20 00 	clr  %g2
    60d8:	f2 27 bf bc 	st  %i1, [ %fp + -68 ]
    60dc:	a0 07 bf bc 	add  %fp, -68, %l0
    60e0:	90 10 00 10 	mov  %l0, %o0
    60e4:	7f ff ff 50 	call  5e24 <core_state_transition>
    60e8:	92 07 bf e0 	add  %fp, -32, %o1
    60ec:	91 2a 20 02 	sll  %o0, 2, %o0
    60f0:	82 07 80 08 	add  %fp, %o0, %g1
    60f4:	c4 00 7f c0 	ld  [ %g1 + -64 ], %g2
    60f8:	84 00 a0 01 	inc  %g2
    60fc:	c4 20 7f c0 	st  %g2, [ %g1 + -64 ]
    6100:	c2 07 bf bc 	ld  [ %fp + -68 ], %g1
    6104:	c2 08 40 00 	ldub  [ %g1 ], %g1
    6108:	80 a0 60 00 	cmp  %g1, 0
    610c:	12 bf ff f6 	bne  60e4 <core_bench_state+0x60>
    6110:	90 10 00 10 	mov  %l0, %o0
    6114:	c4 0e 40 00 	ldub  [ %i1 ], %g2
    6118:	b0 06 40 18 	add  %i1, %i0, %i0
    611c:	80 a6 40 18 	cmp  %i1, %i0
    6120:	1a 80 00 12 	bcc  6168 <core_bench_state+0xe4>
    6124:	80 88 a0 ff 	btst  0xff, %g2
    6128:	f2 27 bf bc 	st  %i1, [ %fp + -68 ]
    612c:	10 80 00 03 	b  6138 <core_bench_state+0xb4>
    6130:	82 10 00 19 	mov  %i1, %g1
    6134:	c4 08 40 00 	ldub  [ %g1 ], %g2
    6138:	86 08 a0 ff 	and  %g2, 0xff, %g3
    613c:	80 a0 e0 2c 	cmp  %g3, 0x2c
    6140:	02 80 00 04 	be  6150 <core_bench_state+0xcc>
    6144:	84 18 80 1a 	xor  %g2, %i2, %g2
    6148:	c4 28 40 00 	stb  %g2, [ %g1 ]
    614c:	c2 07 bf bc 	ld  [ %fp + -68 ], %g1
    6150:	82 00 40 1c 	add  %g1, %i4, %g1
    6154:	80 a0 40 18 	cmp  %g1, %i0
    6158:	2a bf ff f7 	bcs,a   6134 <core_bench_state+0xb0>
    615c:	c2 27 bf bc 	st  %g1, [ %fp + -68 ]
    6160:	c4 0e 40 00 	ldub  [ %i1 ], %g2
    6164:	80 88 a0 ff 	btst  0xff, %g2
    6168:	02 80 00 12 	be  61b0 <core_bench_state+0x12c>
    616c:	80 a6 40 18 	cmp  %i1, %i0
    6170:	f2 27 bf bc 	st  %i1, [ %fp + -68 ]
    6174:	a0 07 bf bc 	add  %fp, -68, %l0
    6178:	90 10 00 10 	mov  %l0, %o0
    617c:	7f ff ff 2a 	call  5e24 <core_state_transition>
    6180:	92 07 bf e0 	add  %fp, -32, %o1
    6184:	91 2a 20 02 	sll  %o0, 2, %o0
    6188:	82 07 80 08 	add  %fp, %o0, %g1
    618c:	c4 00 7f c0 	ld  [ %g1 + -64 ], %g2
    6190:	84 00 a0 01 	inc  %g2
    6194:	c4 20 7f c0 	st  %g2, [ %g1 + -64 ]
    6198:	c2 07 bf bc 	ld  [ %fp + -68 ], %g1
    619c:	c2 08 40 00 	ldub  [ %g1 ], %g1
    61a0:	80 a0 60 00 	cmp  %g1, 0
    61a4:	12 bf ff f6 	bne  617c <core_bench_state+0xf8>
    61a8:	90 10 00 10 	mov  %l0, %o0
    61ac:	80 a6 40 18 	cmp  %i1, %i0
    61b0:	1a 80 00 0d 	bcc  61e4 <core_bench_state+0x160>
    61b4:	f2 27 bf bc 	st  %i1, [ %fp + -68 ]
    61b8:	c2 0e 40 00 	ldub  [ %i1 ], %g1
    61bc:	84 08 60 ff 	and  %g1, 0xff, %g2
    61c0:	80 a0 a0 2c 	cmp  %g2, 0x2c
    61c4:	02 80 00 04 	be  61d4 <core_bench_state+0x150>
    61c8:	82 18 40 1b 	xor  %g1, %i3, %g1
    61cc:	c2 2e 40 00 	stb  %g1, [ %i1 ]
    61d0:	f2 07 bf bc 	ld  [ %fp + -68 ], %i1
    61d4:	b2 06 40 1c 	add  %i1, %i4, %i1
    61d8:	80 a6 40 18 	cmp  %i1, %i0
    61dc:	0a bf ff f7 	bcs  61b8 <core_bench_state+0x134>
    61e0:	f2 27 bf bc 	st  %i1, [ %fp + -68 ]
    61e4:	92 10 00 1d 	mov  %i5, %o1
    61e8:	40 00 0f 58 	call  9f48 <crcu32>
    61ec:	d0 07 bf c0 	ld  [ %fp + -64 ], %o0
    61f0:	92 10 00 08 	mov  %o0, %o1
    61f4:	40 00 0f 55 	call  9f48 <crcu32>
    61f8:	d0 07 bf e0 	ld  [ %fp + -32 ], %o0
    61fc:	92 10 00 08 	mov  %o0, %o1
    6200:	40 00 0f 52 	call  9f48 <crcu32>
    6204:	d0 07 bf c4 	ld  [ %fp + -60 ], %o0
    6208:	92 10 00 08 	mov  %o0, %o1
    620c:	40 00 0f 4f 	call  9f48 <crcu32>
    6210:	d0 07 bf e4 	ld  [ %fp + -28 ], %o0
    6214:	92 10 00 08 	mov  %o0, %o1
    6218:	40 00 0f 4c 	call  9f48 <crcu32>
    621c:	d0 07 bf c8 	ld  [ %fp + -56 ], %o0
    6220:	92 10 00 08 	mov  %o0, %o1
    6224:	40 00 0f 49 	call  9f48 <crcu32>
    6228:	d0 07 bf e8 	ld  [ %fp + -24 ], %o0
    622c:	92 10 00 08 	mov  %o0, %o1
    6230:	40 00 0f 46 	call  9f48 <crcu32>
    6234:	d0 07 bf cc 	ld  [ %fp + -52 ], %o0
    6238:	92 10 00 08 	mov  %o0, %o1
    623c:	40 00 0f 43 	call  9f48 <crcu32>
    6240:	d0 07 bf ec 	ld  [ %fp + -20 ], %o0
    6244:	92 10 00 08 	mov  %o0, %o1
    6248:	40 00 0f 40 	call  9f48 <crcu32>
    624c:	d0 07 bf d0 	ld  [ %fp + -48 ], %o0
    6250:	92 10 00 08 	mov  %o0, %o1
    6254:	40 00 0f 3d 	call  9f48 <crcu32>
    6258:	d0 07 bf f0 	ld  [ %fp + -16 ], %o0
    625c:	92 10 00 08 	mov  %o0, %o1
    6260:	40 00 0f 3a 	call  9f48 <crcu32>
    6264:	d0 07 bf d4 	ld  [ %fp + -44 ], %o0
    6268:	92 10 00 08 	mov  %o0, %o1
    626c:	40 00 0f 37 	call  9f48 <crcu32>
    6270:	d0 07 bf f4 	ld  [ %fp + -12 ], %o0
    6274:	92 10 00 08 	mov  %o0, %o1
    6278:	40 00 0f 34 	call  9f48 <crcu32>
    627c:	d0 07 bf d8 	ld  [ %fp + -40 ], %o0
    6280:	92 10 00 08 	mov  %o0, %o1
    6284:	40 00 0f 31 	call  9f48 <crcu32>
    6288:	d0 07 bf f8 	ld  [ %fp + -8 ], %o0
    628c:	92 10 00 08 	mov  %o0, %o1
    6290:	40 00 0f 2e 	call  9f48 <crcu32>
    6294:	d0 07 bf dc 	ld  [ %fp + -36 ], %o0
    6298:	92 10 00 08 	mov  %o0, %o1
    629c:	40 00 0f 2b 	call  9f48 <crcu32>
    62a0:	d0 07 bf fc 	ld  [ %fp + -4 ], %o0
    62a4:	81 c7 e0 08 	ret 
    62a8:	91 e8 00 08 	restore  %g0, %o0, %o0

000062ac <matrix_test>:
    62ac:	9d e3 bf a0 	save  %sp, -96, %sp
    62b0:	80 a6 20 00 	cmp  %i0, 0
    62b4:	02 80 01 0e 	be  66ec <matrix_test+0x440>
    62b8:	a0 17 30 00 	or  %i4, -4096, %l0
    62bc:	a4 10 00 1c 	mov  %i4, %l2
    62c0:	ba 06 00 18 	add  %i0, %i0, %i5
    62c4:	a8 10 00 1a 	mov  %i2, %l4
    62c8:	82 10 00 1a 	mov  %i2, %g1
    62cc:	88 10 20 00 	clr  %g4
    62d0:	86 07 40 01 	add  %i5, %g1, %g3
    62d4:	c4 10 40 00 	lduh  [ %g1 ], %g2
    62d8:	84 00 80 12 	add  %g2, %l2, %g2
    62dc:	c4 30 40 00 	sth  %g2, [ %g1 ]
    62e0:	82 00 60 02 	add  %g1, 2, %g1
    62e4:	80 a0 c0 01 	cmp  %g3, %g1
    62e8:	32 bf ff fc 	bne,a   62d8 <matrix_test+0x2c>
    62ec:	c4 10 40 00 	lduh  [ %g1 ], %g2
    62f0:	88 01 20 01 	inc  %g4
    62f4:	80 a1 00 18 	cmp  %g4, %i0
    62f8:	12 bf ff f6 	bne  62d0 <matrix_test+0x24>
    62fc:	82 10 00 03 	mov  %g3, %g1
    6300:	a3 2e 20 02 	sll  %i0, 2, %l1
    6304:	a6 10 00 19 	mov  %i1, %l3
    6308:	9e 10 00 19 	mov  %i1, %o7
    630c:	88 10 00 1a 	mov  %i2, %g4
    6310:	9a 10 20 00 	clr  %o5
    6314:	82 10 20 00 	clr  %g1
    6318:	c6 51 00 01 	ldsh  [ %g4 + %g1 ], %g3
    631c:	84 00 40 01 	add  %g1, %g1, %g2
    6320:	86 58 c0 1c 	smul  %g3, %i4, %g3
    6324:	82 00 60 02 	add  %g1, 2, %g1
    6328:	80 a7 40 01 	cmp  %i5, %g1
    632c:	12 bf ff fb 	bne  6318 <matrix_test+0x6c>
    6330:	c6 23 c0 02 	st  %g3, [ %o7 + %g2 ]
    6334:	9a 03 60 01 	inc  %o5
    6338:	88 01 00 1d 	add  %g4, %i5, %g4
    633c:	80 a3 40 18 	cmp  %o5, %i0
    6340:	12 bf ff f5 	bne  6314 <matrix_test+0x68>
    6344:	9e 03 c0 11 	add  %o7, %l1, %o7
    6348:	96 10 00 19 	mov  %i1, %o3
    634c:	94 10 20 00 	clr  %o2
    6350:	88 10 20 00 	clr  %g4
    6354:	82 10 20 00 	clr  %g1
    6358:	9e 10 20 00 	clr  %o7
    635c:	9a 10 00 01 	mov  %g1, %o5
    6360:	84 10 20 00 	clr  %g2
    6364:	c2 02 c0 02 	ld  [ %o3 + %g2 ], %g1
    6368:	98 01 20 0a 	add  %g4, 0xa, %o4
    636c:	86 00 40 0f 	add  %g1, %o7, %g3
    6370:	80 a0 40 0d 	cmp  %g1, %o5
    6374:	14 80 00 03 	bg  6380 <matrix_test+0xd4>
    6378:	b8 10 20 01 	mov  1, %i4
    637c:	b8 10 20 00 	clr  %i4
    6380:	b8 01 00 1c 	add  %g4, %i4, %i4
    6384:	80 a0 c0 10 	cmp  %g3, %l0
    6388:	04 80 00 04 	ble  6398 <matrix_test+0xec>
    638c:	9e 10 00 03 	mov  %g3, %o7
    6390:	9e 10 20 00 	clr  %o7
    6394:	80 a0 c0 10 	cmp  %g3, %l0
    6398:	34 80 00 02 	bg,a   63a0 <matrix_test+0xf4>
    639c:	b8 10 00 0c 	mov  %o4, %i4
    63a0:	84 00 a0 04 	add  %g2, 4, %g2
    63a4:	88 10 00 1c 	mov  %i4, %g4
    63a8:	80 a4 40 02 	cmp  %l1, %g2
    63ac:	12 bf ff ee 	bne  6364 <matrix_test+0xb8>
    63b0:	9a 10 00 01 	mov  %g1, %o5
    63b4:	94 02 a0 01 	inc  %o2
    63b8:	80 a2 80 18 	cmp  %o2, %i0
    63bc:	12 bf ff e9 	bne  6360 <matrix_test+0xb4>
    63c0:	96 02 c0 11 	add  %o3, %l1, %o3
    63c4:	91 2f 20 10 	sll  %i4, 0x10, %o0
    63c8:	92 10 20 00 	clr  %o1
    63cc:	40 00 11 52 	call  a914 <crc16>
    63d0:	91 3a 20 10 	sra  %o0, 0x10, %o0
    63d4:	b8 10 00 1a 	mov  %i2, %i4
    63d8:	9e 10 20 00 	clr  %o7
    63dc:	c0 26 40 0f 	clr  [ %i1 + %o7 ]
    63e0:	82 10 20 00 	clr  %g1
    63e4:	84 10 20 00 	clr  %g2
    63e8:	c8 57 00 01 	ldsh  [ %i4 + %g1 ], %g4
    63ec:	c6 56 c0 01 	ldsh  [ %i3 + %g1 ], %g3
    63f0:	82 00 60 02 	add  %g1, 2, %g1
    63f4:	86 59 00 03 	smul  %g4, %g3, %g3
    63f8:	80 a7 40 01 	cmp  %i5, %g1
    63fc:	12 bf ff fb 	bne  63e8 <matrix_test+0x13c>
    6400:	84 00 80 03 	add  %g2, %g3, %g2
    6404:	c4 26 40 0f 	st  %g2, [ %i1 + %o7 ]
    6408:	9e 03 e0 04 	add  %o7, 4, %o7
    640c:	80 a4 40 0f 	cmp  %l1, %o7
    6410:	12 bf ff f3 	bne  63dc <matrix_test+0x130>
    6414:	b8 07 00 1d 	add  %i4, %i5, %i4
    6418:	96 10 00 19 	mov  %i1, %o3
    641c:	94 10 20 00 	clr  %o2
    6420:	88 10 20 00 	clr  %g4
    6424:	82 10 20 00 	clr  %g1
    6428:	9e 10 20 00 	clr  %o7
    642c:	9a 10 00 01 	mov  %g1, %o5
    6430:	84 10 20 00 	clr  %g2
    6434:	c2 02 c0 02 	ld  [ %o3 + %g2 ], %g1
    6438:	98 01 20 0a 	add  %g4, 0xa, %o4
    643c:	86 00 40 0f 	add  %g1, %o7, %g3
    6440:	80 a0 40 0d 	cmp  %g1, %o5
    6444:	14 80 00 03 	bg  6450 <matrix_test+0x1a4>
    6448:	b8 10 20 01 	mov  1, %i4
    644c:	b8 10 20 00 	clr  %i4
    6450:	b8 01 00 1c 	add  %g4, %i4, %i4
    6454:	80 a0 c0 10 	cmp  %g3, %l0
    6458:	04 80 00 04 	ble  6468 <matrix_test+0x1bc>
    645c:	9e 10 00 03 	mov  %g3, %o7
    6460:	9e 10 20 00 	clr  %o7
    6464:	80 a0 c0 10 	cmp  %g3, %l0
    6468:	34 80 00 02 	bg,a   6470 <matrix_test+0x1c4>
    646c:	b8 10 00 0c 	mov  %o4, %i4
    6470:	84 00 a0 04 	add  %g2, 4, %g2
    6474:	88 10 00 1c 	mov  %i4, %g4
    6478:	80 a4 40 02 	cmp  %l1, %g2
    647c:	12 bf ff ee 	bne  6434 <matrix_test+0x188>
    6480:	9a 10 00 01 	mov  %g1, %o5
    6484:	94 02 a0 01 	inc  %o2
    6488:	80 a2 80 18 	cmp  %o2, %i0
    648c:	12 bf ff e9 	bne  6430 <matrix_test+0x184>
    6490:	96 02 c0 11 	add  %o3, %l1, %o3
    6494:	93 2a 20 10 	sll  %o0, 0x10, %o1
    6498:	b9 2f 20 10 	sll  %i4, 0x10, %i4
    649c:	93 32 60 10 	srl  %o1, 0x10, %o1
    64a0:	40 00 11 1d 	call  a914 <crc16>
    64a4:	91 3f 20 10 	sra  %i4, 0x10, %o0
    64a8:	94 10 00 19 	mov  %i1, %o2
    64ac:	9e 10 00 1a 	mov  %i2, %o7
    64b0:	96 10 20 00 	clr  %o3
    64b4:	98 10 00 0a 	mov  %o2, %o4
    64b8:	9a 10 20 00 	clr  %o5
    64bc:	c0 23 00 00 	clr  [ %o4 ]
    64c0:	84 03 40 1b 	add  %o5, %i3, %g2
    64c4:	82 10 20 00 	clr  %g1
    64c8:	86 10 20 00 	clr  %g3
    64cc:	f8 53 c0 01 	ldsh  [ %o7 + %g1 ], %i4
    64d0:	c8 50 80 00 	ldsh  [ %g2 ], %g4
    64d4:	82 00 60 02 	add  %g1, 2, %g1
    64d8:	88 5f 00 04 	smul  %i4, %g4, %g4
    64dc:	84 00 80 1d 	add  %g2, %i5, %g2
    64e0:	80 a7 40 01 	cmp  %i5, %g1
    64e4:	12 bf ff fa 	bne  64cc <matrix_test+0x220>
    64e8:	86 00 c0 04 	add  %g3, %g4, %g3
    64ec:	c6 23 00 00 	st  %g3, [ %o4 ]
    64f0:	9a 03 60 02 	add  %o5, 2, %o5
    64f4:	80 a7 40 0d 	cmp  %i5, %o5
    64f8:	12 bf ff f1 	bne  64bc <matrix_test+0x210>
    64fc:	98 03 20 04 	add  %o4, 4, %o4
    6500:	96 02 e0 01 	inc  %o3
    6504:	9e 03 c0 1d 	add  %o7, %i5, %o7
    6508:	80 a2 c0 18 	cmp  %o3, %i0
    650c:	12 bf ff ea 	bne  64b4 <matrix_test+0x208>
    6510:	94 02 80 11 	add  %o2, %l1, %o2
    6514:	96 10 00 19 	mov  %i1, %o3
    6518:	94 10 20 00 	clr  %o2
    651c:	88 10 20 00 	clr  %g4
    6520:	82 10 20 00 	clr  %g1
    6524:	9e 10 20 00 	clr  %o7
    6528:	9a 10 00 01 	mov  %g1, %o5
    652c:	84 10 20 00 	clr  %g2
    6530:	c2 02 c0 02 	ld  [ %o3 + %g2 ], %g1
    6534:	98 01 20 0a 	add  %g4, 0xa, %o4
    6538:	86 00 40 0f 	add  %g1, %o7, %g3
    653c:	80 a0 40 0d 	cmp  %g1, %o5
    6540:	14 80 00 03 	bg  654c <matrix_test+0x2a0>
    6544:	b8 10 20 01 	mov  1, %i4
    6548:	b8 10 20 00 	clr  %i4
    654c:	b8 01 00 1c 	add  %g4, %i4, %i4
    6550:	80 a0 c0 10 	cmp  %g3, %l0
    6554:	04 80 00 04 	ble  6564 <matrix_test+0x2b8>
    6558:	9e 10 00 03 	mov  %g3, %o7
    655c:	9e 10 20 00 	clr  %o7
    6560:	80 a0 c0 10 	cmp  %g3, %l0
    6564:	34 80 00 02 	bg,a   656c <matrix_test+0x2c0>
    6568:	b8 10 00 0c 	mov  %o4, %i4
    656c:	84 00 a0 04 	add  %g2, 4, %g2
    6570:	88 10 00 1c 	mov  %i4, %g4
    6574:	80 a4 40 02 	cmp  %l1, %g2
    6578:	12 bf ff ee 	bne  6530 <matrix_test+0x284>
    657c:	9a 10 00 01 	mov  %g1, %o5
    6580:	94 02 a0 01 	inc  %o2
    6584:	80 a2 80 18 	cmp  %o2, %i0
    6588:	12 bf ff e9 	bne  652c <matrix_test+0x280>
    658c:	96 02 c0 11 	add  %o3, %l1, %o3
    6590:	93 2a 20 10 	sll  %o0, 0x10, %o1
    6594:	b9 2f 20 10 	sll  %i4, 0x10, %i4
    6598:	93 32 60 10 	srl  %o1, 0x10, %o1
    659c:	40 00 10 de 	call  a914 <crc16>
    65a0:	91 3f 20 10 	sra  %i4, 0x10, %o0
    65a4:	98 10 20 00 	clr  %o4
    65a8:	9a 10 00 19 	mov  %i1, %o5
    65ac:	9e 10 20 00 	clr  %o7
    65b0:	c0 23 40 00 	clr  [ %o5 ]
    65b4:	84 06 c0 0f 	add  %i3, %o7, %g2
    65b8:	82 10 20 00 	clr  %g1
    65bc:	88 10 20 00 	clr  %g4
    65c0:	f8 56 80 01 	ldsh  [ %i2 + %g1 ], %i4
    65c4:	c6 50 80 00 	ldsh  [ %g2 ], %g3
    65c8:	82 00 60 02 	add  %g1, 2, %g1
    65cc:	86 5f 00 03 	smul  %i4, %g3, %g3
    65d0:	84 00 80 1d 	add  %g2, %i5, %g2
    65d4:	b9 38 e0 05 	sra  %g3, 5, %i4
    65d8:	80 a7 40 01 	cmp  %i5, %g1
    65dc:	87 38 e0 02 	sra  %g3, 2, %g3
    65e0:	b8 0f 20 7f 	and  %i4, 0x7f, %i4
    65e4:	86 08 e0 0f 	and  %g3, 0xf, %g3
    65e8:	86 5f 00 03 	smul  %i4, %g3, %g3
    65ec:	12 bf ff f5 	bne  65c0 <matrix_test+0x314>
    65f0:	88 00 c0 04 	add  %g3, %g4, %g4
    65f4:	c8 23 40 00 	st  %g4, [ %o5 ]
    65f8:	9e 03 e0 02 	add  %o7, 2, %o7
    65fc:	80 a7 40 0f 	cmp  %i5, %o7
    6600:	12 bf ff ec 	bne  65b0 <matrix_test+0x304>
    6604:	9a 03 60 04 	add  %o5, 4, %o5
    6608:	98 03 20 01 	inc  %o4
    660c:	b4 06 80 1d 	add  %i2, %i5, %i2
    6610:	80 a3 00 18 	cmp  %o4, %i0
    6614:	12 bf ff e5 	bne  65a8 <matrix_test+0x2fc>
    6618:	b2 06 40 11 	add  %i1, %l1, %i1
    661c:	9e 10 20 00 	clr  %o7
    6620:	88 10 20 00 	clr  %g4
    6624:	82 10 20 00 	clr  %g1
    6628:	b6 10 20 00 	clr  %i3
    662c:	b4 10 00 01 	mov  %g1, %i2
    6630:	84 10 20 00 	clr  %g2
    6634:	c2 04 c0 02 	ld  [ %l3 + %g2 ], %g1
    6638:	b2 01 20 0a 	add  %g4, 0xa, %i1
    663c:	86 00 40 1b 	add  %g1, %i3, %g3
    6640:	80 a0 40 1a 	cmp  %g1, %i2
    6644:	14 80 00 03 	bg  6650 <matrix_test+0x3a4>
    6648:	b8 10 20 01 	mov  1, %i4
    664c:	b8 10 20 00 	clr  %i4
    6650:	b8 01 00 1c 	add  %g4, %i4, %i4
    6654:	80 a0 c0 10 	cmp  %g3, %l0
    6658:	04 80 00 04 	ble  6668 <matrix_test+0x3bc>
    665c:	b6 10 00 03 	mov  %g3, %i3
    6660:	b6 10 20 00 	clr  %i3
    6664:	80 a0 c0 10 	cmp  %g3, %l0
    6668:	34 80 00 02 	bg,a   6670 <matrix_test+0x3c4>
    666c:	b8 10 00 19 	mov  %i1, %i4
    6670:	84 00 a0 04 	add  %g2, 4, %g2
    6674:	88 10 00 1c 	mov  %i4, %g4
    6678:	80 a4 40 02 	cmp  %l1, %g2
    667c:	12 bf ff ee 	bne  6634 <matrix_test+0x388>
    6680:	b4 10 00 01 	mov  %g1, %i2
    6684:	9e 03 e0 01 	inc  %o7
    6688:	80 a3 c0 18 	cmp  %o7, %i0
    668c:	12 bf ff e9 	bne  6630 <matrix_test+0x384>
    6690:	a6 04 c0 11 	add  %l3, %l1, %l3
    6694:	93 2a 20 10 	sll  %o0, 0x10, %o1
    6698:	b9 2f 20 10 	sll  %i4, 0x10, %i4
    669c:	93 32 60 10 	srl  %o1, 0x10, %o1
    66a0:	40 00 10 9d 	call  a914 <crc16>
    66a4:	91 3f 20 10 	sra  %i4, 0x10, %o0
    66a8:	86 10 20 00 	clr  %g3
    66ac:	84 07 40 14 	add  %i5, %l4, %g2
    66b0:	c2 15 00 00 	lduh  [ %l4 ], %g1
    66b4:	82 20 40 12 	sub  %g1, %l2, %g1
    66b8:	c2 35 00 00 	sth  %g1, [ %l4 ]
    66bc:	a8 05 20 02 	add  %l4, 2, %l4
    66c0:	80 a5 00 02 	cmp  %l4, %g2
    66c4:	32 bf ff fc 	bne,a   66b4 <matrix_test+0x408>
    66c8:	c2 15 00 00 	lduh  [ %l4 ], %g1
    66cc:	86 00 e0 01 	inc  %g3
    66d0:	80 a0 c0 18 	cmp  %g3, %i0
    66d4:	32 bf ff f7 	bne,a   66b0 <matrix_test+0x404>
    66d8:	84 07 40 14 	add  %i5, %l4, %g2
    66dc:	b1 2a 20 10 	sll  %o0, 0x10, %i0
    66e0:	b1 3e 20 10 	sra  %i0, 0x10, %i0
    66e4:	81 c7 e0 08 	ret 
    66e8:	81 e8 00 00 	restore 
    66ec:	92 10 20 00 	clr  %o1
    66f0:	40 00 10 89 	call  a914 <crc16>
    66f4:	90 10 20 00 	clr  %o0
    66f8:	93 2a 20 10 	sll  %o0, 0x10, %o1
    66fc:	90 10 20 00 	clr  %o0
    6700:	40 00 10 85 	call  a914 <crc16>
    6704:	93 32 60 10 	srl  %o1, 0x10, %o1
    6708:	93 2a 20 10 	sll  %o0, 0x10, %o1
    670c:	90 10 20 00 	clr  %o0
    6710:	40 00 10 81 	call  a914 <crc16>
    6714:	93 32 60 10 	srl  %o1, 0x10, %o1
    6718:	93 2a 20 10 	sll  %o0, 0x10, %o1
    671c:	90 10 20 00 	clr  %o0
    6720:	40 00 10 7d 	call  a914 <crc16>
    6724:	93 32 60 10 	srl  %o1, 0x10, %o1
    6728:	b1 2a 20 10 	sll  %o0, 0x10, %i0
    672c:	b1 3e 20 10 	sra  %i0, 0x10, %i0
    6730:	81 c7 e0 08 	ret 
    6734:	81 e8 00 00 	restore 

00006738 <core_bench_matrix>:
    6738:	9d e3 bf a0 	save  %sp, -96, %sp
    673c:	98 10 00 19 	mov  %i1, %o4
    6740:	d0 06 00 00 	ld  [ %i0 ], %o0
    6744:	d2 06 20 0c 	ld  [ %i0 + 0xc ], %o1
    6748:	d4 06 20 04 	ld  [ %i0 + 4 ], %o2
    674c:	d6 06 20 08 	ld  [ %i0 + 8 ], %o3
    6750:	7f ff fe d7 	call  62ac <matrix_test>
    6754:	b2 10 00 1a 	mov  %i2, %i1
    6758:	b1 2a 20 10 	sll  %o0, 0x10, %i0
    675c:	b1 3e 20 10 	sra  %i0, 0x10, %i0
    6760:	40 00 10 6d 	call  a914 <crc16>
    6764:	81 e8 00 00 	restore 

00006768 <core_init_matrix>:
    6768:	9d e3 bf a0 	save  %sp, -96, %sp
    676c:	80 a6 a0 00 	cmp  %i2, 0
    6770:	22 80 00 02 	be,a   6778 <core_init_matrix+0x10>
    6774:	b4 10 20 01 	mov  1, %i2
    6778:	80 a6 20 00 	cmp  %i0, 0
    677c:	22 80 00 3a 	be,a   6864 <core_init_matrix+0xfc>
    6780:	b2 06 7f ff 	add  %i1, -1, %i1
    6784:	84 10 20 00 	clr  %g2
    6788:	82 00 a0 01 	add  %g2, 1, %g1
    678c:	86 58 40 01 	smul  %g1, %g1, %g3
    6790:	87 28 e0 03 	sll  %g3, 3, %g3
    6794:	80 a6 00 03 	cmp  %i0, %g3
    6798:	38 bf ff fc 	bgu,a   6788 <core_init_matrix+0x20>
    679c:	84 10 00 01 	mov  %g1, %g2
    67a0:	b2 06 7f ff 	add  %i1, -1, %i1
    67a4:	96 58 80 02 	smul  %g2, %g2, %o3
    67a8:	9a 0e 7f fc 	and  %i1, -4, %o5
    67ac:	96 02 c0 0b 	add  %o3, %o3, %o3
    67b0:	9a 03 60 04 	add  %o5, 4, %o5
    67b4:	b0 10 00 02 	mov  %g2, %i0
    67b8:	80 a0 a0 00 	cmp  %g2, 0
    67bc:	02 80 00 20 	be  683c <core_init_matrix+0xd4>
    67c0:	98 03 40 0b 	add  %o5, %o3, %o4
    67c4:	33 00 00 3f 	sethi  %hi(0xfc00), %i1
    67c8:	9e 10 20 00 	clr  %o7
    67cc:	88 10 20 01 	mov  1, %g4
    67d0:	b2 16 63 ff 	or  %i1, 0x3ff, %i1
    67d4:	ba 5b c0 18 	smul  %o7, %i0, %i5
    67d8:	82 10 00 04 	mov  %g4, %g1
    67dc:	ba 07 40 1d 	add  %i5, %i5, %i5
    67e0:	84 10 20 00 	clr  %g2
    67e4:	b8 03 00 1d 	add  %o4, %i5, %i4
    67e8:	ba 03 40 1d 	add  %o5, %i5, %i5
    67ec:	b4 58 40 1a 	smul  %g1, %i2, %i2
    67f0:	87 3e a0 1f 	sra  %i2, 0x1f, %g3
    67f4:	87 30 e0 10 	srl  %g3, 0x10, %g3
    67f8:	b4 06 80 03 	add  %i2, %g3, %i2
    67fc:	b4 0e 80 19 	and  %i2, %i1, %i2
    6800:	b4 26 80 03 	sub  %i2, %g3, %i2
    6804:	86 06 80 01 	add  %i2, %g1, %g3
    6808:	c6 37 00 02 	sth  %g3, [ %i4 + %g2 ]
    680c:	86 00 c0 01 	add  %g3, %g1, %g3
    6810:	86 08 e0 ff 	and  %g3, 0xff, %g3
    6814:	c6 37 40 02 	sth  %g3, [ %i5 + %g2 ]
    6818:	82 00 60 01 	inc  %g1
    681c:	86 20 40 04 	sub  %g1, %g4, %g3
    6820:	80 a6 00 03 	cmp  %i0, %g3
    6824:	18 bf ff f2 	bgu  67ec <core_init_matrix+0x84>
    6828:	84 00 a0 02 	add  %g2, 2, %g2
    682c:	9e 03 e0 01 	inc  %o7
    6830:	80 a3 c0 18 	cmp  %o7, %i0
    6834:	0a bf ff e8 	bcs  67d4 <core_init_matrix+0x6c>
    6838:	88 10 00 01 	mov  %g1, %g4
    683c:	82 03 00 0b 	add  %o4, %o3, %g1
    6840:	da 26 e0 04 	st  %o5, [ %i3 + 4 ]
    6844:	82 00 7f ff 	add  %g1, -1, %g1
    6848:	d8 26 e0 08 	st  %o4, [ %i3 + 8 ]
    684c:	82 08 7f fc 	and  %g1, -4, %g1
    6850:	f0 26 c0 00 	st  %i0, [ %i3 ]
    6854:	82 00 60 04 	add  %g1, 4, %g1
    6858:	c2 26 e0 0c 	st  %g1, [ %i3 + 0xc ]
    685c:	81 c7 e0 08 	ret 
    6860:	81 e8 00 00 	restore 
    6864:	96 10 20 02 	mov  2, %o3
    6868:	98 0e 7f fc 	and  %i1, -4, %o4
    686c:	b0 10 3f ff 	mov  -1, %i0
    6870:	9a 03 20 04 	add  %o4, 4, %o5
    6874:	10 bf ff d4 	b  67c4 <core_init_matrix+0x5c>
    6878:	98 03 20 06 	add  %o4, 6, %o4

0000687c <matrix_sum>:
    687c:	9d e3 bf a0 	save  %sp, -96, %sp
    6880:	80 a6 20 00 	cmp  %i0, 0
    6884:	02 80 00 22 	be  690c <matrix_sum+0x90>
    6888:	9f 2e 20 02 	sll  %i0, 2, %o7
    688c:	9a 10 20 00 	clr  %o5
    6890:	88 10 20 00 	clr  %g4
    6894:	b8 10 20 00 	clr  %i4
    6898:	ba 10 20 00 	clr  %i5
    689c:	82 10 20 00 	clr  %g1
    68a0:	c4 06 40 01 	ld  [ %i1 + %g1 ], %g2
    68a4:	b6 01 20 0a 	add  %g4, 0xa, %i3
    68a8:	86 07 40 02 	add  %i5, %g2, %g3
    68ac:	80 a0 80 1c 	cmp  %g2, %i4
    68b0:	14 80 00 03 	bg  68bc <matrix_sum+0x40>
    68b4:	ba 10 20 01 	mov  1, %i5
    68b8:	ba 10 20 00 	clr  %i5
    68bc:	88 01 00 1d 	add  %g4, %i5, %g4
    68c0:	80 a0 c0 1a 	cmp  %g3, %i2
    68c4:	04 80 00 04 	ble  68d4 <matrix_sum+0x58>
    68c8:	ba 10 00 03 	mov  %g3, %i5
    68cc:	ba 10 20 00 	clr  %i5
    68d0:	80 a0 c0 1a 	cmp  %g3, %i2
    68d4:	34 80 00 02 	bg,a   68dc <matrix_sum+0x60>
    68d8:	88 10 00 1b 	mov  %i3, %g4
    68dc:	82 00 60 04 	add  %g1, 4, %g1
    68e0:	80 a3 c0 01 	cmp  %o7, %g1
    68e4:	12 bf ff ef 	bne  68a0 <matrix_sum+0x24>
    68e8:	b8 10 00 02 	mov  %g2, %i4
    68ec:	9a 03 60 01 	inc  %o5
    68f0:	80 a3 40 18 	cmp  %o5, %i0
    68f4:	12 bf ff ea 	bne  689c <matrix_sum+0x20>
    68f8:	b2 06 40 0f 	add  %i1, %o7, %i1
    68fc:	b1 29 20 10 	sll  %g4, 0x10, %i0
    6900:	b1 3e 20 10 	sra  %i0, 0x10, %i0
    6904:	81 c7 e0 08 	ret 
    6908:	81 e8 00 00 	restore 
    690c:	88 10 20 00 	clr  %g4
    6910:	b1 29 20 10 	sll  %g4, 0x10, %i0
    6914:	b1 3e 20 10 	sra  %i0, 0x10, %i0
    6918:	81 c7 e0 08 	ret 
    691c:	81 e8 00 00 	restore 

00006920 <matrix_mul_const>:
    6920:	80 a2 20 00 	cmp  %o0, 0
    6924:	02 80 00 11 	be  6968 <matrix_mul_const+0x48>
    6928:	88 02 00 08 	add  %o0, %o0, %g4
    692c:	99 2a 20 02 	sll  %o0, 2, %o4
    6930:	9a 10 20 00 	clr  %o5
    6934:	82 10 20 00 	clr  %g1
    6938:	c6 52 80 01 	ldsh  [ %o2 + %g1 ], %g3
    693c:	84 00 40 01 	add  %g1, %g1, %g2
    6940:	86 58 c0 0b 	smul  %g3, %o3, %g3
    6944:	82 00 60 02 	add  %g1, 2, %g1
    6948:	80 a1 00 01 	cmp  %g4, %g1
    694c:	12 bf ff fb 	bne  6938 <matrix_mul_const+0x18>
    6950:	c6 22 40 02 	st  %g3, [ %o1 + %g2 ]
    6954:	9a 03 60 01 	inc  %o5
    6958:	94 02 80 04 	add  %o2, %g4, %o2
    695c:	80 a3 40 08 	cmp  %o5, %o0
    6960:	12 bf ff f5 	bne  6934 <matrix_mul_const+0x14>
    6964:	92 02 40 0c 	add  %o1, %o4, %o1
    6968:	81 c3 e0 08 	retl 
    696c:	01 00 00 00 	nop 

00006970 <matrix_add_const>:
    6970:	80 a2 20 00 	cmp  %o0, 0
    6974:	02 80 00 0f 	be  69b0 <matrix_add_const+0x40>
    6978:	88 02 00 08 	add  %o0, %o0, %g4
    697c:	86 10 20 00 	clr  %g3
    6980:	84 01 00 09 	add  %g4, %o1, %g2
    6984:	c2 12 40 00 	lduh  [ %o1 ], %g1
    6988:	82 00 40 0a 	add  %g1, %o2, %g1
    698c:	c2 32 40 00 	sth  %g1, [ %o1 ]
    6990:	92 02 60 02 	add  %o1, 2, %o1
    6994:	80 a2 40 02 	cmp  %o1, %g2
    6998:	32 bf ff fc 	bne,a   6988 <matrix_add_const+0x18>
    699c:	c2 12 40 00 	lduh  [ %o1 ], %g1
    69a0:	86 00 e0 01 	inc  %g3
    69a4:	80 a0 c0 08 	cmp  %g3, %o0
    69a8:	12 bf ff f7 	bne  6984 <matrix_add_const+0x14>
    69ac:	84 01 00 09 	add  %g4, %o1, %g2
    69b0:	81 c3 e0 08 	retl 
    69b4:	01 00 00 00 	nop 

000069b8 <matrix_mul_vect>:
    69b8:	80 a2 20 00 	cmp  %o0, 0
    69bc:	02 80 00 13 	be  6a08 <matrix_mul_vect+0x50>
    69c0:	9a 02 00 08 	add  %o0, %o0, %o5
    69c4:	98 10 20 00 	clr  %o4
    69c8:	91 2a 20 02 	sll  %o0, 2, %o0
    69cc:	c0 22 40 0c 	clr  [ %o1 + %o4 ]
    69d0:	82 10 20 00 	clr  %g1
    69d4:	84 10 20 00 	clr  %g2
    69d8:	c8 52 80 01 	ldsh  [ %o2 + %g1 ], %g4
    69dc:	c6 52 c0 01 	ldsh  [ %o3 + %g1 ], %g3
    69e0:	82 00 60 02 	add  %g1, 2, %g1
    69e4:	86 59 00 03 	smul  %g4, %g3, %g3
    69e8:	80 a0 40 0d 	cmp  %g1, %o5
    69ec:	12 bf ff fb 	bne  69d8 <matrix_mul_vect+0x20>
    69f0:	84 00 80 03 	add  %g2, %g3, %g2
    69f4:	c4 22 40 0c 	st  %g2, [ %o1 + %o4 ]
    69f8:	98 03 20 04 	add  %o4, 4, %o4
    69fc:	80 a3 00 08 	cmp  %o4, %o0
    6a00:	12 bf ff f3 	bne  69cc <matrix_mul_vect+0x14>
    6a04:	94 02 80 0d 	add  %o2, %o5, %o2
    6a08:	81 c3 e0 08 	retl 
    6a0c:	01 00 00 00 	nop 

00006a10 <matrix_mul_matrix>:
    6a10:	9d e3 bf a0 	save  %sp, -96, %sp
    6a14:	80 a6 20 00 	cmp  %i0, 0
    6a18:	02 80 00 1d 	be  6a8c <matrix_mul_matrix+0x7c>
    6a1c:	88 06 00 18 	add  %i0, %i0, %g4
    6a20:	97 2e 20 02 	sll  %i0, 2, %o3
    6a24:	98 10 00 19 	mov  %i1, %o4
    6a28:	9a 10 20 00 	clr  %o5
    6a2c:	9e 10 00 0c 	mov  %o4, %o7
    6a30:	b2 10 20 00 	clr  %i1
    6a34:	c0 23 c0 00 	clr  [ %o7 ]
    6a38:	84 06 c0 19 	add  %i3, %i1, %g2
    6a3c:	82 10 20 00 	clr  %g1
    6a40:	86 10 20 00 	clr  %g3
    6a44:	f8 56 80 01 	ldsh  [ %i2 + %g1 ], %i4
    6a48:	fa 50 80 00 	ldsh  [ %g2 ], %i5
    6a4c:	82 00 60 02 	add  %g1, 2, %g1
    6a50:	ba 5f 00 1d 	smul  %i4, %i5, %i5
    6a54:	84 00 80 04 	add  %g2, %g4, %g2
    6a58:	80 a1 00 01 	cmp  %g4, %g1
    6a5c:	12 bf ff fa 	bne  6a44 <matrix_mul_matrix+0x34>
    6a60:	86 00 c0 1d 	add  %g3, %i5, %g3
    6a64:	c6 23 c0 00 	st  %g3, [ %o7 ]
    6a68:	b2 06 60 02 	add  %i1, 2, %i1
    6a6c:	80 a1 00 19 	cmp  %g4, %i1
    6a70:	12 bf ff f1 	bne  6a34 <matrix_mul_matrix+0x24>
    6a74:	9e 03 e0 04 	add  %o7, 4, %o7
    6a78:	9a 03 60 01 	inc  %o5
    6a7c:	b4 06 80 04 	add  %i2, %g4, %i2
    6a80:	80 a3 40 18 	cmp  %o5, %i0
    6a84:	12 bf ff ea 	bne  6a2c <matrix_mul_matrix+0x1c>
    6a88:	98 03 00 0b 	add  %o4, %o3, %o4
    6a8c:	81 c7 e0 08 	ret 
    6a90:	81 e8 00 00 	restore 

00006a94 <matrix_mul_matrix_bitextract>:
    6a94:	9d e3 bf a0 	save  %sp, -96, %sp
    6a98:	80 a6 20 00 	cmp  %i0, 0
    6a9c:	02 80 00 22 	be  6b24 <matrix_mul_matrix_bitextract+0x90>
    6aa0:	ba 06 00 18 	add  %i0, %i0, %i5
    6aa4:	97 2e 20 02 	sll  %i0, 2, %o3
    6aa8:	98 10 00 19 	mov  %i1, %o4
    6aac:	9a 10 20 00 	clr  %o5
    6ab0:	9e 10 00 0c 	mov  %o4, %o7
    6ab4:	b2 10 20 00 	clr  %i1
    6ab8:	c0 23 c0 00 	clr  [ %o7 ]
    6abc:	84 06 c0 19 	add  %i3, %i1, %g2
    6ac0:	82 10 20 00 	clr  %g1
    6ac4:	88 10 20 00 	clr  %g4
    6ac8:	f8 56 80 01 	ldsh  [ %i2 + %g1 ], %i4
    6acc:	c6 50 80 00 	ldsh  [ %g2 ], %g3
    6ad0:	82 00 60 02 	add  %g1, 2, %g1
    6ad4:	86 5f 00 03 	smul  %i4, %g3, %g3
    6ad8:	84 00 80 1d 	add  %g2, %i5, %g2
    6adc:	b9 38 e0 05 	sra  %g3, 5, %i4
    6ae0:	80 a7 40 01 	cmp  %i5, %g1
    6ae4:	87 38 e0 02 	sra  %g3, 2, %g3
    6ae8:	b8 0f 20 7f 	and  %i4, 0x7f, %i4
    6aec:	86 08 e0 0f 	and  %g3, 0xf, %g3
    6af0:	86 5f 00 03 	smul  %i4, %g3, %g3
    6af4:	12 bf ff f5 	bne  6ac8 <matrix_mul_matrix_bitextract+0x34>
    6af8:	88 00 c0 04 	add  %g3, %g4, %g4
    6afc:	c8 23 c0 00 	st  %g4, [ %o7 ]
    6b00:	b2 06 60 02 	add  %i1, 2, %i1
    6b04:	80 a7 40 19 	cmp  %i5, %i1
    6b08:	12 bf ff ec 	bne  6ab8 <matrix_mul_matrix_bitextract+0x24>
    6b0c:	9e 03 e0 04 	add  %o7, 4, %o7
    6b10:	9a 03 60 01 	inc  %o5
    6b14:	b4 06 80 1d 	add  %i2, %i5, %i2
    6b18:	80 a3 40 18 	cmp  %o5, %i0
    6b1c:	12 bf ff e5 	bne  6ab0 <matrix_mul_matrix_bitextract+0x1c>
    6b20:	98 03 00 0b 	add  %o4, %o3, %o4
    6b24:	81 c7 e0 08 	ret 
    6b28:	81 e8 00 00 	restore 

00006b2c <cmp_idx>:
    6b2c:	80 a2 a0 00 	cmp  %o2, 0
    6b30:	22 80 00 06 	be,a   6b48 <cmp_idx+0x1c>
    6b34:	c2 12 00 00 	lduh  [ %o0 ], %g1
    6b38:	d0 52 20 02 	ldsh  [ %o0 + 2 ], %o0
    6b3c:	c2 52 60 02 	ldsh  [ %o1 + 2 ], %g1
    6b40:	81 c3 e0 08 	retl 
    6b44:	90 22 00 01 	sub  %o0, %g1, %o0
    6b48:	85 28 60 10 	sll  %g1, 0x10, %g2
    6b4c:	82 08 7f 00 	and  %g1, -256, %g1
    6b50:	85 30 a0 18 	srl  %g2, 0x18, %g2
    6b54:	82 10 80 01 	or  %g2, %g1, %g1
    6b58:	c2 32 00 00 	sth  %g1, [ %o0 ]
    6b5c:	c2 12 40 00 	lduh  [ %o1 ], %g1
    6b60:	85 28 60 10 	sll  %g1, 0x10, %g2
    6b64:	82 08 7f 00 	and  %g1, -256, %g1
    6b68:	85 30 a0 18 	srl  %g2, 0x18, %g2
    6b6c:	82 10 80 01 	or  %g2, %g1, %g1
    6b70:	d0 52 20 02 	ldsh  [ %o0 + 2 ], %o0
    6b74:	c2 32 40 00 	sth  %g1, [ %o1 ]
    6b78:	c2 52 60 02 	ldsh  [ %o1 + 2 ], %g1
    6b7c:	81 c3 e0 08 	retl 
    6b80:	90 22 00 01 	sub  %o0, %g1, %o0

00006b84 <core_list_mergesort.constprop.1>:
    6b84:	9d e3 bf a0 	save  %sp, -96, %sp
    6b88:	80 a6 20 00 	cmp  %i0, 0
    6b8c:	02 80 00 2f 	be  6c48 <core_list_mergesort.constprop.1+0xc4>
    6b90:	86 10 20 01 	mov  1, %g3
    6b94:	9a 10 20 00 	clr  %o5
    6b98:	88 10 20 00 	clr  %g4
    6b9c:	b6 10 20 00 	clr  %i3
    6ba0:	b6 06 e0 01 	inc  %i3
    6ba4:	84 10 00 18 	mov  %i0, %g2
    6ba8:	82 10 20 00 	clr  %g1
    6bac:	c4 00 80 00 	ld  [ %g2 ], %g2
    6bb0:	80 a0 a0 00 	cmp  %g2, 0
    6bb4:	02 80 00 05 	be  6bc8 <core_list_mergesort.constprop.1+0x44>
    6bb8:	82 00 60 01 	inc  %g1
    6bbc:	80 a0 40 03 	cmp  %g1, %g3
    6bc0:	26 bf ff fc 	bl,a   6bb0 <core_list_mergesort.constprop.1+0x2c>
    6bc4:	c4 00 80 00 	ld  [ %g2 ], %g2
    6bc8:	b8 10 00 18 	mov  %i0, %i4
    6bcc:	ba 10 00 03 	mov  %g3, %i5
    6bd0:	80 a0 60 00 	cmp  %g1, 0
    6bd4:	02 80 00 10 	be  6c14 <core_list_mergesort.constprop.1+0x90>
    6bd8:	b0 10 00 02 	mov  %g2, %i0
    6bdc:	80 a6 20 00 	cmp  %i0, 0
    6be0:	12 80 00 1f 	bne  6c5c <core_list_mergesort.constprop.1+0xd8>
    6be4:	80 a7 60 00 	cmp  %i5, 0
    6be8:	84 10 00 1c 	mov  %i4, %g2
    6bec:	82 00 7f ff 	add  %g1, -1, %g1
    6bf0:	f8 07 00 00 	ld  [ %i4 ], %i4
    6bf4:	80 a1 20 00 	cmp  %g4, 0
    6bf8:	22 80 00 17 	be,a   6c54 <core_list_mergesort.constprop.1+0xd0>
    6bfc:	9a 10 00 02 	mov  %g2, %o5
    6c00:	c4 21 00 00 	st  %g2, [ %g4 ]
    6c04:	88 10 00 02 	mov  %g2, %g4
    6c08:	80 a0 60 00 	cmp  %g1, 0
    6c0c:	12 bf ff f5 	bne  6be0 <core_list_mergesort.constprop.1+0x5c>
    6c10:	80 a6 20 00 	cmp  %i0, 0
    6c14:	80 a6 20 00 	cmp  %i0, 0
    6c18:	12 80 00 2a 	bne  6cc0 <core_list_mergesort.constprop.1+0x13c>
    6c1c:	80 a7 60 00 	cmp  %i5, 0
    6c20:	80 a6 20 00 	cmp  %i0, 0
    6c24:	32 bf ff e0 	bne,a   6ba4 <core_list_mergesort.constprop.1+0x20>
    6c28:	b6 06 e0 01 	inc  %i3
    6c2c:	80 a6 e0 01 	cmp  %i3, 1
    6c30:	02 80 00 28 	be  6cd0 <core_list_mergesort.constprop.1+0x14c>
    6c34:	c0 21 00 00 	clr  [ %g4 ]
    6c38:	b0 10 00 0d 	mov  %o5, %i0
    6c3c:	80 a6 20 00 	cmp  %i0, 0
    6c40:	12 bf ff d5 	bne  6b94 <core_list_mergesort.constprop.1+0x10>
    6c44:	86 00 c0 03 	add  %g3, %g3, %g3
    6c48:	c0 20 20 00 	clr  [ %g0 ]
    6c4c:	81 c7 e0 08 	ret 
    6c50:	81 e8 00 00 	restore 
    6c54:	10 bf ff ed 	b  6c08 <core_list_mergesort.constprop.1+0x84>
    6c58:	88 10 00 02 	mov  %g2, %g4
    6c5c:	02 bf ff e4 	be  6bec <core_list_mergesort.constprop.1+0x68>
    6c60:	84 10 00 1c 	mov  %i4, %g2
    6c64:	f4 07 20 04 	ld  [ %i4 + 4 ], %i2
    6c68:	c4 06 20 04 	ld  [ %i0 + 4 ], %g2
    6c6c:	f2 16 80 00 	lduh  [ %i2 ], %i1
    6c70:	9f 2e 60 10 	sll  %i1, 0x10, %o7
    6c74:	b2 0e 7f 00 	and  %i1, -256, %i1
    6c78:	9f 33 e0 18 	srl  %o7, 0x18, %o7
    6c7c:	b2 13 c0 19 	or  %o7, %i1, %i1
    6c80:	f2 36 80 00 	sth  %i1, [ %i2 ]
    6c84:	f2 10 80 00 	lduh  [ %g2 ], %i1
    6c88:	9f 2e 60 10 	sll  %i1, 0x10, %o7
    6c8c:	b2 0e 7f 00 	and  %i1, -256, %i1
    6c90:	9f 33 e0 18 	srl  %o7, 0x18, %o7
    6c94:	b2 13 c0 19 	or  %o7, %i1, %i1
    6c98:	f2 30 80 00 	sth  %i1, [ %g2 ]
    6c9c:	f4 56 a0 02 	ldsh  [ %i2 + 2 ], %i2
    6ca0:	c4 50 a0 02 	ldsh  [ %g2 + 2 ], %g2
    6ca4:	84 26 80 02 	sub  %i2, %g2, %g2
    6ca8:	80 a0 a0 00 	cmp  %g2, 0
    6cac:	04 bf ff cf 	ble  6be8 <core_list_mergesort.constprop.1+0x64>
    6cb0:	84 10 00 18 	mov  %i0, %g2
    6cb4:	ba 07 7f ff 	add  %i5, -1, %i5
    6cb8:	10 bf ff cf 	b  6bf4 <core_list_mergesort.constprop.1+0x70>
    6cbc:	f0 06 00 00 	ld  [ %i0 ], %i0
    6cc0:	04 bf ff d9 	ble  6c24 <core_list_mergesort.constprop.1+0xa0>
    6cc4:	80 a6 20 00 	cmp  %i0, 0
    6cc8:	10 bf ff fb 	b  6cb4 <core_list_mergesort.constprop.1+0x130>
    6ccc:	84 10 00 18 	mov  %i0, %g2
    6cd0:	81 c7 e0 08 	ret 
    6cd4:	91 e8 00 0d 	restore  %g0, %o5, %o0

00006cd8 <calc_func>:
    6cd8:	9d e3 bf a0 	save  %sp, -96, %sp
    6cdc:	fa 16 00 00 	lduh  [ %i0 ], %i5
    6ce0:	80 8f 60 80 	btst  0x80, %i5
    6ce4:	12 80 00 2e 	bne  6d9c <calc_func+0xc4>
    6ce8:	83 2f 60 10 	sll  %i5, 0x10, %g1
    6cec:	83 38 60 13 	sra  %g1, 0x13, %g1
    6cf0:	84 8f 60 07 	andcc  %i5, 7, %g2
    6cf4:	82 08 60 0f 	and  %g1, 0xf, %g1
    6cf8:	93 28 60 04 	sll  %g1, 4, %o1
    6cfc:	92 12 40 01 	or  %o1, %g1, %o1
    6d00:	02 80 00 17 	be  6d5c <calc_func+0x84>
    6d04:	98 10 00 09 	mov  %o1, %o4
    6d08:	80 a0 a0 01 	cmp  %g2, 1
    6d0c:	02 80 00 28 	be  6dac <calc_func+0xd4>
    6d10:	b8 10 00 1d 	mov  %i5, %i4
    6d14:	d2 16 60 38 	lduh  [ %i1 + 0x38 ], %o1
    6d18:	40 00 09 ea 	call  94c0 <crcu8>
    6d1c:	90 0f 20 ff 	and  %i4, 0xff, %o0
    6d20:	83 2f 20 10 	sll  %i4, 0x10, %g1
    6d24:	93 2a 20 10 	sll  %o0, 0x10, %o1
    6d28:	91 30 60 18 	srl  %g1, 0x18, %o0
    6d2c:	40 00 09 e5 	call  94c0 <crcu8>
    6d30:	93 32 60 10 	srl  %o1, 0x10, %o1
    6d34:	d0 36 60 38 	sth  %o0, [ %i1 + 0x38 ]
    6d38:	b8 0f 20 7f 	and  %i4, 0x7f, %i4
    6d3c:	ba 0f 7f 00 	and  %i5, -256, %i5
    6d40:	82 10 00 1c 	mov  %i4, %g1
    6d44:	ba 17 60 80 	or  %i5, 0x80, %i5
    6d48:	b8 17 40 1c 	or  %i5, %i4, %i4
    6d4c:	f8 36 00 00 	sth  %i4, [ %i0 ]
    6d50:	b0 08 60 7f 	and  %g1, 0x7f, %i0
    6d54:	81 c7 e0 08 	ret 
    6d58:	81 e8 00 00 	restore 
    6d5c:	80 a2 60 21 	cmp  %o1, 0x21
    6d60:	24 80 00 02 	ble,a   6d68 <calc_func+0x90>
    6d64:	98 10 20 22 	mov  0x22, %o4
    6d68:	d0 06 60 18 	ld  [ %i1 + 0x18 ], %o0
    6d6c:	d2 06 60 14 	ld  [ %i1 + 0x14 ], %o1
    6d70:	d4 56 40 00 	ldsh  [ %i1 ], %o2
    6d74:	d6 56 60 02 	ldsh  [ %i1 + 2 ], %o3
    6d78:	98 0b 20 ff 	and  %o4, 0xff, %o4
    6d7c:	7f ff fc c2 	call  6084 <core_bench_state>
    6d80:	da 16 60 38 	lduh  [ %i1 + 0x38 ], %o5
    6d84:	c2 16 60 3e 	lduh  [ %i1 + 0x3e ], %g1
    6d88:	80 a0 60 00 	cmp  %g1, 0
    6d8c:	12 bf ff e2 	bne  6d14 <calc_func+0x3c>
    6d90:	b8 10 00 08 	mov  %o0, %i4
    6d94:	10 bf ff e0 	b  6d14 <calc_func+0x3c>
    6d98:	d0 36 60 3e 	sth  %o0, [ %i1 + 0x3e ]
    6d9c:	82 0f 60 7f 	and  %i5, 0x7f, %g1
    6da0:	b0 08 60 7f 	and  %g1, 0x7f, %i0
    6da4:	81 c7 e0 08 	ret 
    6da8:	81 e8 00 00 	restore 
    6dac:	90 06 60 28 	add  %i1, 0x28, %o0
    6db0:	7f ff fe 62 	call  6738 <core_bench_matrix>
    6db4:	d4 16 60 38 	lduh  [ %i1 + 0x38 ], %o2
    6db8:	c2 16 60 3c 	lduh  [ %i1 + 0x3c ], %g1
    6dbc:	80 a0 60 00 	cmp  %g1, 0
    6dc0:	12 bf ff d5 	bne  6d14 <calc_func+0x3c>
    6dc4:	b8 10 00 08 	mov  %o0, %i4
    6dc8:	10 bf ff d3 	b  6d14 <calc_func+0x3c>
    6dcc:	d0 36 60 3c 	sth  %o0, [ %i1 + 0x3c ]

00006dd0 <cmp_complex>:
    6dd0:	9d e3 bf a0 	save  %sp, -96, %sp
    6dd4:	92 10 00 1a 	mov  %i2, %o1
    6dd8:	7f ff ff c0 	call  6cd8 <calc_func>
    6ddc:	90 10 00 18 	mov  %i0, %o0
    6de0:	92 10 00 1a 	mov  %i2, %o1
    6de4:	ba 10 00 08 	mov  %o0, %i5
    6de8:	90 10 00 19 	mov  %i1, %o0
    6dec:	7f ff ff bb 	call  6cd8 <calc_func>
    6df0:	bb 2f 60 10 	sll  %i5, 0x10, %i5
    6df4:	bb 3f 60 10 	sra  %i5, 0x10, %i5
    6df8:	91 2a 20 10 	sll  %o0, 0x10, %o0
    6dfc:	b1 3a 20 10 	sra  %o0, 0x10, %i0
    6e00:	b0 27 40 18 	sub  %i5, %i0, %i0
    6e04:	81 c7 e0 08 	ret 
    6e08:	81 e8 00 00 	restore 

00006e0c <copy_info>:
    6e0c:	c4 12 40 00 	lduh  [ %o1 ], %g2
    6e10:	c2 12 60 02 	lduh  [ %o1 + 2 ], %g1
    6e14:	c4 32 00 00 	sth  %g2, [ %o0 ]
    6e18:	81 c3 e0 08 	retl 
    6e1c:	c2 32 20 02 	sth  %g1, [ %o0 + 2 ]

00006e20 <core_list_init>:
    6e20:	9d e3 bf a0 	save  %sp, -96, %sp
    6e24:	81 80 20 00 	mov  %g0, %y
    6e28:	01 00 00 00 	nop 
    6e2c:	01 00 00 00 	nop 
    6e30:	01 00 00 00 	nop 
    6e34:	b0 76 20 14 	udiv  %i0, 0x14, %i0
    6e38:	c0 26 40 00 	clr  [ %i1 ]
    6e3c:	b6 06 3f fe 	add  %i0, -2, %i3
    6e40:	83 2e e0 03 	sll  %i3, 3, %g1
    6e44:	ba 06 40 01 	add  %i1, %g1, %i5
    6e48:	fa 26 60 04 	st  %i5, [ %i1 + 4 ]
    6e4c:	05 3f ff e0 	sethi  %hi(0xffff8000), %g2
    6e50:	c0 37 60 02 	clrh  [ %i5 + 2 ]
    6e54:	84 10 a0 80 	or  %g2, 0x80, %g2
    6e58:	c4 36 40 01 	sth  %g2, [ %i1 + %g1 ]
    6e5c:	b1 2e e0 02 	sll  %i3, 2, %i0
    6e60:	82 06 60 10 	add  %i1, 0x10, %g1
    6e64:	b0 07 40 18 	add  %i5, %i0, %i0
    6e68:	86 06 60 08 	add  %i1, 8, %g3
    6e6c:	b8 07 60 04 	add  %i5, 4, %i4
    6e70:	80 a7 40 01 	cmp  %i5, %g1
    6e74:	08 80 00 06 	bleu  6e8c <core_list_init+0x6c>
    6e78:	84 10 20 00 	clr  %g2
    6e7c:	88 07 60 08 	add  %i5, 8, %g4
    6e80:	80 a6 00 04 	cmp  %i0, %g4
    6e84:	38 80 00 41 	bgu,a   6f88 <core_list_init+0x168>
    6e88:	c6 26 40 00 	st  %g3, [ %i1 ]
    6e8c:	80 a6 e0 00 	cmp  %i3, 0
    6e90:	22 80 00 22 	be,a   6f18 <core_list_init+0xf8>
    6e94:	31 00 00 0f 	sethi  %hi(0x3c00), %i0
    6e98:	17 00 00 1f 	sethi  %hi(0x7c00), %o3
    6e9c:	94 10 00 1a 	mov  %i2, %o2
    6ea0:	82 10 20 00 	clr  %g1
    6ea4:	96 12 e3 ff 	or  %o3, 0x3ff, %o3
    6ea8:	88 00 e0 08 	add  %g3, 8, %g4
    6eac:	80 a7 40 04 	cmp  %i5, %g4
    6eb0:	28 80 00 16 	bleu,a   6f08 <core_list_init+0xe8>
    6eb4:	82 00 60 01 	inc  %g1
    6eb8:	9e 07 20 04 	add  %i4, 4, %o7
    6ebc:	80 a6 00 0f 	cmp  %i0, %o7
    6ec0:	28 80 00 12 	bleu,a   6f08 <core_list_init+0xe8>
    6ec4:	82 00 60 01 	inc  %g1
    6ec8:	c4 20 c0 00 	st  %g2, [ %g3 ]
    6ecc:	f8 20 e0 04 	st  %i4, [ %g3 + 4 ]
    6ed0:	c6 26 40 00 	st  %g3, [ %i1 ]
    6ed4:	9a 08 60 07 	and  %g1, 7, %o5
    6ed8:	98 18 40 0a 	xor  %g1, %o2, %o4
    6edc:	d6 37 20 02 	sth  %o3, [ %i4 + 2 ]
    6ee0:	98 0b 20 0f 	and  %o4, 0xf, %o4
    6ee4:	84 10 00 03 	mov  %g3, %g2
    6ee8:	99 2b 20 03 	sll  %o4, 3, %o4
    6eec:	86 10 00 04 	mov  %g4, %g3
    6ef0:	88 13 00 0d 	or  %o4, %o5, %g4
    6ef4:	9b 29 20 08 	sll  %g4, 8, %o5
    6ef8:	88 13 40 04 	or  %o5, %g4, %g4
    6efc:	c8 37 00 00 	sth  %g4, [ %i4 ]
    6f00:	b8 10 00 0f 	mov  %o7, %i4
    6f04:	82 00 60 01 	inc  %g1
    6f08:	80 a6 c0 01 	cmp  %i3, %g1
    6f0c:	32 bf ff e8 	bne,a   6eac <core_list_init+0x8c>
    6f10:	88 00 e0 08 	add  %g3, 8, %g4
    6f14:	31 00 00 0f 	sethi  %hi(0x3c00), %i0
    6f18:	81 80 20 00 	mov  %g0, %y
    6f1c:	01 00 00 00 	nop 
    6f20:	01 00 00 00 	nop 
    6f24:	01 00 00 00 	nop 
    6f28:	ba 76 e0 05 	udiv  %i3, 5, %i5
    6f2c:	82 10 20 01 	mov  1, %g1
    6f30:	88 10 20 02 	mov  2, %g4
    6f34:	10 80 00 06 	b  6f4c <core_list_init+0x12c>
    6f38:	b0 16 23 ff 	or  %i0, 0x3ff, %i0
    6f3c:	c2 30 a0 02 	sth  %g1, [ %g2 + 2 ]
    6f40:	88 01 20 01 	inc  %g4
    6f44:	82 00 60 01 	inc  %g1
    6f48:	84 10 00 03 	mov  %g3, %g2
    6f4c:	c6 00 80 00 	ld  [ %g2 ], %g3
    6f50:	80 a0 e0 00 	cmp  %g3, 0
    6f54:	02 80 00 0b 	be  6f80 <core_list_init+0x160>
    6f58:	80 a7 40 01 	cmp  %i5, %g1
    6f5c:	18 bf ff f8 	bgu  6f3c <core_list_init+0x11c>
    6f60:	c4 00 a0 04 	ld  [ %g2 + 4 ], %g2
    6f64:	b8 09 20 07 	and  %g4, 7, %i4
    6f68:	b6 18 40 1a 	xor  %g1, %i2, %i3
    6f6c:	b9 2f 20 08 	sll  %i4, 8, %i4
    6f70:	b8 17 00 1b 	or  %i4, %i3, %i4
    6f74:	b8 0f 00 18 	and  %i4, %i0, %i4
    6f78:	10 bf ff f2 	b  6f40 <core_list_init+0x120>
    6f7c:	f8 30 a0 02 	sth  %i4, [ %g2 + 2 ]
    6f80:	7f ff ff 01 	call  6b84 <core_list_mergesort.constprop.1>
    6f84:	91 e8 00 19 	restore  %g0, %i1, %o0
    6f88:	f8 26 60 0c 	st  %i4, [ %i1 + 0xc ]
    6f8c:	c0 26 60 08 	clr  [ %i1 + 8 ]
    6f90:	84 10 00 03 	mov  %g3, %g2
    6f94:	86 10 3f ff 	mov  -1, %g3
    6f98:	c6 37 60 04 	sth  %g3, [ %i5 + 4 ]
    6f9c:	07 00 00 1f 	sethi  %hi(0x7c00), %g3
    6fa0:	86 10 e3 ff 	or  %g3, 0x3ff, %g3	! 7fff <__ajit_serial_getchar_via_bypass__+0x13>
    6fa4:	b8 10 00 04 	mov  %g4, %i4
    6fa8:	c6 37 60 06 	sth  %g3, [ %i5 + 6 ]
    6fac:	10 bf ff b8 	b  6e8c <core_list_init+0x6c>
    6fb0:	86 10 00 01 	mov  %g1, %g3

00006fb4 <core_list_insert_new>:
    6fb4:	c2 02 80 00 	ld  [ %o2 ], %g1
    6fb8:	84 00 60 08 	add  %g1, 8, %g2
    6fbc:	80 a0 80 0c 	cmp  %g2, %o4
    6fc0:	3a 80 00 17 	bcc,a   701c <core_list_insert_new+0x68>
    6fc4:	82 10 20 00 	clr  %g1
    6fc8:	c6 02 c0 00 	ld  [ %o3 ], %g3
    6fcc:	86 00 e0 04 	add  %g3, 4, %g3
    6fd0:	80 a3 40 03 	cmp  %o5, %g3
    6fd4:	28 80 00 12 	bleu,a   701c <core_list_insert_new+0x68>
    6fd8:	82 10 20 00 	clr  %g1
    6fdc:	c4 22 80 00 	st  %g2, [ %o2 ]
    6fe0:	c4 02 00 00 	ld  [ %o0 ], %g2
    6fe4:	c4 20 40 00 	st  %g2, [ %g1 ]
    6fe8:	c2 22 00 00 	st  %g1, [ %o0 ]
    6fec:	c4 02 c0 00 	ld  [ %o3 ], %g2
    6ff0:	c4 20 60 04 	st  %g2, [ %g1 + 4 ]
    6ff4:	c4 02 c0 00 	ld  [ %o3 ], %g2
    6ff8:	84 00 a0 04 	add  %g2, 4, %g2
    6ffc:	c4 22 c0 00 	st  %g2, [ %o3 ]
    7000:	c8 12 40 00 	lduh  [ %o1 ], %g4
    7004:	c4 00 60 04 	ld  [ %g1 + 4 ], %g2
    7008:	c6 12 60 02 	lduh  [ %o1 + 2 ], %g3
    700c:	c8 30 80 00 	sth  %g4, [ %g2 ]
    7010:	c6 30 a0 02 	sth  %g3, [ %g2 + 2 ]
    7014:	81 c3 e0 08 	retl 
    7018:	90 10 00 01 	mov  %g1, %o0
    701c:	81 c3 e0 08 	retl 
    7020:	90 10 00 01 	mov  %g1, %o0

00007024 <core_list_remove>:
    7024:	c2 02 00 00 	ld  [ %o0 ], %g1
    7028:	c4 02 20 04 	ld  [ %o0 + 4 ], %g2
    702c:	c8 00 60 04 	ld  [ %g1 + 4 ], %g4
    7030:	c6 00 40 00 	ld  [ %g1 ], %g3
    7034:	c8 22 20 04 	st  %g4, [ %o0 + 4 ]
    7038:	c6 22 00 00 	st  %g3, [ %o0 ]
    703c:	c4 20 60 04 	st  %g2, [ %g1 + 4 ]
    7040:	c0 20 40 00 	clr  [ %g1 ]
    7044:	81 c3 e0 08 	retl 
    7048:	90 10 00 01 	mov  %g1, %o0

0000704c <core_list_undo_remove>:
    704c:	c4 02 20 04 	ld  [ %o0 + 4 ], %g2
    7050:	c8 02 60 04 	ld  [ %o1 + 4 ], %g4
    7054:	c6 02 40 00 	ld  [ %o1 ], %g3
    7058:	c8 22 20 04 	st  %g4, [ %o0 + 4 ]
    705c:	c6 22 00 00 	st  %g3, [ %o0 ]
    7060:	c4 22 60 04 	st  %g2, [ %o1 + 4 ]
    7064:	81 c3 e0 08 	retl 
    7068:	d0 22 40 00 	st  %o0, [ %o1 ]

0000706c <core_list_find>:
    706c:	c4 52 60 02 	ldsh  [ %o1 + 2 ], %g2
    7070:	80 a0 a0 00 	cmp  %g2, 0
    7074:	06 80 00 14 	bl  70c4 <core_list_find+0x58>
    7078:	80 a2 20 00 	cmp  %o0, 0
    707c:	02 80 00 23 	be  7108 <core_list_find+0x9c>
    7080:	01 00 00 00 	nop 
    7084:	c2 02 20 04 	ld  [ %o0 + 4 ], %g1
    7088:	c2 50 60 02 	ldsh  [ %g1 + 2 ], %g1
    708c:	80 a0 80 01 	cmp  %g2, %g1
    7090:	32 80 00 08 	bne,a   70b0 <core_list_find+0x44>
    7094:	d0 02 00 00 	ld  [ %o0 ], %o0
    7098:	30 80 00 1c 	b,a   7108 <core_list_find+0x9c>
    709c:	c2 50 60 02 	ldsh  [ %g1 + 2 ], %g1
    70a0:	80 a0 80 01 	cmp  %g2, %g1
    70a4:	02 80 00 19 	be  7108 <core_list_find+0x9c>
    70a8:	01 00 00 00 	nop 
    70ac:	d0 02 00 00 	ld  [ %o0 ], %o0
    70b0:	80 a2 20 00 	cmp  %o0, 0
    70b4:	32 bf ff fa 	bne,a   709c <core_list_find+0x30>
    70b8:	c2 02 20 04 	ld  [ %o0 + 4 ], %g1
    70bc:	81 c3 e0 08 	retl 
    70c0:	01 00 00 00 	nop 
    70c4:	02 80 00 11 	be  7108 <core_list_find+0x9c>
    70c8:	01 00 00 00 	nop 
    70cc:	c4 52 40 00 	ldsh  [ %o1 ], %g2
    70d0:	c2 02 20 04 	ld  [ %o0 + 4 ], %g1
    70d4:	c2 08 60 01 	ldub  [ %g1 + 1 ], %g1
    70d8:	80 a0 40 02 	cmp  %g1, %g2
    70dc:	32 80 00 08 	bne,a   70fc <core_list_find+0x90>
    70e0:	d0 02 00 00 	ld  [ %o0 ], %o0
    70e4:	30 80 00 09 	b,a   7108 <core_list_find+0x9c>
    70e8:	c2 08 60 01 	ldub  [ %g1 + 1 ], %g1
    70ec:	80 a0 40 02 	cmp  %g1, %g2
    70f0:	02 80 00 06 	be  7108 <core_list_find+0x9c>
    70f4:	01 00 00 00 	nop 
    70f8:	d0 02 00 00 	ld  [ %o0 ], %o0
    70fc:	80 a2 20 00 	cmp  %o0, 0
    7100:	32 bf ff fa 	bne,a   70e8 <core_list_find+0x7c>
    7104:	c2 02 20 04 	ld  [ %o0 + 4 ], %g1
    7108:	81 c3 e0 08 	retl 
    710c:	01 00 00 00 	nop 

00007110 <core_list_reverse>:
    7110:	80 a2 20 00 	cmp  %o0, 0
    7114:	02 80 00 0c 	be  7144 <core_list_reverse+0x34>
    7118:	84 10 20 00 	clr  %g2
    711c:	10 80 00 04 	b  712c <core_list_reverse+0x1c>
    7120:	c2 02 00 00 	ld  [ %o0 ], %g1
    7124:	90 10 00 01 	mov  %g1, %o0
    7128:	c2 02 00 00 	ld  [ %o0 ], %g1
    712c:	c4 22 00 00 	st  %g2, [ %o0 ]
    7130:	80 a0 60 00 	cmp  %g1, 0
    7134:	12 bf ff fc 	bne  7124 <core_list_reverse+0x14>
    7138:	84 10 00 08 	mov  %o0, %g2
    713c:	81 c3 e0 08 	retl 
    7140:	01 00 00 00 	nop 
    7144:	81 c3 e0 08 	retl 
    7148:	90 10 20 00 	clr  %o0	! 0 <_start>

0000714c <core_list_mergesort>:
    714c:	9d e3 bf a0 	save  %sp, -96, %sp
    7150:	80 a6 20 00 	cmp  %i0, 0
    7154:	02 80 00 2d 	be  7208 <core_list_mergesort+0xbc>
    7158:	b6 10 20 01 	mov  1, %i3
    715c:	a2 10 00 18 	mov  %i0, %l1
    7160:	a6 10 20 00 	clr  %l3
    7164:	a0 10 20 00 	clr  %l0
    7168:	b0 10 20 00 	clr  %i0
    716c:	a6 04 e0 01 	inc  %l3
    7170:	ba 10 00 11 	mov  %l1, %i5
    7174:	b8 10 20 00 	clr  %i4
    7178:	fa 07 40 00 	ld  [ %i5 ], %i5
    717c:	80 a7 60 00 	cmp  %i5, 0
    7180:	02 80 00 05 	be  7194 <core_list_mergesort+0x48>
    7184:	b8 07 20 01 	inc  %i4
    7188:	80 a6 c0 1c 	cmp  %i3, %i4
    718c:	34 bf ff fc 	bg,a   717c <core_list_mergesort+0x30>
    7190:	fa 07 40 00 	ld  [ %i5 ], %i5
    7194:	80 a7 20 00 	cmp  %i4, 0
    7198:	02 80 00 10 	be  71d8 <core_list_mergesort+0x8c>
    719c:	a4 10 00 1b 	mov  %i3, %l2
    71a0:	80 a7 60 00 	cmp  %i5, 0
    71a4:	12 80 00 1e 	bne  721c <core_list_mergesort+0xd0>
    71a8:	80 a4 a0 00 	cmp  %l2, 0
    71ac:	82 10 00 11 	mov  %l1, %g1
    71b0:	b8 07 3f ff 	add  %i4, -1, %i4
    71b4:	e2 04 40 00 	ld  [ %l1 ], %l1
    71b8:	80 a4 20 00 	cmp  %l0, 0
    71bc:	22 80 00 16 	be,a   7214 <core_list_mergesort+0xc8>
    71c0:	b0 10 00 01 	mov  %g1, %i0
    71c4:	c2 24 00 00 	st  %g1, [ %l0 ]
    71c8:	a0 10 00 01 	mov  %g1, %l0
    71cc:	80 a7 20 00 	cmp  %i4, 0
    71d0:	12 bf ff f5 	bne  71a4 <core_list_mergesort+0x58>
    71d4:	80 a7 60 00 	cmp  %i5, 0
    71d8:	80 a7 60 00 	cmp  %i5, 0
    71dc:	12 80 00 1c 	bne  724c <core_list_mergesort+0x100>
    71e0:	80 a4 a0 00 	cmp  %l2, 0
    71e4:	a2 97 60 00 	orcc  %i5, 0, %l1
    71e8:	32 bf ff e2 	bne,a   7170 <core_list_mergesort+0x24>
    71ec:	a6 04 e0 01 	inc  %l3
    71f0:	80 a4 e0 01 	cmp  %l3, 1
    71f4:	02 80 00 06 	be  720c <core_list_mergesort+0xc0>
    71f8:	c0 24 00 00 	clr  [ %l0 ]
    71fc:	80 a6 20 00 	cmp  %i0, 0
    7200:	12 bf ff d7 	bne  715c <core_list_mergesort+0x10>
    7204:	b6 06 c0 1b 	add  %i3, %i3, %i3
    7208:	c0 20 20 00 	clr  [ %g0 ]
    720c:	81 c7 e0 08 	ret 
    7210:	81 e8 00 00 	restore 
    7214:	10 bf ff ee 	b  71cc <core_list_mergesort+0x80>
    7218:	a0 10 00 01 	mov  %g1, %l0
    721c:	02 bf ff e5 	be  71b0 <core_list_mergesort+0x64>
    7220:	82 10 00 11 	mov  %l1, %g1
    7224:	d0 04 60 04 	ld  [ %l1 + 4 ], %o0
    7228:	d2 07 60 04 	ld  [ %i5 + 4 ], %o1
    722c:	9f c6 40 00 	call  %i1
    7230:	94 10 00 1a 	mov  %i2, %o2
    7234:	80 a2 20 00 	cmp  %o0, 0
    7238:	04 bf ff dd 	ble  71ac <core_list_mergesort+0x60>
    723c:	82 10 00 1d 	mov  %i5, %g1
    7240:	a4 04 bf ff 	add  %l2, -1, %l2
    7244:	10 bf ff dd 	b  71b8 <core_list_mergesort+0x6c>
    7248:	fa 07 40 00 	ld  [ %i5 ], %i5
    724c:	24 bf ff e7 	ble,a   71e8 <core_list_mergesort+0x9c>
    7250:	a2 97 60 00 	orcc  %i5, 0, %l1
    7254:	10 bf ff fb 	b  7240 <core_list_mergesort+0xf4>
    7258:	82 10 00 1d 	mov  %i5, %g1

0000725c <core_bench_list>:
    725c:	9d e3 bf a0 	save  %sp, -96, %sp
    7260:	da 56 20 04 	ldsh  [ %i0 + 4 ], %o5
    7264:	80 a3 60 00 	cmp  %o5, 0
    7268:	04 80 00 c6 	ble  7580 <core_bench_list+0x324>
    726c:	fa 06 20 24 	ld  [ %i0 + 0x24 ], %i5
    7270:	b4 10 00 19 	mov  %i1, %i2
    7274:	88 10 20 00 	clr  %g4
    7278:	98 10 20 00 	clr  %o4
    727c:	9e 10 20 00 	clr  %o7
    7280:	b8 10 20 00 	clr  %i4
    7284:	b7 2e a0 10 	sll  %i2, 0x10, %i3
    7288:	82 09 20 ff 	and  %g4, 0xff, %g1
    728c:	87 3e e0 10 	sra  %i3, 0x10, %g3
    7290:	80 a0 e0 00 	cmp  %g3, 0
    7294:	06 80 00 84 	bl  74a4 <core_bench_list+0x248>
    7298:	a0 10 00 01 	mov  %g1, %l0
    729c:	80 a7 60 00 	cmp  %i5, 0
    72a0:	22 80 00 96 	be,a   74f8 <core_bench_list+0x29c>
    72a4:	c2 07 40 00 	ld  [ %i5 ], %g1
    72a8:	c2 07 60 04 	ld  [ %i5 + 4 ], %g1
    72ac:	c4 50 60 02 	ldsh  [ %g1 + 2 ], %g2
    72b0:	80 a0 c0 02 	cmp  %g3, %g2
    72b4:	12 80 00 08 	bne  72d4 <core_bench_list+0x78>
    72b8:	82 10 00 1d 	mov  %i5, %g1
    72bc:	10 80 00 0e 	b  72f4 <core_bench_list+0x98>
    72c0:	86 10 20 00 	clr  %g3
    72c4:	c4 50 a0 02 	ldsh  [ %g2 + 2 ], %g2
    72c8:	80 a0 c0 02 	cmp  %g3, %g2
    72cc:	22 80 00 0a 	be,a   72f4 <core_bench_list+0x98>
    72d0:	86 10 20 00 	clr  %g3
    72d4:	c2 00 40 00 	ld  [ %g1 ], %g1
    72d8:	80 a0 60 00 	cmp  %g1, 0
    72dc:	32 bf ff fa 	bne,a   72c4 <core_bench_list+0x68>
    72e0:	c4 00 60 04 	ld  [ %g1 + 4 ], %g2
    72e4:	82 10 20 00 	clr  %g1
    72e8:	10 80 00 03 	b  72f4 <core_bench_list+0x98>
    72ec:	86 10 20 00 	clr  %g3
    72f0:	ba 10 00 02 	mov  %g2, %i5
    72f4:	c4 07 40 00 	ld  [ %i5 ], %g2
    72f8:	c6 27 40 00 	st  %g3, [ %i5 ]
    72fc:	80 a0 a0 00 	cmp  %g2, 0
    7300:	12 bf ff fc 	bne  72f0 <core_bench_list+0x94>
    7304:	86 10 00 1d 	mov  %i5, %g3
    7308:	80 a0 60 00 	cmp  %g1, 0
    730c:	22 80 00 7b 	be,a   74f8 <core_bench_list+0x29c>
    7310:	c2 07 40 00 	ld  [ %i5 ], %g1
    7314:	c4 00 60 04 	ld  [ %g1 + 4 ], %g2
    7318:	c4 10 80 00 	lduh  [ %g2 ], %g2
    731c:	80 88 a0 01 	btst  1, %g2
    7320:	02 80 00 05 	be  7334 <core_bench_list+0xd8>
    7324:	9e 03 e0 01 	inc  %o7
    7328:	85 30 a0 09 	srl  %g2, 9, %g2
    732c:	84 08 a0 01 	and  %g2, 1, %g2
    7330:	b8 00 80 1c 	add  %g2, %i4, %i4
    7334:	c4 00 40 00 	ld  [ %g1 ], %g2
    7338:	80 a0 a0 00 	cmp  %g2, 0
    733c:	02 80 00 08 	be  735c <core_bench_list+0x100>
    7340:	80 a6 e0 00 	cmp  %i3, 0
    7344:	c6 00 80 00 	ld  [ %g2 ], %g3
    7348:	c6 20 40 00 	st  %g3, [ %g1 ]
    734c:	c2 07 40 00 	ld  [ %i5 ], %g1
    7350:	c2 20 80 00 	st  %g1, [ %g2 ]
    7354:	c4 27 40 00 	st  %g2, [ %i5 ]
    7358:	80 a6 e0 00 	cmp  %i3, 0
    735c:	06 80 00 04 	bl  736c <core_bench_list+0x110>
    7360:	88 01 20 01 	inc  %g4
    7364:	b4 06 a0 01 	inc  %i2
    7368:	b7 2e a0 10 	sll  %i2, 0x10, %i3
    736c:	83 29 20 10 	sll  %g4, 0x10, %g1
    7370:	83 38 60 10 	sra  %g1, 0x10, %g1
    7374:	80 a0 40 0d 	cmp  %g1, %o5
    7378:	12 bf ff c5 	bne  728c <core_bench_list+0x30>
    737c:	82 09 20 ff 	and  %g4, 0xff, %g1
    7380:	9f 2b e0 02 	sll  %o7, 2, %o7
    7384:	98 23 c0 0c 	sub  %o7, %o4, %o4
    7388:	b8 03 00 1c 	add  %o4, %i4, %i4
    738c:	80 a6 60 00 	cmp  %i1, 0
    7390:	04 80 00 07 	ble  73ac <core_bench_list+0x150>
    7394:	90 10 00 1d 	mov  %i5, %o0
    7398:	94 10 00 18 	mov  %i0, %o2
    739c:	13 00 00 1b 	sethi  %hi(0x6c00), %o1
    73a0:	7f ff ff 6b 	call  714c <core_list_mergesort>
    73a4:	92 12 61 d0 	or  %o1, 0x1d0, %o1	! 6dd0 <cmp_complex>
    73a8:	ba 10 00 08 	mov  %o0, %i5
    73ac:	c2 07 40 00 	ld  [ %i5 ], %g1
    73b0:	f4 00 40 00 	ld  [ %g1 ], %i2
    73b4:	c6 00 60 04 	ld  [ %g1 + 4 ], %g3
    73b8:	c8 06 a0 04 	ld  [ %i2 + 4 ], %g4
    73bc:	c4 06 80 00 	ld  [ %i2 ], %g2
    73c0:	c8 20 60 04 	st  %g4, [ %g1 + 4 ]
    73c4:	c4 20 40 00 	st  %g2, [ %g1 ]
    73c8:	c6 26 a0 04 	st  %g3, [ %i2 + 4 ]
    73cc:	c0 26 80 00 	clr  [ %i2 ]
    73d0:	b7 3e e0 10 	sra  %i3, 0x10, %i3
    73d4:	80 a6 e0 00 	cmp  %i3, 0
    73d8:	06 80 00 59 	bl  753c <core_bench_list+0x2e0>
    73dc:	82 10 00 1d 	mov  %i5, %g1
    73e0:	c4 00 60 04 	ld  [ %g1 + 4 ], %g2
    73e4:	c4 50 a0 02 	ldsh  [ %g2 + 2 ], %g2
    73e8:	80 a6 c0 02 	cmp  %i3, %g2
    73ec:	22 80 00 49 	be,a   7510 <core_bench_list+0x2b4>
    73f0:	b6 10 00 01 	mov  %g1, %i3
    73f4:	c2 00 40 00 	ld  [ %g1 ], %g1
    73f8:	80 a0 60 00 	cmp  %g1, 0
    73fc:	32 bf ff fa 	bne,a   73e4 <core_bench_list+0x188>
    7400:	c4 00 60 04 	ld  [ %g1 + 4 ], %g2
    7404:	c2 07 40 00 	ld  [ %i5 ], %g1
    7408:	b6 90 60 00 	orcc  %g1, 0, %i3
    740c:	22 80 00 0e 	be,a   7444 <core_bench_list+0x1e8>
    7410:	c8 00 60 04 	ld  [ %g1 + 4 ], %g4
    7414:	c2 07 60 04 	ld  [ %i5 + 4 ], %g1
    7418:	93 2f 20 10 	sll  %i4, 0x10, %o1
    741c:	d0 50 40 00 	ldsh  [ %g1 ], %o0
    7420:	40 00 0d 3d 	call  a914 <crc16>
    7424:	93 32 60 10 	srl  %o1, 0x10, %o1
    7428:	f6 06 c0 00 	ld  [ %i3 ], %i3
    742c:	80 a6 e0 00 	cmp  %i3, 0
    7430:	12 80 00 38 	bne  7510 <core_bench_list+0x2b4>
    7434:	b8 10 00 08 	mov  %o0, %i4
    7438:	c6 06 a0 04 	ld  [ %i2 + 4 ], %g3
    743c:	c2 07 40 00 	ld  [ %i5 ], %g1
    7440:	c8 00 60 04 	ld  [ %g1 + 4 ], %g4
    7444:	c4 00 40 00 	ld  [ %g1 ], %g2
    7448:	c8 26 a0 04 	st  %g4, [ %i2 + 4 ]
    744c:	c4 26 80 00 	st  %g2, [ %i2 ]
    7450:	90 10 00 1d 	mov  %i5, %o0
    7454:	c6 20 60 04 	st  %g3, [ %g1 + 4 ]
    7458:	7f ff fd cb 	call  6b84 <core_list_mergesort.constprop.1>
    745c:	f4 20 40 00 	st  %i2, [ %g1 ]
    7460:	fa 02 00 00 	ld  [ %o0 ], %i5
    7464:	80 a7 60 00 	cmp  %i5, 0
    7468:	02 80 00 0b 	be  7494 <core_bench_list+0x238>
    746c:	b6 10 00 08 	mov  %o0, %i3
    7470:	c2 06 e0 04 	ld  [ %i3 + 4 ], %g1
    7474:	93 2f 20 10 	sll  %i4, 0x10, %o1
    7478:	d0 50 40 00 	ldsh  [ %g1 ], %o0
    747c:	40 00 0d 26 	call  a914 <crc16>
    7480:	93 32 60 10 	srl  %o1, 0x10, %o1
    7484:	fa 07 40 00 	ld  [ %i5 ], %i5
    7488:	80 a7 60 00 	cmp  %i5, 0
    748c:	12 bf ff f9 	bne  7470 <core_bench_list+0x214>
    7490:	b8 10 00 08 	mov  %o0, %i4
    7494:	b9 2f 20 10 	sll  %i4, 0x10, %i4
    7498:	b1 37 20 10 	srl  %i4, 0x10, %i0
    749c:	81 c7 e0 08 	ret 
    74a0:	81 e8 00 00 	restore 
    74a4:	80 a7 60 00 	cmp  %i5, 0
    74a8:	02 80 00 13 	be  74f4 <core_bench_list+0x298>
    74ac:	86 10 00 01 	mov  %g1, %g3
    74b0:	c2 07 60 04 	ld  [ %i5 + 4 ], %g1
    74b4:	c2 08 60 01 	ldub  [ %g1 + 1 ], %g1
    74b8:	80 a0 40 03 	cmp  %g1, %g3
    74bc:	12 80 00 08 	bne  74dc <core_bench_list+0x280>
    74c0:	82 10 00 1d 	mov  %i5, %g1
    74c4:	10 bf ff 8c 	b  72f4 <core_bench_list+0x98>
    74c8:	86 10 20 00 	clr  %g3
    74cc:	c4 08 a0 01 	ldub  [ %g2 + 1 ], %g2
    74d0:	80 a0 80 03 	cmp  %g2, %g3
    74d4:	22 bf ff 88 	be,a   72f4 <core_bench_list+0x98>
    74d8:	86 10 20 00 	clr  %g3
    74dc:	c2 00 40 00 	ld  [ %g1 ], %g1
    74e0:	80 a0 60 00 	cmp  %g1, 0
    74e4:	32 bf ff fa 	bne,a   74cc <core_bench_list+0x270>
    74e8:	c4 00 60 04 	ld  [ %g1 + 4 ], %g2
    74ec:	10 bf ff 82 	b  72f4 <core_bench_list+0x98>
    74f0:	86 10 20 00 	clr  %g3
    74f4:	c2 07 40 00 	ld  [ %i5 ], %g1
    74f8:	98 03 20 01 	inc  %o4
    74fc:	c2 00 60 04 	ld  [ %g1 + 4 ], %g1
    7500:	c2 48 40 00 	ldsb  [ %g1 ], %g1
    7504:	82 08 60 01 	and  %g1, 1, %g1
    7508:	10 bf ff 94 	b  7358 <core_bench_list+0xfc>
    750c:	b8 00 40 1c 	add  %g1, %i4, %i4
    7510:	c2 07 60 04 	ld  [ %i5 + 4 ], %g1
    7514:	93 2f 20 10 	sll  %i4, 0x10, %o1
    7518:	d0 50 40 00 	ldsh  [ %g1 ], %o0
    751c:	40 00 0c fe 	call  a914 <crc16>
    7520:	93 32 60 10 	srl  %o1, 0x10, %o1
    7524:	f6 06 c0 00 	ld  [ %i3 ], %i3
    7528:	80 a6 e0 00 	cmp  %i3, 0
    752c:	12 bf ff f9 	bne  7510 <core_bench_list+0x2b4>
    7530:	b8 10 00 08 	mov  %o0, %i4
    7534:	10 bf ff c2 	b  743c <core_bench_list+0x1e0>
    7538:	c6 06 a0 04 	ld  [ %i2 + 4 ], %g3
    753c:	a0 0c 20 ff 	and  %l0, 0xff, %l0
    7540:	b6 10 00 1d 	mov  %i5, %i3
    7544:	c2 06 e0 04 	ld  [ %i3 + 4 ], %g1
    7548:	c2 08 60 01 	ldub  [ %g1 + 1 ], %g1
    754c:	80 a0 40 10 	cmp  %g1, %l0
    7550:	22 bf ff f1 	be,a   7514 <core_bench_list+0x2b8>
    7554:	c2 07 60 04 	ld  [ %i5 + 4 ], %g1
    7558:	f6 06 c0 00 	ld  [ %i3 ], %i3
    755c:	80 a6 e0 00 	cmp  %i3, 0
    7560:	32 bf ff fa 	bne,a   7548 <core_bench_list+0x2ec>
    7564:	c2 06 e0 04 	ld  [ %i3 + 4 ], %g1
    7568:	c2 07 40 00 	ld  [ %i5 ], %g1
    756c:	b6 90 60 00 	orcc  %g1, 0, %i3
    7570:	32 bf ff aa 	bne,a   7418 <core_bench_list+0x1bc>
    7574:	c2 07 60 04 	ld  [ %i5 + 4 ], %g1
    7578:	10 bf ff b3 	b  7444 <core_bench_list+0x1e8>
    757c:	c8 00 60 04 	ld  [ %g1 + 4 ], %g4
    7580:	b8 10 20 00 	clr  %i4
    7584:	a0 10 20 00 	clr  %l0
    7588:	10 bf ff 81 	b  738c <core_bench_list+0x130>
    758c:	b7 2e 60 10 	sll  %i1, 0x10, %i3
    7590:	00 00 7b 98 	unimp  0x7b98
    7594:	00 00 7b d0 	unimp  0x7bd0
    7598:	00 00 7b dc 	unimp  0x7bdc
    759c:	00 00 7b e8 	unimp  0x7be8
    75a0:	00 00 7b f4 	unimp  0x7bf4
    75a4:	00 00 7c 00 	unimp  0x7c00
    75a8:	00 00 7c 0c 	unimp  0x7c0c
    75ac:	00 00 7c 18 	unimp  0x7c18
    75b0:	00 00 7c 24 	unimp  0x7c24
    75b4:	00 00 7c 30 	unimp  0x7c30
    75b8:	00 00 7c 3c 	unimp  0x7c3c
    75bc:	00 00 7c 48 	unimp  0x7c48
    75c0:	00 00 7c 54 	unimp  0x7c54
    75c4:	00 00 7c 60 	unimp  0x7c60
    75c8:	00 00 7b b8 	unimp  0x7bb8
    75cc:	00 00 7b c4 	unimp  0x7bc4
    75d0:	00 00 7c 7c 	unimp  0x7c7c
    75d4:	00 00 7c b4 	unimp  0x7cb4
    75d8:	00 00 7c c0 	unimp  0x7cc0
    75dc:	00 00 7c cc 	unimp  0x7ccc
    75e0:	00 00 7c d8 	unimp  0x7cd8
    75e4:	00 00 7c e4 	unimp  0x7ce4
    75e8:	00 00 7c f0 	unimp  0x7cf0
    75ec:	00 00 7c fc 	unimp  0x7cfc
    75f0:	00 00 7d 08 	unimp  0x7d08
    75f4:	00 00 7d 14 	unimp  0x7d14
    75f8:	00 00 7d 20 	unimp  0x7d20
    75fc:	00 00 7d 2c 	unimp  0x7d2c
    7600:	00 00 7d 38 	unimp  0x7d38
    7604:	00 00 7d 44 	unimp  0x7d44
    7608:	00 00 7c 9c 	unimp  0x7c9c
    760c:	00 00 7c a8 	unimp  0x7ca8

00007610 <__ajit_clear_all_gp_registers__>:
    7610:	82 10 00 00 	mov  %g0, %g1
    7614:	84 10 00 00 	mov  %g0, %g2
    7618:	86 10 00 00 	mov  %g0, %g3
    761c:	88 10 00 00 	mov  %g0, %g4
    7620:	8a 10 00 00 	mov  %g0, %g5
    7624:	8c 10 00 00 	mov  %g0, %g6
    7628:	8e 10 00 00 	mov  %g0, %g7
    762c:	b0 10 00 00 	mov  %g0, %i0
    7630:	b2 10 00 00 	mov  %g0, %i1
    7634:	b4 10 00 00 	mov  %g0, %i2
    7638:	b6 10 00 00 	mov  %g0, %i3
    763c:	b8 10 00 00 	mov  %g0, %i4
    7640:	ba 10 00 00 	mov  %g0, %i5
    7644:	bc 10 00 00 	mov  %g0, %fp
    7648:	be 10 00 00 	mov  %g0, %i7
    764c:	a0 10 00 00 	mov  %g0, %l0
    7650:	a2 10 00 00 	mov  %g0, %l1
    7654:	a4 10 00 00 	mov  %g0, %l2
    7658:	a6 10 00 00 	mov  %g0, %l3
    765c:	a8 10 00 00 	mov  %g0, %l4
    7660:	aa 10 00 00 	mov  %g0, %l5
    7664:	ac 10 00 00 	mov  %g0, %l6
    7668:	ae 10 00 00 	mov  %g0, %l7
    766c:	90 10 00 00 	mov  %g0, %o0
    7670:	92 10 00 00 	mov  %g0, %o1
    7674:	94 10 00 00 	mov  %g0, %o2
    7678:	96 10 00 00 	mov  %g0, %o3
    767c:	98 10 00 00 	mov  %g0, %o4
    7680:	9a 10 00 00 	mov  %g0, %o5
    7684:	9c 10 00 00 	mov  %g0, %sp
    7688:	9e 10 00 00 	mov  %g0, %o7
    768c:	81 e0 00 00 	save 
    7690:	a0 10 00 00 	mov  %g0, %l0
    7694:	a2 10 00 00 	mov  %g0, %l1
    7698:	a4 10 00 00 	mov  %g0, %l2
    769c:	a6 10 00 00 	mov  %g0, %l3
    76a0:	a8 10 00 00 	mov  %g0, %l4
    76a4:	aa 10 00 00 	mov  %g0, %l5
    76a8:	ac 10 00 00 	mov  %g0, %l6
    76ac:	ae 10 00 00 	mov  %g0, %l7
    76b0:	90 10 00 00 	mov  %g0, %o0
    76b4:	92 10 00 00 	mov  %g0, %o1
    76b8:	94 10 00 00 	mov  %g0, %o2
    76bc:	96 10 00 00 	mov  %g0, %o3
    76c0:	98 10 00 00 	mov  %g0, %o4
    76c4:	9a 10 00 00 	mov  %g0, %o5
    76c8:	9c 10 00 00 	mov  %g0, %sp
    76cc:	9e 10 00 00 	mov  %g0, %o7
    76d0:	81 e0 00 00 	save 
    76d4:	a0 10 00 00 	mov  %g0, %l0
    76d8:	a2 10 00 00 	mov  %g0, %l1
    76dc:	a4 10 00 00 	mov  %g0, %l2
    76e0:	a6 10 00 00 	mov  %g0, %l3
    76e4:	a8 10 00 00 	mov  %g0, %l4
    76e8:	aa 10 00 00 	mov  %g0, %l5
    76ec:	ac 10 00 00 	mov  %g0, %l6
    76f0:	ae 10 00 00 	mov  %g0, %l7
    76f4:	90 10 00 00 	mov  %g0, %o0
    76f8:	92 10 00 00 	mov  %g0, %o1
    76fc:	94 10 00 00 	mov  %g0, %o2
    7700:	96 10 00 00 	mov  %g0, %o3
    7704:	98 10 00 00 	mov  %g0, %o4
    7708:	9a 10 00 00 	mov  %g0, %o5
    770c:	9c 10 00 00 	mov  %g0, %sp
    7710:	9e 10 00 00 	mov  %g0, %o7
    7714:	81 e0 00 00 	save 
    7718:	a0 10 00 00 	mov  %g0, %l0
    771c:	a2 10 00 00 	mov  %g0, %l1
    7720:	a4 10 00 00 	mov  %g0, %l2
    7724:	a6 10 00 00 	mov  %g0, %l3
    7728:	a8 10 00 00 	mov  %g0, %l4
    772c:	aa 10 00 00 	mov  %g0, %l5
    7730:	ac 10 00 00 	mov  %g0, %l6
    7734:	ae 10 00 00 	mov  %g0, %l7
    7738:	90 10 00 00 	mov  %g0, %o0
    773c:	92 10 00 00 	mov  %g0, %o1
    7740:	94 10 00 00 	mov  %g0, %o2
    7744:	96 10 00 00 	mov  %g0, %o3
    7748:	98 10 00 00 	mov  %g0, %o4
    774c:	9a 10 00 00 	mov  %g0, %o5
    7750:	9c 10 00 00 	mov  %g0, %sp
    7754:	9e 10 00 00 	mov  %g0, %o7
    7758:	81 e0 00 00 	save 
    775c:	a0 10 00 00 	mov  %g0, %l0
    7760:	a2 10 00 00 	mov  %g0, %l1
    7764:	a4 10 00 00 	mov  %g0, %l2
    7768:	a6 10 00 00 	mov  %g0, %l3
    776c:	a8 10 00 00 	mov  %g0, %l4
    7770:	aa 10 00 00 	mov  %g0, %l5
    7774:	ac 10 00 00 	mov  %g0, %l6
    7778:	ae 10 00 00 	mov  %g0, %l7
    777c:	90 10 00 00 	mov  %g0, %o0
    7780:	92 10 00 00 	mov  %g0, %o1
    7784:	94 10 00 00 	mov  %g0, %o2
    7788:	96 10 00 00 	mov  %g0, %o3
    778c:	98 10 00 00 	mov  %g0, %o4
    7790:	9a 10 00 00 	mov  %g0, %o5
    7794:	9c 10 00 00 	mov  %g0, %sp
    7798:	9e 10 00 00 	mov  %g0, %o7
    779c:	81 e0 00 00 	save 
    77a0:	a0 10 00 00 	mov  %g0, %l0
    77a4:	a2 10 00 00 	mov  %g0, %l1
    77a8:	a4 10 00 00 	mov  %g0, %l2
    77ac:	a6 10 00 00 	mov  %g0, %l3
    77b0:	a8 10 00 00 	mov  %g0, %l4
    77b4:	aa 10 00 00 	mov  %g0, %l5
    77b8:	ac 10 00 00 	mov  %g0, %l6
    77bc:	ae 10 00 00 	mov  %g0, %l7
    77c0:	90 10 00 00 	mov  %g0, %o0
    77c4:	92 10 00 00 	mov  %g0, %o1
    77c8:	94 10 00 00 	mov  %g0, %o2
    77cc:	96 10 00 00 	mov  %g0, %o3
    77d0:	98 10 00 00 	mov  %g0, %o4
    77d4:	9a 10 00 00 	mov  %g0, %o5
    77d8:	9c 10 00 00 	mov  %g0, %sp
    77dc:	9e 10 00 00 	mov  %g0, %o7
    77e0:	81 e0 00 00 	save 
    77e4:	a0 10 00 00 	mov  %g0, %l0
    77e8:	a2 10 00 00 	mov  %g0, %l1
    77ec:	a4 10 00 00 	mov  %g0, %l2
    77f0:	a6 10 00 00 	mov  %g0, %l3
    77f4:	a8 10 00 00 	mov  %g0, %l4
    77f8:	aa 10 00 00 	mov  %g0, %l5
    77fc:	ac 10 00 00 	mov  %g0, %l6
    7800:	ae 10 00 00 	mov  %g0, %l7
    7804:	90 10 00 00 	mov  %g0, %o0
    7808:	92 10 00 00 	mov  %g0, %o1
    780c:	94 10 00 00 	mov  %g0, %o2
    7810:	96 10 00 00 	mov  %g0, %o3
    7814:	98 10 00 00 	mov  %g0, %o4
    7818:	9a 10 00 00 	mov  %g0, %o5
    781c:	9c 10 00 00 	mov  %g0, %sp
    7820:	9e 10 00 00 	mov  %g0, %o7
    7824:	81 e0 00 00 	save 
    7828:	a0 10 00 00 	mov  %g0, %l0
    782c:	a2 10 00 00 	mov  %g0, %l1
    7830:	a4 10 00 00 	mov  %g0, %l2
    7834:	a6 10 00 00 	mov  %g0, %l3
    7838:	a8 10 00 00 	mov  %g0, %l4
    783c:	aa 10 00 00 	mov  %g0, %l5
    7840:	ac 10 00 00 	mov  %g0, %l6
    7844:	ae 10 00 00 	mov  %g0, %l7
    7848:	90 10 00 00 	mov  %g0, %o0
    784c:	92 10 00 00 	mov  %g0, %o1
    7850:	94 10 00 00 	mov  %g0, %o2
    7854:	96 10 00 00 	mov  %g0, %o3
    7858:	98 10 00 00 	mov  %g0, %o4
    785c:	9a 10 00 00 	mov  %g0, %o5
    7860:	9c 10 00 00 	mov  %g0, %sp
    7864:	9e 10 00 00 	mov  %g0, %o7
    7868:	81 e8 00 00 	restore 
    786c:	81 e8 00 00 	restore 
    7870:	81 e8 00 00 	restore 
    7874:	81 e8 00 00 	restore 
    7878:	81 e8 00 00 	restore 
    787c:	81 e8 00 00 	restore 
    7880:	81 e8 00 00 	restore 
    7884:	81 c3 e0 08 	retl 
    7888:	01 00 00 00 	nop 

0000788c <ajit_read_from_scratch_pad>:
    788c:	80 a2 20 1f 	cmp  %o0, 0x1f
    7890:	18 80 00 05 	bgu  78a4 <ajit_read_from_scratch_pad+0x18>
    7894:	82 10 20 00 	clr  %g1
    7898:	91 2a 20 02 	sll  %o0, 2, %o0
    789c:	03 3f ff cb 	sethi  %hi(0xffff2c00), %g1
    78a0:	c2 02 00 01 	ld  [ %o0 + %g1 ], %g1
    78a4:	81 c3 e0 08 	retl 
    78a8:	90 10 00 01 	mov  %g1, %o0

000078ac <ajit_write_to_scratch_pad>:
    78ac:	80 a2 20 1f 	cmp  %o0, 0x1f
    78b0:	18 80 00 04 	bgu  78c0 <ajit_write_to_scratch_pad+0x14>
    78b4:	91 2a 20 02 	sll  %o0, 2, %o0
    78b8:	03 3f ff cb 	sethi  %hi(0xffff2c00), %g1
    78bc:	d2 22 00 01 	st  %o1, [ %o0 + %g1 ]
    78c0:	81 c3 e0 08 	retl 
    78c4:	01 00 00 00 	nop 

000078c8 <ajit_configure_i2c_master>:
    78c8:	81 80 20 00 	mov  %g0, %y
    78cc:	01 00 00 00 	nop 
    78d0:	01 00 00 00 	nop 
    78d4:	01 00 00 00 	nop 
    78d8:	92 72 00 09 	udiv  %o0, %o1, %o1
    78dc:	03 3f ff cd 	sethi  %hi(0xffff3400), %g1
    78e0:	93 32 60 02 	srl  %o1, 2, %o1
    78e4:	82 10 62 00 	or  %g1, 0x200, %g1
    78e8:	90 10 20 00 	clr  %o0
    78ec:	81 c3 e0 08 	retl 
    78f0:	d2 20 40 00 	st  %o1, [ %g1 ]

000078f4 <ajit_i2c_master_is_ready>:
    78f4:	03 3f ff cd 	sethi  %hi(0xffff3400), %g1
    78f8:	82 10 62 08 	or  %g1, 0x208, %g1	! ffff3608 <CVTBUF+0xfffd2f70>
    78fc:	d0 00 40 00 	ld  [ %g1 ], %o0
    7900:	91 32 20 0a 	srl  %o0, 0xa, %o0
    7904:	81 c3 e0 08 	retl 
    7908:	90 0a 20 01 	and  %o0, 1, %o0

0000790c <ajit_i2c_master_write_command>:
    790c:	03 3f ff cd 	sethi  %hi(0xffff3400), %g1
    7910:	82 10 62 04 	or  %g1, 0x204, %g1	! ffff3604 <CVTBUF+0xfffd2f6c>
    7914:	81 c3 e0 08 	retl 
    7918:	d0 20 40 00 	st  %o0, [ %g1 ]

0000791c <ajit_i2c_master_read_status>:
    791c:	03 3f ff cd 	sethi  %hi(0xffff3400), %g1
    7920:	82 10 62 08 	or  %g1, 0x208, %g1	! ffff3608 <CVTBUF+0xfffd2f70>
    7924:	81 c3 e0 08 	retl 
    7928:	d0 00 40 00 	ld  [ %g1 ], %o0

0000792c <ajit_i2c_master_access_slave_memory_device>:
    792c:	03 3f ff cd 	sethi  %hi(0xffff3400), %g1
    7930:	84 10 62 08 	or  %g1, 0x208, %g2	! ffff3608 <CVTBUF+0xfffd2f70>
    7934:	c4 00 80 00 	ld  [ %g2 ], %g2
    7938:	80 88 a4 00 	btst  0x400, %g2
    793c:	32 80 00 03 	bne,a   7948 <ajit_i2c_master_access_slave_memory_device+0x1c>
    7940:	82 10 62 04 	or  %g1, 0x204, %g1
    7944:	30 80 00 00 	b,a   7944 <ajit_i2c_master_access_slave_memory_device+0x18>
    7948:	91 2a 20 10 	sll  %o0, 0x10, %o0
    794c:	87 2a 60 1f 	sll  %o1, 0x1f, %g3
    7950:	09 18 00 00 	sethi  %hi(0x60000000), %g4
    7954:	95 2a a0 08 	sll  %o2, 8, %o2
    7958:	90 12 00 04 	or  %o0, %g4, %o0
    795c:	90 12 00 03 	or  %o0, %g3, %o0
    7960:	94 12 00 0a 	or  %o0, %o2, %o2
    7964:	96 12 80 0b 	or  %o2, %o3, %o3
    7968:	d6 20 40 00 	st  %o3, [ %g1 ]
    796c:	80 a2 60 00 	cmp  %o1, 0
    7970:	02 80 00 03 	be  797c <ajit_i2c_master_access_slave_memory_device+0x50>
    7974:	90 10 20 00 	clr  %o0
    7978:	90 10 00 02 	mov  %g2, %o0
    797c:	81 c3 e0 08 	retl 
    7980:	90 0a 20 ff 	and  %o0, 0xff, %o0

00007984 <__ajit_read_core_thread_id_word__>:
    7984:	91 47 40 00 	rd  %asr29, %o0
    7988:	81 c3 e0 08 	retl 
    798c:	01 00 00 00 	nop 

00007990 <ajit_read_thread_descriptor>:
    7990:	9d e3 bf a0 	save  %sp, -96, %sp
    7994:	83 47 00 00 	rd  %asr28, %g1
    7998:	87 30 60 1e 	srl  %g1, 0x1e, %g3
    799c:	80 a0 e0 03 	cmp  %g3, 3
    79a0:	02 80 00 0a 	be  79c8 <ajit_read_thread_descriptor+0x38>
    79a4:	84 10 20 20 	mov  0x20, %g2
    79a8:	80 a0 e0 02 	cmp  %g3, 2
    79ac:	02 80 00 07 	be  79c8 <ajit_read_thread_descriptor+0x38>
    79b0:	84 10 20 10 	mov  0x10, %g2
    79b4:	86 18 e0 01 	xor  %g3, 1, %g3
    79b8:	80 a0 00 03 	cmp  %g0, %g3
    79bc:	84 60 20 00 	subx  %g0, 0, %g2
    79c0:	84 08 a0 fc 	and  %g2, 0xfc, %g2
    79c4:	84 00 a0 08 	add  %g2, 8, %g2
    79c8:	87 30 60 1c 	srl  %g1, 0x1c, %g3
    79cc:	86 08 e0 03 	and  %g3, 3, %g3
    79d0:	80 a0 e0 03 	cmp  %g3, 3
    79d4:	02 80 00 2d 	be  7a88 <ajit_read_thread_descriptor+0xf8>
    79d8:	c4 2e 00 00 	stb  %g2, [ %i0 ]
    79dc:	80 a0 e0 02 	cmp  %g3, 2
    79e0:	02 80 00 07 	be  79fc <ajit_read_thread_descriptor+0x6c>
    79e4:	84 10 20 10 	mov  0x10, %g2
    79e8:	86 18 e0 01 	xor  %g3, 1, %g3
    79ec:	80 a0 00 03 	cmp  %g0, %g3
    79f0:	84 60 20 00 	subx  %g0, 0, %g2
    79f4:	84 08 a0 fc 	and  %g2, 0xfc, %g2
    79f8:	84 00 a0 08 	add  %g2, 8, %g2
    79fc:	99 30 60 1a 	srl  %g1, 0x1a, %o4
    7a00:	9b 30 60 18 	srl  %g1, 0x18, %o5
    7a04:	9f 30 60 14 	srl  %g1, 0x14, %o7
    7a08:	b3 30 60 10 	srl  %g1, 0x10, %i1
    7a0c:	b5 30 60 0c 	srl  %g1, 0xc, %i2
    7a10:	b7 30 60 09 	srl  %g1, 9, %i3
    7a14:	b9 30 60 07 	srl  %g1, 7, %i4
    7a18:	bb 30 60 05 	srl  %g1, 5, %i5
    7a1c:	89 30 60 02 	srl  %g1, 2, %g4
    7a20:	87 30 60 01 	srl  %g1, 1, %g3
    7a24:	98 0b 20 03 	and  %o4, 3, %o4
    7a28:	9a 0b 60 03 	and  %o5, 3, %o5
    7a2c:	9e 0b e0 0f 	and  %o7, 0xf, %o7
    7a30:	b2 0e 60 0f 	and  %i1, 0xf, %i1
    7a34:	b4 0e a0 0f 	and  %i2, 0xf, %i2
    7a38:	b6 0e e0 07 	and  %i3, 7, %i3
    7a3c:	b8 0f 20 03 	and  %i4, 3, %i4
    7a40:	ba 0f 60 03 	and  %i5, 3, %i5
    7a44:	88 09 20 01 	and  %g4, 1, %g4
    7a48:	86 08 e0 01 	and  %g3, 1, %g3
    7a4c:	82 08 60 01 	and  %g1, 1, %g1
    7a50:	c4 2e 20 01 	stb  %g2, [ %i0 + 1 ]
    7a54:	d8 2e 20 02 	stb  %o4, [ %i0 + 2 ]
    7a58:	da 2e 20 03 	stb  %o5, [ %i0 + 3 ]
    7a5c:	de 2e 20 04 	stb  %o7, [ %i0 + 4 ]
    7a60:	f2 2e 20 05 	stb  %i1, [ %i0 + 5 ]
    7a64:	f4 2e 20 06 	stb  %i2, [ %i0 + 6 ]
    7a68:	f6 2e 20 07 	stb  %i3, [ %i0 + 7 ]
    7a6c:	f8 2e 20 08 	stb  %i4, [ %i0 + 8 ]
    7a70:	fa 2e 20 09 	stb  %i5, [ %i0 + 9 ]
    7a74:	c8 2e 20 0a 	stb  %g4, [ %i0 + 0xa ]
    7a78:	c6 2e 20 0b 	stb  %g3, [ %i0 + 0xb ]
    7a7c:	c2 2e 20 0c 	stb  %g1, [ %i0 + 0xc ]
    7a80:	81 c7 e0 08 	ret 
    7a84:	81 e8 00 00 	restore 
    7a88:	10 bf ff dd 	b  79fc <ajit_read_thread_descriptor+0x6c>
    7a8c:	84 10 20 20 	mov  0x20, %g2

00007a90 <ajit_get_core_and_thread_id>:
    7a90:	83 47 40 00 	rd  %asr29, %g1
    7a94:	85 30 60 08 	srl  %g1, 8, %g2
    7a98:	c4 2a 00 00 	stb  %g2, [ %o0 ]
    7a9c:	81 c3 e0 08 	retl 
    7aa0:	c2 2a 40 00 	stb  %g1, [ %o1 ]

00007aa4 <__ajit_read_cycle_count_register_high__>:
    7aa4:	91 47 80 00 	rd  %asr30, %o0
    7aa8:	81 c3 e0 08 	retl 
    7aac:	01 00 00 00 	nop 

00007ab0 <__ajit_read_cycle_count_register_low__>:
    7ab0:	91 47 c0 00 	rd  %asr31, %o0
    7ab4:	81 c3 e0 08 	retl 
    7ab8:	01 00 00 00 	nop 

00007abc <__ajit_get_clock_time>:
    7abc:	99 47 c0 00 	rd  %asr31, %o4
    7ac0:	83 47 80 00 	rd  %asr30, %g1
    7ac4:	86 10 20 00 	clr  %g3
    7ac8:	9a 10 00 0c 	mov  %o4, %o5
    7acc:	98 10 20 00 	clr  %o4
    7ad0:	86 10 c0 0d 	or  %g3, %o5, %g3
    7ad4:	84 10 40 0c 	or  %g1, %o4, %g2
    7ad8:	92 10 00 03 	mov  %g3, %o1
    7adc:	81 c3 e0 08 	retl 
    7ae0:	90 10 00 02 	mov  %g2, %o0

00007ae4 <__ajit_sleep__>:
    7ae4:	95 47 c0 00 	rd  %asr31, %o2
    7ae8:	83 47 80 00 	rd  %asr30, %g1
    7aec:	9a 10 20 00 	clr  %o5
    7af0:	96 10 00 0a 	mov  %o2, %o3
    7af4:	9a 13 40 0b 	or  %o5, %o3, %o5
    7af8:	92 83 40 08 	addcc  %o5, %o0, %o1
    7afc:	94 10 20 00 	clr  %o2
    7b00:	98 10 40 0a 	or  %g1, %o2, %o4
    7b04:	90 43 20 00 	addx  %o4, 0, %o0
    7b08:	80 a2 00 0c 	cmp  %o0, %o4
    7b0c:	08 80 00 0c 	bleu  7b3c <__ajit_sleep__+0x58>
    7b10:	01 00 00 00 	nop 
    7b14:	99 47 c0 00 	rd  %asr31, %o4
    7b18:	83 47 80 00 	rd  %asr30, %g1
    7b1c:	86 10 20 00 	clr  %g3
    7b20:	9a 10 00 0c 	mov  %o4, %o5
    7b24:	98 10 20 00 	clr  %o4
    7b28:	98 10 40 0c 	or  %g1, %o4, %o4
    7b2c:	80 a2 00 0c 	cmp  %o0, %o4
    7b30:	18 bf ff f9 	bgu  7b14 <__ajit_sleep__+0x30>
    7b34:	9a 10 c0 0d 	or  %g3, %o5, %o5
    7b38:	80 a2 00 0c 	cmp  %o0, %o4
    7b3c:	12 80 00 04 	bne  7b4c <__ajit_sleep__+0x68>
    7b40:	80 a2 40 0d 	cmp  %o1, %o5
    7b44:	18 bf ff f4 	bgu  7b14 <__ajit_sleep__+0x30>
    7b48:	01 00 00 00 	nop 
    7b4c:	81 c3 e0 08 	retl 
    7b50:	01 00 00 00 	nop 

00007b54 <__ajit_set_mmu_default_cacheable_bit__>:
    7b54:	80 a0 00 08 	cmp  %g0, %o0
    7b58:	84 10 20 00 	clr  %g2
    7b5c:	82 40 20 00 	addx  %g0, 0, %g1
    7b60:	83 28 60 08 	sll  %g1, 8, %g1
    7b64:	c2 a0 80 80 	sta  %g1, [ %g2 ] #ASI_N
    7b68:	81 c3 e0 08 	retl 
    7b6c:	01 00 00 00 	nop 

00007b70 <__ajit_store_word_mmu_reg__>:
    7b70:	d0 a2 40 80 	sta  %o0, [ %o1 ] #ASI_N
    7b74:	81 c3 e0 08 	retl 
    7b78:	01 00 00 00 	nop 

00007b7c <__ajit_store_word_mmu_bypass__>:
    7b7c:	d0 a2 44 00 	sta  %o0, [ %o1 ] #ASI_SCRATCHPAD
    7b80:	81 c3 e0 08 	retl 
    7b84:	01 00 00 00 	nop 

00007b88 <__ajit_store_word_to_physical_address__>:
    7b88:	86 0a 60 0f 	and  %o1, 0xf, %g3
    7b8c:	80 a0 e0 0f 	cmp  %g3, 0xf
    7b90:	08 80 00 05 	bleu  7ba4 <__ajit_store_word_to_physical_address__+0x1c>
    7b94:	83 28 e0 02 	sll  %g3, 2, %g1
    7b98:	d0 a2 84 00 	sta  %o0, [ %o2 ] #ASI_SCRATCHPAD
    7b9c:	81 c3 e0 08 	retl 
    7ba0:	01 00 00 00 	nop 
    7ba4:	05 00 00 1d 	sethi  %hi(0x7400), %g2
    7ba8:	84 10 a1 90 	or  %g2, 0x190, %g2	! 7590 <core_bench_list+0x334>
    7bac:	c2 00 80 01 	ld  [ %g2 + %g1 ], %g1
    7bb0:	81 c0 40 00 	jmp  %g1
    7bb4:	01 00 00 00 	nop 
    7bb8:	d0 a2 85 c0 	sta  %o0, [ %o2 ] (46)
    7bbc:	81 c3 e0 08 	retl 
    7bc0:	01 00 00 00 	nop 
    7bc4:	d0 a2 85 e0 	sta  %o0, [ %o2 ] (47)
    7bc8:	81 c3 e0 08 	retl 
    7bcc:	01 00 00 00 	nop 
    7bd0:	d0 a2 84 20 	sta  %o0, [ %o2 ] #ASI_MMU
    7bd4:	81 c3 e0 08 	retl 
    7bd8:	01 00 00 00 	nop 
    7bdc:	d0 a2 84 40 	sta  %o0, [ %o2 ] (34)
    7be0:	81 c3 e0 08 	retl 
    7be4:	01 00 00 00 	nop 
    7be8:	d0 a2 84 60 	sta  %o0, [ %o2 ] #ASI_BLK_INIT_QUAD_LDD_AIUS
    7bec:	81 c3 e0 08 	retl 
    7bf0:	01 00 00 00 	nop 
    7bf4:	d0 a2 84 80 	sta  %o0, [ %o2 ] #ASI_NUCLEUS_QUAD_LDD
    7bf8:	81 c3 e0 08 	retl 
    7bfc:	01 00 00 00 	nop 
    7c00:	d0 a2 84 a0 	sta  %o0, [ %o2 ] #ASI_QUEUE
    7c04:	81 c3 e0 08 	retl 
    7c08:	01 00 00 00 	nop 
    7c0c:	d0 a2 84 c0 	sta  %o0, [ %o2 ] #ASI_QUAD_LDD_PHYS_4V
    7c10:	81 c3 e0 08 	retl 
    7c14:	01 00 00 00 	nop 
    7c18:	d0 a2 84 e0 	sta  %o0, [ %o2 ] (39)
    7c1c:	81 c3 e0 08 	retl 
    7c20:	01 00 00 00 	nop 
    7c24:	d0 a2 85 00 	sta  %o0, [ %o2 ] (40)
    7c28:	81 c3 e0 08 	retl 
    7c2c:	01 00 00 00 	nop 
    7c30:	d0 a2 85 20 	sta  %o0, [ %o2 ] (41)
    7c34:	81 c3 e0 08 	retl 
    7c38:	01 00 00 00 	nop 
    7c3c:	d0 a2 85 40 	sta  %o0, [ %o2 ] (42)
    7c40:	81 c3 e0 08 	retl 
    7c44:	01 00 00 00 	nop 
    7c48:	d0 a2 85 60 	sta  %o0, [ %o2 ] (43)
    7c4c:	81 c3 e0 08 	retl 
    7c50:	01 00 00 00 	nop 
    7c54:	d0 a2 85 80 	sta  %o0, [ %o2 ] #ASI_NUCLEUS_QUAD_LDD_L
    7c58:	81 c3 e0 08 	retl 
    7c5c:	01 00 00 00 	nop 
    7c60:	d0 a2 85 a0 	sta  %o0, [ %o2 ] (45)
    7c64:	81 c3 e0 08 	retl 
    7c68:	01 00 00 00 	nop 

00007c6c <__ajit_load_word_from_physical_address__>:
    7c6c:	86 0a 20 0f 	and  %o0, 0xf, %g3
    7c70:	80 a0 e0 0f 	cmp  %g3, 0xf
    7c74:	08 80 00 05 	bleu  7c88 <__ajit_load_word_from_physical_address__+0x1c>
    7c78:	83 28 e0 02 	sll  %g3, 2, %g1
    7c7c:	d0 82 44 00 	lda  [ %o1 ] #ASI_SCRATCHPAD, %o0
    7c80:	81 c3 e0 08 	retl 
    7c84:	01 00 00 00 	nop 
    7c88:	05 00 00 1d 	sethi  %hi(0x7400), %g2
    7c8c:	84 10 a1 d0 	or  %g2, 0x1d0, %g2	! 75d0 <core_bench_list+0x374>
    7c90:	c2 00 80 01 	ld  [ %g2 + %g1 ], %g1
    7c94:	81 c0 40 00 	jmp  %g1
    7c98:	01 00 00 00 	nop 
    7c9c:	d0 82 45 c0 	lda  [ %o1 ] (46), %o0
    7ca0:	81 c3 e0 08 	retl 
    7ca4:	01 00 00 00 	nop 
    7ca8:	d0 82 45 e0 	lda  [ %o1 ] (47), %o0
    7cac:	81 c3 e0 08 	retl 
    7cb0:	01 00 00 00 	nop 
    7cb4:	d0 82 44 20 	lda  [ %o1 ] #ASI_MMU, %o0
    7cb8:	81 c3 e0 08 	retl 
    7cbc:	01 00 00 00 	nop 
    7cc0:	d0 82 44 40 	lda  [ %o1 ] (34), %o0
    7cc4:	81 c3 e0 08 	retl 
    7cc8:	01 00 00 00 	nop 
    7ccc:	d0 82 44 60 	lda  [ %o1 ] #ASI_BLK_INIT_QUAD_LDD_AIUS, %o0
    7cd0:	81 c3 e0 08 	retl 
    7cd4:	01 00 00 00 	nop 
    7cd8:	d0 82 44 80 	lda  [ %o1 ] #ASI_NUCLEUS_QUAD_LDD, %o0
    7cdc:	81 c3 e0 08 	retl 
    7ce0:	01 00 00 00 	nop 
    7ce4:	d0 82 44 a0 	lda  [ %o1 ] #ASI_QUEUE, %o0
    7ce8:	81 c3 e0 08 	retl 
    7cec:	01 00 00 00 	nop 
    7cf0:	d0 82 44 c0 	lda  [ %o1 ] #ASI_QUAD_LDD_PHYS_4V, %o0
    7cf4:	81 c3 e0 08 	retl 
    7cf8:	01 00 00 00 	nop 
    7cfc:	d0 82 44 e0 	lda  [ %o1 ] (39), %o0
    7d00:	81 c3 e0 08 	retl 
    7d04:	01 00 00 00 	nop 
    7d08:	d0 82 45 00 	lda  [ %o1 ] (40), %o0
    7d0c:	81 c3 e0 08 	retl 
    7d10:	01 00 00 00 	nop 
    7d14:	d0 82 45 20 	lda  [ %o1 ] (41), %o0
    7d18:	81 c3 e0 08 	retl 
    7d1c:	01 00 00 00 	nop 
    7d20:	d0 82 45 40 	lda  [ %o1 ] (42), %o0
    7d24:	81 c3 e0 08 	retl 
    7d28:	01 00 00 00 	nop 
    7d2c:	d0 82 45 60 	lda  [ %o1 ] (43), %o0
    7d30:	81 c3 e0 08 	retl 
    7d34:	01 00 00 00 	nop 
    7d38:	d0 82 45 80 	lda  [ %o1 ] #ASI_NUCLEUS_QUAD_LDD_L, %o0
    7d3c:	81 c3 e0 08 	retl 
    7d40:	01 00 00 00 	nop 
    7d44:	d0 82 45 a0 	lda  [ %o1 ] (45), %o0
    7d48:	81 c3 e0 08 	retl 
    7d4c:	01 00 00 00 	nop 

00007d50 <__ajit_load_word_mmu_reg__>:
    7d50:	d0 82 00 80 	lda  [ %o0 ] #ASI_N, %o0
    7d54:	81 c3 e0 08 	retl 
    7d58:	01 00 00 00 	nop 

00007d5c <__ajit_load_word_mmu_bypass__>:
    7d5c:	d0 82 04 00 	lda  [ %o0 ] #ASI_SCRATCHPAD, %o0
    7d60:	81 c3 e0 08 	retl 
    7d64:	01 00 00 00 	nop 

00007d68 <__ajit_flush_icache__>:
    7d68:	81 d8 20 00 	flush  %g0
    7d6c:	81 c3 e0 08 	retl 
    7d70:	01 00 00 00 	nop 

00007d74 <__ajit_flush_dcache__>:
    7d74:	c0 a0 02 60 	sta  %g0, [ %g0 ] (19)
    7d78:	81 c3 e0 08 	retl 
    7d7c:	01 00 00 00 	nop 

00007d80 <__ajit_write_timer_control_register_via_bypass__>:
    7d80:	03 3f ff cc 	sethi  %hi(0xffff3000), %g1
    7d84:	82 10 61 00 	or  %g1, 0x100, %g1	! ffff3100 <CVTBUF+0xfffd2a68>
    7d88:	d0 a0 44 00 	sta  %o0, [ %g1 ] #ASI_SCRATCHPAD
    7d8c:	81 c3 e0 08 	retl 
    7d90:	01 00 00 00 	nop 

00007d94 <__ajit_read_timer_control_register_via_bypass__>:
    7d94:	11 3f ff cc 	sethi  %hi(0xffff3000), %o0
    7d98:	90 12 21 00 	or  %o0, 0x100, %o0	! ffff3100 <CVTBUF+0xfffd2a68>
    7d9c:	d0 82 04 00 	lda  [ %o0 ] #ASI_SCRATCHPAD, %o0
    7da0:	81 c3 e0 08 	retl 
    7da4:	01 00 00 00 	nop 

00007da8 <__ajit_write_timer_control_register_via_vmap__>:
    7da8:	03 3f ff cc 	sethi  %hi(0xffff3000), %g1
    7dac:	82 10 61 00 	or  %g1, 0x100, %g1	! ffff3100 <CVTBUF+0xfffd2a68>
    7db0:	81 c3 e0 08 	retl 
    7db4:	d0 20 40 00 	st  %o0, [ %g1 ]

00007db8 <__ajit_read_timer_control_register_via_vmap__>:
    7db8:	03 3f ff cc 	sethi  %hi(0xffff3000), %g1
    7dbc:	82 10 61 00 	or  %g1, 0x100, %g1	! ffff3100 <CVTBUF+0xfffd2a68>
    7dc0:	81 c3 e0 08 	retl 
    7dc4:	d0 00 40 00 	ld  [ %g1 ], %o0

00007dc8 <__ajit_write_serial_control_register_via_bypass__>:
    7dc8:	03 3f ff cc 	sethi  %hi(0xffff3000), %g1
    7dcc:	82 10 62 00 	or  %g1, 0x200, %g1	! ffff3200 <CVTBUF+0xfffd2b68>
    7dd0:	d0 a0 44 00 	sta  %o0, [ %g1 ] #ASI_SCRATCHPAD
    7dd4:	81 c3 e0 08 	retl 
    7dd8:	01 00 00 00 	nop 

00007ddc <__ajit_read_serial_control_register_via_bypass__>:
    7ddc:	11 3f ff cc 	sethi  %hi(0xffff3000), %o0
    7de0:	90 12 22 00 	or  %o0, 0x200, %o0	! ffff3200 <CVTBUF+0xfffd2b68>
    7de4:	d0 82 04 00 	lda  [ %o0 ] #ASI_SCRATCHPAD, %o0
    7de8:	81 c3 e0 08 	retl 
    7dec:	01 00 00 00 	nop 

00007df0 <__ajit_write_serial_tx_register_via_bypass__>:
    7df0:	03 3f ff cc 	sethi  %hi(0xffff3000), %g1
    7df4:	82 10 62 04 	or  %g1, 0x204, %g1	! ffff3204 <CVTBUF+0xfffd2b6c>
    7df8:	d0 a8 44 00 	stba  %o0, [ %g1 ] #ASI_SCRATCHPAD
    7dfc:	81 c3 e0 08 	retl 
    7e00:	01 00 00 00 	nop 

00007e04 <__ajit_read_serial_tx_register_via_bypass__>:
    7e04:	11 3f ff cc 	sethi  %hi(0xffff3000), %o0
    7e08:	90 12 22 04 	or  %o0, 0x204, %o0	! ffff3204 <CVTBUF+0xfffd2b6c>
    7e0c:	d0 8a 04 00 	lduba  [ %o0 ] #ASI_SCRATCHPAD, %o0
    7e10:	81 c3 e0 08 	retl 
    7e14:	90 0a 20 ff 	and  %o0, 0xff, %o0

00007e18 <__ajit_read_serial_rx_register_via_bypass__>:
    7e18:	11 3f ff cc 	sethi  %hi(0xffff3000), %o0
    7e1c:	90 12 22 08 	or  %o0, 0x208, %o0	! ffff3208 <CVTBUF+0xfffd2b70>
    7e20:	d0 8a 04 00 	lduba  [ %o0 ] #ASI_SCRATCHPAD, %o0
    7e24:	81 c3 e0 08 	retl 
    7e28:	90 0a 20 ff 	and  %o0, 0xff, %o0

00007e2c <__ajit_write_serial_baud_limit_register_via_bypass__>:
    7e2c:	03 3f ff cc 	sethi  %hi(0xffff3000), %g1
    7e30:	82 10 62 0c 	or  %g1, 0x20c, %g1	! ffff320c <CVTBUF+0xfffd2b74>
    7e34:	d0 a0 44 00 	sta  %o0, [ %g1 ] #ASI_SCRATCHPAD
    7e38:	81 c3 e0 08 	retl 
    7e3c:	01 00 00 00 	nop 

00007e40 <__ajit_read_serial_baud_limit_register_via_bypass__>:
    7e40:	11 3f ff cc 	sethi  %hi(0xffff3000), %o0
    7e44:	90 12 22 0c 	or  %o0, 0x20c, %o0	! ffff320c <CVTBUF+0xfffd2b74>
    7e48:	d0 82 04 00 	lda  [ %o0 ] #ASI_SCRATCHPAD, %o0
    7e4c:	81 c3 e0 08 	retl 
    7e50:	01 00 00 00 	nop 

00007e54 <__ajit_write_serial_baud_frequency_register_via_bypass__>:
    7e54:	03 3f ff cc 	sethi  %hi(0xffff3000), %g1
    7e58:	82 10 62 10 	or  %g1, 0x210, %g1	! ffff3210 <CVTBUF+0xfffd2b78>
    7e5c:	d0 a0 44 00 	sta  %o0, [ %g1 ] #ASI_SCRATCHPAD
    7e60:	81 c3 e0 08 	retl 
    7e64:	01 00 00 00 	nop 

00007e68 <__ajit_read_serial_baud_frequency_register_via_bypass__>:
    7e68:	11 3f ff cc 	sethi  %hi(0xffff3000), %o0
    7e6c:	90 12 22 10 	or  %o0, 0x210, %o0	! ffff3210 <CVTBUF+0xfffd2b78>
    7e70:	d0 82 04 00 	lda  [ %o0 ] #ASI_SCRATCHPAD, %o0
    7e74:	81 c3 e0 08 	retl 
    7e78:	01 00 00 00 	nop 

00007e7c <__ajit_serial_configure_via_bypass__>:
    7e7c:	03 3f ff cc 	sethi  %hi(0xffff3000), %g1
    7e80:	82 10 62 00 	or  %g1, 0x200, %g1	! ffff3200 <CVTBUF+0xfffd2b68>
    7e84:	c2 80 44 00 	lda  [ %g1 ] #ASI_SCRATCHPAD, %g1
    7e88:	80 a2 20 00 	cmp  %o0, 0
    7e8c:	02 80 00 03 	be  7e98 <__ajit_serial_configure_via_bypass__+0x1c>
    7e90:	84 08 7f fe 	and  %g1, -2, %g2
    7e94:	84 10 60 01 	or  %g1, 1, %g2
    7e98:	80 a2 60 00 	cmp  %o1, 0
    7e9c:	02 80 00 03 	be  7ea8 <__ajit_serial_configure_via_bypass__+0x2c>
    7ea0:	82 08 bf fd 	and  %g2, -3, %g1
    7ea4:	82 10 a0 02 	or  %g2, 2, %g1
    7ea8:	80 a2 a0 00 	cmp  %o2, 0
    7eac:	02 80 00 03 	be  7eb8 <__ajit_serial_configure_via_bypass__+0x3c>
    7eb0:	84 08 7f fb 	and  %g1, -5, %g2
    7eb4:	84 10 60 04 	or  %g1, 4, %g2
    7eb8:	03 3f ff cc 	sethi  %hi(0xffff3000), %g1
    7ebc:	82 10 62 00 	or  %g1, 0x200, %g1	! ffff3200 <CVTBUF+0xfffd2b68>
    7ec0:	c4 a0 44 00 	sta  %g2, [ %g1 ] #ASI_SCRATCHPAD
    7ec4:	81 c3 e0 08 	retl 
    7ec8:	01 00 00 00 	nop 

00007ecc <__ajit_serial_set_baudrate_via_bypass__>:
    7ecc:	91 2a 20 04 	sll  %o0, 4, %o0
    7ed0:	80 a2 00 09 	cmp  %o0, %o1
    7ed4:	1a 80 00 25 	bcc  7f68 <__ajit_serial_set_baudrate_via_bypass__+0x9c>
    7ed8:	03 3f ff cc 	sethi  %hi(0xffff3000), %g1
    7edc:	80 a2 20 00 	cmp  %o0, 0
    7ee0:	22 80 00 23 	be,a   7f6c <__ajit_serial_set_baudrate_via_bypass__+0xa0>
    7ee4:	84 10 20 00 	clr  %g2
    7ee8:	84 10 00 09 	mov  %o1, %g2
    7eec:	10 80 00 03 	b  7ef8 <__ajit_serial_set_baudrate_via_bypass__+0x2c>
    7ef0:	82 10 00 08 	mov  %o0, %g1
    7ef4:	82 10 00 03 	mov  %g3, %g1
    7ef8:	81 80 20 00 	mov  %g0, %y
    7efc:	01 00 00 00 	nop 
    7f00:	01 00 00 00 	nop 
    7f04:	01 00 00 00 	nop 
    7f08:	86 70 80 01 	udiv  %g2, %g1, %g3
    7f0c:	86 58 c0 01 	smul  %g3, %g1, %g3
    7f10:	86 20 80 03 	sub  %g2, %g3, %g3
    7f14:	80 a0 e0 00 	cmp  %g3, 0
    7f18:	12 bf ff f7 	bne  7ef4 <__ajit_serial_set_baudrate_via_bypass__+0x28>
    7f1c:	84 10 00 01 	mov  %g1, %g2
    7f20:	81 80 20 00 	mov  %g0, %y
    7f24:	01 00 00 00 	nop 
    7f28:	01 00 00 00 	nop 
    7f2c:	01 00 00 00 	nop 
    7f30:	84 72 00 01 	udiv  %o0, %g1, %g2
    7f34:	81 80 20 00 	mov  %g0, %y
    7f38:	01 00 00 00 	nop 
    7f3c:	01 00 00 00 	nop 
    7f40:	01 00 00 00 	nop 
    7f44:	86 72 40 01 	udiv  %o1, %g1, %g3
    7f48:	03 3f ff cc 	sethi  %hi(0xffff3000), %g1
    7f4c:	86 20 c0 02 	sub  %g3, %g2, %g3
    7f50:	88 10 62 0c 	or  %g1, 0x20c, %g4
    7f54:	c6 a1 04 00 	sta  %g3, [ %g4 ] #ASI_SCRATCHPAD
    7f58:	82 10 62 10 	or  %g1, 0x210, %g1
    7f5c:	c4 a0 44 00 	sta  %g2, [ %g1 ] #ASI_SCRATCHPAD
    7f60:	81 c3 e0 08 	retl 
    7f64:	01 00 00 00 	nop 
    7f68:	84 10 20 00 	clr  %g2	! 0 <_start>
    7f6c:	86 10 20 00 	clr  %g3
    7f70:	88 10 62 0c 	or  %g1, 0x20c, %g4
    7f74:	c6 a1 04 00 	sta  %g3, [ %g4 ] #ASI_SCRATCHPAD
    7f78:	82 10 62 10 	or  %g1, 0x210, %g1
    7f7c:	c4 a0 44 00 	sta  %g2, [ %g1 ] #ASI_SCRATCHPAD
    7f80:	81 c3 e0 08 	retl 
    7f84:	01 00 00 00 	nop 

00007f88 <__ajit_serial_set_uart_reset_via_bypass__>:
    7f88:	05 3f ff cc 	sethi  %hi(0xffff3000), %g2
    7f8c:	84 10 a2 00 	or  %g2, 0x200, %g2	! ffff3200 <CVTBUF+0xfffd2b68>
    7f90:	c4 80 84 00 	lda  [ %g2 ] #ASI_SCRATCHPAD, %g2
    7f94:	80 a2 20 00 	cmp  %o0, 0
    7f98:	12 80 00 03 	bne  7fa4 <__ajit_serial_set_uart_reset_via_bypass__+0x1c>
    7f9c:	82 10 a0 20 	or  %g2, 0x20, %g1
    7fa0:	82 08 bf df 	and  %g2, -33, %g1
    7fa4:	05 3f ff cc 	sethi  %hi(0xffff3000), %g2
    7fa8:	84 10 a2 00 	or  %g2, 0x200, %g2	! ffff3200 <CVTBUF+0xfffd2b68>
    7fac:	c2 a0 84 00 	sta  %g1, [ %g2 ] #ASI_SCRATCHPAD
    7fb0:	81 c3 e0 08 	retl 
    7fb4:	01 00 00 00 	nop 

00007fb8 <__ajit_serial_putchar_via_bypass__>:
    7fb8:	05 3f ff cc 	sethi  %hi(0xffff3000), %g2
    7fbc:	82 10 a2 00 	or  %g2, 0x200, %g1	! ffff3200 <CVTBUF+0xfffd2b68>
    7fc0:	c2 80 44 00 	lda  [ %g1 ] #ASI_SCRATCHPAD, %g1
    7fc4:	80 88 60 01 	btst  1, %g1
    7fc8:	02 80 00 07 	be  7fe4 <__ajit_serial_putchar_via_bypass__+0x2c>
    7fcc:	86 10 20 00 	clr  %g3
    7fd0:	80 88 60 08 	btst  8, %g1
    7fd4:	12 80 00 04 	bne  7fe4 <__ajit_serial_putchar_via_bypass__+0x2c>
    7fd8:	84 10 a2 04 	or  %g2, 0x204, %g2
    7fdc:	d0 a8 84 00 	stba  %o0, [ %g2 ] #ASI_SCRATCHPAD
    7fe0:	86 10 20 01 	mov  1, %g3
    7fe4:	81 c3 e0 08 	retl 
    7fe8:	90 10 00 03 	mov  %g3, %o0

00007fec <__ajit_serial_getchar_via_bypass__>:
    7fec:	05 3f ff cc 	sethi  %hi(0xffff3000), %g2
    7ff0:	84 10 a2 00 	or  %g2, 0x200, %g2	! ffff3200 <CVTBUF+0xfffd2b68>
    7ff4:	c2 80 84 00 	lda  [ %g2 ] #ASI_SCRATCHPAD, %g1
    7ff8:	82 08 60 12 	and  %g1, 0x12, %g1
    7ffc:	80 a0 60 12 	cmp  %g1, 0x12
    8000:	12 bf ff fd 	bne  7ff4 <__ajit_serial_getchar_via_bypass__+0x8>
    8004:	11 3f ff cc 	sethi  %hi(0xffff3000), %o0
    8008:	90 12 22 08 	or  %o0, 0x208, %o0	! ffff3208 <CVTBUF+0xfffd2b70>
    800c:	d0 8a 04 00 	lduba  [ %o0 ] #ASI_SCRATCHPAD, %o0
    8010:	91 2a 20 18 	sll  %o0, 0x18, %o0
    8014:	81 c3 e0 08 	retl 
    8018:	91 3a 20 18 	sra  %o0, 0x18, %o0

0000801c <__ajit_serial_puts_via_bypass__>:
    801c:	80 a2 60 00 	cmp  %o1, 0
    8020:	02 80 00 19 	be  8084 <__ajit_serial_puts_via_bypass__+0x68>
    8024:	01 00 00 00 	nop 
    8028:	c2 4a 00 00 	ldsb  [ %o0 ], %g1
    802c:	80 a0 60 00 	cmp  %g1, 0
    8030:	02 80 00 15 	be  8084 <__ajit_serial_puts_via_bypass__+0x68>
    8034:	c8 0a 00 00 	ldub  [ %o0 ], %g4
    8038:	1b 3f ff cc 	sethi  %hi(0xffff3000), %o5
    803c:	86 02 20 01 	add  %o0, 1, %g3
    8040:	84 13 62 00 	or  %o5, 0x200, %g2
    8044:	98 02 00 09 	add  %o0, %o1, %o4
    8048:	9a 13 62 04 	or  %o5, 0x204, %o5
    804c:	c2 80 84 00 	lda  [ %g2 ] #ASI_SCRATCHPAD, %g1
    8050:	80 88 60 01 	btst  1, %g1
    8054:	02 bf ff fe 	be  804c <__ajit_serial_puts_via_bypass__+0x30>
    8058:	80 88 60 08 	btst  8, %g1
    805c:	12 bf ff fc 	bne  804c <__ajit_serial_puts_via_bypass__+0x30>
    8060:	01 00 00 00 	nop 
    8064:	c8 ab 44 00 	stba  %g4, [ %o5 ] #ASI_SCRATCHPAD
    8068:	80 a0 c0 0c 	cmp  %g3, %o4
    806c:	02 80 00 06 	be  8084 <__ajit_serial_puts_via_bypass__+0x68>
    8070:	86 00 e0 01 	inc  %g3
    8074:	c2 48 ff ff 	ldsb  [ %g3 + -1 ], %g1
    8078:	80 a0 60 00 	cmp  %g1, 0
    807c:	12 bf ff f4 	bne  804c <__ajit_serial_puts_via_bypass__+0x30>
    8080:	c8 08 ff ff 	ldub  [ %g3 + -1 ], %g4
    8084:	81 c3 e0 08 	retl 
    8088:	01 00 00 00 	nop 

0000808c <__ajit_serial_gets_via_bypass__>:
    808c:	1b 3f ff cc 	sethi  %hi(0xffff3000), %o5
    8090:	98 02 7f ff 	add  %o1, -1, %o4
    8094:	84 13 62 00 	or  %o5, 0x200, %g2
    8098:	88 10 20 00 	clr  %g4
    809c:	86 10 20 00 	clr  %g3
    80a0:	80 a2 60 01 	cmp  %o1, 1
    80a4:	02 80 00 11 	be  80e8 <__ajit_serial_gets_via_bypass__+0x5c>
    80a8:	9a 13 62 08 	or  %o5, 0x208, %o5
    80ac:	c2 80 84 00 	lda  [ %g2 ] #ASI_SCRATCHPAD, %g1
    80b0:	82 08 60 12 	and  %g1, 0x12, %g1
    80b4:	80 a0 60 12 	cmp  %g1, 0x12
    80b8:	12 bf ff fd 	bne  80ac <__ajit_serial_gets_via_bypass__+0x20>
    80bc:	01 00 00 00 	nop 
    80c0:	c2 8b 44 00 	lduba  [ %o5 ] #ASI_SCRATCHPAD, %g1
    80c4:	c2 2a 00 03 	stb  %g1, [ %o0 + %g3 ]
    80c8:	83 28 60 18 	sll  %g1, 0x18, %g1
    80cc:	80 a0 60 00 	cmp  %g1, 0
    80d0:	22 80 00 07 	be,a   80ec <__ajit_serial_gets_via_bypass__+0x60>
    80d4:	92 02 00 09 	add  %o0, %o1, %o1
    80d8:	88 01 20 01 	inc  %g4
    80dc:	80 a1 00 0c 	cmp  %g4, %o4
    80e0:	12 bf ff f3 	bne  80ac <__ajit_serial_gets_via_bypass__+0x20>
    80e4:	86 10 00 04 	mov  %g4, %g3
    80e8:	92 02 00 09 	add  %o0, %o1, %o1
    80ec:	81 c3 e0 08 	retl 
    80f0:	c0 2a 7f ff 	clrb  [ %o1 + -1 ]

000080f4 <__ajit_write_serial_control_register_via_vmap__>:
    80f4:	03 3f ff cc 	sethi  %hi(0xffff3000), %g1
    80f8:	82 10 62 00 	or  %g1, 0x200, %g1	! ffff3200 <CVTBUF+0xfffd2b68>
    80fc:	81 c3 e0 08 	retl 
    8100:	d0 20 40 00 	st  %o0, [ %g1 ]

00008104 <__ajit_read_serial_control_register_via_vmap__>:
    8104:	03 3f ff cc 	sethi  %hi(0xffff3000), %g1
    8108:	82 10 62 00 	or  %g1, 0x200, %g1	! ffff3200 <CVTBUF+0xfffd2b68>
    810c:	81 c3 e0 08 	retl 
    8110:	d0 08 40 00 	ldub  [ %g1 ], %o0

00008114 <__ajit_write_serial_tx_register_via_vmap__>:
    8114:	03 3f ff cc 	sethi  %hi(0xffff3000), %g1
    8118:	82 10 62 04 	or  %g1, 0x204, %g1	! ffff3204 <CVTBUF+0xfffd2b6c>
    811c:	81 c3 e0 08 	retl 
    8120:	d0 28 40 00 	stb  %o0, [ %g1 ]

00008124 <__ajit_read_serial_tx_register_via_vmap__>:
    8124:	03 3f ff cc 	sethi  %hi(0xffff3000), %g1
    8128:	82 10 62 04 	or  %g1, 0x204, %g1	! ffff3204 <CVTBUF+0xfffd2b6c>
    812c:	81 c3 e0 08 	retl 
    8130:	d0 08 40 00 	ldub  [ %g1 ], %o0

00008134 <__ajit_read_serial_rx_register_via_vmap__>:
    8134:	03 3f ff cc 	sethi  %hi(0xffff3000), %g1
    8138:	82 10 62 08 	or  %g1, 0x208, %g1	! ffff3208 <CVTBUF+0xfffd2b70>
    813c:	81 c3 e0 08 	retl 
    8140:	d0 08 40 00 	ldub  [ %g1 ], %o0

00008144 <__ajit_serial_putchar_via_vmap__>:
    8144:	05 3f ff cc 	sethi  %hi(0xffff3000), %g2
    8148:	82 10 a2 00 	or  %g2, 0x200, %g1	! ffff3200 <CVTBUF+0xfffd2b68>
    814c:	c2 00 40 00 	ld  [ %g1 ], %g1
    8150:	80 88 60 01 	btst  1, %g1
    8154:	02 80 00 07 	be  8170 <__ajit_serial_putchar_via_vmap__+0x2c>
    8158:	86 10 20 00 	clr  %g3
    815c:	80 88 60 08 	btst  8, %g1
    8160:	12 80 00 04 	bne  8170 <__ajit_serial_putchar_via_vmap__+0x2c>
    8164:	84 10 a2 04 	or  %g2, 0x204, %g2
    8168:	86 10 20 01 	mov  1, %g3
    816c:	d0 28 80 00 	stb  %o0, [ %g2 ]
    8170:	81 c3 e0 08 	retl 
    8174:	90 10 00 03 	mov  %g3, %o0

00008178 <__ajit_serial_getchar_via_vmap__>:
    8178:	03 3f ff cc 	sethi  %hi(0xffff3000), %g1
    817c:	84 10 62 00 	or  %g1, 0x200, %g2	! ffff3200 <CVTBUF+0xfffd2b68>
    8180:	c4 00 80 00 	ld  [ %g2 ], %g2
    8184:	84 08 a0 12 	and  %g2, 0x12, %g2
    8188:	80 a0 a0 12 	cmp  %g2, 0x12
    818c:	12 80 00 04 	bne  819c <__ajit_serial_getchar_via_vmap__+0x24>
    8190:	82 10 62 08 	or  %g1, 0x208, %g1
    8194:	81 c3 e0 08 	retl 
    8198:	d0 48 40 00 	ldsb  [ %g1 ], %o0
    819c:	30 80 00 00 	b,a   819c <__ajit_serial_getchar_via_vmap__+0x24>

000081a0 <__ajit_serial_puts_via_vmap__>:
    81a0:	80 a2 60 00 	cmp  %o1, 0
    81a4:	02 80 00 1d 	be  8218 <__ajit_serial_puts_via_vmap__+0x78>
    81a8:	01 00 00 00 	nop 
    81ac:	c2 4a 00 00 	ldsb  [ %o0 ], %g1
    81b0:	80 a0 60 00 	cmp  %g1, 0
    81b4:	02 80 00 19 	be  8218 <__ajit_serial_puts_via_vmap__+0x78>
    81b8:	c4 0a 00 00 	ldub  [ %o0 ], %g2
    81bc:	07 3f ff cc 	sethi  %hi(0xffff3000), %g3
    81c0:	82 02 20 01 	add  %o0, 1, %g1
    81c4:	9a 10 e2 00 	or  %g3, 0x200, %o5
    81c8:	88 02 00 09 	add  %o0, %o1, %g4
    81cc:	d6 03 40 00 	ld  [ %o5 ], %o3
    81d0:	86 10 e2 04 	or  %g3, 0x204, %g3
    81d4:	98 0a e0 01 	and  %o3, 1, %o4
    81d8:	10 80 00 0b 	b  8204 <__ajit_serial_puts_via_vmap__+0x64>
    81dc:	96 0a e0 08 	and  %o3, 8, %o3
    81e0:	12 80 00 0d 	bne  8214 <__ajit_serial_puts_via_vmap__+0x74>
    81e4:	80 a0 40 04 	cmp  %g1, %g4
    81e8:	02 80 00 0c 	be  8218 <__ajit_serial_puts_via_vmap__+0x78>
    81ec:	c4 28 c0 00 	stb  %g2, [ %g3 ]
    81f0:	82 00 60 01 	inc  %g1
    81f4:	da 48 7f ff 	ldsb  [ %g1 + -1 ], %o5
    81f8:	80 a3 60 00 	cmp  %o5, 0
    81fc:	02 80 00 07 	be  8218 <__ajit_serial_puts_via_vmap__+0x78>
    8200:	c4 08 7f ff 	ldub  [ %g1 + -1 ], %g2
    8204:	80 a3 20 00 	cmp  %o4, 0
    8208:	12 bf ff f6 	bne  81e0 <__ajit_serial_puts_via_vmap__+0x40>
    820c:	80 a2 e0 00 	cmp  %o3, 0
    8210:	30 80 00 00 	b,a   8210 <__ajit_serial_puts_via_vmap__+0x70>
    8214:	30 80 00 00 	b,a   8214 <__ajit_serial_puts_via_vmap__+0x74>
    8218:	81 c3 e0 08 	retl 
    821c:	01 00 00 00 	nop 

00008220 <__ajit_serial_gets_via_vmap__>:
    8220:	09 3f ff cc 	sethi  %hi(0xffff3000), %g4
    8224:	98 02 7f ff 	add  %o1, -1, %o4
    8228:	9a 11 22 00 	or  %g4, 0x200, %o5
    822c:	86 10 20 00 	clr  %g3
    8230:	84 10 20 00 	clr  %g2
    8234:	80 a2 60 01 	cmp  %o1, 1
    8238:	12 80 00 0c 	bne  8268 <__ajit_serial_gets_via_vmap__+0x48>
    823c:	88 11 22 08 	or  %g4, 0x208, %g4
    8240:	10 80 00 11 	b  8284 <__ajit_serial_gets_via_vmap__+0x64>
    8244:	92 02 00 09 	add  %o0, %o1, %o1
    8248:	c2 2a 00 02 	stb  %g1, [ %o0 + %g2 ]
    824c:	83 28 60 18 	sll  %g1, 0x18, %g1
    8250:	80 a0 60 00 	cmp  %g1, 0
    8254:	02 80 00 0b 	be  8280 <__ajit_serial_gets_via_vmap__+0x60>
    8258:	86 00 e0 01 	inc  %g3
    825c:	80 a0 c0 0c 	cmp  %g3, %o4
    8260:	02 80 00 08 	be  8280 <__ajit_serial_gets_via_vmap__+0x60>
    8264:	84 10 00 03 	mov  %g3, %g2
    8268:	c2 03 40 00 	ld  [ %o5 ], %g1
    826c:	82 08 60 12 	and  %g1, 0x12, %g1
    8270:	80 a0 60 12 	cmp  %g1, 0x12
    8274:	22 bf ff f5 	be,a   8248 <__ajit_serial_gets_via_vmap__+0x28>
    8278:	c2 09 00 00 	ldub  [ %g4 ], %g1
    827c:	30 80 00 00 	b,a   827c <__ajit_serial_gets_via_vmap__+0x5c>
    8280:	92 02 00 09 	add  %o0, %o1, %o1
    8284:	81 c3 e0 08 	retl 
    8288:	c0 2a 7f ff 	clrb  [ %o1 + -1 ]

0000828c <__ajit_serial_configure_via_vmap__>:
    828c:	03 3f ff cc 	sethi  %hi(0xffff3000), %g1
    8290:	80 a2 20 00 	cmp  %o0, 0
    8294:	82 10 62 00 	or  %g1, 0x200, %g1
    8298:	c2 00 40 00 	ld  [ %g1 ], %g1
    829c:	02 80 00 03 	be  82a8 <__ajit_serial_configure_via_vmap__+0x1c>
    82a0:	84 08 7f fe 	and  %g1, -2, %g2
    82a4:	84 10 60 01 	or  %g1, 1, %g2
    82a8:	80 a2 60 00 	cmp  %o1, 0
    82ac:	02 80 00 03 	be  82b8 <__ajit_serial_configure_via_vmap__+0x2c>
    82b0:	82 08 bf fd 	and  %g2, -3, %g1
    82b4:	82 10 a0 02 	or  %g2, 2, %g1
    82b8:	80 a2 a0 00 	cmp  %o2, 0
    82bc:	02 80 00 03 	be  82c8 <__ajit_serial_configure_via_vmap__+0x3c>
    82c0:	84 08 7f fb 	and  %g1, -5, %g2
    82c4:	84 10 60 04 	or  %g1, 4, %g2
    82c8:	03 3f ff cc 	sethi  %hi(0xffff3000), %g1
    82cc:	82 10 62 00 	or  %g1, 0x200, %g1	! ffff3200 <CVTBUF+0xfffd2b68>
    82d0:	81 c3 e0 08 	retl 
    82d4:	c4 20 40 00 	st  %g2, [ %g1 ]

000082d8 <__ajit_serial_set_uart_reset_via_vmap__>:
    82d8:	03 3f ff cc 	sethi  %hi(0xffff3000), %g1
    82dc:	82 10 62 00 	or  %g1, 0x200, %g1	! ffff3200 <CVTBUF+0xfffd2b68>
    82e0:	80 a2 20 00 	cmp  %o0, 0
    82e4:	c4 00 40 00 	ld  [ %g1 ], %g2
    82e8:	12 80 00 03 	bne  82f4 <__ajit_serial_set_uart_reset_via_vmap__+0x1c>
    82ec:	82 10 a0 20 	or  %g2, 0x20, %g1
    82f0:	82 08 bf df 	and  %g2, -33, %g1
    82f4:	05 3f ff cc 	sethi  %hi(0xffff3000), %g2
    82f8:	84 10 a2 00 	or  %g2, 0x200, %g2	! ffff3200 <CVTBUF+0xfffd2b68>
    82fc:	81 c3 e0 08 	retl 
    8300:	c2 20 80 00 	st  %g1, [ %g2 ]

00008304 <__ajit_serial_set_baudrate_via_vmap__>:
    8304:	91 2a 20 04 	sll  %o0, 4, %o0
    8308:	80 a2 00 09 	cmp  %o0, %o1
    830c:	1a 80 00 24 	bcc  839c <__ajit_serial_set_baudrate_via_vmap__+0x98>
    8310:	03 3f ff cc 	sethi  %hi(0xffff3000), %g1
    8314:	80 a2 20 00 	cmp  %o0, 0
    8318:	02 80 00 22 	be  83a0 <__ajit_serial_set_baudrate_via_vmap__+0x9c>
    831c:	88 10 20 00 	clr  %g4
    8320:	84 10 00 09 	mov  %o1, %g2
    8324:	10 80 00 03 	b  8330 <__ajit_serial_set_baudrate_via_vmap__+0x2c>
    8328:	82 10 00 08 	mov  %o0, %g1
    832c:	82 10 00 03 	mov  %g3, %g1
    8330:	81 80 20 00 	mov  %g0, %y
    8334:	01 00 00 00 	nop 
    8338:	01 00 00 00 	nop 
    833c:	01 00 00 00 	nop 
    8340:	86 70 80 01 	udiv  %g2, %g1, %g3
    8344:	86 58 c0 01 	smul  %g3, %g1, %g3
    8348:	86 20 80 03 	sub  %g2, %g3, %g3
    834c:	80 a0 e0 00 	cmp  %g3, 0
    8350:	12 bf ff f7 	bne  832c <__ajit_serial_set_baudrate_via_vmap__+0x28>
    8354:	84 10 00 01 	mov  %g1, %g2
    8358:	81 80 20 00 	mov  %g0, %y
    835c:	01 00 00 00 	nop 
    8360:	01 00 00 00 	nop 
    8364:	01 00 00 00 	nop 
    8368:	84 72 00 01 	udiv  %o0, %g1, %g2
    836c:	81 80 20 00 	mov  %g0, %y
    8370:	01 00 00 00 	nop 
    8374:	01 00 00 00 	nop 
    8378:	01 00 00 00 	nop 
    837c:	88 72 40 01 	udiv  %o1, %g1, %g4
    8380:	03 3f ff cc 	sethi  %hi(0xffff3000), %g1
    8384:	88 21 00 02 	sub  %g4, %g2, %g4
    8388:	86 10 62 0c 	or  %g1, 0x20c, %g3
    838c:	c8 20 c0 00 	st  %g4, [ %g3 ]
    8390:	82 10 62 10 	or  %g1, 0x210, %g1
    8394:	81 c3 e0 08 	retl 
    8398:	c4 20 40 00 	st  %g2, [ %g1 ]
    839c:	88 10 20 00 	clr  %g4
    83a0:	86 10 62 0c 	or  %g1, 0x20c, %g3
    83a4:	c8 20 c0 00 	st  %g4, [ %g3 ]
    83a8:	84 10 20 00 	clr  %g2
    83ac:	82 10 62 10 	or  %g1, 0x210, %g1
    83b0:	81 c3 e0 08 	retl 
    83b4:	c4 20 40 00 	st  %g2, [ %g1 ]

000083b8 <__ajit_read_serial_baud_limit_register_via_vmap__>:
    83b8:	03 3f ff cc 	sethi  %hi(0xffff3000), %g1
    83bc:	82 10 62 0c 	or  %g1, 0x20c, %g1	! ffff320c <CVTBUF+0xfffd2b74>
    83c0:	81 c3 e0 08 	retl 
    83c4:	d0 00 40 00 	ld  [ %g1 ], %o0

000083c8 <__ajit_write_serial_baud_limit_register_via_vmap__>:
    83c8:	03 3f ff cc 	sethi  %hi(0xffff3000), %g1
    83cc:	82 10 62 0c 	or  %g1, 0x20c, %g1	! ffff320c <CVTBUF+0xfffd2b74>
    83d0:	81 c3 e0 08 	retl 
    83d4:	d0 20 40 00 	st  %o0, [ %g1 ]

000083d8 <__ajit_read_serial_baud_frequency_register_via_vmap__>:
    83d8:	03 3f ff cc 	sethi  %hi(0xffff3000), %g1
    83dc:	82 10 62 10 	or  %g1, 0x210, %g1	! ffff3210 <CVTBUF+0xfffd2b78>
    83e0:	81 c3 e0 08 	retl 
    83e4:	d0 00 40 00 	ld  [ %g1 ], %o0

000083e8 <__ajit_write_serial_baud_frequency_register_via_vmap__>:
    83e8:	03 3f ff cc 	sethi  %hi(0xffff3000), %g1
    83ec:	82 10 62 10 	or  %g1, 0x210, %g1	! ffff3210 <CVTBUF+0xfffd2b78>
    83f0:	81 c3 e0 08 	retl 
    83f4:	d0 20 40 00 	st  %o0, [ %g1 ]

000083f8 <calculate_baud_control_values_for_uart>:
    83f8:	91 2a 20 04 	sll  %o0, 4, %o0
    83fc:	80 a2 00 09 	cmp  %o0, %o1
    8400:	1a 80 00 05 	bcc  8414 <calculate_baud_control_values_for_uart+0x1c>
    8404:	c0 22 80 00 	clr  [ %o2 ]
    8408:	82 92 20 00 	orcc  %o0, 0, %g1
    840c:	12 80 00 05 	bne  8420 <calculate_baud_control_values_for_uart+0x28>
    8410:	84 10 00 09 	mov  %o1, %g2
    8414:	81 c3 e0 08 	retl 
    8418:	c0 22 c0 00 	clr  [ %o3 ]
    841c:	82 10 00 03 	mov  %g3, %g1
    8420:	81 80 20 00 	mov  %g0, %y
    8424:	01 00 00 00 	nop 
    8428:	01 00 00 00 	nop 
    842c:	01 00 00 00 	nop 
    8430:	86 70 80 01 	udiv  %g2, %g1, %g3
    8434:	86 58 c0 01 	smul  %g3, %g1, %g3
    8438:	86 20 80 03 	sub  %g2, %g3, %g3
    843c:	80 a0 e0 00 	cmp  %g3, 0
    8440:	12 bf ff f7 	bne  841c <calculate_baud_control_values_for_uart+0x24>
    8444:	84 10 00 01 	mov  %g1, %g2
    8448:	81 80 20 00 	mov  %g0, %y
    844c:	01 00 00 00 	nop 
    8450:	01 00 00 00 	nop 
    8454:	01 00 00 00 	nop 
    8458:	84 72 00 01 	udiv  %o0, %g1, %g2
    845c:	c4 22 c0 00 	st  %g2, [ %o3 ]
    8460:	81 80 20 00 	mov  %g0, %y
    8464:	01 00 00 00 	nop 
    8468:	01 00 00 00 	nop 
    846c:	01 00 00 00 	nop 
    8470:	86 72 40 01 	udiv  %o1, %g1, %g3
    8474:	84 20 c0 02 	sub  %g3, %g2, %g2
    8478:	81 c3 e0 08 	retl 
    847c:	c4 22 80 00 	st  %g2, [ %o2 ]

00008480 <__ajit_serial_configure_inner__>:
    8480:	05 3f ff cc 	sethi  %hi(0xffff3000), %g2
    8484:	80 a2 60 00 	cmp  %o1, 0
    8488:	12 80 00 03 	bne  8494 <__ajit_serial_configure_inner__+0x14>
    848c:	82 10 a2 40 	or  %g2, 0x240, %g1
    8490:	82 10 a2 00 	or  %g2, 0x200, %g1
    8494:	80 a2 20 00 	cmp  %o0, 0
    8498:	02 80 00 15 	be  84ec <__ajit_serial_configure_inner__+0x6c>
    849c:	01 00 00 00 	nop 
    84a0:	c4 00 40 00 	ld  [ %g1 ], %g2
    84a4:	80 a2 a0 00 	cmp  %o2, 0
    84a8:	02 80 00 03 	be  84b4 <__ajit_serial_configure_inner__+0x34>
    84ac:	86 08 bf fe 	and  %g2, -2, %g3
    84b0:	86 10 a0 01 	or  %g2, 1, %g3
    84b4:	80 a2 e0 00 	cmp  %o3, 0
    84b8:	02 80 00 03 	be  84c4 <__ajit_serial_configure_inner__+0x44>
    84bc:	84 08 ff fd 	and  %g3, -3, %g2
    84c0:	84 10 e0 02 	or  %g3, 2, %g2
    84c4:	80 a3 20 00 	cmp  %o4, 0
    84c8:	02 80 00 03 	be  84d4 <__ajit_serial_configure_inner__+0x54>
    84cc:	86 08 bf fb 	and  %g2, -5, %g3
    84d0:	86 10 a0 04 	or  %g2, 4, %g3
    84d4:	80 a2 20 00 	cmp  %o0, 0
    84d8:	12 80 00 08 	bne  84f8 <__ajit_serial_configure_inner__+0x78>
    84dc:	01 00 00 00 	nop 
    84e0:	c6 a0 44 00 	sta  %g3, [ %g1 ] #ASI_SCRATCHPAD
    84e4:	81 c3 e0 08 	retl 
    84e8:	01 00 00 00 	nop 
    84ec:	c4 80 44 00 	lda  [ %g1 ] #ASI_SCRATCHPAD, %g2
    84f0:	10 bf ff ee 	b  84a8 <__ajit_serial_configure_inner__+0x28>
    84f4:	80 a2 a0 00 	cmp  %o2, 0
    84f8:	81 c3 e0 08 	retl 
    84fc:	c6 20 40 00 	st  %g3, [ %g1 ]

00008500 <__ajit_serial_set_baudrate_inner__>:
    8500:	95 2a a0 04 	sll  %o2, 4, %o2
    8504:	80 a2 80 0b 	cmp  %o2, %o3
    8508:	1a 80 00 06 	bcc  8520 <__ajit_serial_set_baudrate_inner__+0x20>
    850c:	84 10 20 00 	clr  %g2
    8510:	80 a2 a0 00 	cmp  %o2, 0
    8514:	12 80 00 0f 	bne  8550 <__ajit_serial_set_baudrate_inner__+0x50>
    8518:	84 10 00 0b 	mov  %o3, %g2
    851c:	84 10 20 00 	clr  %g2
    8520:	86 10 20 00 	clr  %g3
    8524:	80 a2 60 00 	cmp  %o1, 0
    8528:	02 80 00 25 	be  85bc <__ajit_serial_set_baudrate_inner__+0xbc>
    852c:	09 3f ff cc 	sethi  %hi(0xffff3000), %g4
    8530:	82 11 22 50 	or  %g4, 0x250, %g1	! ffff3250 <CVTBUF+0xfffd2bb8>
    8534:	80 a2 20 00 	cmp  %o0, 0
    8538:	12 80 00 25 	bne  85cc <__ajit_serial_set_baudrate_inner__+0xcc>
    853c:	88 11 22 4c 	or  %g4, 0x24c, %g4
    8540:	c6 a1 04 00 	sta  %g3, [ %g4 ] #ASI_SCRATCHPAD
    8544:	c4 a0 44 00 	sta  %g2, [ %g1 ] #ASI_SCRATCHPAD
    8548:	81 c3 e0 08 	retl 
    854c:	01 00 00 00 	nop 
    8550:	10 80 00 03 	b  855c <__ajit_serial_set_baudrate_inner__+0x5c>
    8554:	82 10 00 0a 	mov  %o2, %g1
    8558:	82 10 00 03 	mov  %g3, %g1
    855c:	81 80 20 00 	mov  %g0, %y
    8560:	01 00 00 00 	nop 
    8564:	01 00 00 00 	nop 
    8568:	01 00 00 00 	nop 
    856c:	86 70 80 01 	udiv  %g2, %g1, %g3
    8570:	86 58 c0 01 	smul  %g3, %g1, %g3
    8574:	86 20 80 03 	sub  %g2, %g3, %g3
    8578:	80 a0 e0 00 	cmp  %g3, 0
    857c:	12 bf ff f7 	bne  8558 <__ajit_serial_set_baudrate_inner__+0x58>
    8580:	84 10 00 01 	mov  %g1, %g2
    8584:	81 80 20 00 	mov  %g0, %y
    8588:	01 00 00 00 	nop 
    858c:	01 00 00 00 	nop 
    8590:	01 00 00 00 	nop 
    8594:	84 72 80 01 	udiv  %o2, %g1, %g2
    8598:	81 80 20 00 	mov  %g0, %y
    859c:	01 00 00 00 	nop 
    85a0:	01 00 00 00 	nop 
    85a4:	01 00 00 00 	nop 
    85a8:	86 72 c0 01 	udiv  %o3, %g1, %g3
    85ac:	09 3f ff cc 	sethi  %hi(0xffff3000), %g4
    85b0:	80 a2 60 00 	cmp  %o1, 0
    85b4:	12 bf ff df 	bne  8530 <__ajit_serial_set_baudrate_inner__+0x30>
    85b8:	86 20 c0 02 	sub  %g3, %g2, %g3
    85bc:	82 11 22 10 	or  %g4, 0x210, %g1
    85c0:	80 a2 20 00 	cmp  %o0, 0
    85c4:	02 bf ff df 	be  8540 <__ajit_serial_set_baudrate_inner__+0x40>
    85c8:	88 11 22 0c 	or  %g4, 0x20c, %g4
    85cc:	c6 21 00 00 	st  %g3, [ %g4 ]
    85d0:	81 c3 e0 08 	retl 
    85d4:	c4 20 40 00 	st  %g2, [ %g1 ]

000085d8 <__ajit_serial_putchar_inner__>:
    85d8:	84 10 00 08 	mov  %o0, %g2
    85dc:	80 a2 60 00 	cmp  %o1, 0
    85e0:	02 80 00 17 	be  863c <__ajit_serial_putchar_inner__+0x64>
    85e4:	03 3f ff cc 	sethi  %hi(0xffff3000), %g1
    85e8:	86 10 62 44 	or  %g1, 0x244, %g3	! ffff3244 <CVTBUF+0xfffd2bac>
    85ec:	82 10 62 40 	or  %g1, 0x240, %g1
    85f0:	80 a0 a0 00 	cmp  %g2, 0
    85f4:	02 80 00 0f 	be  8630 <__ajit_serial_putchar_inner__+0x58>
    85f8:	01 00 00 00 	nop 
    85fc:	c2 00 40 00 	ld  [ %g1 ], %g1
    8600:	80 88 60 01 	btst  1, %g1
    8604:	02 80 00 09 	be  8628 <__ajit_serial_putchar_inner__+0x50>
    8608:	90 10 20 00 	clr  %o0
    860c:	80 88 60 08 	btst  8, %g1
    8610:	12 80 00 06 	bne  8628 <__ajit_serial_putchar_inner__+0x50>
    8614:	80 a0 a0 00 	cmp  %g2, 0
    8618:	32 80 00 0c 	bne,a   8648 <__ajit_serial_putchar_inner__+0x70>
    861c:	d4 28 c0 00 	stb  %o2, [ %g3 ]
    8620:	d4 a8 c4 00 	stba  %o2, [ %g3 ] #ASI_SCRATCHPAD
    8624:	90 10 20 01 	mov  1, %o0
    8628:	81 c3 e0 08 	retl 
    862c:	01 00 00 00 	nop 
    8630:	c2 80 44 00 	lda  [ %g1 ] #ASI_SCRATCHPAD, %g1
    8634:	10 bf ff f4 	b  8604 <__ajit_serial_putchar_inner__+0x2c>
    8638:	80 88 60 01 	btst  1, %g1
    863c:	86 10 62 04 	or  %g1, 0x204, %g3
    8640:	10 bf ff ec 	b  85f0 <__ajit_serial_putchar_inner__+0x18>
    8644:	82 10 62 00 	or  %g1, 0x200, %g1
    8648:	81 c3 e0 08 	retl 
    864c:	90 10 20 01 	mov  1, %o0

00008650 <__ajit_serial_getchar_inner__>:
    8650:	80 a2 60 00 	cmp  %o1, 0
    8654:	02 80 00 0f 	be  8690 <__ajit_serial_getchar_inner__+0x40>
    8658:	03 3f ff cc 	sethi  %hi(0xffff3000), %g1
    865c:	84 10 62 48 	or  %g1, 0x248, %g2	! ffff3248 <CVTBUF+0xfffd2bb0>
    8660:	80 a2 20 00 	cmp  %o0, 0
    8664:	02 80 00 0f 	be  86a0 <__ajit_serial_getchar_inner__+0x50>
    8668:	82 10 62 40 	or  %g1, 0x240, %g1
    866c:	c2 00 40 00 	ld  [ %g1 ], %g1
    8670:	82 08 60 12 	and  %g1, 0x12, %g1
    8674:	80 a0 60 12 	cmp  %g1, 0x12
    8678:	12 80 00 13 	bne  86c4 <__ajit_serial_getchar_inner__+0x74>
    867c:	01 00 00 00 	nop 
    8680:	c2 08 80 00 	ldub  [ %g2 ], %g1
    8684:	90 10 20 01 	mov  1, %o0
    8688:	81 c3 e0 08 	retl 
    868c:	c2 2a 80 00 	stb  %g1, [ %o2 ]
    8690:	84 10 62 08 	or  %g1, 0x208, %g2
    8694:	80 a2 20 00 	cmp  %o0, 0
    8698:	12 bf ff f5 	bne  866c <__ajit_serial_getchar_inner__+0x1c>
    869c:	82 10 62 00 	or  %g1, 0x200, %g1
    86a0:	c2 80 44 00 	lda  [ %g1 ] #ASI_SCRATCHPAD, %g1
    86a4:	82 08 60 12 	and  %g1, 0x12, %g1
    86a8:	80 a0 60 12 	cmp  %g1, 0x12
    86ac:	12 80 00 06 	bne  86c4 <__ajit_serial_getchar_inner__+0x74>
    86b0:	01 00 00 00 	nop 
    86b4:	c4 88 84 00 	lduba  [ %g2 ] #ASI_SCRATCHPAD, %g2
    86b8:	90 10 20 01 	mov  1, %o0
    86bc:	81 c3 e0 08 	retl 
    86c0:	c4 2a 80 00 	stb  %g2, [ %o2 ]
    86c4:	81 c3 e0 08 	retl 
    86c8:	90 10 20 00 	clr  %o0

000086cc <__ajit_serial_puts_inner__>:
    86cc:	9d e3 bf a0 	save  %sp, -96, %sp
    86d0:	80 a6 e0 00 	cmp  %i3, 0
    86d4:	02 80 00 31 	be  8798 <__ajit_serial_puts_inner__+0xcc>
    86d8:	01 00 00 00 	nop 
    86dc:	c2 4e 80 00 	ldsb  [ %i2 ], %g1
    86e0:	80 a0 60 00 	cmp  %g1, 0
    86e4:	02 80 00 1d 	be  8758 <__ajit_serial_puts_inner__+0x8c>
    86e8:	c6 0e 80 00 	ldub  [ %i2 ], %g3
    86ec:	3b 3f ff cc 	sethi  %hi(0xffff3000), %i5
    86f0:	82 06 a0 01 	add  %i2, 1, %g1
    86f4:	9a 17 62 44 	or  %i5, 0x244, %o5
    86f8:	9e 17 62 04 	or  %i5, 0x204, %o7
    86fc:	88 06 80 1b 	add  %i2, %i3, %g4
    8700:	b8 17 62 40 	or  %i5, 0x240, %i4
    8704:	98 10 00 0d 	mov  %o5, %o4
    8708:	ba 17 62 00 	or  %i5, 0x200, %i5
    870c:	b4 10 00 0f 	mov  %o7, %i2
    8710:	80 a6 60 00 	cmp  %i1, 0
    8714:	12 80 00 24 	bne  87a4 <__ajit_serial_puts_inner__+0xd8>
    8718:	80 a6 20 00 	cmp  %i0, 0
    871c:	02 80 00 11 	be  8760 <__ajit_serial_puts_inner__+0x94>
    8720:	01 00 00 00 	nop 
    8724:	c4 07 40 00 	ld  [ %i5 ], %g2
    8728:	b6 08 a0 01 	and  %g2, 1, %i3
    872c:	84 08 a0 08 	and  %g2, 8, %g2
    8730:	80 a6 e0 00 	cmp  %i3, 0
    8734:	02 80 00 1b 	be  87a0 <__ajit_serial_puts_inner__+0xd4>
    8738:	80 a0 a0 00 	cmp  %g2, 0
    873c:	12 bf ff fe 	bne  8734 <__ajit_serial_puts_inner__+0x68>
    8740:	80 a6 e0 00 	cmp  %i3, 0
    8744:	84 10 00 1a 	mov  %i2, %g2
    8748:	c6 2e 80 00 	stb  %g3, [ %i2 ]
    874c:	80 a0 40 04 	cmp  %g1, %g4
    8750:	12 80 00 0e 	bne  8788 <__ajit_serial_puts_inner__+0xbc>
    8754:	82 00 60 01 	inc  %g1
    8758:	81 c7 e0 08 	ret 
    875c:	81 e8 00 00 	restore 
    8760:	c4 87 44 00 	lda  [ %i5 ] #ASI_SCRATCHPAD, %g2
    8764:	80 88 a0 01 	btst  1, %g2
    8768:	02 bf ff fe 	be  8760 <__ajit_serial_puts_inner__+0x94>
    876c:	80 88 a0 08 	btst  8, %g2
    8770:	12 bf ff fc 	bne  8760 <__ajit_serial_puts_inner__+0x94>
    8774:	84 10 00 0f 	mov  %o7, %g2
    8778:	c6 a8 84 00 	stba  %g3, [ %g2 ] #ASI_SCRATCHPAD
    877c:	80 a0 40 04 	cmp  %g1, %g4
    8780:	02 bf ff f6 	be  8758 <__ajit_serial_puts_inner__+0x8c>
    8784:	82 00 60 01 	inc  %g1
    8788:	c4 48 7f ff 	ldsb  [ %g1 + -1 ], %g2
    878c:	80 a0 a0 00 	cmp  %g2, 0
    8790:	12 bf ff e0 	bne  8710 <__ajit_serial_puts_inner__+0x44>
    8794:	c6 08 7f ff 	ldub  [ %g1 + -1 ], %g3
    8798:	81 c7 e0 08 	ret 
    879c:	81 e8 00 00 	restore 
    87a0:	30 80 00 00 	b,a   87a0 <__ajit_serial_puts_inner__+0xd4>
    87a4:	02 80 00 0d 	be  87d8 <__ajit_serial_puts_inner__+0x10c>
    87a8:	01 00 00 00 	nop 
    87ac:	c4 07 00 00 	ld  [ %i4 ], %g2
    87b0:	b6 08 a0 01 	and  %g2, 1, %i3
    87b4:	84 08 a0 08 	and  %g2, 8, %g2
    87b8:	80 a6 e0 00 	cmp  %i3, 0
    87bc:	02 80 00 0e 	be  87f4 <__ajit_serial_puts_inner__+0x128>
    87c0:	80 a0 a0 00 	cmp  %g2, 0
    87c4:	12 bf ff fe 	bne  87bc <__ajit_serial_puts_inner__+0xf0>
    87c8:	80 a6 e0 00 	cmp  %i3, 0
    87cc:	84 10 00 0c 	mov  %o4, %g2
    87d0:	10 bf ff df 	b  874c <__ajit_serial_puts_inner__+0x80>
    87d4:	c6 28 80 00 	stb  %g3, [ %g2 ]
    87d8:	c4 87 04 00 	lda  [ %i4 ] #ASI_SCRATCHPAD, %g2
    87dc:	80 88 a0 01 	btst  1, %g2
    87e0:	02 bf ff fe 	be  87d8 <__ajit_serial_puts_inner__+0x10c>
    87e4:	80 88 a0 08 	btst  8, %g2
    87e8:	12 bf ff fc 	bne  87d8 <__ajit_serial_puts_inner__+0x10c>
    87ec:	84 10 00 0d 	mov  %o5, %g2
    87f0:	30 bf ff e2 	b,a   8778 <__ajit_serial_puts_inner__+0xac>
    87f4:	30 80 00 00 	b,a   87f4 <__ajit_serial_puts_inner__+0x128>

000087f8 <__ajit_serial_gets_inner__>:
    87f8:	9d e3 bf a0 	save  %sp, -96, %sp
    87fc:	84 10 20 00 	clr  %g2
    8800:	9a 06 ff ff 	add  %i3, -1, %o5
    8804:	80 a6 e0 01 	cmp  %i3, 1
    8808:	02 80 00 19 	be  886c <__ajit_serial_gets_inner__+0x74>
    880c:	86 10 20 00 	clr  %g3
    8810:	09 3f ff cc 	sethi  %hi(0xffff3000), %g4
    8814:	80 a6 60 00 	cmp  %i1, 0
    8818:	9e 11 22 08 	or  %g4, 0x208, %o7
    881c:	b8 11 22 48 	or  %g4, 0x248, %i4
    8820:	ba 11 22 00 	or  %g4, 0x200, %i5
    8824:	96 10 00 0f 	mov  %o7, %o3
    8828:	88 11 22 40 	or  %g4, 0x240, %g4
    882c:	12 80 00 26 	bne  88c4 <__ajit_serial_gets_inner__+0xcc>
    8830:	98 10 00 1c 	mov  %i4, %o4
    8834:	80 a6 20 00 	cmp  %i0, 0
    8838:	02 80 00 11 	be  887c <__ajit_serial_gets_inner__+0x84>
    883c:	01 00 00 00 	nop 
    8840:	c2 07 40 00 	ld  [ %i5 ], %g1
    8844:	82 08 60 12 	and  %g1, 0x12, %g1
    8848:	80 a0 60 12 	cmp  %g1, 0x12
    884c:	12 80 00 2e 	bne  8904 <__ajit_serial_gets_inner__+0x10c>
    8850:	82 10 00 0b 	mov  %o3, %g1
    8854:	c2 08 40 00 	ldub  [ %g1 ], %g1
    8858:	c2 2e 80 02 	stb  %g1, [ %i2 + %g2 ]
    885c:	83 28 60 18 	sll  %g1, 0x18, %g1
    8860:	80 a0 60 00 	cmp  %g1, 0
    8864:	32 80 00 12 	bne,a   88ac <__ajit_serial_gets_inner__+0xb4>
    8868:	86 00 e0 01 	inc  %g3
    886c:	b6 06 80 1b 	add  %i2, %i3, %i3
    8870:	c0 2e ff ff 	clrb  [ %i3 + -1 ]
    8874:	81 c7 e0 08 	ret 
    8878:	81 e8 00 00 	restore 
    887c:	c2 87 44 00 	lda  [ %i5 ] #ASI_SCRATCHPAD, %g1
    8880:	82 08 60 12 	and  %g1, 0x12, %g1
    8884:	80 a0 60 12 	cmp  %g1, 0x12
    8888:	12 bf ff fd 	bne  887c <__ajit_serial_gets_inner__+0x84>
    888c:	82 10 00 0f 	mov  %o7, %g1
    8890:	c2 88 44 00 	lduba  [ %g1 ] #ASI_SCRATCHPAD, %g1
    8894:	c2 2e 80 02 	stb  %g1, [ %i2 + %g2 ]
    8898:	83 28 60 18 	sll  %g1, 0x18, %g1
    889c:	80 a0 60 00 	cmp  %g1, 0
    88a0:	22 bf ff f4 	be,a   8870 <__ajit_serial_gets_inner__+0x78>
    88a4:	b6 06 80 1b 	add  %i2, %i3, %i3
    88a8:	86 00 e0 01 	inc  %g3
    88ac:	80 a0 c0 0d 	cmp  %g3, %o5
    88b0:	02 bf ff ef 	be  886c <__ajit_serial_gets_inner__+0x74>
    88b4:	84 10 00 03 	mov  %g3, %g2
    88b8:	80 a6 60 00 	cmp  %i1, 0
    88bc:	02 bf ff df 	be  8838 <__ajit_serial_gets_inner__+0x40>
    88c0:	80 a6 20 00 	cmp  %i0, 0
    88c4:	80 a6 20 00 	cmp  %i0, 0
    88c8:	02 80 00 09 	be  88ec <__ajit_serial_gets_inner__+0xf4>
    88cc:	01 00 00 00 	nop 
    88d0:	c2 01 00 00 	ld  [ %g4 ], %g1
    88d4:	82 08 60 12 	and  %g1, 0x12, %g1
    88d8:	80 a0 60 12 	cmp  %g1, 0x12
    88dc:	12 80 00 0b 	bne  8908 <__ajit_serial_gets_inner__+0x110>
    88e0:	82 10 00 0c 	mov  %o4, %g1
    88e4:	10 bf ff dd 	b  8858 <__ajit_serial_gets_inner__+0x60>
    88e8:	c2 08 40 00 	ldub  [ %g1 ], %g1
    88ec:	c2 81 04 00 	lda  [ %g4 ] #ASI_SCRATCHPAD, %g1
    88f0:	82 08 60 12 	and  %g1, 0x12, %g1
    88f4:	80 a0 60 12 	cmp  %g1, 0x12
    88f8:	12 bf ff fd 	bne  88ec <__ajit_serial_gets_inner__+0xf4>
    88fc:	82 10 00 1c 	mov  %i4, %g1
    8900:	30 bf ff e4 	b,a   8890 <__ajit_serial_gets_inner__+0x98>
    8904:	30 80 00 00 	b,a   8904 <__ajit_serial_gets_inner__+0x10c>
    8908:	30 80 00 00 	b,a   8908 <__ajit_serial_gets_inner__+0x110>

0000890c <__ajit_serial_set_uart_reset_inner__>:
    890c:	05 3f ff cc 	sethi  %hi(0xffff3000), %g2
    8910:	80 a2 60 00 	cmp  %o1, 0
    8914:	12 80 00 03 	bne  8920 <__ajit_serial_set_uart_reset_inner__+0x14>
    8918:	82 10 a2 40 	or  %g2, 0x240, %g1
    891c:	82 10 a2 00 	or  %g2, 0x200, %g1
    8920:	80 a2 20 00 	cmp  %o0, 0
    8924:	02 80 00 0d 	be  8958 <__ajit_serial_set_uart_reset_inner__+0x4c>
    8928:	01 00 00 00 	nop 
    892c:	c6 00 40 00 	ld  [ %g1 ], %g3
    8930:	80 a2 a0 00 	cmp  %o2, 0
    8934:	12 80 00 03 	bne  8940 <__ajit_serial_set_uart_reset_inner__+0x34>
    8938:	84 10 e0 20 	or  %g3, 0x20, %g2
    893c:	84 08 ff df 	and  %g3, -33, %g2
    8940:	80 a2 20 00 	cmp  %o0, 0
    8944:	12 80 00 08 	bne  8964 <__ajit_serial_set_uart_reset_inner__+0x58>
    8948:	01 00 00 00 	nop 
    894c:	c4 a0 44 00 	sta  %g2, [ %g1 ] #ASI_SCRATCHPAD
    8950:	81 c3 e0 08 	retl 
    8954:	01 00 00 00 	nop 
    8958:	c6 80 44 00 	lda  [ %g1 ] #ASI_SCRATCHPAD, %g3
    895c:	10 bf ff f6 	b  8934 <__ajit_serial_set_uart_reset_inner__+0x28>
    8960:	80 a2 a0 00 	cmp  %o2, 0
    8964:	81 c3 e0 08 	retl 
    8968:	c4 20 40 00 	st  %g2, [ %g1 ]

0000896c <__ajit_write_irc_control_register_via_bypass__>:
    896c:	03 3f ff cc 	sethi  %hi(0xffff3000), %g1
    8970:	d0 a0 44 00 	sta  %o0, [ %g1 ] #ASI_SCRATCHPAD
    8974:	81 c3 e0 08 	retl 
    8978:	01 00 00 00 	nop 

0000897c <__ajit_read_irc_control_register_via_bypass__>:
    897c:	11 3f ff cc 	sethi  %hi(0xffff3000), %o0
    8980:	d0 82 04 00 	lda  [ %o0 ] #ASI_SCRATCHPAD, %o0
    8984:	81 c3 e0 08 	retl 
    8988:	01 00 00 00 	nop 

0000898c <__ajit_write_irc_control_register_via_vmap__>:
    898c:	03 3f ff cc 	sethi  %hi(0xffff3000), %g1
    8990:	81 c3 e0 08 	retl 
    8994:	d0 20 40 00 	st  %o0, [ %g1 ]

00008998 <__ajit_read_irc_control_register_via_vmap__>:
    8998:	03 3f ff cc 	sethi  %hi(0xffff3000), %g1
    899c:	81 c3 e0 08 	retl 
    89a0:	d0 00 40 00 	ld  [ %g1 ], %o0

000089a4 <__ajit_write_spi_master_register_via_bypass__>:
    89a4:	91 2a 20 02 	sll  %o0, 2, %o0
    89a8:	03 3f ff cc 	sethi  %hi(0xffff3000), %g1
    89ac:	82 10 63 00 	or  %g1, 0x300, %g1	! ffff3300 <CVTBUF+0xfffd2c68>
    89b0:	90 02 00 01 	add  %o0, %g1, %o0
    89b4:	d2 a2 04 00 	sta  %o1, [ %o0 ] #ASI_SCRATCHPAD
    89b8:	81 c3 e0 08 	retl 
    89bc:	01 00 00 00 	nop 

000089c0 <__ajit_write_spi_master_register_via_vmap__>:
    89c0:	91 2a 20 02 	sll  %o0, 2, %o0
    89c4:	03 3f ff cc 	sethi  %hi(0xffff3000), %g1
    89c8:	82 10 63 00 	or  %g1, 0x300, %g1	! ffff3300 <CVTBUF+0xfffd2c68>
    89cc:	81 c3 e0 08 	retl 
    89d0:	d2 2a 00 01 	stb  %o1, [ %o0 + %g1 ]

000089d4 <__ajit_read_spi_master_register_via_bypass__>:
    89d4:	91 2a 20 02 	sll  %o0, 2, %o0
    89d8:	03 3f ff cc 	sethi  %hi(0xffff3000), %g1
    89dc:	82 10 63 00 	or  %g1, 0x300, %g1	! ffff3300 <CVTBUF+0xfffd2c68>
    89e0:	90 02 00 01 	add  %o0, %g1, %o0
    89e4:	d0 82 04 00 	lda  [ %o0 ] #ASI_SCRATCHPAD, %o0
    89e8:	81 c3 e0 08 	retl 
    89ec:	90 0a 20 ff 	and  %o0, 0xff, %o0

000089f0 <__ajit_read_spi_master_register_via_vmap__>:
    89f0:	91 2a 20 02 	sll  %o0, 2, %o0
    89f4:	03 3f ff cc 	sethi  %hi(0xffff3000), %g1
    89f8:	82 10 63 00 	or  %g1, 0x300, %g1	! ffff3300 <CVTBUF+0xfffd2c68>
    89fc:	81 c3 e0 08 	retl 
    8a00:	d0 0a 00 01 	ldub  [ %o0 + %g1 ], %o0

00008a04 <__ajit_do_spi_transfer_via_bypass__>:
    8a04:	07 3f ff cc 	sethi  %hi(0xffff3000), %g3
    8a08:	82 10 e3 00 	or  %g3, 0x300, %g1	! ffff3300 <CVTBUF+0xfffd2c68>
    8a0c:	d2 a0 44 00 	sta  %o1, [ %g1 ] #ASI_SCRATCHPAD
    8a10:	82 0a 20 07 	and  %o0, 7, %g1
    8a14:	94 0a a0 01 	and  %o2, 1, %o2
    8a18:	83 28 60 03 	sll  %g1, 3, %g1
    8a1c:	94 02 80 0a 	add  %o2, %o2, %o2
    8a20:	82 10 60 01 	or  %g1, 1, %g1
    8a24:	86 10 e3 08 	or  %g3, 0x308, %g3
    8a28:	94 12 80 01 	or  %o2, %g1, %o2
    8a2c:	d4 a0 c4 00 	sta  %o2, [ %g3 ] #ASI_SCRATCHPAD
    8a30:	10 80 00 04 	b  8a40 <__ajit_do_spi_transfer_via_bypass__+0x3c>
    8a34:	03 00 00 08 	sethi  %hi(0x2000), %g1
    8a38:	02 80 00 07 	be  8a54 <__ajit_do_spi_transfer_via_bypass__+0x50>
    8a3c:	11 3f ff cc 	sethi  %hi(0xffff3000), %o0
    8a40:	c4 80 c4 00 	lda  [ %g3 ] #ASI_SCRATCHPAD, %g2
    8a44:	80 88 a0 01 	btst  1, %g2
    8a48:	32 bf ff fc 	bne,a   8a38 <__ajit_do_spi_transfer_via_bypass__+0x34>
    8a4c:	82 80 7f ff 	addcc  %g1, -1, %g1
    8a50:	11 3f ff cc 	sethi  %hi(0xffff3000), %o0
    8a54:	90 12 23 00 	or  %o0, 0x300, %o0	! ffff3300 <CVTBUF+0xfffd2c68>
    8a58:	d0 82 04 00 	lda  [ %o0 ] #ASI_SCRATCHPAD, %o0
    8a5c:	81 c3 e0 08 	retl 
    8a60:	90 0a 20 ff 	and  %o0, 0xff, %o0

00008a64 <__ajit_do_spi_transfer_via_vmap__>:
    8a64:	03 3f ff cc 	sethi  %hi(0xffff3000), %g1
    8a68:	90 0a 20 07 	and  %o0, 7, %o0
    8a6c:	84 10 63 00 	or  %g1, 0x300, %g2
    8a70:	91 2a 20 03 	sll  %o0, 3, %o0
    8a74:	d2 20 80 00 	st  %o1, [ %g2 ]
    8a78:	90 12 20 01 	or  %o0, 1, %o0
    8a7c:	82 10 63 08 	or  %g1, 0x308, %g1
    8a80:	94 0a a0 01 	and  %o2, 1, %o2
    8a84:	94 02 80 0a 	add  %o2, %o2, %o2
    8a88:	94 12 80 08 	or  %o2, %o0, %o2
    8a8c:	90 10 00 09 	mov  %o1, %o0
    8a90:	81 c3 e0 08 	retl 
    8a94:	d4 20 40 00 	st  %o2, [ %g1 ]

00008a98 <__ajit_configure_spi_master_via_bypass___>:
    8a98:	90 0a 20 0f 	and  %o0, 0xf, %o0
    8a9c:	03 3f ff cc 	sethi  %hi(0xffff3000), %g1
    8aa0:	90 12 20 10 	or  %o0, 0x10, %o0
    8aa4:	82 10 63 0c 	or  %g1, 0x30c, %g1
    8aa8:	d0 a0 44 00 	sta  %o0, [ %g1 ] #ASI_SCRATCHPAD
    8aac:	81 c3 e0 08 	retl 
    8ab0:	90 10 20 00 	clr  %o0

00008ab4 <__ajit_configure_spi_master_via_vmap___>:
    8ab4:	90 0a 20 0f 	and  %o0, 0xf, %o0
    8ab8:	03 3f ff cc 	sethi  %hi(0xffff3000), %g1
    8abc:	84 12 20 10 	or  %o0, 0x10, %g2
    8ac0:	82 10 63 0c 	or  %g1, 0x30c, %g1
    8ac4:	90 10 20 00 	clr  %o0
    8ac8:	81 c3 e0 08 	retl 
    8acc:	c4 20 40 00 	st  %g2, [ %g1 ]

00008ad0 <__ajit_do_spi_transfer_inner__>:
    8ad0:	96 0a e0 01 	and  %o3, 1, %o3
    8ad4:	92 0a 60 07 	and  %o1, 7, %o1
    8ad8:	96 02 c0 0b 	add  %o3, %o3, %o3
    8adc:	83 2a 60 03 	sll  %o1, 3, %g1
    8ae0:	80 a2 20 00 	cmp  %o0, 0
    8ae4:	82 10 60 01 	or  %g1, 1, %g1
    8ae8:	02 80 00 0b 	be  8b14 <__ajit_do_spi_transfer_inner__+0x44>
    8aec:	82 12 c0 01 	or  %o3, %g1, %g1
    8af0:	05 3f ff cc 	sethi  %hi(0xffff3000), %g2
    8af4:	86 10 a3 00 	or  %g2, 0x300, %g3	! ffff3300 <CVTBUF+0xfffd2c68>
    8af8:	d4 20 c0 00 	st  %o2, [ %g3 ]
    8afc:	82 08 60 ff 	and  %g1, 0xff, %g1
    8b00:	84 10 a3 08 	or  %g2, 0x308, %g2
    8b04:	90 10 00 0a 	mov  %o2, %o0
    8b08:	c2 20 80 00 	st  %g1, [ %g2 ]
    8b0c:	81 c3 e0 08 	retl 
    8b10:	90 0a 20 ff 	and  %o0, 0xff, %o0
    8b14:	07 3f ff cc 	sethi  %hi(0xffff3000), %g3
    8b18:	84 10 e3 00 	or  %g3, 0x300, %g2	! ffff3300 <CVTBUF+0xfffd2c68>
    8b1c:	d4 a0 84 00 	sta  %o2, [ %g2 ] #ASI_SCRATCHPAD
    8b20:	86 10 e3 08 	or  %g3, 0x308, %g3
    8b24:	c2 a0 c4 00 	sta  %g1, [ %g3 ] #ASI_SCRATCHPAD
    8b28:	10 80 00 04 	b  8b38 <__ajit_do_spi_transfer_inner__+0x68>
    8b2c:	03 00 00 08 	sethi  %hi(0x2000), %g1
    8b30:	02 80 00 07 	be  8b4c <__ajit_do_spi_transfer_inner__+0x7c>
    8b34:	15 3f ff cc 	sethi  %hi(0xffff3000), %o2
    8b38:	c4 80 c4 00 	lda  [ %g3 ] #ASI_SCRATCHPAD, %g2
    8b3c:	80 88 a0 01 	btst  1, %g2
    8b40:	32 bf ff fc 	bne,a   8b30 <__ajit_do_spi_transfer_inner__+0x60>
    8b44:	82 80 7f ff 	addcc  %g1, -1, %g1
    8b48:	15 3f ff cc 	sethi  %hi(0xffff3000), %o2
    8b4c:	94 12 a3 00 	or  %o2, 0x300, %o2	! ffff3300 <CVTBUF+0xfffd2c68>
    8b50:	d0 82 84 00 	lda  [ %o2 ] #ASI_SCRATCHPAD, %o0
    8b54:	81 c3 e0 08 	retl 
    8b58:	90 0a 20 ff 	and  %o0, 0xff, %o0

00008b5c <__ajit_gpio_xfer__>:
    8b5c:	09 3f ff cc 	sethi  %hi(0xffff3000), %g4
    8b60:	82 11 23 00 	or  %g4, 0x300, %g1	! ffff3300 <CVTBUF+0xfffd2c68>
    8b64:	d2 a0 44 00 	sta  %o1, [ %g1 ] #ASI_SCRATCHPAD
    8b68:	90 0a 20 07 	and  %o0, 7, %o0
    8b6c:	88 11 23 08 	or  %g4, 0x308, %g4
    8b70:	91 2a 20 03 	sll  %o0, 3, %o0
    8b74:	90 12 20 03 	or  %o0, 3, %o0
    8b78:	d0 a1 04 00 	sta  %o0, [ %g4 ] #ASI_SCRATCHPAD
    8b7c:	82 10 21 00 	mov  0x100, %g1
    8b80:	c4 81 04 00 	lda  [ %g4 ] #ASI_SCRATCHPAD, %g2
    8b84:	82 00 7f ff 	add  %g1, -1, %g1
    8b88:	87 38 60 1f 	sra  %g1, 0x1f, %g3
    8b8c:	86 20 c0 01 	sub  %g3, %g1, %g3
    8b90:	87 30 e0 1f 	srl  %g3, 0x1f, %g3
    8b94:	80 88 c0 02 	btst  %g3, %g2
    8b98:	12 bf ff fa 	bne  8b80 <__ajit_gpio_xfer__+0x24>
    8b9c:	11 3f ff cc 	sethi  %hi(0xffff3000), %o0
    8ba0:	90 12 23 00 	or  %o0, 0x300, %o0	! ffff3300 <CVTBUF+0xfffd2c68>
    8ba4:	d0 82 04 00 	lda  [ %o0 ] #ASI_SCRATCHPAD, %o0
    8ba8:	81 c3 e0 08 	retl 
    8bac:	90 0a 20 ff 	and  %o0, 0xff, %o0

00008bb0 <__ajit_read_gpio_32_via_vmap__>:
    8bb0:	03 3f ff cd 	sethi  %hi(0xffff3400), %g1
    8bb4:	82 10 60 04 	or  %g1, 4, %g1	! ffff3404 <CVTBUF+0xfffd2d6c>
    8bb8:	81 c3 e0 08 	retl 
    8bbc:	d0 00 40 00 	ld  [ %g1 ], %o0

00008bc0 <__ajit_write_gpio_32_via_vmap__>:
    8bc0:	03 3f ff cd 	sethi  %hi(0xffff3400), %g1
    8bc4:	81 c3 e0 08 	retl 
    8bc8:	d0 20 40 00 	st  %o0, [ %g1 ]

00008bcc <__ajit_read_gpio_32_via_bypass__>:
    8bcc:	11 3f ff cd 	sethi  %hi(0xffff3400), %o0
    8bd0:	90 12 20 04 	or  %o0, 4, %o0	! ffff3404 <CVTBUF+0xfffd2d6c>
    8bd4:	d0 82 04 00 	lda  [ %o0 ] #ASI_SCRATCHPAD, %o0
    8bd8:	81 c3 e0 08 	retl 
    8bdc:	01 00 00 00 	nop 

00008be0 <__ajit_write_gpio_32_via_bypass__>:
    8be0:	03 3f ff cd 	sethi  %hi(0xffff3400), %g1
    8be4:	d0 a0 44 00 	sta  %o0, [ %g1 ] #ASI_SCRATCHPAD
    8be8:	81 c3 e0 08 	retl 
    8bec:	01 00 00 00 	nop 

00008bf0 <__ajit_init_thread_performance_counters>:
    8bf0:	c0 22 80 00 	clr  [ %o2 ]
    8bf4:	c0 22 a0 04 	clr  [ %o2 + 4 ]
    8bf8:	c0 22 a0 08 	clr  [ %o2 + 8 ]
    8bfc:	c0 22 a0 0c 	clr  [ %o2 + 0xc ]
    8c00:	c0 22 a0 10 	clr  [ %o2 + 0x10 ]
    8c04:	c0 22 a0 14 	clr  [ %o2 + 0x14 ]
    8c08:	c0 22 a0 18 	clr  [ %o2 + 0x18 ]
    8c0c:	c0 22 a0 1c 	clr  [ %o2 + 0x1c ]
    8c10:	c0 22 a0 20 	clr  [ %o2 + 0x20 ]
    8c14:	c0 22 a0 24 	clr  [ %o2 + 0x24 ]
    8c18:	c0 22 a0 28 	clr  [ %o2 + 0x28 ]
    8c1c:	c0 22 a0 2c 	clr  [ %o2 + 0x2c ]
    8c20:	c0 22 a0 30 	clr  [ %o2 + 0x30 ]
    8c24:	c0 22 a0 34 	clr  [ %o2 + 0x34 ]
    8c28:	c0 22 a0 38 	clr  [ %o2 + 0x38 ]
    8c2c:	c0 22 a0 3c 	clr  [ %o2 + 0x3c ]
    8c30:	c0 22 a0 40 	clr  [ %o2 + 0x40 ]
    8c34:	c0 22 a0 44 	clr  [ %o2 + 0x44 ]
    8c38:	c0 22 a0 48 	clr  [ %o2 + 0x48 ]
    8c3c:	81 c3 e0 08 	retl 
    8c40:	c0 22 a0 4c 	clr  [ %o2 + 0x4c ]

00008c44 <__ajit_sample_thread_performance_counters>:
    8c44:	9d e3 bf a0 	save  %sp, -96, %sp
    8c48:	b0 06 00 18 	add  %i0, %i0, %i0
    8c4c:	b2 06 00 19 	add  %i0, %i1, %i1
    8c50:	ae 10 20 00 	clr  %l7
    8c54:	ba 10 20 00 	clr  %i5
    8c58:	03 00 3f ff 	sethi  %hi(0xfffc00), %g1
    8c5c:	82 10 63 40 	or  %g1, 0x340, %g1	! ffff40 <CVTBUF+0xfdf8a8>
    8c60:	82 06 40 01 	add  %i1, %g1, %g1
    8c64:	b2 10 20 00 	clr  %i1
    8c68:	83 28 60 08 	sll  %g1, 8, %g1
    8c6c:	e0 00 60 04 	ld  [ %g1 + 4 ], %l0
    8c70:	ec 00 40 00 	ld  [ %g1 ], %l6
    8c74:	f8 00 60 08 	ld  [ %g1 + 8 ], %i4
    8c78:	d0 00 60 0c 	ld  [ %g1 + 0xc ], %o0
    8c7c:	f0 00 60 10 	ld  [ %g1 + 0x10 ], %i0
    8c80:	d4 00 60 14 	ld  [ %g1 + 0x14 ], %o2
    8c84:	d8 00 60 1c 	ld  [ %g1 + 0x1c ], %o4
    8c88:	e8 00 60 24 	ld  [ %g1 + 0x24 ], %l4
    8c8c:	e4 00 60 2c 	ld  [ %g1 + 0x2c ], %l2
    8c90:	c4 00 60 34 	ld  [ %g1 + 0x34 ], %g2
    8c94:	a2 10 00 10 	mov  %l0, %l1
    8c98:	92 10 00 08 	mov  %o0, %o1
    8c9c:	a2 14 40 17 	or  %l1, %l7, %l1
    8ca0:	92 17 40 09 	or  %i5, %o1, %o1
    8ca4:	96 10 00 0a 	mov  %o2, %o3
    8ca8:	ba 10 20 00 	clr  %i5
    8cac:	96 16 40 0b 	or  %i1, %o3, %o3
    8cb0:	ae 10 20 00 	clr  %l7
    8cb4:	b2 10 20 00 	clr  %i1
    8cb8:	a0 10 20 00 	clr  %l0
    8cbc:	90 10 20 00 	clr  %o0
    8cc0:	a0 14 00 16 	or  %l0, %l6, %l0
    8cc4:	90 17 00 08 	or  %i4, %o0, %o0
    8cc8:	ec 00 60 20 	ld  [ %g1 + 0x20 ], %l6
    8ccc:	f8 00 60 18 	ld  [ %g1 + 0x18 ], %i4
    8cd0:	94 10 20 00 	clr  %o2
    8cd4:	94 16 00 0a 	or  %i0, %o2, %o2
    8cd8:	f0 00 60 28 	ld  [ %g1 + 0x28 ], %i0
    8cdc:	a6 10 00 12 	mov  %l2, %l3
    8ce0:	86 10 00 02 	mov  %g2, %g3
    8ce4:	9a 10 00 0c 	mov  %o4, %o5
    8ce8:	aa 10 00 14 	mov  %l4, %l5
    8cec:	9a 17 40 0d 	or  %i5, %o5, %o5
    8cf0:	aa 15 c0 15 	or  %l7, %l5, %l5
    8cf4:	a4 10 20 00 	clr  %l2
    8cf8:	ae 16 40 13 	or  %i1, %l3, %l7
    8cfc:	84 10 20 00 	clr  %g2
    8d00:	ba 10 20 00 	clr  %i5
    8d04:	98 10 20 00 	clr  %o4
    8d08:	b2 17 40 03 	or  %i5, %g3, %i1
    8d0c:	98 17 00 0c 	or  %i4, %o4, %o4
    8d10:	a8 10 20 00 	clr  %l4
    8d14:	f8 00 60 30 	ld  [ %g1 + 0x30 ], %i4
    8d18:	a8 15 80 14 	or  %l6, %l4, %l4
    8d1c:	ac 16 00 12 	or  %i0, %l2, %l6
    8d20:	b0 17 00 02 	or  %i4, %g2, %i0
    8d24:	f6 00 60 3c 	ld  [ %g1 + 0x3c ], %i3
    8d28:	de 00 60 44 	ld  [ %g1 + 0x44 ], %o7
    8d2c:	c8 00 60 4c 	ld  [ %g1 + 0x4c ], %g4
    8d30:	f8 00 60 40 	ld  [ %g1 + 0x40 ], %i4
    8d34:	f0 3e a0 30 	std  %i0, [ %i2 + 0x30 ]
    8d38:	f0 00 60 38 	ld  [ %g1 + 0x38 ], %i0
    8d3c:	b2 10 20 00 	clr  %i1
    8d40:	c4 00 60 48 	ld  [ %g1 + 0x48 ], %g2
    8d44:	a6 16 40 1b 	or  %i1, %i3, %l3
    8d48:	a4 10 20 00 	clr  %l2
    8d4c:	ba 10 20 00 	clr  %i5
    8d50:	a4 16 00 12 	or  %i0, %l2, %l2
    8d54:	b2 17 40 0f 	or  %i5, %o7, %i1
    8d58:	b0 10 20 00 	clr  %i0
    8d5c:	86 10 20 00 	clr  %g3
    8d60:	b0 17 00 18 	or  %i4, %i0, %i0
    8d64:	86 10 c0 04 	or  %g3, %g4, %g3
    8d68:	b8 10 20 00 	clr  %i4
    8d6c:	e0 3e 80 00 	std  %l0, [ %i2 ]
    8d70:	84 10 80 1c 	or  %g2, %i4, %g2
    8d74:	d0 3e a0 08 	std  %o0, [ %i2 + 8 ]
    8d78:	d4 3e a0 10 	std  %o2, [ %i2 + 0x10 ]
    8d7c:	d8 3e a0 18 	std  %o4, [ %i2 + 0x18 ]
    8d80:	e8 3e a0 20 	std  %l4, [ %i2 + 0x20 ]
    8d84:	ec 3e a0 28 	std  %l6, [ %i2 + 0x28 ]
    8d88:	e4 3e a0 38 	std  %l2, [ %i2 + 0x38 ]
    8d8c:	f0 3e a0 40 	std  %i0, [ %i2 + 0x40 ]
    8d90:	c4 3e a0 48 	std  %g2, [ %i2 + 0x48 ]
    8d94:	81 c7 e0 08 	ret 
    8d98:	81 e8 00 00 	restore 

00008d9c <__ajit_ta_0__>:
    8d9c:	91 d0 20 00 	ta  0
    8da0:	01 00 00 00 	nop 
    8da4:	01 00 00 00 	nop 
    8da8:	81 c3 e0 08 	retl 
    8dac:	01 00 00 00 	nop 

00008db0 <__ajit_fsqrtd__>:
    8db0:	c1 1a 00 00 	ldd  [ %o0 ], %f0
    8db4:	85 a0 05 40 	fsqrtd  %f0, %f2
    8db8:	c5 3a 40 00 	std  %f2, [ %o1 ]
    8dbc:	81 c3 e0 08 	retl 
    8dc0:	01 00 00 00 	nop 

00008dc4 <__ajit_fsqrts__>:
    8dc4:	c1 02 00 00 	ld  [ %o0 ], %f0
    8dc8:	83 a0 05 20 	fsqrts  %f0, %f1
    8dcc:	c3 22 40 00 	st  %f1, [ %o1 ]
    8dd0:	81 c3 e0 08 	retl 
    8dd4:	01 00 00 00 	nop 

00008dd8 <__ajit_fitod__>:
    8dd8:	c1 02 00 00 	ld  [ %o0 ], %f0
    8ddc:	85 a0 19 00 	fitod  %f0, %f2
    8de0:	c5 3a 40 00 	std  %f2, [ %o1 ]
    8de4:	81 c3 e0 08 	retl 
    8de8:	01 00 00 00 	nop 

00008dec <__ajit_fitos__>:
    8dec:	c1 02 00 00 	ld  [ %o0 ], %f0
    8df0:	83 a0 18 80 	fitos  %f0, %f1
    8df4:	c3 22 40 00 	st  %f1, [ %o1 ]
    8df8:	81 c3 e0 08 	retl 
    8dfc:	01 00 00 00 	nop 

00008e00 <__ajit_fdtoi__>:
    8e00:	c1 1a 00 00 	ldd  [ %o0 ], %f0
    8e04:	85 a0 1a 40 	fdtoi  %f0, %f2
    8e08:	c5 22 40 00 	st  %f2, [ %o1 ]
    8e0c:	81 c3 e0 08 	retl 
    8e10:	01 00 00 00 	nop 

00008e14 <__ajit_fstoi__>:
    8e14:	c1 02 00 00 	ld  [ %o0 ], %f0
    8e18:	83 a0 1a 20 	fstoi  %f0, %f1
    8e1c:	c3 22 40 00 	st  %f1, [ %o1 ]
    8e20:	81 c3 e0 08 	retl 
    8e24:	01 00 00 00 	nop 

00008e28 <barebones_clock>:
    8e28:	9d e3 bf a0 	save  %sp, -96, %sp
    8e2c:	7f ff fb 1e 	call  7aa4 <__ajit_read_cycle_count_register_high__>
    8e30:	01 00 00 00 	nop 
    8e34:	7f ff fb 1f 	call  7ab0 <__ajit_read_cycle_count_register_low__>
    8e38:	b0 10 00 08 	mov  %o0, %i0
    8e3c:	b1 2e 20 18 	sll  %i0, 0x18, %i0
    8e40:	91 32 20 08 	srl  %o0, 8, %o0
    8e44:	b0 12 00 18 	or  %o0, %i0, %i0
    8e48:	81 c7 e0 08 	ret 
    8e4c:	81 e8 00 00 	restore 

00008e50 <start_time>:
    8e50:	9d e3 bf a0 	save  %sp, -96, %sp
    8e54:	7f ff fb 14 	call  7aa4 <__ajit_read_cycle_count_register_high__>
    8e58:	01 00 00 00 	nop 
    8e5c:	7f ff fb 15 	call  7ab0 <__ajit_read_cycle_count_register_low__>
    8e60:	ba 10 00 08 	mov  %o0, %i5
    8e64:	bb 2f 60 18 	sll  %i5, 0x18, %i5
    8e68:	91 32 20 08 	srl  %o0, 8, %o0
    8e6c:	03 00 00 81 	sethi  %hi(0x20400), %g1
    8e70:	ba 12 00 1d 	or  %o0, %i5, %i5
    8e74:	fa 20 62 90 	st  %i5, [ %g1 + 0x290 ]
    8e78:	81 c7 e0 08 	ret 
    8e7c:	81 e8 00 00 	restore 

00008e80 <stop_time>:
    8e80:	9d e3 bf a0 	save  %sp, -96, %sp
    8e84:	7f ff fb 08 	call  7aa4 <__ajit_read_cycle_count_register_high__>
    8e88:	01 00 00 00 	nop 
    8e8c:	7f ff fb 09 	call  7ab0 <__ajit_read_cycle_count_register_low__>
    8e90:	ba 10 00 08 	mov  %o0, %i5
    8e94:	bb 2f 60 18 	sll  %i5, 0x18, %i5
    8e98:	91 32 20 08 	srl  %o0, 8, %o0
    8e9c:	03 00 00 81 	sethi  %hi(0x20400), %g1
    8ea0:	ba 12 00 1d 	or  %o0, %i5, %i5
    8ea4:	fa 20 62 94 	st  %i5, [ %g1 + 0x294 ]
    8ea8:	81 c7 e0 08 	ret 
    8eac:	81 e8 00 00 	restore 

00008eb0 <get_time>:
    8eb0:	03 00 00 81 	sethi  %hi(0x20400), %g1
    8eb4:	d0 00 62 94 	ld  [ %g1 + 0x294 ], %o0	! 20694 <stop_time_val>
    8eb8:	03 00 00 81 	sethi  %hi(0x20400), %g1
    8ebc:	c2 00 62 90 	ld  [ %g1 + 0x290 ], %g1	! 20690 <start_time_val>
    8ec0:	81 c3 e0 08 	retl 
    8ec4:	90 22 00 01 	sub  %o0, %g1, %o0

00008ec8 <time_in_secs>:
    8ec8:	03 00 01 7d 	sethi  %hi(0x5f400), %g1
    8ecc:	82 10 61 e1 	or  %g1, 0x1e1, %g1	! 5f5e1 <CVTBUF+0x3ef49>
    8ed0:	81 80 20 00 	mov  %g0, %y
    8ed4:	01 00 00 00 	nop 
    8ed8:	01 00 00 00 	nop 
    8edc:	01 00 00 00 	nop 
    8ee0:	90 72 00 01 	udiv  %o0, %g1, %o0
    8ee4:	81 c3 e0 08 	retl 
    8ee8:	01 00 00 00 	nop 

00008eec <portable_init>:
    8eec:	9d e3 bf a0 	save  %sp, -96, %sp
    8ef0:	94 10 20 00 	clr  %o2
    8ef4:	90 10 20 01 	mov  1, %o0
    8ef8:	7f ff fb e1 	call  7e7c <__ajit_serial_configure_via_bypass__>
    8efc:	92 10 20 00 	clr  %o1
    8f00:	13 01 31 2d 	sethi  %hi(0x4c4b400), %o1
    8f04:	11 00 00 70 	sethi  %hi(0x1c000), %o0
    8f08:	7f ff fb f1 	call  7ecc <__ajit_serial_set_baudrate_via_bypass__>
    8f0c:	90 12 22 00 	or  %o0, 0x200, %o0	! 1c200 <check_data_types+0x11344>
    8f10:	7f ff fc 1e 	call  7f88 <__ajit_serial_set_uart_reset_via_bypass__>
    8f14:	90 10 20 00 	clr  %o0
    8f18:	92 10 20 0d 	mov  0xd, %o1
    8f1c:	11 00 00 81 	sethi  %hi(0x20400), %o0
    8f20:	7f ff fc 3f 	call  801c <__ajit_serial_puts_via_bypass__>
    8f24:	90 12 22 00 	or  %o0, 0x200, %o0	! 20600 <state_known_crc+0x5ec>
    8f28:	03 00 00 81 	sethi  %hi(0x20400), %g1
    8f2c:	c0 20 62 8c 	clr  [ %g1 + 0x28c ]	! 2068c <seed1_volatile>
    8f30:	03 00 00 81 	sethi  %hi(0x20400), %g1
    8f34:	c0 20 62 88 	clr  [ %g1 + 0x288 ]	! 20688 <seed2_volatile>
    8f38:	84 10 20 66 	mov  0x66, %g2
    8f3c:	03 00 00 81 	sethi  %hi(0x20400), %g1
    8f40:	c4 20 62 84 	st  %g2, [ %g1 + 0x284 ]	! 20684 <seed3_volatile>
    8f44:	03 00 00 81 	sethi  %hi(0x20400), %g1
    8f48:	84 10 27 d0 	mov  0x7d0, %g2
    8f4c:	c4 20 62 80 	st  %g2, [ %g1 + 0x280 ]
    8f50:	03 00 00 81 	sethi  %hi(0x20400), %g1
    8f54:	c0 20 62 7c 	clr  [ %g1 + 0x27c ]	! 2067c <seed5_volatile>
    8f58:	82 10 20 01 	mov  1, %g1
    8f5c:	c2 2e 00 00 	stb  %g1, [ %i0 ]
    8f60:	81 c7 e0 08 	ret 
    8f64:	81 e8 00 00 	restore 

00008f68 <portable_fini>:
    8f68:	9d e3 bf a0 	save  %sp, -96, %sp
    8f6c:	92 10 20 0e 	mov  0xe, %o1
    8f70:	11 00 00 81 	sethi  %hi(0x20400), %o0
    8f74:	7f ff fc 2a 	call  801c <__ajit_serial_puts_via_bypass__>
    8f78:	90 12 22 10 	or  %o0, 0x210, %o0	! 20610 <state_known_crc+0x5fc>
    8f7c:	c0 2e 00 00 	clrb  [ %i0 ]
    8f80:	81 c7 e0 08 	ret 
    8f84:	81 e8 00 00 	restore 

00008f88 <cvt>:
    8f88:	9d e3 bf 90 	save  %sp, -112, %sp
    8f8c:	f0 3f bf f8 	std  %i0, [ %fp + -8 ]
    8f90:	da 07 a0 5c 	ld  [ %fp + 0x5c ], %o5
    8f94:	d5 1f bf f8 	ldd  [ %fp + -8 ], %f10
    8f98:	80 a6 a0 00 	cmp  %i2, 0
    8f9c:	06 80 00 05 	bl  8fb0 <cvt+0x28>
    8fa0:	9e 10 20 00 	clr  %o7
    8fa4:	80 a6 a0 4e 	cmp  %i2, 0x4e
    8fa8:	04 80 00 be 	ble  92a0 <cvt+0x318>
    8fac:	9e 10 20 4e 	mov  0x4e, %o7
    8fb0:	05 00 00 80 	sethi  %hi(0x20000), %g2
    8fb4:	d1 18 a0 78 	ldd  [ %g2 + 0x78 ], %f8	! 20078 <state_known_crc+0x64>
    8fb8:	81 aa 8a c8 	fcmped  %f10, %f8
    8fbc:	01 00 00 00 	nop 
    8fc0:	09 80 00 b2 	fbl  9288 <cvt+0x300>
    8fc4:	82 10 20 01 	mov  1, %g1	! 1 <_start+0x1>
    8fc8:	c0 27 00 00 	clr  [ %i4 ]
    8fcc:	91 a0 1a 4a 	fdtoi  %f10, %f8
    8fd0:	d9 18 a0 78 	ldd  [ %g2 + 0x78 ], %f12
    8fd4:	91 a0 19 08 	fitod  %f8, %f8
    8fd8:	81 aa 0a 4c 	fcmpd  %f8, %f12
    8fdc:	01 00 00 00 	nop 
    8fe0:	13 80 00 8a 	fbe  9208 <cvt+0x280>
    8fe4:	95 a2 88 c8 	fsubd  %f10, %f8, %f10
    8fe8:	05 00 00 81 	sethi  %hi(0x20400), %g2
    8fec:	b2 07 60 50 	add  %i5, 0x50, %i1
    8ff0:	07 00 00 81 	sethi  %hi(0x20400), %g3
    8ff4:	e5 18 a2 28 	ldd  [ %g2 + 0x228 ], %f18
    8ff8:	82 10 00 19 	mov  %i1, %g1
    8ffc:	05 00 00 80 	sethi  %hi(0x20000), %g2
    9000:	88 10 20 00 	clr  %g4
    9004:	dd 18 e2 20 	ldd  [ %g3 + 0x220 ], %f14
    9008:	e1 18 a0 78 	ldd  [ %g2 + 0x78 ], %f16
    900c:	99 a2 09 ce 	fdivd  %f8, %f14, %f12
    9010:	91 a0 1a 4c 	fdtoi  %f12, %f8
    9014:	91 a0 19 08 	fitod  %f8, %f8
    9018:	99 a3 08 c8 	fsubd  %f12, %f8, %f12
    901c:	99 a3 08 52 	faddd  %f12, %f18, %f12
    9020:	99 a3 09 4e 	fmuld  %f12, %f14, %f12
    9024:	99 a0 1a 4c 	fdtoi  %f12, %f12
    9028:	d9 27 bf f4 	st  %f12, [ %fp + -12 ]
    902c:	82 00 7f ff 	add  %g1, -1, %g1
    9030:	c4 07 bf f4 	ld  [ %fp + -12 ], %g2
    9034:	86 00 a0 30 	add  %g2, 0x30, %g3
    9038:	c6 28 40 00 	stb  %g3, [ %g1 ]
    903c:	81 aa 0a 50 	fcmpd  %f8, %f16
    9040:	01 00 00 00 	nop 
    9044:	03 bf ff f2 	fbne  900c <cvt+0x84>
    9048:	88 01 20 01 	inc  %g4
    904c:	80 a6 40 01 	cmp  %i1, %g1
    9050:	08 80 00 2f 	bleu  910c <cvt+0x184>
    9054:	84 10 00 1d 	mov  %i5, %g2
    9058:	84 00 60 04 	add  %g1, 4, %g2
    905c:	80 a7 40 02 	cmp  %i5, %g2
    9060:	84 07 60 04 	add  %i5, 4, %g2
    9064:	b8 60 3f ff 	subx  %g0, -1, %i4
    9068:	80 a0 40 02 	cmp  %g1, %g2
    906c:	86 60 3f ff 	subx  %g0, -1, %g3
    9070:	96 27 40 01 	sub  %i5, %g1, %o3
    9074:	b8 17 00 03 	or  %i4, %g3, %i4
    9078:	96 02 e0 50 	add  %o3, 0x50, %o3
    907c:	84 10 00 01 	mov  %g1, %g2
    9080:	b1 32 e0 02 	srl  %o3, 2, %i0
    9084:	86 10 20 01 	mov  1, %g3
    9088:	80 a2 e0 03 	cmp  %o3, 3
    908c:	18 80 00 03 	bgu  9098 <cvt+0x110>
    9090:	99 2e 20 02 	sll  %i0, 2, %o4
    9094:	86 10 20 00 	clr  %g3
    9098:	b4 10 40 1d 	or  %g1, %i5, %i2
    909c:	b4 0e a0 03 	and  %i2, 3, %i2
    90a0:	80 a0 00 1a 	cmp  %g0, %i2
    90a4:	86 0f 00 03 	and  %i4, %g3, %g3
    90a8:	b8 60 3f ff 	subx  %g0, -1, %i4
    90ac:	80 88 c0 1c 	btst  %g3, %i4
    90b0:	02 80 00 a5 	be  9344 <cvt+0x3bc>
    90b4:	80 a3 20 00 	cmp  %o4, 0
    90b8:	02 80 00 a3 	be  9344 <cvt+0x3bc>
    90bc:	b8 10 20 00 	clr  %i4
    90c0:	86 10 20 00 	clr  %g3
    90c4:	f4 00 40 03 	ld  [ %g1 + %g3 ], %i2
    90c8:	f4 27 40 03 	st  %i2, [ %i5 + %g3 ]
    90cc:	b8 07 20 01 	inc  %i4
    90d0:	80 a6 00 1c 	cmp  %i0, %i4
    90d4:	18 bf ff fc 	bgu  90c4 <cvt+0x13c>
    90d8:	86 00 e0 04 	add  %g3, 4, %g3
    90dc:	86 07 40 0c 	add  %i5, %o4, %g3
    90e0:	80 a2 c0 0c 	cmp  %o3, %o4
    90e4:	02 80 00 08 	be  9104 <cvt+0x17c>
    90e8:	82 00 40 0c 	add  %g1, %o4, %g1
    90ec:	f8 08 40 00 	ldub  [ %g1 ], %i4
    90f0:	f8 28 c0 00 	stb  %i4, [ %g3 ]
    90f4:	82 00 60 01 	inc  %g1
    90f8:	80 a6 40 01 	cmp  %i1, %g1
    90fc:	18 bf ff fc 	bgu  90ec <cvt+0x164>
    9100:	86 00 e0 01 	inc  %g3
    9104:	84 26 40 02 	sub  %i1, %g2, %g2
    9108:	84 07 40 02 	add  %i5, %g2, %g2
    910c:	80 a3 60 00 	cmp  %o5, 0
    9110:	12 80 00 03 	bne  911c <cvt+0x194>
    9114:	82 07 40 0f 	add  %i5, %o7, %g1
    9118:	82 00 40 04 	add  %g1, %g4, %g1
    911c:	80 a0 40 1d 	cmp  %g1, %i5
    9120:	0a 80 00 57 	bcs  927c <cvt+0x2f4>
    9124:	c8 26 c0 00 	st  %g4, [ %i3 ]
    9128:	80 a0 80 01 	cmp  %g2, %g1
    912c:	18 80 00 17 	bgu  9188 <cvt+0x200>
    9130:	88 07 60 50 	add  %i5, 0x50, %g4
    9134:	07 00 00 81 	sethi  %hi(0x20400), %g3
    9138:	80 a0 80 04 	cmp  %g2, %g4
    913c:	1a 80 00 13 	bcc  9188 <cvt+0x200>
    9140:	86 10 e2 20 	or  %g3, 0x220, %g3
    9144:	10 80 00 05 	b  9158 <cvt+0x1d0>
    9148:	d9 18 c0 00 	ldd  [ %g3 ], %f12
    914c:	80 a0 80 04 	cmp  %g2, %g4
    9150:	02 80 00 0f 	be  918c <cvt+0x204>
    9154:	80 a0 40 04 	cmp  %g1, %g4
    9158:	95 a2 89 4c 	fmuld  %f10, %f12, %f10
    915c:	91 a0 1a 4a 	fdtoi  %f10, %f8
    9160:	91 a0 19 08 	fitod  %f8, %f8
    9164:	9d a0 1a 48 	fdtoi  %f8, %f14
    9168:	dd 27 bf f4 	st  %f14, [ %fp + -12 ]
    916c:	c6 07 bf f4 	ld  [ %fp + -12 ], %g3
    9170:	86 00 e0 30 	add  %g3, 0x30, %g3
    9174:	c6 28 80 00 	stb  %g3, [ %g2 ]
    9178:	84 00 a0 01 	inc  %g2
    917c:	80 a0 40 02 	cmp  %g1, %g2
    9180:	1a bf ff f3 	bcc  914c <cvt+0x1c4>
    9184:	95 a2 88 c8 	fsubd  %f10, %f8, %f10
    9188:	80 a0 40 04 	cmp  %g1, %g4
    918c:	1a 80 00 42 	bcc  9294 <cvt+0x30c>
    9190:	80 a3 60 00 	cmp  %o5, 0
    9194:	c6 08 40 00 	ldub  [ %g1 ], %g3
    9198:	86 00 e0 05 	add  %g3, 5, %g3
    919c:	c6 28 40 00 	stb  %g3, [ %g1 ]
    91a0:	02 80 00 42 	be  92a8 <cvt+0x320>
    91a4:	84 10 00 01 	mov  %g1, %g2
    91a8:	b8 10 20 30 	mov  0x30, %i4
    91ac:	88 10 20 31 	mov  0x31, %g4
    91b0:	87 28 e0 18 	sll  %g3, 0x18, %g3
    91b4:	87 38 e0 18 	sra  %g3, 0x18, %g3
    91b8:	80 a0 e0 39 	cmp  %g3, 0x39
    91bc:	24 80 00 10 	ble,a   91fc <cvt+0x274>
    91c0:	84 10 00 01 	mov  %g1, %g2
    91c4:	80 a7 40 02 	cmp  %i5, %g2
    91c8:	2a 80 00 5a 	bcs,a   9330 <cvt+0x3a8>
    91cc:	c6 08 bf ff 	ldub  [ %g2 + -1 ], %g3
    91d0:	c8 28 80 00 	stb  %g4, [ %g2 ]
    91d4:	c6 06 c0 00 	ld  [ %i3 ], %g3
    91d8:	86 00 e0 01 	inc  %g3
    91dc:	c6 26 c0 00 	st  %g3, [ %i3 ]
    91e0:	c6 08 80 00 	ldub  [ %g2 ], %g3
    91e4:	87 28 e0 18 	sll  %g3, 0x18, %g3
    91e8:	87 38 e0 18 	sra  %g3, 0x18, %g3
    91ec:	80 a0 e0 39 	cmp  %g3, 0x39
    91f0:	14 bf ff f6 	bg  91c8 <cvt+0x240>
    91f4:	80 a7 40 02 	cmp  %i5, %g2
    91f8:	84 10 00 01 	mov  %g1, %g2
    91fc:	c0 28 80 00 	clrb  [ %g2 ]
    9200:	81 c7 e0 08 	ret 
    9204:	91 e8 00 1d 	restore  %g0, %i5, %o0
    9208:	81 aa 8a cc 	fcmped  %f10, %f12
    920c:	01 00 00 00 	nop 
    9210:	1d 80 00 45 	fbule  9324 <cvt+0x39c>
    9214:	01 00 00 00 	nop 
    9218:	07 00 00 81 	sethi  %hi(0x20400), %g3
    921c:	03 00 00 81 	sethi  %hi(0x20400), %g1
    9220:	d9 18 e2 20 	ldd  [ %g3 + 0x220 ], %f12
    9224:	d1 18 62 30 	ldd  [ %g1 + 0x230 ], %f8
    9228:	99 a2 89 4c 	fmuld  %f10, %f12, %f12
    922c:	88 10 20 00 	clr  %g4
    9230:	e1 18 e2 20 	ldd  [ %g3 + 0x220 ], %f16
    9234:	9d a0 00 28 	fmovs  %f8, %f14
    9238:	81 ab 0a c8 	fcmped  %f12, %f8
    923c:	01 00 00 00 	nop 
    9240:	09 80 00 06 	fbl  9258 <cvt+0x2d0>
    9244:	9f a0 00 29 	fmovs  %f9, %f15
    9248:	10 bf ff b1 	b  910c <cvt+0x184>
    924c:	84 10 00 1d 	mov  %i5, %g2
    9250:	99 a0 00 28 	fmovs  %f8, %f12
    9254:	9b a0 00 29 	fmovs  %f9, %f13
    9258:	91 a3 09 50 	fmuld  %f12, %f16, %f8
    925c:	81 aa 0a ce 	fcmped  %f8, %f14
    9260:	01 00 00 00 	nop 
    9264:	09 bf ff fb 	fbl  9250 <cvt+0x2c8>
    9268:	88 01 3f ff 	add  %g4, -1, %g4
    926c:	84 10 00 1d 	mov  %i5, %g2
    9270:	95 a0 00 2c 	fmovs  %f12, %f10
    9274:	10 bf ff a6 	b  910c <cvt+0x184>
    9278:	97 a0 00 2d 	fmovs  %f13, %f11
    927c:	c0 2f 40 00 	clrb  [ %i5 ]
    9280:	81 c7 e0 08 	ret 
    9284:	91 e8 00 1d 	restore  %g0, %i5, %o0
    9288:	95 a0 00 aa 	fnegs  %f10, %f10
    928c:	10 bf ff 50 	b  8fcc <cvt+0x44>
    9290:	c2 27 00 00 	st  %g1, [ %i4 ]
    9294:	c0 2f 60 4f 	clrb  [ %i5 + 0x4f ]
    9298:	81 c7 e0 08 	ret 
    929c:	91 e8 00 1d 	restore  %g0, %i5, %o0
    92a0:	10 bf ff 44 	b  8fb0 <cvt+0x28>
    92a4:	9e 10 00 1a 	mov  %i2, %o7
    92a8:	88 10 20 30 	mov  0x30, %g4
    92ac:	b8 10 20 31 	mov  0x31, %i4
    92b0:	87 28 e0 18 	sll  %g3, 0x18, %g3
    92b4:	87 38 e0 18 	sra  %g3, 0x18, %g3
    92b8:	80 a0 e0 39 	cmp  %g3, 0x39
    92bc:	04 bf ff d0 	ble  91fc <cvt+0x274>
    92c0:	80 a0 40 1d 	cmp  %g1, %i5
    92c4:	28 80 00 0f 	bleu,a   9300 <cvt+0x378>
    92c8:	f8 28 40 00 	stb  %i4, [ %g1 ]
    92cc:	c6 08 7f ff 	ldub  [ %g1 + -1 ], %g3
    92d0:	c8 28 40 00 	stb  %g4, [ %g1 ]
    92d4:	86 00 e0 01 	inc  %g3
    92d8:	c6 28 7f ff 	stb  %g3, [ %g1 + -1 ]
    92dc:	87 28 e0 18 	sll  %g3, 0x18, %g3
    92e0:	87 38 e0 18 	sra  %g3, 0x18, %g3
    92e4:	80 a0 e0 39 	cmp  %g3, 0x39
    92e8:	04 bf ff c5 	ble  91fc <cvt+0x274>
    92ec:	82 00 7f ff 	add  %g1, -1, %g1
    92f0:	80 a0 40 1d 	cmp  %g1, %i5
    92f4:	38 bf ff f7 	bgu,a   92d0 <cvt+0x348>
    92f8:	c6 08 7f ff 	ldub  [ %g1 + -1 ], %g3
    92fc:	f8 28 40 00 	stb  %i4, [ %g1 ]
    9300:	c6 06 c0 00 	ld  [ %i3 ], %g3
    9304:	86 00 e0 01 	inc  %g3
    9308:	80 a0 80 1d 	cmp  %g2, %i5
    930c:	08 80 00 03 	bleu  9318 <cvt+0x390>
    9310:	c6 26 c0 00 	st  %g3, [ %i3 ]
    9314:	c8 28 80 00 	stb  %g4, [ %g2 ]
    9318:	84 00 a0 01 	inc  %g2
    931c:	10 bf ff e5 	b  92b0 <cvt+0x328>
    9320:	c6 08 40 00 	ldub  [ %g1 ], %g3
    9324:	84 10 00 1d 	mov  %i5, %g2
    9328:	10 bf ff 79 	b  910c <cvt+0x184>
    932c:	88 10 20 00 	clr  %g4
    9330:	f8 28 80 00 	stb  %i4, [ %g2 ]
    9334:	86 00 e0 01 	inc  %g3
    9338:	c6 28 bf ff 	stb  %g3, [ %g2 + -1 ]
    933c:	10 bf ff 9d 	b  91b0 <cvt+0x228>
    9340:	84 00 bf ff 	add  %g2, -1, %g2
    9344:	10 bf ff 6a 	b  90ec <cvt+0x164>
    9348:	86 10 00 1d 	mov  %i5, %g3

0000934c <__modf>:
    934c:	9c 03 bf b0 	add  %sp, -80, %sp
    9350:	d0 3b a0 48 	std  %o0, [ %sp + 0x48 ]
    9354:	c1 1b a0 48 	ldd  [ %sp + 0x48 ], %f0
    9358:	9c 23 bf b0 	sub  %sp, -80, %sp
    935c:	91 a0 1a 40 	fdtoi  %f0, %f8
    9360:	91 a0 19 08 	fitod  %f8, %f8
    9364:	81 a0 08 c8 	fsubd  %f0, %f8, %f0
    9368:	81 c3 e0 08 	retl 
    936c:	d1 3a 80 00 	std  %f8, [ %o2 ]

00009370 <ecvt>:
    9370:	9d e3 bf 98 	save  %sp, -104, %sp
    9374:	82 10 20 01 	mov  1, %g1
    9378:	90 10 00 18 	mov  %i0, %o0
    937c:	92 10 00 19 	mov  %i1, %o1
    9380:	c2 23 a0 5c 	st  %g1, [ %sp + 0x5c ]
    9384:	94 10 00 1a 	mov  %i2, %o2
    9388:	96 10 00 1b 	mov  %i3, %o3
    938c:	98 10 00 1c 	mov  %i4, %o4
    9390:	1b 00 00 81 	sethi  %hi(0x20400), %o5
    9394:	7f ff fe fd 	call  8f88 <cvt>
    9398:	9a 13 62 98 	or  %o5, 0x298, %o5	! 20698 <CVTBUF>
    939c:	81 c7 e0 08 	ret 
    93a0:	91 e8 00 08 	restore  %g0, %o0, %o0

000093a4 <ecvtbuf>:
    93a4:	9d e3 bf 98 	save  %sp, -104, %sp
    93a8:	82 10 20 01 	mov  1, %g1
    93ac:	90 10 00 18 	mov  %i0, %o0
    93b0:	92 10 00 19 	mov  %i1, %o1
    93b4:	c2 23 a0 5c 	st  %g1, [ %sp + 0x5c ]
    93b8:	94 10 00 1a 	mov  %i2, %o2
    93bc:	96 10 00 1b 	mov  %i3, %o3
    93c0:	98 10 00 1c 	mov  %i4, %o4
    93c4:	7f ff fe f1 	call  8f88 <cvt>
    93c8:	9a 10 00 1d 	mov  %i5, %o5
    93cc:	81 c7 e0 08 	ret 
    93d0:	91 e8 00 08 	restore  %g0, %o0, %o0

000093d4 <fcvt>:
    93d4:	9d e3 bf 98 	save  %sp, -104, %sp
    93d8:	1b 00 00 81 	sethi  %hi(0x20400), %o5
    93dc:	c0 23 a0 5c 	clr  [ %sp + 0x5c ]
    93e0:	90 10 00 18 	mov  %i0, %o0
    93e4:	92 10 00 19 	mov  %i1, %o1
    93e8:	94 10 00 1a 	mov  %i2, %o2
    93ec:	96 10 00 1b 	mov  %i3, %o3
    93f0:	98 10 00 1c 	mov  %i4, %o4
    93f4:	7f ff fe e5 	call  8f88 <cvt>
    93f8:	9a 13 62 98 	or  %o5, 0x298, %o5
    93fc:	81 c7 e0 08 	ret 
    9400:	91 e8 00 08 	restore  %g0, %o0, %o0

00009404 <fcvtbuf>:
    9404:	9d e3 bf 98 	save  %sp, -104, %sp
    9408:	c0 23 a0 5c 	clr  [ %sp + 0x5c ]
    940c:	90 10 00 18 	mov  %i0, %o0
    9410:	92 10 00 19 	mov  %i1, %o1
    9414:	94 10 00 1a 	mov  %i2, %o2
    9418:	96 10 00 1b 	mov  %i3, %o3
    941c:	98 10 00 1c 	mov  %i4, %o4
    9420:	7f ff fe da 	call  8f88 <cvt>
    9424:	9a 10 00 1d 	mov  %i5, %o5
    9428:	81 c7 e0 08 	ret 
    942c:	91 e8 00 08 	restore  %g0, %o0, %o0
    9430:	00 00 94 54 	unimp  0x9454
    9434:	00 00 94 80 	unimp  0x9480
    9438:	00 00 94 90 	unimp  0x9490
    943c:	00 00 94 a0 	unimp  0x94a0
    9440:	00 00 94 b0 	unimp  0x94b0
    9444:	00 00 94 70 	unimp  0x9470

00009448 <get_seed_32>:
    9448:	80 a2 20 05 	cmp  %o0, 5
    944c:	28 80 00 04 	bleu,a   945c <get_seed_32+0x14>
    9450:	91 2a 20 02 	sll  %o0, 2, %o0
    9454:	81 c3 e0 08 	retl 
    9458:	90 10 20 00 	clr  %o0
    945c:	03 00 00 25 	sethi  %hi(0x9400), %g1
    9460:	82 10 60 30 	or  %g1, 0x30, %g1	! 9430 <fcvtbuf+0x2c>
    9464:	c2 00 40 08 	ld  [ %g1 + %o0 ], %g1
    9468:	81 c0 40 00 	jmp  %g1
    946c:	01 00 00 00 	nop 
    9470:	03 00 00 81 	sethi  %hi(0x20400), %g1
    9474:	d0 00 62 7c 	ld  [ %g1 + 0x27c ], %o0	! 2067c <seed5_volatile>
    9478:	81 c3 e0 08 	retl 
    947c:	01 00 00 00 	nop 
    9480:	03 00 00 81 	sethi  %hi(0x20400), %g1
    9484:	d0 00 62 8c 	ld  [ %g1 + 0x28c ], %o0	! 2068c <seed1_volatile>
    9488:	81 c3 e0 08 	retl 
    948c:	01 00 00 00 	nop 
    9490:	03 00 00 81 	sethi  %hi(0x20400), %g1
    9494:	d0 00 62 88 	ld  [ %g1 + 0x288 ], %o0	! 20688 <seed2_volatile>
    9498:	81 c3 e0 08 	retl 
    949c:	01 00 00 00 	nop 
    94a0:	03 00 00 81 	sethi  %hi(0x20400), %g1
    94a4:	d0 00 62 84 	ld  [ %g1 + 0x284 ], %o0	! 20684 <seed3_volatile>
    94a8:	81 c3 e0 08 	retl 
    94ac:	01 00 00 00 	nop 
    94b0:	03 00 00 81 	sethi  %hi(0x20400), %g1
    94b4:	d0 00 62 80 	ld  [ %g1 + 0x280 ], %o0	! 20680 <seed4_volatile>
    94b8:	81 c3 e0 08 	retl 
    94bc:	01 00 00 00 	nop 

000094c0 <crcu8>:
    94c0:	86 1a 00 09 	xor  %o0, %o1, %g3
    94c4:	1b 00 00 10 	sethi  %hi(0x4000), %o5
    94c8:	09 00 00 20 	sethi  %hi(0x8000), %g4
    94cc:	9a 13 60 02 	or  %o5, 2, %o5
    94d0:	85 32 20 01 	srl  %o0, 1, %g2
    94d4:	9a 1a 40 0d 	xor  %o1, %o5, %o5
    94d8:	83 32 60 01 	srl  %o1, 1, %g1
    94dc:	9b 33 60 01 	srl  %o5, 1, %o5
    94e0:	80 88 e0 01 	btst  1, %g3
    94e4:	12 80 00 5f 	bne  9660 <crcu8+0x1a0>
    94e8:	88 13 40 04 	or  %o5, %g4, %g4
    94ec:	1b 00 00 10 	sethi  %hi(0x4000), %o5
    94f0:	9a 13 60 02 	or  %o5, 2, %o5	! 4002 <ee_printf+0x886>
    94f4:	83 28 60 10 	sll  %g1, 0x10, %g1
    94f8:	87 30 60 10 	srl  %g1, 0x10, %g3
    94fc:	83 30 60 11 	srl  %g1, 0x11, %g1
    9500:	88 18 80 03 	xor  %g2, %g3, %g4
    9504:	86 18 c0 0d 	xor  %g3, %o5, %g3
    9508:	85 30 a0 01 	srl  %g2, 1, %g2
    950c:	87 30 e0 01 	srl  %g3, 1, %g3
    9510:	1b 00 00 20 	sethi  %hi(0x8000), %o5
    9514:	80 89 20 01 	btst  1, %g4
    9518:	12 80 00 60 	bne  9698 <crcu8+0x1d8>
    951c:	86 10 c0 0d 	or  %g3, %o5, %g3
    9520:	1b 00 00 10 	sethi  %hi(0x4000), %o5
    9524:	9a 13 60 02 	or  %o5, 2, %o5	! 4002 <ee_printf+0x886>
    9528:	83 28 60 10 	sll  %g1, 0x10, %g1
    952c:	87 30 60 10 	srl  %g1, 0x10, %g3
    9530:	83 30 60 11 	srl  %g1, 0x11, %g1
    9534:	88 18 80 03 	xor  %g2, %g3, %g4
    9538:	86 18 c0 0d 	xor  %g3, %o5, %g3
    953c:	85 30 a0 01 	srl  %g2, 1, %g2
    9540:	87 30 e0 01 	srl  %g3, 1, %g3
    9544:	1b 00 00 20 	sethi  %hi(0x8000), %o5
    9548:	80 89 20 01 	btst  1, %g4
    954c:	12 80 00 61 	bne  96d0 <crcu8+0x210>
    9550:	86 10 c0 0d 	or  %g3, %o5, %g3
    9554:	1b 00 00 10 	sethi  %hi(0x4000), %o5
    9558:	9a 13 60 02 	or  %o5, 2, %o5	! 4002 <ee_printf+0x886>
    955c:	83 28 60 10 	sll  %g1, 0x10, %g1
    9560:	87 30 60 10 	srl  %g1, 0x10, %g3
    9564:	83 30 60 11 	srl  %g1, 0x11, %g1
    9568:	88 18 80 03 	xor  %g2, %g3, %g4
    956c:	86 18 c0 0d 	xor  %g3, %o5, %g3
    9570:	85 30 a0 01 	srl  %g2, 1, %g2
    9574:	87 30 e0 01 	srl  %g3, 1, %g3
    9578:	1b 00 00 20 	sethi  %hi(0x8000), %o5
    957c:	80 89 20 01 	btst  1, %g4
    9580:	12 80 00 62 	bne  9708 <crcu8+0x248>
    9584:	86 10 c0 0d 	or  %g3, %o5, %g3
    9588:	1b 00 00 10 	sethi  %hi(0x4000), %o5
    958c:	9a 13 60 02 	or  %o5, 2, %o5	! 4002 <ee_printf+0x886>
    9590:	83 28 60 10 	sll  %g1, 0x10, %g1
    9594:	87 30 60 10 	srl  %g1, 0x10, %g3
    9598:	83 30 60 11 	srl  %g1, 0x11, %g1
    959c:	88 18 80 03 	xor  %g2, %g3, %g4
    95a0:	86 18 c0 0d 	xor  %g3, %o5, %g3
    95a4:	85 30 a0 01 	srl  %g2, 1, %g2
    95a8:	87 30 e0 01 	srl  %g3, 1, %g3
    95ac:	1b 00 00 20 	sethi  %hi(0x8000), %o5
    95b0:	80 89 20 01 	btst  1, %g4
    95b4:	12 80 00 63 	bne  9740 <crcu8+0x280>
    95b8:	86 10 c0 0d 	or  %g3, %o5, %g3
    95bc:	1b 00 00 10 	sethi  %hi(0x4000), %o5
    95c0:	9a 13 60 02 	or  %o5, 2, %o5	! 4002 <ee_printf+0x886>
    95c4:	83 28 60 10 	sll  %g1, 0x10, %g1
    95c8:	87 30 60 10 	srl  %g1, 0x10, %g3
    95cc:	83 30 60 11 	srl  %g1, 0x11, %g1
    95d0:	88 18 80 03 	xor  %g2, %g3, %g4
    95d4:	86 18 c0 0d 	xor  %g3, %o5, %g3
    95d8:	85 30 a0 01 	srl  %g2, 1, %g2
    95dc:	87 30 e0 01 	srl  %g3, 1, %g3
    95e0:	1b 00 00 20 	sethi  %hi(0x8000), %o5
    95e4:	80 89 20 01 	btst  1, %g4
    95e8:	12 80 00 64 	bne  9778 <crcu8+0x2b8>
    95ec:	86 10 c0 0d 	or  %g3, %o5, %g3
    95f0:	1b 00 00 10 	sethi  %hi(0x4000), %o5
    95f4:	9a 13 60 02 	or  %o5, 2, %o5	! 4002 <ee_printf+0x886>
    95f8:	83 28 60 10 	sll  %g1, 0x10, %g1
    95fc:	87 30 60 10 	srl  %g1, 0x10, %g3
    9600:	83 30 60 11 	srl  %g1, 0x11, %g1
    9604:	88 18 80 03 	xor  %g2, %g3, %g4
    9608:	86 18 c0 0d 	xor  %g3, %o5, %g3
    960c:	80 89 20 01 	btst  1, %g4
    9610:	87 30 e0 01 	srl  %g3, 1, %g3
    9614:	1b 00 00 20 	sethi  %hi(0x8000), %o5
    9618:	12 80 00 65 	bne  97ac <crcu8+0x2ec>
    961c:	86 10 c0 0d 	or  %g3, %o5, %g3
    9620:	09 00 00 10 	sethi  %hi(0x4000), %g4
    9624:	88 11 20 02 	or  %g4, 2, %g4	! 4002 <ee_printf+0x886>
    9628:	83 28 60 10 	sll  %g1, 0x10, %g1
    962c:	9b 30 a0 01 	srl  %g2, 1, %o5
    9630:	07 00 00 20 	sethi  %hi(0x8000), %g3
    9634:	85 30 60 10 	srl  %g1, 0x10, %g2
    9638:	83 30 60 11 	srl  %g1, 0x11, %g1
    963c:	98 08 a0 01 	and  %g2, 1, %o4
    9640:	84 18 80 04 	xor  %g2, %g4, %g2
    9644:	80 a3 00 0d 	cmp  %o4, %o5
    9648:	89 30 a0 01 	srl  %g2, 1, %g4
    964c:	12 80 00 66 	bne  97e4 <crcu8+0x324>
    9650:	86 11 00 03 	or  %g4, %g3, %g3
    9654:	91 28 60 10 	sll  %g1, 0x10, %o0
    9658:	81 c3 e0 08 	retl 
    965c:	91 32 20 10 	srl  %o0, 0x10, %o0
    9660:	1b 00 00 10 	sethi  %hi(0x4000), %o5
    9664:	9a 13 60 02 	or  %o5, 2, %o5	! 4002 <ee_printf+0x886>
    9668:	82 10 00 04 	mov  %g4, %g1
    966c:	83 28 60 10 	sll  %g1, 0x10, %g1
    9670:	87 30 60 10 	srl  %g1, 0x10, %g3
    9674:	83 30 60 11 	srl  %g1, 0x11, %g1
    9678:	88 18 80 03 	xor  %g2, %g3, %g4
    967c:	86 18 c0 0d 	xor  %g3, %o5, %g3
    9680:	85 30 a0 01 	srl  %g2, 1, %g2
    9684:	87 30 e0 01 	srl  %g3, 1, %g3
    9688:	1b 00 00 20 	sethi  %hi(0x8000), %o5
    968c:	80 89 20 01 	btst  1, %g4
    9690:	02 bf ff a4 	be  9520 <crcu8+0x60>
    9694:	86 10 c0 0d 	or  %g3, %o5, %g3
    9698:	1b 00 00 10 	sethi  %hi(0x4000), %o5
    969c:	9a 13 60 02 	or  %o5, 2, %o5	! 4002 <ee_printf+0x886>
    96a0:	82 10 00 03 	mov  %g3, %g1
    96a4:	83 28 60 10 	sll  %g1, 0x10, %g1
    96a8:	87 30 60 10 	srl  %g1, 0x10, %g3
    96ac:	83 30 60 11 	srl  %g1, 0x11, %g1
    96b0:	88 18 80 03 	xor  %g2, %g3, %g4
    96b4:	86 18 c0 0d 	xor  %g3, %o5, %g3
    96b8:	85 30 a0 01 	srl  %g2, 1, %g2
    96bc:	87 30 e0 01 	srl  %g3, 1, %g3
    96c0:	1b 00 00 20 	sethi  %hi(0x8000), %o5
    96c4:	80 89 20 01 	btst  1, %g4
    96c8:	02 bf ff a3 	be  9554 <crcu8+0x94>
    96cc:	86 10 c0 0d 	or  %g3, %o5, %g3
    96d0:	1b 00 00 10 	sethi  %hi(0x4000), %o5
    96d4:	9a 13 60 02 	or  %o5, 2, %o5	! 4002 <ee_printf+0x886>
    96d8:	82 10 00 03 	mov  %g3, %g1
    96dc:	83 28 60 10 	sll  %g1, 0x10, %g1
    96e0:	87 30 60 10 	srl  %g1, 0x10, %g3
    96e4:	83 30 60 11 	srl  %g1, 0x11, %g1
    96e8:	88 18 80 03 	xor  %g2, %g3, %g4
    96ec:	86 18 c0 0d 	xor  %g3, %o5, %g3
    96f0:	85 30 a0 01 	srl  %g2, 1, %g2
    96f4:	87 30 e0 01 	srl  %g3, 1, %g3
    96f8:	1b 00 00 20 	sethi  %hi(0x8000), %o5
    96fc:	80 89 20 01 	btst  1, %g4
    9700:	02 bf ff a2 	be  9588 <crcu8+0xc8>
    9704:	86 10 c0 0d 	or  %g3, %o5, %g3
    9708:	1b 00 00 10 	sethi  %hi(0x4000), %o5
    970c:	9a 13 60 02 	or  %o5, 2, %o5	! 4002 <ee_printf+0x886>
    9710:	82 10 00 03 	mov  %g3, %g1
    9714:	83 28 60 10 	sll  %g1, 0x10, %g1
    9718:	87 30 60 10 	srl  %g1, 0x10, %g3
    971c:	83 30 60 11 	srl  %g1, 0x11, %g1
    9720:	88 18 80 03 	xor  %g2, %g3, %g4
    9724:	86 18 c0 0d 	xor  %g3, %o5, %g3
    9728:	85 30 a0 01 	srl  %g2, 1, %g2
    972c:	87 30 e0 01 	srl  %g3, 1, %g3
    9730:	1b 00 00 20 	sethi  %hi(0x8000), %o5
    9734:	80 89 20 01 	btst  1, %g4
    9738:	02 bf ff a1 	be  95bc <crcu8+0xfc>
    973c:	86 10 c0 0d 	or  %g3, %o5, %g3
    9740:	1b 00 00 10 	sethi  %hi(0x4000), %o5
    9744:	9a 13 60 02 	or  %o5, 2, %o5	! 4002 <ee_printf+0x886>
    9748:	82 10 00 03 	mov  %g3, %g1
    974c:	83 28 60 10 	sll  %g1, 0x10, %g1
    9750:	87 30 60 10 	srl  %g1, 0x10, %g3
    9754:	83 30 60 11 	srl  %g1, 0x11, %g1
    9758:	88 18 80 03 	xor  %g2, %g3, %g4
    975c:	86 18 c0 0d 	xor  %g3, %o5, %g3
    9760:	85 30 a0 01 	srl  %g2, 1, %g2
    9764:	87 30 e0 01 	srl  %g3, 1, %g3
    9768:	1b 00 00 20 	sethi  %hi(0x8000), %o5
    976c:	80 89 20 01 	btst  1, %g4
    9770:	02 bf ff a0 	be  95f0 <crcu8+0x130>
    9774:	86 10 c0 0d 	or  %g3, %o5, %g3
    9778:	1b 00 00 10 	sethi  %hi(0x4000), %o5
    977c:	9a 13 60 02 	or  %o5, 2, %o5	! 4002 <ee_printf+0x886>
    9780:	82 10 00 03 	mov  %g3, %g1
    9784:	83 28 60 10 	sll  %g1, 0x10, %g1
    9788:	87 30 60 10 	srl  %g1, 0x10, %g3
    978c:	83 30 60 11 	srl  %g1, 0x11, %g1
    9790:	88 18 80 03 	xor  %g2, %g3, %g4
    9794:	86 18 c0 0d 	xor  %g3, %o5, %g3
    9798:	80 89 20 01 	btst  1, %g4
    979c:	87 30 e0 01 	srl  %g3, 1, %g3
    97a0:	1b 00 00 20 	sethi  %hi(0x8000), %o5
    97a4:	02 bf ff 9f 	be  9620 <crcu8+0x160>
    97a8:	86 10 c0 0d 	or  %g3, %o5, %g3
    97ac:	09 00 00 10 	sethi  %hi(0x4000), %g4
    97b0:	88 11 20 02 	or  %g4, 2, %g4	! 4002 <ee_printf+0x886>
    97b4:	82 10 00 03 	mov  %g3, %g1
    97b8:	9b 30 a0 01 	srl  %g2, 1, %o5
    97bc:	83 28 60 10 	sll  %g1, 0x10, %g1
    97c0:	07 00 00 20 	sethi  %hi(0x8000), %g3
    97c4:	85 30 60 10 	srl  %g1, 0x10, %g2
    97c8:	83 30 60 11 	srl  %g1, 0x11, %g1
    97cc:	98 08 a0 01 	and  %g2, 1, %o4
    97d0:	84 18 80 04 	xor  %g2, %g4, %g2
    97d4:	80 a3 00 0d 	cmp  %o4, %o5
    97d8:	89 30 a0 01 	srl  %g2, 1, %g4
    97dc:	02 bf ff 9e 	be  9654 <crcu8+0x194>
    97e0:	86 11 00 03 	or  %g4, %g3, %g3
    97e4:	82 10 00 03 	mov  %g3, %g1
    97e8:	91 28 60 10 	sll  %g1, 0x10, %o0
    97ec:	81 c3 e0 08 	retl 
    97f0:	91 32 20 10 	srl  %o0, 0x10, %o0

000097f4 <crcu16>:
    97f4:	05 00 00 20 	sethi  %hi(0x8000), %g2
    97f8:	82 1a 00 09 	xor  %o0, %o1, %g1
    97fc:	88 0a 20 ff 	and  %o0, 0xff, %g4
    9800:	1b 00 00 10 	sethi  %hi(0x4000), %o5
    9804:	89 31 20 01 	srl  %g4, 1, %g4
    9808:	9a 13 60 02 	or  %o5, 2, %o5
    980c:	86 10 00 04 	mov  %g4, %g3
    9810:	9a 1a 40 0d 	xor  %o1, %o5, %o5
    9814:	80 88 60 01 	btst  1, %g1
    9818:	9b 33 60 01 	srl  %o5, 1, %o5
    981c:	9a 13 40 02 	or  %o5, %g2, %o5
    9820:	12 80 00 de 	bne  9b98 <crcu16+0x3a4>
    9824:	85 32 60 01 	srl  %o1, 1, %g2
    9828:	1b 00 00 10 	sethi  %hi(0x4000), %o5
    982c:	9a 13 60 02 	or  %o5, 2, %o5	! 4002 <ee_printf+0x886>
    9830:	85 28 a0 10 	sll  %g2, 0x10, %g2
    9834:	86 08 e0 ff 	and  %g3, 0xff, %g3
    9838:	83 30 a0 10 	srl  %g2, 0x10, %g1
    983c:	87 30 e0 01 	srl  %g3, 1, %g3
    9840:	98 19 00 01 	xor  %g4, %g1, %o4
    9844:	85 30 a0 11 	srl  %g2, 0x11, %g2
    9848:	82 18 40 0d 	xor  %g1, %o5, %g1
    984c:	88 10 00 03 	mov  %g3, %g4
    9850:	83 30 60 01 	srl  %g1, 1, %g1
    9854:	1b 00 00 20 	sethi  %hi(0x8000), %o5
    9858:	80 8b 20 01 	btst  1, %o4
    985c:	12 80 00 df 	bne  9bd8 <crcu16+0x3e4>
    9860:	82 10 40 0d 	or  %g1, %o5, %g1
    9864:	1b 00 00 10 	sethi  %hi(0x4000), %o5
    9868:	9a 13 60 02 	or  %o5, 2, %o5	! 4002 <ee_printf+0x886>
    986c:	85 28 a0 10 	sll  %g2, 0x10, %g2
    9870:	88 09 20 ff 	and  %g4, 0xff, %g4
    9874:	83 30 a0 10 	srl  %g2, 0x10, %g1
    9878:	89 31 20 01 	srl  %g4, 1, %g4
    987c:	98 18 c0 01 	xor  %g3, %g1, %o4
    9880:	85 30 a0 11 	srl  %g2, 0x11, %g2
    9884:	82 18 40 0d 	xor  %g1, %o5, %g1
    9888:	86 10 00 04 	mov  %g4, %g3
    988c:	83 30 60 01 	srl  %g1, 1, %g1
    9890:	1b 00 00 20 	sethi  %hi(0x8000), %o5
    9894:	80 8b 20 01 	btst  1, %o4
    9898:	12 80 00 e0 	bne  9c18 <crcu16+0x424>
    989c:	82 10 40 0d 	or  %g1, %o5, %g1
    98a0:	1b 00 00 10 	sethi  %hi(0x4000), %o5
    98a4:	9a 13 60 02 	or  %o5, 2, %o5	! 4002 <ee_printf+0x886>
    98a8:	85 28 a0 10 	sll  %g2, 0x10, %g2
    98ac:	86 08 e0 ff 	and  %g3, 0xff, %g3
    98b0:	83 30 a0 10 	srl  %g2, 0x10, %g1
    98b4:	87 30 e0 01 	srl  %g3, 1, %g3
    98b8:	98 19 00 01 	xor  %g4, %g1, %o4
    98bc:	85 30 a0 11 	srl  %g2, 0x11, %g2
    98c0:	82 18 40 0d 	xor  %g1, %o5, %g1
    98c4:	88 10 00 03 	mov  %g3, %g4
    98c8:	83 30 60 01 	srl  %g1, 1, %g1
    98cc:	1b 00 00 20 	sethi  %hi(0x8000), %o5
    98d0:	80 8b 20 01 	btst  1, %o4
    98d4:	12 80 00 e1 	bne  9c58 <crcu16+0x464>
    98d8:	82 10 40 0d 	or  %g1, %o5, %g1
    98dc:	1b 00 00 10 	sethi  %hi(0x4000), %o5
    98e0:	9a 13 60 02 	or  %o5, 2, %o5	! 4002 <ee_printf+0x886>
    98e4:	85 28 a0 10 	sll  %g2, 0x10, %g2
    98e8:	88 09 20 ff 	and  %g4, 0xff, %g4
    98ec:	83 30 a0 10 	srl  %g2, 0x10, %g1
    98f0:	89 31 20 01 	srl  %g4, 1, %g4
    98f4:	98 18 c0 01 	xor  %g3, %g1, %o4
    98f8:	85 30 a0 11 	srl  %g2, 0x11, %g2
    98fc:	82 18 40 0d 	xor  %g1, %o5, %g1
    9900:	86 10 00 04 	mov  %g4, %g3
    9904:	83 30 60 01 	srl  %g1, 1, %g1
    9908:	1b 00 00 20 	sethi  %hi(0x8000), %o5
    990c:	80 8b 20 01 	btst  1, %o4
    9910:	12 80 00 e2 	bne  9c98 <crcu16+0x4a4>
    9914:	82 10 40 0d 	or  %g1, %o5, %g1
    9918:	85 28 a0 10 	sll  %g2, 0x10, %g2
    991c:	83 30 a0 10 	srl  %g2, 0x10, %g1
    9920:	88 19 00 01 	xor  %g4, %g1, %g4
    9924:	86 08 e0 ff 	and  %g3, 0xff, %g3
    9928:	19 00 00 10 	sethi  %hi(0x4000), %o4
    992c:	87 30 e0 01 	srl  %g3, 1, %g3
    9930:	98 13 20 02 	or  %o4, 2, %o4
    9934:	80 89 20 01 	btst  1, %g4
    9938:	82 18 40 0c 	xor  %g1, %o4, %g1
    993c:	09 00 00 20 	sethi  %hi(0x8000), %g4
    9940:	83 30 60 01 	srl  %g1, 1, %g1
    9944:	9a 10 00 03 	mov  %g3, %o5
    9948:	85 30 a0 11 	srl  %g2, 0x11, %g2
    994c:	12 80 00 e3 	bne  9cd8 <crcu16+0x4e4>
    9950:	82 10 40 04 	or  %g1, %g4, %g1
    9954:	09 00 00 10 	sethi  %hi(0x4000), %g4
    9958:	88 11 20 02 	or  %g4, 2, %g4	! 4002 <ee_printf+0x886>
    995c:	85 28 a0 10 	sll  %g2, 0x10, %g2
    9960:	83 30 a0 10 	srl  %g2, 0x10, %g1
    9964:	85 30 a0 11 	srl  %g2, 0x11, %g2
    9968:	86 18 c0 01 	xor  %g3, %g1, %g3
    996c:	82 18 40 04 	xor  %g1, %g4, %g1
    9970:	80 88 e0 01 	btst  1, %g3
    9974:	83 30 60 01 	srl  %g1, 1, %g1
    9978:	09 00 00 20 	sethi  %hi(0x8000), %g4
    997c:	12 80 00 e4 	bne  9d0c <crcu16+0x518>
    9980:	82 10 40 04 	or  %g1, %g4, %g1
    9984:	86 0b 60 ff 	and  %o5, 0xff, %g3
    9988:	87 30 e0 01 	srl  %g3, 1, %g3
    998c:	85 28 a0 10 	sll  %g2, 0x10, %g2
    9990:	1b 00 00 10 	sethi  %hi(0x4000), %o5
    9994:	83 30 a0 10 	srl  %g2, 0x10, %g1
    9998:	9a 13 60 02 	or  %o5, 2, %o5
    999c:	88 08 60 01 	and  %g1, 1, %g4
    99a0:	85 30 a0 11 	srl  %g2, 0x11, %g2
    99a4:	82 18 40 0d 	xor  %g1, %o5, %g1
    99a8:	80 a1 00 03 	cmp  %g4, %g3
    99ac:	83 30 60 01 	srl  %g1, 1, %g1
    99b0:	07 00 00 20 	sethi  %hi(0x8000), %g3
    99b4:	12 80 00 e5 	bne  9d48 <crcu16+0x554>
    99b8:	82 10 40 03 	or  %g1, %g3, %g1
    99bc:	1b 00 00 10 	sethi  %hi(0x4000), %o5
    99c0:	9a 13 60 02 	or  %o5, 2, %o5	! 4002 <ee_printf+0x886>
    99c4:	85 28 a0 10 	sll  %g2, 0x10, %g2
    99c8:	91 32 20 08 	srl  %o0, 8, %o0
    99cc:	83 30 a0 10 	srl  %g2, 0x10, %g1
    99d0:	89 32 20 01 	srl  %o0, 1, %g4
    99d4:	85 30 a0 11 	srl  %g2, 0x11, %g2
    99d8:	90 1a 00 01 	xor  %o0, %g1, %o0
    99dc:	86 10 00 04 	mov  %g4, %g3
    99e0:	82 18 40 0d 	xor  %g1, %o5, %g1
    99e4:	80 8a 20 01 	btst  1, %o0
    99e8:	83 30 60 01 	srl  %g1, 1, %g1
    99ec:	1b 00 00 20 	sethi  %hi(0x8000), %o5
    99f0:	12 80 00 e6 	bne  9d88 <crcu16+0x594>
    99f4:	82 10 40 0d 	or  %g1, %o5, %g1
    99f8:	1b 00 00 10 	sethi  %hi(0x4000), %o5
    99fc:	9a 13 60 02 	or  %o5, 2, %o5	! 4002 <ee_printf+0x886>
    9a00:	85 28 a0 10 	sll  %g2, 0x10, %g2
    9a04:	86 08 e0 ff 	and  %g3, 0xff, %g3
    9a08:	83 30 a0 10 	srl  %g2, 0x10, %g1
    9a0c:	87 30 e0 01 	srl  %g3, 1, %g3
    9a10:	98 19 00 01 	xor  %g4, %g1, %o4
    9a14:	85 30 a0 11 	srl  %g2, 0x11, %g2
    9a18:	82 18 40 0d 	xor  %g1, %o5, %g1
    9a1c:	88 10 00 03 	mov  %g3, %g4
    9a20:	83 30 60 01 	srl  %g1, 1, %g1
    9a24:	1b 00 00 20 	sethi  %hi(0x8000), %o5
    9a28:	80 8b 20 01 	btst  1, %o4
    9a2c:	12 80 00 e7 	bne  9dc8 <crcu16+0x5d4>
    9a30:	82 10 40 0d 	or  %g1, %o5, %g1
    9a34:	1b 00 00 10 	sethi  %hi(0x4000), %o5
    9a38:	9a 13 60 02 	or  %o5, 2, %o5	! 4002 <ee_printf+0x886>
    9a3c:	85 28 a0 10 	sll  %g2, 0x10, %g2
    9a40:	88 09 20 ff 	and  %g4, 0xff, %g4
    9a44:	83 30 a0 10 	srl  %g2, 0x10, %g1
    9a48:	89 31 20 01 	srl  %g4, 1, %g4
    9a4c:	98 18 c0 01 	xor  %g3, %g1, %o4
    9a50:	85 30 a0 11 	srl  %g2, 0x11, %g2
    9a54:	82 18 40 0d 	xor  %g1, %o5, %g1
    9a58:	86 10 00 04 	mov  %g4, %g3
    9a5c:	83 30 60 01 	srl  %g1, 1, %g1
    9a60:	1b 00 00 20 	sethi  %hi(0x8000), %o5
    9a64:	80 8b 20 01 	btst  1, %o4
    9a68:	12 80 00 e8 	bne  9e08 <crcu16+0x614>
    9a6c:	82 10 40 0d 	or  %g1, %o5, %g1
    9a70:	1b 00 00 10 	sethi  %hi(0x4000), %o5
    9a74:	9a 13 60 02 	or  %o5, 2, %o5	! 4002 <ee_printf+0x886>
    9a78:	85 28 a0 10 	sll  %g2, 0x10, %g2
    9a7c:	86 08 e0 ff 	and  %g3, 0xff, %g3
    9a80:	83 30 a0 10 	srl  %g2, 0x10, %g1
    9a84:	87 30 e0 01 	srl  %g3, 1, %g3
    9a88:	98 19 00 01 	xor  %g4, %g1, %o4
    9a8c:	85 30 a0 11 	srl  %g2, 0x11, %g2
    9a90:	82 18 40 0d 	xor  %g1, %o5, %g1
    9a94:	88 10 00 03 	mov  %g3, %g4
    9a98:	83 30 60 01 	srl  %g1, 1, %g1
    9a9c:	1b 00 00 20 	sethi  %hi(0x8000), %o5
    9aa0:	80 8b 20 01 	btst  1, %o4
    9aa4:	12 80 00 e9 	bne  9e48 <crcu16+0x654>
    9aa8:	82 10 40 0d 	or  %g1, %o5, %g1
    9aac:	1b 00 00 10 	sethi  %hi(0x4000), %o5
    9ab0:	9a 13 60 02 	or  %o5, 2, %o5	! 4002 <ee_printf+0x886>
    9ab4:	85 28 a0 10 	sll  %g2, 0x10, %g2
    9ab8:	88 09 20 ff 	and  %g4, 0xff, %g4
    9abc:	83 30 a0 10 	srl  %g2, 0x10, %g1
    9ac0:	89 31 20 01 	srl  %g4, 1, %g4
    9ac4:	98 18 c0 01 	xor  %g3, %g1, %o4
    9ac8:	85 30 a0 11 	srl  %g2, 0x11, %g2
    9acc:	82 18 40 0d 	xor  %g1, %o5, %g1
    9ad0:	86 10 00 04 	mov  %g4, %g3
    9ad4:	83 30 60 01 	srl  %g1, 1, %g1
    9ad8:	1b 00 00 20 	sethi  %hi(0x8000), %o5
    9adc:	80 8b 20 01 	btst  1, %o4
    9ae0:	12 80 00 ea 	bne  9e88 <crcu16+0x694>
    9ae4:	82 10 40 0d 	or  %g1, %o5, %g1
    9ae8:	85 28 a0 10 	sll  %g2, 0x10, %g2
    9aec:	83 30 a0 10 	srl  %g2, 0x10, %g1
    9af0:	88 19 00 01 	xor  %g4, %g1, %g4
    9af4:	86 08 e0 ff 	and  %g3, 0xff, %g3
    9af8:	19 00 00 10 	sethi  %hi(0x4000), %o4
    9afc:	87 30 e0 01 	srl  %g3, 1, %g3
    9b00:	98 13 20 02 	or  %o4, 2, %o4
    9b04:	80 89 20 01 	btst  1, %g4
    9b08:	82 18 40 0c 	xor  %g1, %o4, %g1
    9b0c:	09 00 00 20 	sethi  %hi(0x8000), %g4
    9b10:	83 30 60 01 	srl  %g1, 1, %g1
    9b14:	9a 10 00 03 	mov  %g3, %o5
    9b18:	85 30 a0 11 	srl  %g2, 0x11, %g2
    9b1c:	12 80 00 eb 	bne  9ec8 <crcu16+0x6d4>
    9b20:	82 10 40 04 	or  %g1, %g4, %g1
    9b24:	09 00 00 10 	sethi  %hi(0x4000), %g4
    9b28:	88 11 20 02 	or  %g4, 2, %g4	! 4002 <ee_printf+0x886>
    9b2c:	85 28 a0 10 	sll  %g2, 0x10, %g2
    9b30:	83 30 a0 10 	srl  %g2, 0x10, %g1
    9b34:	85 30 a0 11 	srl  %g2, 0x11, %g2
    9b38:	86 18 c0 01 	xor  %g3, %g1, %g3
    9b3c:	82 18 40 04 	xor  %g1, %g4, %g1
    9b40:	80 88 e0 01 	btst  1, %g3
    9b44:	83 30 60 01 	srl  %g1, 1, %g1
    9b48:	09 00 00 20 	sethi  %hi(0x8000), %g4
    9b4c:	12 80 00 ec 	bne  9efc <crcu16+0x708>
    9b50:	82 10 40 04 	or  %g1, %g4, %g1
    9b54:	86 0b 60 ff 	and  %o5, 0xff, %g3
    9b58:	87 30 e0 01 	srl  %g3, 1, %g3
    9b5c:	85 28 a0 10 	sll  %g2, 0x10, %g2
    9b60:	1b 00 00 10 	sethi  %hi(0x4000), %o5
    9b64:	83 30 a0 10 	srl  %g2, 0x10, %g1
    9b68:	9a 13 60 02 	or  %o5, 2, %o5
    9b6c:	88 08 60 01 	and  %g1, 1, %g4
    9b70:	85 30 a0 11 	srl  %g2, 0x11, %g2
    9b74:	82 18 40 0d 	xor  %g1, %o5, %g1
    9b78:	80 a1 00 03 	cmp  %g4, %g3
    9b7c:	83 30 60 01 	srl  %g1, 1, %g1
    9b80:	07 00 00 20 	sethi  %hi(0x8000), %g3
    9b84:	12 80 00 ed 	bne  9f38 <crcu16+0x744>
    9b88:	82 10 40 03 	or  %g1, %g3, %g1
    9b8c:	91 28 a0 10 	sll  %g2, 0x10, %o0
    9b90:	81 c3 e0 08 	retl 
    9b94:	91 32 20 10 	srl  %o0, 0x10, %o0
    9b98:	84 10 00 0d 	mov  %o5, %g2
    9b9c:	1b 00 00 10 	sethi  %hi(0x4000), %o5
    9ba0:	9a 13 60 02 	or  %o5, 2, %o5	! 4002 <ee_printf+0x886>
    9ba4:	85 28 a0 10 	sll  %g2, 0x10, %g2
    9ba8:	86 08 e0 ff 	and  %g3, 0xff, %g3
    9bac:	83 30 a0 10 	srl  %g2, 0x10, %g1
    9bb0:	87 30 e0 01 	srl  %g3, 1, %g3
    9bb4:	98 19 00 01 	xor  %g4, %g1, %o4
    9bb8:	85 30 a0 11 	srl  %g2, 0x11, %g2
    9bbc:	82 18 40 0d 	xor  %g1, %o5, %g1
    9bc0:	88 10 00 03 	mov  %g3, %g4
    9bc4:	83 30 60 01 	srl  %g1, 1, %g1
    9bc8:	1b 00 00 20 	sethi  %hi(0x8000), %o5
    9bcc:	80 8b 20 01 	btst  1, %o4
    9bd0:	02 bf ff 25 	be  9864 <crcu16+0x70>
    9bd4:	82 10 40 0d 	or  %g1, %o5, %g1
    9bd8:	1b 00 00 10 	sethi  %hi(0x4000), %o5
    9bdc:	9a 13 60 02 	or  %o5, 2, %o5	! 4002 <ee_printf+0x886>
    9be0:	84 10 00 01 	mov  %g1, %g2
    9be4:	88 09 20 ff 	and  %g4, 0xff, %g4
    9be8:	85 28 a0 10 	sll  %g2, 0x10, %g2
    9bec:	89 31 20 01 	srl  %g4, 1, %g4
    9bf0:	83 30 a0 10 	srl  %g2, 0x10, %g1
    9bf4:	85 30 a0 11 	srl  %g2, 0x11, %g2
    9bf8:	98 18 c0 01 	xor  %g3, %g1, %o4
    9bfc:	82 18 40 0d 	xor  %g1, %o5, %g1
    9c00:	86 10 00 04 	mov  %g4, %g3
    9c04:	83 30 60 01 	srl  %g1, 1, %g1
    9c08:	1b 00 00 20 	sethi  %hi(0x8000), %o5
    9c0c:	80 8b 20 01 	btst  1, %o4
    9c10:	02 bf ff 24 	be  98a0 <crcu16+0xac>
    9c14:	82 10 40 0d 	or  %g1, %o5, %g1
    9c18:	1b 00 00 10 	sethi  %hi(0x4000), %o5
    9c1c:	9a 13 60 02 	or  %o5, 2, %o5	! 4002 <ee_printf+0x886>
    9c20:	84 10 00 01 	mov  %g1, %g2
    9c24:	86 08 e0 ff 	and  %g3, 0xff, %g3
    9c28:	85 28 a0 10 	sll  %g2, 0x10, %g2
    9c2c:	87 30 e0 01 	srl  %g3, 1, %g3
    9c30:	83 30 a0 10 	srl  %g2, 0x10, %g1
    9c34:	85 30 a0 11 	srl  %g2, 0x11, %g2
    9c38:	98 19 00 01 	xor  %g4, %g1, %o4
    9c3c:	82 18 40 0d 	xor  %g1, %o5, %g1
    9c40:	88 10 00 03 	mov  %g3, %g4
    9c44:	83 30 60 01 	srl  %g1, 1, %g1
    9c48:	1b 00 00 20 	sethi  %hi(0x8000), %o5
    9c4c:	80 8b 20 01 	btst  1, %o4
    9c50:	02 bf ff 23 	be  98dc <crcu16+0xe8>
    9c54:	82 10 40 0d 	or  %g1, %o5, %g1
    9c58:	1b 00 00 10 	sethi  %hi(0x4000), %o5
    9c5c:	9a 13 60 02 	or  %o5, 2, %o5	! 4002 <ee_printf+0x886>
    9c60:	84 10 00 01 	mov  %g1, %g2
    9c64:	88 09 20 ff 	and  %g4, 0xff, %g4
    9c68:	85 28 a0 10 	sll  %g2, 0x10, %g2
    9c6c:	89 31 20 01 	srl  %g4, 1, %g4
    9c70:	83 30 a0 10 	srl  %g2, 0x10, %g1
    9c74:	85 30 a0 11 	srl  %g2, 0x11, %g2
    9c78:	98 18 c0 01 	xor  %g3, %g1, %o4
    9c7c:	82 18 40 0d 	xor  %g1, %o5, %g1
    9c80:	86 10 00 04 	mov  %g4, %g3
    9c84:	83 30 60 01 	srl  %g1, 1, %g1
    9c88:	1b 00 00 20 	sethi  %hi(0x8000), %o5
    9c8c:	80 8b 20 01 	btst  1, %o4
    9c90:	02 bf ff 22 	be  9918 <crcu16+0x124>
    9c94:	82 10 40 0d 	or  %g1, %o5, %g1
    9c98:	84 10 00 01 	mov  %g1, %g2
    9c9c:	85 28 a0 10 	sll  %g2, 0x10, %g2
    9ca0:	83 30 a0 10 	srl  %g2, 0x10, %g1
    9ca4:	88 19 00 01 	xor  %g4, %g1, %g4
    9ca8:	86 08 e0 ff 	and  %g3, 0xff, %g3
    9cac:	19 00 00 10 	sethi  %hi(0x4000), %o4
    9cb0:	87 30 e0 01 	srl  %g3, 1, %g3
    9cb4:	98 13 20 02 	or  %o4, 2, %o4
    9cb8:	80 89 20 01 	btst  1, %g4
    9cbc:	82 18 40 0c 	xor  %g1, %o4, %g1
    9cc0:	09 00 00 20 	sethi  %hi(0x8000), %g4
    9cc4:	83 30 60 01 	srl  %g1, 1, %g1
    9cc8:	9a 10 00 03 	mov  %g3, %o5
    9ccc:	85 30 a0 11 	srl  %g2, 0x11, %g2
    9cd0:	02 bf ff 21 	be  9954 <crcu16+0x160>
    9cd4:	82 10 40 04 	or  %g1, %g4, %g1
    9cd8:	09 00 00 10 	sethi  %hi(0x4000), %g4
    9cdc:	88 11 20 02 	or  %g4, 2, %g4	! 4002 <ee_printf+0x886>
    9ce0:	84 10 00 01 	mov  %g1, %g2
    9ce4:	85 28 a0 10 	sll  %g2, 0x10, %g2
    9ce8:	83 30 a0 10 	srl  %g2, 0x10, %g1
    9cec:	85 30 a0 11 	srl  %g2, 0x11, %g2
    9cf0:	86 18 c0 01 	xor  %g3, %g1, %g3
    9cf4:	82 18 40 04 	xor  %g1, %g4, %g1
    9cf8:	80 88 e0 01 	btst  1, %g3
    9cfc:	83 30 60 01 	srl  %g1, 1, %g1
    9d00:	09 00 00 20 	sethi  %hi(0x8000), %g4
    9d04:	02 bf ff 20 	be  9984 <crcu16+0x190>
    9d08:	82 10 40 04 	or  %g1, %g4, %g1
    9d0c:	86 0b 60 ff 	and  %o5, 0xff, %g3
    9d10:	87 30 e0 01 	srl  %g3, 1, %g3
    9d14:	84 10 00 01 	mov  %g1, %g2
    9d18:	1b 00 00 10 	sethi  %hi(0x4000), %o5
    9d1c:	85 28 a0 10 	sll  %g2, 0x10, %g2
    9d20:	9a 13 60 02 	or  %o5, 2, %o5
    9d24:	83 30 a0 10 	srl  %g2, 0x10, %g1
    9d28:	85 30 a0 11 	srl  %g2, 0x11, %g2
    9d2c:	88 08 60 01 	and  %g1, 1, %g4
    9d30:	82 18 40 0d 	xor  %g1, %o5, %g1
    9d34:	80 a1 00 03 	cmp  %g4, %g3
    9d38:	83 30 60 01 	srl  %g1, 1, %g1
    9d3c:	07 00 00 20 	sethi  %hi(0x8000), %g3
    9d40:	02 bf ff 1f 	be  99bc <crcu16+0x1c8>
    9d44:	82 10 40 03 	or  %g1, %g3, %g1
    9d48:	1b 00 00 10 	sethi  %hi(0x4000), %o5
    9d4c:	9a 13 60 02 	or  %o5, 2, %o5	! 4002 <ee_printf+0x886>
    9d50:	84 10 00 01 	mov  %g1, %g2
    9d54:	91 32 20 08 	srl  %o0, 8, %o0
    9d58:	85 28 a0 10 	sll  %g2, 0x10, %g2
    9d5c:	89 32 20 01 	srl  %o0, 1, %g4
    9d60:	83 30 a0 10 	srl  %g2, 0x10, %g1
    9d64:	86 10 00 04 	mov  %g4, %g3
    9d68:	90 1a 00 01 	xor  %o0, %g1, %o0
    9d6c:	85 30 a0 11 	srl  %g2, 0x11, %g2
    9d70:	82 18 40 0d 	xor  %g1, %o5, %g1
    9d74:	80 8a 20 01 	btst  1, %o0
    9d78:	83 30 60 01 	srl  %g1, 1, %g1
    9d7c:	1b 00 00 20 	sethi  %hi(0x8000), %o5
    9d80:	02 bf ff 1e 	be  99f8 <crcu16+0x204>
    9d84:	82 10 40 0d 	or  %g1, %o5, %g1
    9d88:	1b 00 00 10 	sethi  %hi(0x4000), %o5
    9d8c:	9a 13 60 02 	or  %o5, 2, %o5	! 4002 <ee_printf+0x886>
    9d90:	84 10 00 01 	mov  %g1, %g2
    9d94:	86 08 e0 ff 	and  %g3, 0xff, %g3
    9d98:	85 28 a0 10 	sll  %g2, 0x10, %g2
    9d9c:	87 30 e0 01 	srl  %g3, 1, %g3
    9da0:	83 30 a0 10 	srl  %g2, 0x10, %g1
    9da4:	85 30 a0 11 	srl  %g2, 0x11, %g2
    9da8:	98 19 00 01 	xor  %g4, %g1, %o4
    9dac:	82 18 40 0d 	xor  %g1, %o5, %g1
    9db0:	88 10 00 03 	mov  %g3, %g4
    9db4:	83 30 60 01 	srl  %g1, 1, %g1
    9db8:	1b 00 00 20 	sethi  %hi(0x8000), %o5
    9dbc:	80 8b 20 01 	btst  1, %o4
    9dc0:	02 bf ff 1d 	be  9a34 <crcu16+0x240>
    9dc4:	82 10 40 0d 	or  %g1, %o5, %g1
    9dc8:	1b 00 00 10 	sethi  %hi(0x4000), %o5
    9dcc:	9a 13 60 02 	or  %o5, 2, %o5	! 4002 <ee_printf+0x886>
    9dd0:	84 10 00 01 	mov  %g1, %g2
    9dd4:	88 09 20 ff 	and  %g4, 0xff, %g4
    9dd8:	85 28 a0 10 	sll  %g2, 0x10, %g2
    9ddc:	89 31 20 01 	srl  %g4, 1, %g4
    9de0:	83 30 a0 10 	srl  %g2, 0x10, %g1
    9de4:	85 30 a0 11 	srl  %g2, 0x11, %g2
    9de8:	98 18 c0 01 	xor  %g3, %g1, %o4
    9dec:	82 18 40 0d 	xor  %g1, %o5, %g1
    9df0:	86 10 00 04 	mov  %g4, %g3
    9df4:	83 30 60 01 	srl  %g1, 1, %g1
    9df8:	1b 00 00 20 	sethi  %hi(0x8000), %o5
    9dfc:	80 8b 20 01 	btst  1, %o4
    9e00:	02 bf ff 1c 	be  9a70 <crcu16+0x27c>
    9e04:	82 10 40 0d 	or  %g1, %o5, %g1
    9e08:	1b 00 00 10 	sethi  %hi(0x4000), %o5
    9e0c:	9a 13 60 02 	or  %o5, 2, %o5	! 4002 <ee_printf+0x886>
    9e10:	84 10 00 01 	mov  %g1, %g2
    9e14:	86 08 e0 ff 	and  %g3, 0xff, %g3
    9e18:	85 28 a0 10 	sll  %g2, 0x10, %g2
    9e1c:	87 30 e0 01 	srl  %g3, 1, %g3
    9e20:	83 30 a0 10 	srl  %g2, 0x10, %g1
    9e24:	85 30 a0 11 	srl  %g2, 0x11, %g2
    9e28:	98 19 00 01 	xor  %g4, %g1, %o4
    9e2c:	82 18 40 0d 	xor  %g1, %o5, %g1
    9e30:	88 10 00 03 	mov  %g3, %g4
    9e34:	83 30 60 01 	srl  %g1, 1, %g1
    9e38:	1b 00 00 20 	sethi  %hi(0x8000), %o5
    9e3c:	80 8b 20 01 	btst  1, %o4
    9e40:	02 bf ff 1b 	be  9aac <crcu16+0x2b8>
    9e44:	82 10 40 0d 	or  %g1, %o5, %g1
    9e48:	1b 00 00 10 	sethi  %hi(0x4000), %o5
    9e4c:	9a 13 60 02 	or  %o5, 2, %o5	! 4002 <ee_printf+0x886>
    9e50:	84 10 00 01 	mov  %g1, %g2
    9e54:	88 09 20 ff 	and  %g4, 0xff, %g4
    9e58:	85 28 a0 10 	sll  %g2, 0x10, %g2
    9e5c:	89 31 20 01 	srl  %g4, 1, %g4
    9e60:	83 30 a0 10 	srl  %g2, 0x10, %g1
    9e64:	85 30 a0 11 	srl  %g2, 0x11, %g2
    9e68:	98 18 c0 01 	xor  %g3, %g1, %o4
    9e6c:	82 18 40 0d 	xor  %g1, %o5, %g1
    9e70:	86 10 00 04 	mov  %g4, %g3
    9e74:	83 30 60 01 	srl  %g1, 1, %g1
    9e78:	1b 00 00 20 	sethi  %hi(0x8000), %o5
    9e7c:	80 8b 20 01 	btst  1, %o4
    9e80:	02 bf ff 1a 	be  9ae8 <crcu16+0x2f4>
    9e84:	82 10 40 0d 	or  %g1, %o5, %g1
    9e88:	84 10 00 01 	mov  %g1, %g2
    9e8c:	85 28 a0 10 	sll  %g2, 0x10, %g2
    9e90:	83 30 a0 10 	srl  %g2, 0x10, %g1
    9e94:	88 19 00 01 	xor  %g4, %g1, %g4
    9e98:	86 08 e0 ff 	and  %g3, 0xff, %g3
    9e9c:	19 00 00 10 	sethi  %hi(0x4000), %o4
    9ea0:	87 30 e0 01 	srl  %g3, 1, %g3
    9ea4:	98 13 20 02 	or  %o4, 2, %o4
    9ea8:	80 89 20 01 	btst  1, %g4
    9eac:	82 18 40 0c 	xor  %g1, %o4, %g1
    9eb0:	09 00 00 20 	sethi  %hi(0x8000), %g4
    9eb4:	83 30 60 01 	srl  %g1, 1, %g1
    9eb8:	9a 10 00 03 	mov  %g3, %o5
    9ebc:	85 30 a0 11 	srl  %g2, 0x11, %g2
    9ec0:	02 bf ff 19 	be  9b24 <crcu16+0x330>
    9ec4:	82 10 40 04 	or  %g1, %g4, %g1
    9ec8:	09 00 00 10 	sethi  %hi(0x4000), %g4
    9ecc:	88 11 20 02 	or  %g4, 2, %g4	! 4002 <ee_printf+0x886>
    9ed0:	84 10 00 01 	mov  %g1, %g2
    9ed4:	85 28 a0 10 	sll  %g2, 0x10, %g2
    9ed8:	83 30 a0 10 	srl  %g2, 0x10, %g1
    9edc:	85 30 a0 11 	srl  %g2, 0x11, %g2
    9ee0:	86 18 c0 01 	xor  %g3, %g1, %g3
    9ee4:	82 18 40 04 	xor  %g1, %g4, %g1
    9ee8:	80 88 e0 01 	btst  1, %g3
    9eec:	83 30 60 01 	srl  %g1, 1, %g1
    9ef0:	09 00 00 20 	sethi  %hi(0x8000), %g4
    9ef4:	02 bf ff 18 	be  9b54 <crcu16+0x360>
    9ef8:	82 10 40 04 	or  %g1, %g4, %g1
    9efc:	86 0b 60 ff 	and  %o5, 0xff, %g3
    9f00:	87 30 e0 01 	srl  %g3, 1, %g3
    9f04:	84 10 00 01 	mov  %g1, %g2
    9f08:	1b 00 00 10 	sethi  %hi(0x4000), %o5
    9f0c:	85 28 a0 10 	sll  %g2, 0x10, %g2
    9f10:	9a 13 60 02 	or  %o5, 2, %o5
    9f14:	83 30 a0 10 	srl  %g2, 0x10, %g1
    9f18:	85 30 a0 11 	srl  %g2, 0x11, %g2
    9f1c:	88 08 60 01 	and  %g1, 1, %g4
    9f20:	82 18 40 0d 	xor  %g1, %o5, %g1
    9f24:	80 a1 00 03 	cmp  %g4, %g3
    9f28:	83 30 60 01 	srl  %g1, 1, %g1
    9f2c:	07 00 00 20 	sethi  %hi(0x8000), %g3
    9f30:	02 bf ff 17 	be  9b8c <crcu16+0x398>
    9f34:	82 10 40 03 	or  %g1, %g3, %g1
    9f38:	84 10 00 01 	mov  %g1, %g2
    9f3c:	91 28 a0 10 	sll  %g2, 0x10, %o0
    9f40:	81 c3 e0 08 	retl 
    9f44:	91 32 20 10 	srl  %o0, 0x10, %o0

00009f48 <crcu32>:
    9f48:	05 00 00 20 	sethi  %hi(0x8000), %g2
    9f4c:	82 1a 00 09 	xor  %o0, %o1, %g1
    9f50:	88 0a 20 ff 	and  %o0, 0xff, %g4
    9f54:	1b 00 00 10 	sethi  %hi(0x4000), %o5
    9f58:	89 31 20 01 	srl  %g4, 1, %g4
    9f5c:	9a 13 60 02 	or  %o5, 2, %o5
    9f60:	86 10 00 04 	mov  %g4, %g3
    9f64:	9a 1a 40 0d 	xor  %o1, %o5, %o5
    9f68:	80 88 60 01 	btst  1, %g1
    9f6c:	9b 33 60 01 	srl  %o5, 1, %o5
    9f70:	9a 13 40 02 	or  %o5, %g2, %o5
    9f74:	12 80 01 c8 	bne  a694 <crcu32+0x74c>
    9f78:	85 32 60 01 	srl  %o1, 1, %g2
    9f7c:	1b 00 00 10 	sethi  %hi(0x4000), %o5
    9f80:	9a 13 60 02 	or  %o5, 2, %o5	! 4002 <ee_printf+0x886>
    9f84:	85 28 a0 10 	sll  %g2, 0x10, %g2
    9f88:	86 08 e0 ff 	and  %g3, 0xff, %g3
    9f8c:	83 30 a0 10 	srl  %g2, 0x10, %g1
    9f90:	87 30 e0 01 	srl  %g3, 1, %g3
    9f94:	98 19 00 01 	xor  %g4, %g1, %o4
    9f98:	85 30 a0 11 	srl  %g2, 0x11, %g2
    9f9c:	82 18 40 0d 	xor  %g1, %o5, %g1
    9fa0:	88 10 00 03 	mov  %g3, %g4
    9fa4:	83 30 60 01 	srl  %g1, 1, %g1
    9fa8:	1b 00 00 20 	sethi  %hi(0x8000), %o5
    9fac:	80 8b 20 01 	btst  1, %o4
    9fb0:	12 80 01 c9 	bne  a6d4 <crcu32+0x78c>
    9fb4:	82 10 40 0d 	or  %g1, %o5, %g1
    9fb8:	1b 00 00 10 	sethi  %hi(0x4000), %o5
    9fbc:	9a 13 60 02 	or  %o5, 2, %o5	! 4002 <ee_printf+0x886>
    9fc0:	85 28 a0 10 	sll  %g2, 0x10, %g2
    9fc4:	88 09 20 ff 	and  %g4, 0xff, %g4
    9fc8:	83 30 a0 10 	srl  %g2, 0x10, %g1
    9fcc:	89 31 20 01 	srl  %g4, 1, %g4
    9fd0:	98 18 c0 01 	xor  %g3, %g1, %o4
    9fd4:	85 30 a0 11 	srl  %g2, 0x11, %g2
    9fd8:	82 18 40 0d 	xor  %g1, %o5, %g1
    9fdc:	86 10 00 04 	mov  %g4, %g3
    9fe0:	83 30 60 01 	srl  %g1, 1, %g1
    9fe4:	1b 00 00 20 	sethi  %hi(0x8000), %o5
    9fe8:	80 8b 20 01 	btst  1, %o4
    9fec:	12 80 01 ca 	bne  a714 <crcu32+0x7cc>
    9ff0:	82 10 40 0d 	or  %g1, %o5, %g1
    9ff4:	1b 00 00 10 	sethi  %hi(0x4000), %o5
    9ff8:	9a 13 60 02 	or  %o5, 2, %o5	! 4002 <ee_printf+0x886>
    9ffc:	85 28 a0 10 	sll  %g2, 0x10, %g2
    a000:	86 08 e0 ff 	and  %g3, 0xff, %g3
    a004:	83 30 a0 10 	srl  %g2, 0x10, %g1
    a008:	87 30 e0 01 	srl  %g3, 1, %g3
    a00c:	98 19 00 01 	xor  %g4, %g1, %o4
    a010:	85 30 a0 11 	srl  %g2, 0x11, %g2
    a014:	82 18 40 0d 	xor  %g1, %o5, %g1
    a018:	88 10 00 03 	mov  %g3, %g4
    a01c:	83 30 60 01 	srl  %g1, 1, %g1
    a020:	1b 00 00 20 	sethi  %hi(0x8000), %o5
    a024:	80 8b 20 01 	btst  1, %o4
    a028:	12 80 01 cb 	bne  a754 <crcu32+0x80c>
    a02c:	82 10 40 0d 	or  %g1, %o5, %g1
    a030:	1b 00 00 10 	sethi  %hi(0x4000), %o5
    a034:	9a 13 60 02 	or  %o5, 2, %o5	! 4002 <ee_printf+0x886>
    a038:	85 28 a0 10 	sll  %g2, 0x10, %g2
    a03c:	88 09 20 ff 	and  %g4, 0xff, %g4
    a040:	83 30 a0 10 	srl  %g2, 0x10, %g1
    a044:	89 31 20 01 	srl  %g4, 1, %g4
    a048:	98 18 c0 01 	xor  %g3, %g1, %o4
    a04c:	85 30 a0 11 	srl  %g2, 0x11, %g2
    a050:	82 18 40 0d 	xor  %g1, %o5, %g1
    a054:	86 10 00 04 	mov  %g4, %g3
    a058:	83 30 60 01 	srl  %g1, 1, %g1
    a05c:	1b 00 00 20 	sethi  %hi(0x8000), %o5
    a060:	80 8b 20 01 	btst  1, %o4
    a064:	12 80 01 cc 	bne  a794 <crcu32+0x84c>
    a068:	82 10 40 0d 	or  %g1, %o5, %g1
    a06c:	85 28 a0 10 	sll  %g2, 0x10, %g2
    a070:	83 30 a0 10 	srl  %g2, 0x10, %g1
    a074:	88 19 00 01 	xor  %g4, %g1, %g4
    a078:	86 08 e0 ff 	and  %g3, 0xff, %g3
    a07c:	19 00 00 10 	sethi  %hi(0x4000), %o4
    a080:	87 30 e0 01 	srl  %g3, 1, %g3
    a084:	98 13 20 02 	or  %o4, 2, %o4
    a088:	80 89 20 01 	btst  1, %g4
    a08c:	82 18 40 0c 	xor  %g1, %o4, %g1
    a090:	09 00 00 20 	sethi  %hi(0x8000), %g4
    a094:	83 30 60 01 	srl  %g1, 1, %g1
    a098:	9a 10 00 03 	mov  %g3, %o5
    a09c:	85 30 a0 11 	srl  %g2, 0x11, %g2
    a0a0:	12 80 01 cd 	bne  a7d4 <crcu32+0x88c>
    a0a4:	82 10 40 04 	or  %g1, %g4, %g1
    a0a8:	09 00 00 10 	sethi  %hi(0x4000), %g4
    a0ac:	88 11 20 02 	or  %g4, 2, %g4	! 4002 <ee_printf+0x886>
    a0b0:	85 28 a0 10 	sll  %g2, 0x10, %g2
    a0b4:	83 30 a0 10 	srl  %g2, 0x10, %g1
    a0b8:	85 30 a0 11 	srl  %g2, 0x11, %g2
    a0bc:	86 18 c0 01 	xor  %g3, %g1, %g3
    a0c0:	82 18 40 04 	xor  %g1, %g4, %g1
    a0c4:	80 88 e0 01 	btst  1, %g3
    a0c8:	83 30 60 01 	srl  %g1, 1, %g1
    a0cc:	09 00 00 20 	sethi  %hi(0x8000), %g4
    a0d0:	12 80 01 ce 	bne  a808 <crcu32+0x8c0>
    a0d4:	82 10 40 04 	or  %g1, %g4, %g1
    a0d8:	86 0b 60 ff 	and  %o5, 0xff, %g3
    a0dc:	87 30 e0 01 	srl  %g3, 1, %g3
    a0e0:	85 28 a0 10 	sll  %g2, 0x10, %g2
    a0e4:	1b 00 00 10 	sethi  %hi(0x4000), %o5
    a0e8:	83 30 a0 10 	srl  %g2, 0x10, %g1
    a0ec:	9a 13 60 02 	or  %o5, 2, %o5
    a0f0:	88 08 60 01 	and  %g1, 1, %g4
    a0f4:	85 30 a0 11 	srl  %g2, 0x11, %g2
    a0f8:	82 18 40 0d 	xor  %g1, %o5, %g1
    a0fc:	80 a1 00 03 	cmp  %g4, %g3
    a100:	83 30 60 01 	srl  %g1, 1, %g1
    a104:	07 00 00 20 	sethi  %hi(0x8000), %g3
    a108:	12 80 01 cf 	bne  a844 <crcu32+0x8fc>
    a10c:	82 10 40 03 	or  %g1, %g3, %g1
    a110:	07 00 00 10 	sethi  %hi(0x4000), %g3
    a114:	86 10 e0 02 	or  %g3, 2, %g3	! 4002 <ee_printf+0x886>
    a118:	85 28 a0 10 	sll  %g2, 0x10, %g2
    a11c:	89 2a 20 10 	sll  %o0, 0x10, %g4
    a120:	83 30 a0 10 	srl  %g2, 0x10, %g1
    a124:	89 31 20 18 	srl  %g4, 0x18, %g4
    a128:	19 00 00 20 	sethi  %hi(0x8000), %o4
    a12c:	9a 19 00 01 	xor  %g4, %g1, %o5
    a130:	85 30 a0 11 	srl  %g2, 0x11, %g2
    a134:	82 18 40 03 	xor  %g1, %g3, %g1
    a138:	89 31 20 01 	srl  %g4, 1, %g4
    a13c:	83 30 60 01 	srl  %g1, 1, %g1
    a140:	86 10 00 04 	mov  %g4, %g3
    a144:	80 8b 60 01 	btst  1, %o5
    a148:	12 80 01 f1 	bne  a90c <crcu32+0x9c4>
    a14c:	82 10 40 0c 	or  %g1, %o4, %g1
    a150:	1b 00 00 10 	sethi  %hi(0x4000), %o5
    a154:	9a 13 60 02 	or  %o5, 2, %o5	! 4002 <ee_printf+0x886>
    a158:	85 28 a0 10 	sll  %g2, 0x10, %g2
    a15c:	86 08 e0 ff 	and  %g3, 0xff, %g3
    a160:	83 30 a0 10 	srl  %g2, 0x10, %g1
    a164:	87 30 e0 01 	srl  %g3, 1, %g3
    a168:	98 19 00 01 	xor  %g4, %g1, %o4
    a16c:	85 30 a0 11 	srl  %g2, 0x11, %g2
    a170:	82 18 40 0d 	xor  %g1, %o5, %g1
    a174:	88 10 00 03 	mov  %g3, %g4
    a178:	83 30 60 01 	srl  %g1, 1, %g1
    a17c:	1b 00 00 20 	sethi  %hi(0x8000), %o5
    a180:	80 8b 20 01 	btst  1, %o4
    a184:	12 80 01 e0 	bne  a904 <crcu32+0x9bc>
    a188:	82 10 40 0d 	or  %g1, %o5, %g1
    a18c:	1b 00 00 10 	sethi  %hi(0x4000), %o5
    a190:	9a 13 60 02 	or  %o5, 2, %o5	! 4002 <ee_printf+0x886>
    a194:	85 28 a0 10 	sll  %g2, 0x10, %g2
    a198:	88 09 20 ff 	and  %g4, 0xff, %g4
    a19c:	83 30 a0 10 	srl  %g2, 0x10, %g1
    a1a0:	89 31 20 01 	srl  %g4, 1, %g4
    a1a4:	98 18 c0 01 	xor  %g3, %g1, %o4
    a1a8:	85 30 a0 11 	srl  %g2, 0x11, %g2
    a1ac:	82 18 40 0d 	xor  %g1, %o5, %g1
    a1b0:	86 10 00 04 	mov  %g4, %g3
    a1b4:	83 30 60 01 	srl  %g1, 1, %g1
    a1b8:	1b 00 00 20 	sethi  %hi(0x8000), %o5
    a1bc:	80 8b 20 01 	btst  1, %o4
    a1c0:	12 80 01 cf 	bne  a8fc <crcu32+0x9b4>
    a1c4:	82 10 40 0d 	or  %g1, %o5, %g1
    a1c8:	1b 00 00 10 	sethi  %hi(0x4000), %o5
    a1cc:	9a 13 60 02 	or  %o5, 2, %o5	! 4002 <ee_printf+0x886>
    a1d0:	85 28 a0 10 	sll  %g2, 0x10, %g2
    a1d4:	86 08 e0 ff 	and  %g3, 0xff, %g3
    a1d8:	83 30 a0 10 	srl  %g2, 0x10, %g1
    a1dc:	87 30 e0 01 	srl  %g3, 1, %g3
    a1e0:	98 19 00 01 	xor  %g4, %g1, %o4
    a1e4:	85 30 a0 11 	srl  %g2, 0x11, %g2
    a1e8:	82 18 40 0d 	xor  %g1, %o5, %g1
    a1ec:	88 10 00 03 	mov  %g3, %g4
    a1f0:	83 30 60 01 	srl  %g1, 1, %g1
    a1f4:	1b 00 00 20 	sethi  %hi(0x8000), %o5
    a1f8:	80 8b 20 01 	btst  1, %o4
    a1fc:	12 80 01 be 	bne  a8f4 <crcu32+0x9ac>
    a200:	82 10 40 0d 	or  %g1, %o5, %g1
    a204:	1b 00 00 10 	sethi  %hi(0x4000), %o5
    a208:	9a 13 60 02 	or  %o5, 2, %o5	! 4002 <ee_printf+0x886>
    a20c:	85 28 a0 10 	sll  %g2, 0x10, %g2
    a210:	88 09 20 ff 	and  %g4, 0xff, %g4
    a214:	83 30 a0 10 	srl  %g2, 0x10, %g1
    a218:	89 31 20 01 	srl  %g4, 1, %g4
    a21c:	98 18 c0 01 	xor  %g3, %g1, %o4
    a220:	85 30 a0 11 	srl  %g2, 0x11, %g2
    a224:	82 18 40 0d 	xor  %g1, %o5, %g1
    a228:	86 10 00 04 	mov  %g4, %g3
    a22c:	83 30 60 01 	srl  %g1, 1, %g1
    a230:	1b 00 00 20 	sethi  %hi(0x8000), %o5
    a234:	80 8b 20 01 	btst  1, %o4
    a238:	12 80 01 ad 	bne  a8ec <crcu32+0x9a4>
    a23c:	82 10 40 0d 	or  %g1, %o5, %g1
    a240:	85 28 a0 10 	sll  %g2, 0x10, %g2
    a244:	83 30 a0 10 	srl  %g2, 0x10, %g1
    a248:	88 19 00 01 	xor  %g4, %g1, %g4
    a24c:	86 08 e0 ff 	and  %g3, 0xff, %g3
    a250:	19 00 00 10 	sethi  %hi(0x4000), %o4
    a254:	87 30 e0 01 	srl  %g3, 1, %g3
    a258:	98 13 20 02 	or  %o4, 2, %o4
    a25c:	80 89 20 01 	btst  1, %g4
    a260:	82 18 40 0c 	xor  %g1, %o4, %g1
    a264:	09 00 00 20 	sethi  %hi(0x8000), %g4
    a268:	83 30 60 01 	srl  %g1, 1, %g1
    a26c:	9a 10 00 03 	mov  %g3, %o5
    a270:	85 30 a0 11 	srl  %g2, 0x11, %g2
    a274:	12 80 01 9c 	bne  a8e4 <crcu32+0x99c>
    a278:	82 10 40 04 	or  %g1, %g4, %g1
    a27c:	09 00 00 10 	sethi  %hi(0x4000), %g4
    a280:	88 11 20 02 	or  %g4, 2, %g4	! 4002 <ee_printf+0x886>
    a284:	85 28 a0 10 	sll  %g2, 0x10, %g2
    a288:	83 30 a0 10 	srl  %g2, 0x10, %g1
    a28c:	85 30 a0 11 	srl  %g2, 0x11, %g2
    a290:	86 18 c0 01 	xor  %g3, %g1, %g3
    a294:	82 18 40 04 	xor  %g1, %g4, %g1
    a298:	80 88 e0 01 	btst  1, %g3
    a29c:	83 30 60 01 	srl  %g1, 1, %g1
    a2a0:	09 00 00 20 	sethi  %hi(0x8000), %g4
    a2a4:	12 80 01 8e 	bne  a8dc <crcu32+0x994>
    a2a8:	82 10 40 04 	or  %g1, %g4, %g1
    a2ac:	86 0b 60 ff 	and  %o5, 0xff, %g3
    a2b0:	87 30 e0 01 	srl  %g3, 1, %g3
    a2b4:	85 28 a0 10 	sll  %g2, 0x10, %g2
    a2b8:	1b 00 00 10 	sethi  %hi(0x4000), %o5
    a2bc:	83 30 a0 10 	srl  %g2, 0x10, %g1
    a2c0:	9a 13 60 02 	or  %o5, 2, %o5
    a2c4:	88 08 60 01 	and  %g1, 1, %g4
    a2c8:	85 30 a0 11 	srl  %g2, 0x11, %g2
    a2cc:	82 18 40 0d 	xor  %g1, %o5, %g1
    a2d0:	80 a1 00 03 	cmp  %g4, %g3
    a2d4:	83 30 60 01 	srl  %g1, 1, %g1
    a2d8:	07 00 00 20 	sethi  %hi(0x8000), %g3
    a2dc:	12 80 01 7e 	bne  a8d4 <crcu32+0x98c>
    a2e0:	82 10 40 03 	or  %g1, %g3, %g1
    a2e4:	1b 00 00 10 	sethi  %hi(0x4000), %o5
    a2e8:	9a 13 60 02 	or  %o5, 2, %o5	! 4002 <ee_printf+0x886>
    a2ec:	85 28 a0 10 	sll  %g2, 0x10, %g2
    a2f0:	91 32 20 10 	srl  %o0, 0x10, %o0
    a2f4:	83 30 a0 10 	srl  %g2, 0x10, %g1
    a2f8:	88 0a 20 ff 	and  %o0, 0xff, %g4
    a2fc:	98 1a 00 01 	xor  %o0, %g1, %o4
    a300:	89 31 20 01 	srl  %g4, 1, %g4
    a304:	82 18 40 0d 	xor  %g1, %o5, %g1
    a308:	86 10 00 04 	mov  %g4, %g3
    a30c:	83 30 60 01 	srl  %g1, 1, %g1
    a310:	1b 00 00 20 	sethi  %hi(0x8000), %o5
    a314:	85 30 a0 11 	srl  %g2, 0x11, %g2
    a318:	80 8b 20 01 	btst  1, %o4
    a31c:	12 80 01 6c 	bne  a8cc <crcu32+0x984>
    a320:	82 10 40 0d 	or  %g1, %o5, %g1
    a324:	1b 00 00 10 	sethi  %hi(0x4000), %o5
    a328:	9a 13 60 02 	or  %o5, 2, %o5	! 4002 <ee_printf+0x886>
    a32c:	85 28 a0 10 	sll  %g2, 0x10, %g2
    a330:	86 08 e0 ff 	and  %g3, 0xff, %g3
    a334:	83 30 a0 10 	srl  %g2, 0x10, %g1
    a338:	87 30 e0 01 	srl  %g3, 1, %g3
    a33c:	98 19 00 01 	xor  %g4, %g1, %o4
    a340:	85 30 a0 11 	srl  %g2, 0x11, %g2
    a344:	82 18 40 0d 	xor  %g1, %o5, %g1
    a348:	88 10 00 03 	mov  %g3, %g4
    a34c:	83 30 60 01 	srl  %g1, 1, %g1
    a350:	1b 00 00 20 	sethi  %hi(0x8000), %o5
    a354:	80 8b 20 01 	btst  1, %o4
    a358:	12 80 01 5b 	bne  a8c4 <crcu32+0x97c>
    a35c:	82 10 40 0d 	or  %g1, %o5, %g1
    a360:	1b 00 00 10 	sethi  %hi(0x4000), %o5
    a364:	9a 13 60 02 	or  %o5, 2, %o5	! 4002 <ee_printf+0x886>
    a368:	85 28 a0 10 	sll  %g2, 0x10, %g2
    a36c:	88 09 20 ff 	and  %g4, 0xff, %g4
    a370:	83 30 a0 10 	srl  %g2, 0x10, %g1
    a374:	89 31 20 01 	srl  %g4, 1, %g4
    a378:	98 18 c0 01 	xor  %g3, %g1, %o4
    a37c:	85 30 a0 11 	srl  %g2, 0x11, %g2
    a380:	82 18 40 0d 	xor  %g1, %o5, %g1
    a384:	86 10 00 04 	mov  %g4, %g3
    a388:	83 30 60 01 	srl  %g1, 1, %g1
    a38c:	1b 00 00 20 	sethi  %hi(0x8000), %o5
    a390:	80 8b 20 01 	btst  1, %o4
    a394:	12 80 01 4a 	bne  a8bc <crcu32+0x974>
    a398:	82 10 40 0d 	or  %g1, %o5, %g1
    a39c:	1b 00 00 10 	sethi  %hi(0x4000), %o5
    a3a0:	9a 13 60 02 	or  %o5, 2, %o5	! 4002 <ee_printf+0x886>
    a3a4:	85 28 a0 10 	sll  %g2, 0x10, %g2
    a3a8:	86 08 e0 ff 	and  %g3, 0xff, %g3
    a3ac:	83 30 a0 10 	srl  %g2, 0x10, %g1
    a3b0:	87 30 e0 01 	srl  %g3, 1, %g3
    a3b4:	98 19 00 01 	xor  %g4, %g1, %o4
    a3b8:	85 30 a0 11 	srl  %g2, 0x11, %g2
    a3bc:	82 18 40 0d 	xor  %g1, %o5, %g1
    a3c0:	88 10 00 03 	mov  %g3, %g4
    a3c4:	83 30 60 01 	srl  %g1, 1, %g1
    a3c8:	1b 00 00 20 	sethi  %hi(0x8000), %o5
    a3cc:	80 8b 20 01 	btst  1, %o4
    a3d0:	12 80 01 39 	bne  a8b4 <crcu32+0x96c>
    a3d4:	82 10 40 0d 	or  %g1, %o5, %g1
    a3d8:	1b 00 00 10 	sethi  %hi(0x4000), %o5
    a3dc:	9a 13 60 02 	or  %o5, 2, %o5	! 4002 <ee_printf+0x886>
    a3e0:	85 28 a0 10 	sll  %g2, 0x10, %g2
    a3e4:	88 09 20 ff 	and  %g4, 0xff, %g4
    a3e8:	83 30 a0 10 	srl  %g2, 0x10, %g1
    a3ec:	89 31 20 01 	srl  %g4, 1, %g4
    a3f0:	98 18 c0 01 	xor  %g3, %g1, %o4
    a3f4:	85 30 a0 11 	srl  %g2, 0x11, %g2
    a3f8:	82 18 40 0d 	xor  %g1, %o5, %g1
    a3fc:	86 10 00 04 	mov  %g4, %g3
    a400:	83 30 60 01 	srl  %g1, 1, %g1
    a404:	1b 00 00 20 	sethi  %hi(0x8000), %o5
    a408:	80 8b 20 01 	btst  1, %o4
    a40c:	12 80 01 28 	bne  a8ac <crcu32+0x964>
    a410:	82 10 40 0d 	or  %g1, %o5, %g1
    a414:	85 28 a0 10 	sll  %g2, 0x10, %g2
    a418:	83 30 a0 10 	srl  %g2, 0x10, %g1
    a41c:	88 19 00 01 	xor  %g4, %g1, %g4
    a420:	86 08 e0 ff 	and  %g3, 0xff, %g3
    a424:	19 00 00 10 	sethi  %hi(0x4000), %o4
    a428:	87 30 e0 01 	srl  %g3, 1, %g3
    a42c:	98 13 20 02 	or  %o4, 2, %o4
    a430:	80 89 20 01 	btst  1, %g4
    a434:	82 18 40 0c 	xor  %g1, %o4, %g1
    a438:	09 00 00 20 	sethi  %hi(0x8000), %g4
    a43c:	83 30 60 01 	srl  %g1, 1, %g1
    a440:	9a 10 00 03 	mov  %g3, %o5
    a444:	85 30 a0 11 	srl  %g2, 0x11, %g2
    a448:	12 80 01 17 	bne  a8a4 <crcu32+0x95c>
    a44c:	82 10 40 04 	or  %g1, %g4, %g1
    a450:	09 00 00 10 	sethi  %hi(0x4000), %g4
    a454:	88 11 20 02 	or  %g4, 2, %g4	! 4002 <ee_printf+0x886>
    a458:	85 28 a0 10 	sll  %g2, 0x10, %g2
    a45c:	83 30 a0 10 	srl  %g2, 0x10, %g1
    a460:	85 30 a0 11 	srl  %g2, 0x11, %g2
    a464:	86 18 c0 01 	xor  %g3, %g1, %g3
    a468:	82 18 40 04 	xor  %g1, %g4, %g1
    a46c:	80 88 e0 01 	btst  1, %g3
    a470:	83 30 60 01 	srl  %g1, 1, %g1
    a474:	09 00 00 20 	sethi  %hi(0x8000), %g4
    a478:	12 80 01 09 	bne  a89c <crcu32+0x954>
    a47c:	82 10 40 04 	or  %g1, %g4, %g1
    a480:	86 0b 60 ff 	and  %o5, 0xff, %g3
    a484:	87 30 e0 01 	srl  %g3, 1, %g3
    a488:	85 28 a0 10 	sll  %g2, 0x10, %g2
    a48c:	1b 00 00 10 	sethi  %hi(0x4000), %o5
    a490:	83 30 a0 10 	srl  %g2, 0x10, %g1
    a494:	9a 13 60 02 	or  %o5, 2, %o5
    a498:	88 08 60 01 	and  %g1, 1, %g4
    a49c:	85 30 a0 11 	srl  %g2, 0x11, %g2
    a4a0:	82 18 40 0d 	xor  %g1, %o5, %g1
    a4a4:	80 a1 00 03 	cmp  %g4, %g3
    a4a8:	83 30 60 01 	srl  %g1, 1, %g1
    a4ac:	07 00 00 20 	sethi  %hi(0x8000), %g3
    a4b0:	12 80 00 f9 	bne  a894 <crcu32+0x94c>
    a4b4:	82 10 40 03 	or  %g1, %g3, %g1
    a4b8:	1b 00 00 10 	sethi  %hi(0x4000), %o5
    a4bc:	9a 13 60 02 	or  %o5, 2, %o5	! 4002 <ee_printf+0x886>
    a4c0:	85 28 a0 10 	sll  %g2, 0x10, %g2
    a4c4:	91 32 20 08 	srl  %o0, 8, %o0
    a4c8:	83 30 a0 10 	srl  %g2, 0x10, %g1
    a4cc:	89 32 20 01 	srl  %o0, 1, %g4
    a4d0:	85 30 a0 11 	srl  %g2, 0x11, %g2
    a4d4:	90 1a 00 01 	xor  %o0, %g1, %o0
    a4d8:	86 10 00 04 	mov  %g4, %g3
    a4dc:	82 18 40 0d 	xor  %g1, %o5, %g1
    a4e0:	80 8a 20 01 	btst  1, %o0
    a4e4:	83 30 60 01 	srl  %g1, 1, %g1
    a4e8:	1b 00 00 20 	sethi  %hi(0x8000), %o5
    a4ec:	12 80 00 e8 	bne  a88c <crcu32+0x944>
    a4f0:	82 10 40 0d 	or  %g1, %o5, %g1
    a4f4:	1b 00 00 10 	sethi  %hi(0x4000), %o5
    a4f8:	9a 13 60 02 	or  %o5, 2, %o5	! 4002 <ee_printf+0x886>
    a4fc:	85 28 a0 10 	sll  %g2, 0x10, %g2
    a500:	86 08 e0 ff 	and  %g3, 0xff, %g3
    a504:	83 30 a0 10 	srl  %g2, 0x10, %g1
    a508:	87 30 e0 01 	srl  %g3, 1, %g3
    a50c:	98 19 00 01 	xor  %g4, %g1, %o4
    a510:	85 30 a0 11 	srl  %g2, 0x11, %g2
    a514:	82 18 40 0d 	xor  %g1, %o5, %g1
    a518:	88 10 00 03 	mov  %g3, %g4
    a51c:	83 30 60 01 	srl  %g1, 1, %g1
    a520:	1b 00 00 20 	sethi  %hi(0x8000), %o5
    a524:	80 8b 20 01 	btst  1, %o4
    a528:	12 80 00 d7 	bne  a884 <crcu32+0x93c>
    a52c:	82 10 40 0d 	or  %g1, %o5, %g1
    a530:	1b 00 00 10 	sethi  %hi(0x4000), %o5
    a534:	9a 13 60 02 	or  %o5, 2, %o5	! 4002 <ee_printf+0x886>
    a538:	85 28 a0 10 	sll  %g2, 0x10, %g2
    a53c:	88 09 20 ff 	and  %g4, 0xff, %g4
    a540:	83 30 a0 10 	srl  %g2, 0x10, %g1
    a544:	89 31 20 01 	srl  %g4, 1, %g4
    a548:	98 18 c0 01 	xor  %g3, %g1, %o4
    a54c:	85 30 a0 11 	srl  %g2, 0x11, %g2
    a550:	82 18 40 0d 	xor  %g1, %o5, %g1
    a554:	86 10 00 04 	mov  %g4, %g3
    a558:	83 30 60 01 	srl  %g1, 1, %g1
    a55c:	1b 00 00 20 	sethi  %hi(0x8000), %o5
    a560:	80 8b 20 01 	btst  1, %o4
    a564:	12 80 00 c6 	bne  a87c <crcu32+0x934>
    a568:	82 10 40 0d 	or  %g1, %o5, %g1
    a56c:	1b 00 00 10 	sethi  %hi(0x4000), %o5
    a570:	9a 13 60 02 	or  %o5, 2, %o5	! 4002 <ee_printf+0x886>
    a574:	85 28 a0 10 	sll  %g2, 0x10, %g2
    a578:	86 08 e0 ff 	and  %g3, 0xff, %g3
    a57c:	83 30 a0 10 	srl  %g2, 0x10, %g1
    a580:	87 30 e0 01 	srl  %g3, 1, %g3
    a584:	98 19 00 01 	xor  %g4, %g1, %o4
    a588:	85 30 a0 11 	srl  %g2, 0x11, %g2
    a58c:	82 18 40 0d 	xor  %g1, %o5, %g1
    a590:	88 10 00 03 	mov  %g3, %g4
    a594:	83 30 60 01 	srl  %g1, 1, %g1
    a598:	1b 00 00 20 	sethi  %hi(0x8000), %o5
    a59c:	80 8b 20 01 	btst  1, %o4
    a5a0:	12 80 00 b5 	bne  a874 <crcu32+0x92c>
    a5a4:	82 10 40 0d 	or  %g1, %o5, %g1
    a5a8:	1b 00 00 10 	sethi  %hi(0x4000), %o5
    a5ac:	9a 13 60 02 	or  %o5, 2, %o5	! 4002 <ee_printf+0x886>
    a5b0:	85 28 a0 10 	sll  %g2, 0x10, %g2
    a5b4:	88 09 20 ff 	and  %g4, 0xff, %g4
    a5b8:	83 30 a0 10 	srl  %g2, 0x10, %g1
    a5bc:	89 31 20 01 	srl  %g4, 1, %g4
    a5c0:	98 18 c0 01 	xor  %g3, %g1, %o4
    a5c4:	85 30 a0 11 	srl  %g2, 0x11, %g2
    a5c8:	82 18 40 0d 	xor  %g1, %o5, %g1
    a5cc:	86 10 00 04 	mov  %g4, %g3
    a5d0:	83 30 60 01 	srl  %g1, 1, %g1
    a5d4:	1b 00 00 20 	sethi  %hi(0x8000), %o5
    a5d8:	80 8b 20 01 	btst  1, %o4
    a5dc:	12 80 00 a4 	bne  a86c <crcu32+0x924>
    a5e0:	82 10 40 0d 	or  %g1, %o5, %g1
    a5e4:	85 28 a0 10 	sll  %g2, 0x10, %g2
    a5e8:	83 30 a0 10 	srl  %g2, 0x10, %g1
    a5ec:	88 19 00 01 	xor  %g4, %g1, %g4
    a5f0:	86 08 e0 ff 	and  %g3, 0xff, %g3
    a5f4:	19 00 00 10 	sethi  %hi(0x4000), %o4
    a5f8:	87 30 e0 01 	srl  %g3, 1, %g3
    a5fc:	98 13 20 02 	or  %o4, 2, %o4
    a600:	80 89 20 01 	btst  1, %g4
    a604:	82 18 40 0c 	xor  %g1, %o4, %g1
    a608:	09 00 00 20 	sethi  %hi(0x8000), %g4
    a60c:	83 30 60 01 	srl  %g1, 1, %g1
    a610:	9a 10 00 03 	mov  %g3, %o5
    a614:	85 30 a0 11 	srl  %g2, 0x11, %g2
    a618:	12 80 00 93 	bne  a864 <crcu32+0x91c>
    a61c:	82 10 40 04 	or  %g1, %g4, %g1
    a620:	09 00 00 10 	sethi  %hi(0x4000), %g4
    a624:	88 11 20 02 	or  %g4, 2, %g4	! 4002 <ee_printf+0x886>
    a628:	85 28 a0 10 	sll  %g2, 0x10, %g2
    a62c:	83 30 a0 10 	srl  %g2, 0x10, %g1
    a630:	85 30 a0 11 	srl  %g2, 0x11, %g2
    a634:	86 18 c0 01 	xor  %g3, %g1, %g3
    a638:	82 18 40 04 	xor  %g1, %g4, %g1
    a63c:	80 88 e0 01 	btst  1, %g3
    a640:	83 30 60 01 	srl  %g1, 1, %g1
    a644:	09 00 00 20 	sethi  %hi(0x8000), %g4
    a648:	12 80 00 85 	bne  a85c <crcu32+0x914>
    a64c:	82 10 40 04 	or  %g1, %g4, %g1
    a650:	86 0b 60 ff 	and  %o5, 0xff, %g3
    a654:	87 30 e0 01 	srl  %g3, 1, %g3
    a658:	85 28 a0 10 	sll  %g2, 0x10, %g2
    a65c:	1b 00 00 10 	sethi  %hi(0x4000), %o5
    a660:	83 30 a0 10 	srl  %g2, 0x10, %g1
    a664:	9a 13 60 02 	or  %o5, 2, %o5
    a668:	88 08 60 01 	and  %g1, 1, %g4
    a66c:	85 30 a0 11 	srl  %g2, 0x11, %g2
    a670:	82 18 40 0d 	xor  %g1, %o5, %g1
    a674:	80 a1 00 03 	cmp  %g4, %g3
    a678:	83 30 60 01 	srl  %g1, 1, %g1
    a67c:	07 00 00 20 	sethi  %hi(0x8000), %g3
    a680:	12 80 00 73 	bne  a84c <crcu32+0x904>
    a684:	82 10 40 03 	or  %g1, %g3, %g1
    a688:	91 28 a0 10 	sll  %g2, 0x10, %o0
    a68c:	81 c3 e0 08 	retl 
    a690:	91 32 20 10 	srl  %o0, 0x10, %o0
    a694:	84 10 00 0d 	mov  %o5, %g2
    a698:	1b 00 00 10 	sethi  %hi(0x4000), %o5
    a69c:	9a 13 60 02 	or  %o5, 2, %o5	! 4002 <ee_printf+0x886>
    a6a0:	85 28 a0 10 	sll  %g2, 0x10, %g2
    a6a4:	86 08 e0 ff 	and  %g3, 0xff, %g3
    a6a8:	83 30 a0 10 	srl  %g2, 0x10, %g1
    a6ac:	87 30 e0 01 	srl  %g3, 1, %g3
    a6b0:	98 19 00 01 	xor  %g4, %g1, %o4
    a6b4:	85 30 a0 11 	srl  %g2, 0x11, %g2
    a6b8:	82 18 40 0d 	xor  %g1, %o5, %g1
    a6bc:	88 10 00 03 	mov  %g3, %g4
    a6c0:	83 30 60 01 	srl  %g1, 1, %g1
    a6c4:	1b 00 00 20 	sethi  %hi(0x8000), %o5
    a6c8:	80 8b 20 01 	btst  1, %o4
    a6cc:	02 bf fe 3b 	be  9fb8 <crcu32+0x70>
    a6d0:	82 10 40 0d 	or  %g1, %o5, %g1
    a6d4:	1b 00 00 10 	sethi  %hi(0x4000), %o5
    a6d8:	9a 13 60 02 	or  %o5, 2, %o5	! 4002 <ee_printf+0x886>
    a6dc:	84 10 00 01 	mov  %g1, %g2
    a6e0:	88 09 20 ff 	and  %g4, 0xff, %g4
    a6e4:	85 28 a0 10 	sll  %g2, 0x10, %g2
    a6e8:	89 31 20 01 	srl  %g4, 1, %g4
    a6ec:	83 30 a0 10 	srl  %g2, 0x10, %g1
    a6f0:	85 30 a0 11 	srl  %g2, 0x11, %g2
    a6f4:	98 18 c0 01 	xor  %g3, %g1, %o4
    a6f8:	82 18 40 0d 	xor  %g1, %o5, %g1
    a6fc:	86 10 00 04 	mov  %g4, %g3
    a700:	83 30 60 01 	srl  %g1, 1, %g1
    a704:	1b 00 00 20 	sethi  %hi(0x8000), %o5
    a708:	80 8b 20 01 	btst  1, %o4
    a70c:	02 bf fe 3a 	be  9ff4 <crcu32+0xac>
    a710:	82 10 40 0d 	or  %g1, %o5, %g1
    a714:	1b 00 00 10 	sethi  %hi(0x4000), %o5
    a718:	9a 13 60 02 	or  %o5, 2, %o5	! 4002 <ee_printf+0x886>
    a71c:	84 10 00 01 	mov  %g1, %g2
    a720:	86 08 e0 ff 	and  %g3, 0xff, %g3
    a724:	85 28 a0 10 	sll  %g2, 0x10, %g2
    a728:	87 30 e0 01 	srl  %g3, 1, %g3
    a72c:	83 30 a0 10 	srl  %g2, 0x10, %g1
    a730:	85 30 a0 11 	srl  %g2, 0x11, %g2
    a734:	98 19 00 01 	xor  %g4, %g1, %o4
    a738:	82 18 40 0d 	xor  %g1, %o5, %g1
    a73c:	88 10 00 03 	mov  %g3, %g4
    a740:	83 30 60 01 	srl  %g1, 1, %g1
    a744:	1b 00 00 20 	sethi  %hi(0x8000), %o5
    a748:	80 8b 20 01 	btst  1, %o4
    a74c:	02 bf fe 39 	be  a030 <crcu32+0xe8>
    a750:	82 10 40 0d 	or  %g1, %o5, %g1
    a754:	1b 00 00 10 	sethi  %hi(0x4000), %o5
    a758:	9a 13 60 02 	or  %o5, 2, %o5	! 4002 <ee_printf+0x886>
    a75c:	84 10 00 01 	mov  %g1, %g2
    a760:	88 09 20 ff 	and  %g4, 0xff, %g4
    a764:	85 28 a0 10 	sll  %g2, 0x10, %g2
    a768:	89 31 20 01 	srl  %g4, 1, %g4
    a76c:	83 30 a0 10 	srl  %g2, 0x10, %g1
    a770:	85 30 a0 11 	srl  %g2, 0x11, %g2
    a774:	98 18 c0 01 	xor  %g3, %g1, %o4
    a778:	82 18 40 0d 	xor  %g1, %o5, %g1
    a77c:	86 10 00 04 	mov  %g4, %g3
    a780:	83 30 60 01 	srl  %g1, 1, %g1
    a784:	1b 00 00 20 	sethi  %hi(0x8000), %o5
    a788:	80 8b 20 01 	btst  1, %o4
    a78c:	02 bf fe 38 	be  a06c <crcu32+0x124>
    a790:	82 10 40 0d 	or  %g1, %o5, %g1
    a794:	84 10 00 01 	mov  %g1, %g2
    a798:	85 28 a0 10 	sll  %g2, 0x10, %g2
    a79c:	83 30 a0 10 	srl  %g2, 0x10, %g1
    a7a0:	88 19 00 01 	xor  %g4, %g1, %g4
    a7a4:	86 08 e0 ff 	and  %g3, 0xff, %g3
    a7a8:	19 00 00 10 	sethi  %hi(0x4000), %o4
    a7ac:	87 30 e0 01 	srl  %g3, 1, %g3
    a7b0:	98 13 20 02 	or  %o4, 2, %o4
    a7b4:	80 89 20 01 	btst  1, %g4
    a7b8:	82 18 40 0c 	xor  %g1, %o4, %g1
    a7bc:	09 00 00 20 	sethi  %hi(0x8000), %g4
    a7c0:	83 30 60 01 	srl  %g1, 1, %g1
    a7c4:	9a 10 00 03 	mov  %g3, %o5
    a7c8:	85 30 a0 11 	srl  %g2, 0x11, %g2
    a7cc:	02 bf fe 37 	be  a0a8 <crcu32+0x160>
    a7d0:	82 10 40 04 	or  %g1, %g4, %g1
    a7d4:	09 00 00 10 	sethi  %hi(0x4000), %g4
    a7d8:	88 11 20 02 	or  %g4, 2, %g4	! 4002 <ee_printf+0x886>
    a7dc:	84 10 00 01 	mov  %g1, %g2
    a7e0:	85 28 a0 10 	sll  %g2, 0x10, %g2
    a7e4:	83 30 a0 10 	srl  %g2, 0x10, %g1
    a7e8:	85 30 a0 11 	srl  %g2, 0x11, %g2
    a7ec:	86 18 c0 01 	xor  %g3, %g1, %g3
    a7f0:	82 18 40 04 	xor  %g1, %g4, %g1
    a7f4:	80 88 e0 01 	btst  1, %g3
    a7f8:	83 30 60 01 	srl  %g1, 1, %g1
    a7fc:	09 00 00 20 	sethi  %hi(0x8000), %g4
    a800:	02 bf fe 36 	be  a0d8 <crcu32+0x190>
    a804:	82 10 40 04 	or  %g1, %g4, %g1
    a808:	86 0b 60 ff 	and  %o5, 0xff, %g3
    a80c:	87 30 e0 01 	srl  %g3, 1, %g3
    a810:	84 10 00 01 	mov  %g1, %g2
    a814:	1b 00 00 10 	sethi  %hi(0x4000), %o5
    a818:	85 28 a0 10 	sll  %g2, 0x10, %g2
    a81c:	9a 13 60 02 	or  %o5, 2, %o5
    a820:	83 30 a0 10 	srl  %g2, 0x10, %g1
    a824:	85 30 a0 11 	srl  %g2, 0x11, %g2
    a828:	88 08 60 01 	and  %g1, 1, %g4
    a82c:	82 18 40 0d 	xor  %g1, %o5, %g1
    a830:	80 a1 00 03 	cmp  %g4, %g3
    a834:	83 30 60 01 	srl  %g1, 1, %g1
    a838:	07 00 00 20 	sethi  %hi(0x8000), %g3
    a83c:	02 bf fe 35 	be  a110 <crcu32+0x1c8>
    a840:	82 10 40 03 	or  %g1, %g3, %g1
    a844:	10 bf fe 33 	b  a110 <crcu32+0x1c8>
    a848:	84 10 00 01 	mov  %g1, %g2
    a84c:	84 10 00 01 	mov  %g1, %g2
    a850:	91 28 a0 10 	sll  %g2, 0x10, %o0
    a854:	81 c3 e0 08 	retl 
    a858:	91 32 20 10 	srl  %o0, 0x10, %o0
    a85c:	10 bf ff 7d 	b  a650 <crcu32+0x708>
    a860:	84 10 00 01 	mov  %g1, %g2
    a864:	10 bf ff 6f 	b  a620 <crcu32+0x6d8>
    a868:	84 10 00 01 	mov  %g1, %g2
    a86c:	10 bf ff 5e 	b  a5e4 <crcu32+0x69c>
    a870:	84 10 00 01 	mov  %g1, %g2
    a874:	10 bf ff 4d 	b  a5a8 <crcu32+0x660>
    a878:	84 10 00 01 	mov  %g1, %g2
    a87c:	10 bf ff 3c 	b  a56c <crcu32+0x624>
    a880:	84 10 00 01 	mov  %g1, %g2
    a884:	10 bf ff 2b 	b  a530 <crcu32+0x5e8>
    a888:	84 10 00 01 	mov  %g1, %g2
    a88c:	10 bf ff 1a 	b  a4f4 <crcu32+0x5ac>
    a890:	84 10 00 01 	mov  %g1, %g2
    a894:	10 bf ff 09 	b  a4b8 <crcu32+0x570>
    a898:	84 10 00 01 	mov  %g1, %g2
    a89c:	10 bf fe f9 	b  a480 <crcu32+0x538>
    a8a0:	84 10 00 01 	mov  %g1, %g2
    a8a4:	10 bf fe eb 	b  a450 <crcu32+0x508>
    a8a8:	84 10 00 01 	mov  %g1, %g2
    a8ac:	10 bf fe da 	b  a414 <crcu32+0x4cc>
    a8b0:	84 10 00 01 	mov  %g1, %g2
    a8b4:	10 bf fe c9 	b  a3d8 <crcu32+0x490>
    a8b8:	84 10 00 01 	mov  %g1, %g2
    a8bc:	10 bf fe b8 	b  a39c <crcu32+0x454>
    a8c0:	84 10 00 01 	mov  %g1, %g2
    a8c4:	10 bf fe a7 	b  a360 <crcu32+0x418>
    a8c8:	84 10 00 01 	mov  %g1, %g2
    a8cc:	10 bf fe 96 	b  a324 <crcu32+0x3dc>
    a8d0:	84 10 00 01 	mov  %g1, %g2
    a8d4:	10 bf fe 84 	b  a2e4 <crcu32+0x39c>
    a8d8:	84 10 00 01 	mov  %g1, %g2
    a8dc:	10 bf fe 74 	b  a2ac <crcu32+0x364>
    a8e0:	84 10 00 01 	mov  %g1, %g2
    a8e4:	10 bf fe 66 	b  a27c <crcu32+0x334>
    a8e8:	84 10 00 01 	mov  %g1, %g2
    a8ec:	10 bf fe 55 	b  a240 <crcu32+0x2f8>
    a8f0:	84 10 00 01 	mov  %g1, %g2
    a8f4:	10 bf fe 44 	b  a204 <crcu32+0x2bc>
    a8f8:	84 10 00 01 	mov  %g1, %g2
    a8fc:	10 bf fe 33 	b  a1c8 <crcu32+0x280>
    a900:	84 10 00 01 	mov  %g1, %g2
    a904:	10 bf fe 22 	b  a18c <crcu32+0x244>
    a908:	84 10 00 01 	mov  %g1, %g2
    a90c:	10 bf fe 11 	b  a150 <crcu32+0x208>
    a910:	84 10 00 01 	mov  %g1, %g2

0000a914 <crc16>:
    a914:	05 00 00 20 	sethi  %hi(0x8000), %g2
    a918:	82 1a 00 09 	xor  %o0, %o1, %g1
    a91c:	88 0a 20 ff 	and  %o0, 0xff, %g4
    a920:	1b 00 00 10 	sethi  %hi(0x4000), %o5
    a924:	89 31 20 01 	srl  %g4, 1, %g4
    a928:	9a 13 60 02 	or  %o5, 2, %o5
    a92c:	86 10 00 04 	mov  %g4, %g3
    a930:	9a 1a 40 0d 	xor  %o1, %o5, %o5
    a934:	80 88 60 01 	btst  1, %g1
    a938:	9b 33 60 01 	srl  %o5, 1, %o5
    a93c:	9a 13 40 02 	or  %o5, %g2, %o5
    a940:	12 80 00 df 	bne  acbc <crc16+0x3a8>
    a944:	85 32 60 01 	srl  %o1, 1, %g2
    a948:	1b 00 00 10 	sethi  %hi(0x4000), %o5
    a94c:	9a 13 60 02 	or  %o5, 2, %o5	! 4002 <ee_printf+0x886>
    a950:	85 28 a0 10 	sll  %g2, 0x10, %g2
    a954:	86 08 e0 ff 	and  %g3, 0xff, %g3
    a958:	83 30 a0 10 	srl  %g2, 0x10, %g1
    a95c:	87 30 e0 01 	srl  %g3, 1, %g3
    a960:	98 19 00 01 	xor  %g4, %g1, %o4
    a964:	85 30 a0 11 	srl  %g2, 0x11, %g2
    a968:	82 18 40 0d 	xor  %g1, %o5, %g1
    a96c:	88 10 00 03 	mov  %g3, %g4
    a970:	83 30 60 01 	srl  %g1, 1, %g1
    a974:	1b 00 00 20 	sethi  %hi(0x8000), %o5
    a978:	80 8b 20 01 	btst  1, %o4
    a97c:	12 80 00 e0 	bne  acfc <crc16+0x3e8>
    a980:	82 10 40 0d 	or  %g1, %o5, %g1
    a984:	1b 00 00 10 	sethi  %hi(0x4000), %o5
    a988:	9a 13 60 02 	or  %o5, 2, %o5	! 4002 <ee_printf+0x886>
    a98c:	85 28 a0 10 	sll  %g2, 0x10, %g2
    a990:	88 09 20 ff 	and  %g4, 0xff, %g4
    a994:	83 30 a0 10 	srl  %g2, 0x10, %g1
    a998:	89 31 20 01 	srl  %g4, 1, %g4
    a99c:	98 18 c0 01 	xor  %g3, %g1, %o4
    a9a0:	85 30 a0 11 	srl  %g2, 0x11, %g2
    a9a4:	82 18 40 0d 	xor  %g1, %o5, %g1
    a9a8:	86 10 00 04 	mov  %g4, %g3
    a9ac:	83 30 60 01 	srl  %g1, 1, %g1
    a9b0:	1b 00 00 20 	sethi  %hi(0x8000), %o5
    a9b4:	80 8b 20 01 	btst  1, %o4
    a9b8:	12 80 00 e1 	bne  ad3c <crc16+0x428>
    a9bc:	82 10 40 0d 	or  %g1, %o5, %g1
    a9c0:	1b 00 00 10 	sethi  %hi(0x4000), %o5
    a9c4:	9a 13 60 02 	or  %o5, 2, %o5	! 4002 <ee_printf+0x886>
    a9c8:	85 28 a0 10 	sll  %g2, 0x10, %g2
    a9cc:	86 08 e0 ff 	and  %g3, 0xff, %g3
    a9d0:	83 30 a0 10 	srl  %g2, 0x10, %g1
    a9d4:	87 30 e0 01 	srl  %g3, 1, %g3
    a9d8:	98 19 00 01 	xor  %g4, %g1, %o4
    a9dc:	85 30 a0 11 	srl  %g2, 0x11, %g2
    a9e0:	82 18 40 0d 	xor  %g1, %o5, %g1
    a9e4:	88 10 00 03 	mov  %g3, %g4
    a9e8:	83 30 60 01 	srl  %g1, 1, %g1
    a9ec:	1b 00 00 20 	sethi  %hi(0x8000), %o5
    a9f0:	80 8b 20 01 	btst  1, %o4
    a9f4:	12 80 00 e2 	bne  ad7c <crc16+0x468>
    a9f8:	82 10 40 0d 	or  %g1, %o5, %g1
    a9fc:	1b 00 00 10 	sethi  %hi(0x4000), %o5
    aa00:	9a 13 60 02 	or  %o5, 2, %o5	! 4002 <ee_printf+0x886>
    aa04:	85 28 a0 10 	sll  %g2, 0x10, %g2
    aa08:	88 09 20 ff 	and  %g4, 0xff, %g4
    aa0c:	83 30 a0 10 	srl  %g2, 0x10, %g1
    aa10:	89 31 20 01 	srl  %g4, 1, %g4
    aa14:	98 18 c0 01 	xor  %g3, %g1, %o4
    aa18:	85 30 a0 11 	srl  %g2, 0x11, %g2
    aa1c:	82 18 40 0d 	xor  %g1, %o5, %g1
    aa20:	86 10 00 04 	mov  %g4, %g3
    aa24:	83 30 60 01 	srl  %g1, 1, %g1
    aa28:	1b 00 00 20 	sethi  %hi(0x8000), %o5
    aa2c:	80 8b 20 01 	btst  1, %o4
    aa30:	12 80 00 e3 	bne  adbc <crc16+0x4a8>
    aa34:	82 10 40 0d 	or  %g1, %o5, %g1
    aa38:	85 28 a0 10 	sll  %g2, 0x10, %g2
    aa3c:	83 30 a0 10 	srl  %g2, 0x10, %g1
    aa40:	88 19 00 01 	xor  %g4, %g1, %g4
    aa44:	86 08 e0 ff 	and  %g3, 0xff, %g3
    aa48:	19 00 00 10 	sethi  %hi(0x4000), %o4
    aa4c:	87 30 e0 01 	srl  %g3, 1, %g3
    aa50:	98 13 20 02 	or  %o4, 2, %o4
    aa54:	80 89 20 01 	btst  1, %g4
    aa58:	82 18 40 0c 	xor  %g1, %o4, %g1
    aa5c:	09 00 00 20 	sethi  %hi(0x8000), %g4
    aa60:	83 30 60 01 	srl  %g1, 1, %g1
    aa64:	9a 10 00 03 	mov  %g3, %o5
    aa68:	85 30 a0 11 	srl  %g2, 0x11, %g2
    aa6c:	12 80 00 e4 	bne  adfc <crc16+0x4e8>
    aa70:	82 10 40 04 	or  %g1, %g4, %g1
    aa74:	09 00 00 10 	sethi  %hi(0x4000), %g4
    aa78:	88 11 20 02 	or  %g4, 2, %g4	! 4002 <ee_printf+0x886>
    aa7c:	85 28 a0 10 	sll  %g2, 0x10, %g2
    aa80:	83 30 a0 10 	srl  %g2, 0x10, %g1
    aa84:	85 30 a0 11 	srl  %g2, 0x11, %g2
    aa88:	86 18 c0 01 	xor  %g3, %g1, %g3
    aa8c:	82 18 40 04 	xor  %g1, %g4, %g1
    aa90:	80 88 e0 01 	btst  1, %g3
    aa94:	83 30 60 01 	srl  %g1, 1, %g1
    aa98:	09 00 00 20 	sethi  %hi(0x8000), %g4
    aa9c:	12 80 00 e5 	bne  ae30 <crc16+0x51c>
    aaa0:	82 10 40 04 	or  %g1, %g4, %g1
    aaa4:	86 0b 60 ff 	and  %o5, 0xff, %g3
    aaa8:	87 30 e0 01 	srl  %g3, 1, %g3
    aaac:	85 28 a0 10 	sll  %g2, 0x10, %g2
    aab0:	1b 00 00 10 	sethi  %hi(0x4000), %o5
    aab4:	83 30 a0 10 	srl  %g2, 0x10, %g1
    aab8:	9a 13 60 02 	or  %o5, 2, %o5
    aabc:	88 08 60 01 	and  %g1, 1, %g4
    aac0:	85 30 a0 11 	srl  %g2, 0x11, %g2
    aac4:	82 18 40 0d 	xor  %g1, %o5, %g1
    aac8:	80 a1 00 03 	cmp  %g4, %g3
    aacc:	83 30 60 01 	srl  %g1, 1, %g1
    aad0:	07 00 00 20 	sethi  %hi(0x8000), %g3
    aad4:	12 80 00 e6 	bne  ae6c <crc16+0x558>
    aad8:	82 10 40 03 	or  %g1, %g3, %g1
    aadc:	07 00 00 10 	sethi  %hi(0x4000), %g3
    aae0:	86 10 e0 02 	or  %g3, 2, %g3	! 4002 <ee_printf+0x886>
    aae4:	85 28 a0 10 	sll  %g2, 0x10, %g2
    aae8:	91 2a 20 10 	sll  %o0, 0x10, %o0
    aaec:	83 30 a0 10 	srl  %g2, 0x10, %g1
    aaf0:	91 32 20 18 	srl  %o0, 0x18, %o0
    aaf4:	1b 00 00 20 	sethi  %hi(0x8000), %o5
    aaf8:	88 1a 00 01 	xor  %o0, %g1, %g4
    aafc:	85 30 a0 11 	srl  %g2, 0x11, %g2
    ab00:	82 18 40 03 	xor  %g1, %g3, %g1
    ab04:	91 32 20 01 	srl  %o0, 1, %o0
    ab08:	83 30 60 01 	srl  %g1, 1, %g1
    ab0c:	86 10 00 08 	mov  %o0, %g3
    ab10:	80 89 20 01 	btst  1, %g4
    ab14:	12 80 00 e8 	bne  aeb4 <crc16+0x5a0>
    ab18:	82 10 40 0d 	or  %g1, %o5, %g1
    ab1c:	1b 00 00 10 	sethi  %hi(0x4000), %o5
    ab20:	9a 13 60 02 	or  %o5, 2, %o5	! 4002 <ee_printf+0x886>
    ab24:	85 28 a0 10 	sll  %g2, 0x10, %g2
    ab28:	86 08 e0 ff 	and  %g3, 0xff, %g3
    ab2c:	83 30 a0 10 	srl  %g2, 0x10, %g1
    ab30:	87 30 e0 01 	srl  %g3, 1, %g3
    ab34:	90 1a 00 01 	xor  %o0, %g1, %o0
    ab38:	88 10 00 03 	mov  %g3, %g4
    ab3c:	82 18 40 0d 	xor  %g1, %o5, %g1
    ab40:	85 30 a0 11 	srl  %g2, 0x11, %g2
    ab44:	83 30 60 01 	srl  %g1, 1, %g1
    ab48:	1b 00 00 20 	sethi  %hi(0x8000), %o5
    ab4c:	80 8a 20 01 	btst  1, %o0
    ab50:	12 80 00 d7 	bne  aeac <crc16+0x598>
    ab54:	82 10 40 0d 	or  %g1, %o5, %g1
    ab58:	1b 00 00 10 	sethi  %hi(0x4000), %o5
    ab5c:	9a 13 60 02 	or  %o5, 2, %o5	! 4002 <ee_printf+0x886>
    ab60:	85 28 a0 10 	sll  %g2, 0x10, %g2
    ab64:	88 09 20 ff 	and  %g4, 0xff, %g4
    ab68:	83 30 a0 10 	srl  %g2, 0x10, %g1
    ab6c:	89 31 20 01 	srl  %g4, 1, %g4
    ab70:	98 18 c0 01 	xor  %g3, %g1, %o4
    ab74:	85 30 a0 11 	srl  %g2, 0x11, %g2
    ab78:	82 18 40 0d 	xor  %g1, %o5, %g1
    ab7c:	86 10 00 04 	mov  %g4, %g3
    ab80:	83 30 60 01 	srl  %g1, 1, %g1
    ab84:	1b 00 00 20 	sethi  %hi(0x8000), %o5
    ab88:	80 8b 20 01 	btst  1, %o4
    ab8c:	12 80 00 c6 	bne  aea4 <crc16+0x590>
    ab90:	82 10 40 0d 	or  %g1, %o5, %g1
    ab94:	1b 00 00 10 	sethi  %hi(0x4000), %o5
    ab98:	9a 13 60 02 	or  %o5, 2, %o5	! 4002 <ee_printf+0x886>
    ab9c:	85 28 a0 10 	sll  %g2, 0x10, %g2
    aba0:	86 08 e0 ff 	and  %g3, 0xff, %g3
    aba4:	83 30 a0 10 	srl  %g2, 0x10, %g1
    aba8:	87 30 e0 01 	srl  %g3, 1, %g3
    abac:	98 19 00 01 	xor  %g4, %g1, %o4
    abb0:	85 30 a0 11 	srl  %g2, 0x11, %g2
    abb4:	82 18 40 0d 	xor  %g1, %o5, %g1
    abb8:	88 10 00 03 	mov  %g3, %g4
    abbc:	83 30 60 01 	srl  %g1, 1, %g1
    abc0:	1b 00 00 20 	sethi  %hi(0x8000), %o5
    abc4:	80 8b 20 01 	btst  1, %o4
    abc8:	12 80 00 b5 	bne  ae9c <crc16+0x588>
    abcc:	82 10 40 0d 	or  %g1, %o5, %g1
    abd0:	1b 00 00 10 	sethi  %hi(0x4000), %o5
    abd4:	9a 13 60 02 	or  %o5, 2, %o5	! 4002 <ee_printf+0x886>
    abd8:	85 28 a0 10 	sll  %g2, 0x10, %g2
    abdc:	88 09 20 ff 	and  %g4, 0xff, %g4
    abe0:	83 30 a0 10 	srl  %g2, 0x10, %g1
    abe4:	89 31 20 01 	srl  %g4, 1, %g4
    abe8:	98 18 c0 01 	xor  %g3, %g1, %o4
    abec:	85 30 a0 11 	srl  %g2, 0x11, %g2
    abf0:	82 18 40 0d 	xor  %g1, %o5, %g1
    abf4:	86 10 00 04 	mov  %g4, %g3
    abf8:	83 30 60 01 	srl  %g1, 1, %g1
    abfc:	1b 00 00 20 	sethi  %hi(0x8000), %o5
    ac00:	80 8b 20 01 	btst  1, %o4
    ac04:	12 80 00 a4 	bne  ae94 <crc16+0x580>
    ac08:	82 10 40 0d 	or  %g1, %o5, %g1
    ac0c:	85 28 a0 10 	sll  %g2, 0x10, %g2
    ac10:	83 30 a0 10 	srl  %g2, 0x10, %g1
    ac14:	88 19 00 01 	xor  %g4, %g1, %g4
    ac18:	86 08 e0 ff 	and  %g3, 0xff, %g3
    ac1c:	19 00 00 10 	sethi  %hi(0x4000), %o4
    ac20:	87 30 e0 01 	srl  %g3, 1, %g3
    ac24:	98 13 20 02 	or  %o4, 2, %o4
    ac28:	80 89 20 01 	btst  1, %g4
    ac2c:	82 18 40 0c 	xor  %g1, %o4, %g1
    ac30:	09 00 00 20 	sethi  %hi(0x8000), %g4
    ac34:	83 30 60 01 	srl  %g1, 1, %g1
    ac38:	9a 10 00 03 	mov  %g3, %o5
    ac3c:	85 30 a0 11 	srl  %g2, 0x11, %g2
    ac40:	12 80 00 93 	bne  ae8c <crc16+0x578>
    ac44:	82 10 40 04 	or  %g1, %g4, %g1
    ac48:	09 00 00 10 	sethi  %hi(0x4000), %g4
    ac4c:	88 11 20 02 	or  %g4, 2, %g4	! 4002 <ee_printf+0x886>
    ac50:	85 28 a0 10 	sll  %g2, 0x10, %g2
    ac54:	83 30 a0 10 	srl  %g2, 0x10, %g1
    ac58:	85 30 a0 11 	srl  %g2, 0x11, %g2
    ac5c:	86 18 c0 01 	xor  %g3, %g1, %g3
    ac60:	82 18 40 04 	xor  %g1, %g4, %g1
    ac64:	80 88 e0 01 	btst  1, %g3
    ac68:	83 30 60 01 	srl  %g1, 1, %g1
    ac6c:	09 00 00 20 	sethi  %hi(0x8000), %g4
    ac70:	12 80 00 85 	bne  ae84 <crc16+0x570>
    ac74:	82 10 40 04 	or  %g1, %g4, %g1
    ac78:	86 0b 60 ff 	and  %o5, 0xff, %g3
    ac7c:	87 30 e0 01 	srl  %g3, 1, %g3
    ac80:	85 28 a0 10 	sll  %g2, 0x10, %g2
    ac84:	1b 00 00 10 	sethi  %hi(0x4000), %o5
    ac88:	83 30 a0 10 	srl  %g2, 0x10, %g1
    ac8c:	9a 13 60 02 	or  %o5, 2, %o5
    ac90:	88 08 60 01 	and  %g1, 1, %g4
    ac94:	85 30 a0 11 	srl  %g2, 0x11, %g2
    ac98:	82 18 40 0d 	xor  %g1, %o5, %g1
    ac9c:	80 a1 00 03 	cmp  %g4, %g3
    aca0:	83 30 60 01 	srl  %g1, 1, %g1
    aca4:	07 00 00 20 	sethi  %hi(0x8000), %g3
    aca8:	12 80 00 73 	bne  ae74 <crc16+0x560>
    acac:	82 10 40 03 	or  %g1, %g3, %g1
    acb0:	91 28 a0 10 	sll  %g2, 0x10, %o0
    acb4:	81 c3 e0 08 	retl 
    acb8:	91 32 20 10 	srl  %o0, 0x10, %o0
    acbc:	84 10 00 0d 	mov  %o5, %g2
    acc0:	1b 00 00 10 	sethi  %hi(0x4000), %o5
    acc4:	9a 13 60 02 	or  %o5, 2, %o5	! 4002 <ee_printf+0x886>
    acc8:	85 28 a0 10 	sll  %g2, 0x10, %g2
    accc:	86 08 e0 ff 	and  %g3, 0xff, %g3
    acd0:	83 30 a0 10 	srl  %g2, 0x10, %g1
    acd4:	87 30 e0 01 	srl  %g3, 1, %g3
    acd8:	98 19 00 01 	xor  %g4, %g1, %o4
    acdc:	85 30 a0 11 	srl  %g2, 0x11, %g2
    ace0:	82 18 40 0d 	xor  %g1, %o5, %g1
    ace4:	88 10 00 03 	mov  %g3, %g4
    ace8:	83 30 60 01 	srl  %g1, 1, %g1
    acec:	1b 00 00 20 	sethi  %hi(0x8000), %o5
    acf0:	80 8b 20 01 	btst  1, %o4
    acf4:	02 bf ff 24 	be  a984 <crc16+0x70>
    acf8:	82 10 40 0d 	or  %g1, %o5, %g1
    acfc:	1b 00 00 10 	sethi  %hi(0x4000), %o5
    ad00:	9a 13 60 02 	or  %o5, 2, %o5	! 4002 <ee_printf+0x886>
    ad04:	84 10 00 01 	mov  %g1, %g2
    ad08:	88 09 20 ff 	and  %g4, 0xff, %g4
    ad0c:	85 28 a0 10 	sll  %g2, 0x10, %g2
    ad10:	89 31 20 01 	srl  %g4, 1, %g4
    ad14:	83 30 a0 10 	srl  %g2, 0x10, %g1
    ad18:	85 30 a0 11 	srl  %g2, 0x11, %g2
    ad1c:	98 18 c0 01 	xor  %g3, %g1, %o4
    ad20:	82 18 40 0d 	xor  %g1, %o5, %g1
    ad24:	86 10 00 04 	mov  %g4, %g3
    ad28:	83 30 60 01 	srl  %g1, 1, %g1
    ad2c:	1b 00 00 20 	sethi  %hi(0x8000), %o5
    ad30:	80 8b 20 01 	btst  1, %o4
    ad34:	02 bf ff 23 	be  a9c0 <crc16+0xac>
    ad38:	82 10 40 0d 	or  %g1, %o5, %g1
    ad3c:	1b 00 00 10 	sethi  %hi(0x4000), %o5
    ad40:	9a 13 60 02 	or  %o5, 2, %o5	! 4002 <ee_printf+0x886>
    ad44:	84 10 00 01 	mov  %g1, %g2
    ad48:	86 08 e0 ff 	and  %g3, 0xff, %g3
    ad4c:	85 28 a0 10 	sll  %g2, 0x10, %g2
    ad50:	87 30 e0 01 	srl  %g3, 1, %g3
    ad54:	83 30 a0 10 	srl  %g2, 0x10, %g1
    ad58:	85 30 a0 11 	srl  %g2, 0x11, %g2
    ad5c:	98 19 00 01 	xor  %g4, %g1, %o4
    ad60:	82 18 40 0d 	xor  %g1, %o5, %g1
    ad64:	88 10 00 03 	mov  %g3, %g4
    ad68:	83 30 60 01 	srl  %g1, 1, %g1
    ad6c:	1b 00 00 20 	sethi  %hi(0x8000), %o5
    ad70:	80 8b 20 01 	btst  1, %o4
    ad74:	02 bf ff 22 	be  a9fc <crc16+0xe8>
    ad78:	82 10 40 0d 	or  %g1, %o5, %g1
    ad7c:	1b 00 00 10 	sethi  %hi(0x4000), %o5
    ad80:	9a 13 60 02 	or  %o5, 2, %o5	! 4002 <ee_printf+0x886>
    ad84:	84 10 00 01 	mov  %g1, %g2
    ad88:	88 09 20 ff 	and  %g4, 0xff, %g4
    ad8c:	85 28 a0 10 	sll  %g2, 0x10, %g2
    ad90:	89 31 20 01 	srl  %g4, 1, %g4
    ad94:	83 30 a0 10 	srl  %g2, 0x10, %g1
    ad98:	85 30 a0 11 	srl  %g2, 0x11, %g2
    ad9c:	98 18 c0 01 	xor  %g3, %g1, %o4
    ada0:	82 18 40 0d 	xor  %g1, %o5, %g1
    ada4:	86 10 00 04 	mov  %g4, %g3
    ada8:	83 30 60 01 	srl  %g1, 1, %g1
    adac:	1b 00 00 20 	sethi  %hi(0x8000), %o5
    adb0:	80 8b 20 01 	btst  1, %o4
    adb4:	02 bf ff 21 	be  aa38 <crc16+0x124>
    adb8:	82 10 40 0d 	or  %g1, %o5, %g1
    adbc:	84 10 00 01 	mov  %g1, %g2
    adc0:	85 28 a0 10 	sll  %g2, 0x10, %g2
    adc4:	83 30 a0 10 	srl  %g2, 0x10, %g1
    adc8:	88 19 00 01 	xor  %g4, %g1, %g4
    adcc:	86 08 e0 ff 	and  %g3, 0xff, %g3
    add0:	19 00 00 10 	sethi  %hi(0x4000), %o4
    add4:	87 30 e0 01 	srl  %g3, 1, %g3
    add8:	98 13 20 02 	or  %o4, 2, %o4
    addc:	80 89 20 01 	btst  1, %g4
    ade0:	82 18 40 0c 	xor  %g1, %o4, %g1
    ade4:	09 00 00 20 	sethi  %hi(0x8000), %g4
    ade8:	83 30 60 01 	srl  %g1, 1, %g1
    adec:	9a 10 00 03 	mov  %g3, %o5
    adf0:	85 30 a0 11 	srl  %g2, 0x11, %g2
    adf4:	02 bf ff 20 	be  aa74 <crc16+0x160>
    adf8:	82 10 40 04 	or  %g1, %g4, %g1
    adfc:	09 00 00 10 	sethi  %hi(0x4000), %g4
    ae00:	88 11 20 02 	or  %g4, 2, %g4	! 4002 <ee_printf+0x886>
    ae04:	84 10 00 01 	mov  %g1, %g2
    ae08:	85 28 a0 10 	sll  %g2, 0x10, %g2
    ae0c:	83 30 a0 10 	srl  %g2, 0x10, %g1
    ae10:	85 30 a0 11 	srl  %g2, 0x11, %g2
    ae14:	86 18 c0 01 	xor  %g3, %g1, %g3
    ae18:	82 18 40 04 	xor  %g1, %g4, %g1
    ae1c:	80 88 e0 01 	btst  1, %g3
    ae20:	83 30 60 01 	srl  %g1, 1, %g1
    ae24:	09 00 00 20 	sethi  %hi(0x8000), %g4
    ae28:	02 bf ff 1f 	be  aaa4 <crc16+0x190>
    ae2c:	82 10 40 04 	or  %g1, %g4, %g1
    ae30:	86 0b 60 ff 	and  %o5, 0xff, %g3
    ae34:	87 30 e0 01 	srl  %g3, 1, %g3
    ae38:	84 10 00 01 	mov  %g1, %g2
    ae3c:	1b 00 00 10 	sethi  %hi(0x4000), %o5
    ae40:	85 28 a0 10 	sll  %g2, 0x10, %g2
    ae44:	9a 13 60 02 	or  %o5, 2, %o5
    ae48:	83 30 a0 10 	srl  %g2, 0x10, %g1
    ae4c:	85 30 a0 11 	srl  %g2, 0x11, %g2
    ae50:	88 08 60 01 	and  %g1, 1, %g4
    ae54:	82 18 40 0d 	xor  %g1, %o5, %g1
    ae58:	80 a1 00 03 	cmp  %g4, %g3
    ae5c:	83 30 60 01 	srl  %g1, 1, %g1
    ae60:	07 00 00 20 	sethi  %hi(0x8000), %g3
    ae64:	02 bf ff 1e 	be  aadc <crc16+0x1c8>
    ae68:	82 10 40 03 	or  %g1, %g3, %g1
    ae6c:	10 bf ff 1c 	b  aadc <crc16+0x1c8>
    ae70:	84 10 00 01 	mov  %g1, %g2
    ae74:	84 10 00 01 	mov  %g1, %g2
    ae78:	91 28 a0 10 	sll  %g2, 0x10, %o0
    ae7c:	81 c3 e0 08 	retl 
    ae80:	91 32 20 10 	srl  %o0, 0x10, %o0
    ae84:	10 bf ff 7d 	b  ac78 <crc16+0x364>
    ae88:	84 10 00 01 	mov  %g1, %g2
    ae8c:	10 bf ff 6f 	b  ac48 <crc16+0x334>
    ae90:	84 10 00 01 	mov  %g1, %g2
    ae94:	10 bf ff 5e 	b  ac0c <crc16+0x2f8>
    ae98:	84 10 00 01 	mov  %g1, %g2
    ae9c:	10 bf ff 4d 	b  abd0 <crc16+0x2bc>
    aea0:	84 10 00 01 	mov  %g1, %g2
    aea4:	10 bf ff 3c 	b  ab94 <crc16+0x280>
    aea8:	84 10 00 01 	mov  %g1, %g2
    aeac:	10 bf ff 2b 	b  ab58 <crc16+0x244>
    aeb0:	84 10 00 01 	mov  %g1, %g2
    aeb4:	10 bf ff 1a 	b  ab1c <crc16+0x208>
    aeb8:	84 10 00 01 	mov  %g1, %g2

0000aebc <check_data_types>:
    aebc:	81 c3 e0 08 	retl 
    aec0:	90 10 20 00 	clr  %o0
