
.//main.elf:     file format elf32-sparc


Disassembly of section .text:

00000000 <_start>:
       0:	40 00 00 9d 	call  274 <clear_stack_pointers>
       4:	01 00 00 00 	nop 

00000008 <CORTOS_SET_PSR>:
       8:	21 00 00 04 	sethi  %hi(0x1000), %l0
       c:	a0 14 20 e0 	or  %l0, 0xe0, %l0	! 10e0 <__ajit_serial_set_baudrate_via_bypass__+0x9c>
      10:	81 88 00 10 	mov  %l0, %psr

00000014 <COROTS_WIMSET>:
      14:	a0 10 20 01 	mov  1, %l0
      18:	81 94 20 00 	mov  %l0, %wim
      1c:	21 00 00 20 	sethi  %hi(0x8000), %l0
      20:	a0 14 20 00 	mov  %l0, %l0	! 8000 <trap_table_base>
      24:	81 9c 20 00 	mov  %l0, %tbr

00000028 <CORTOS_READ_CORE_THREAD_ID>:
      28:	a3 47 40 00 	rd  %asr29, %l1

0000002c <CORTOS_SETUP_THREADS>:
      2c:	25 14 14 80 	sethi  %hi(0x50520000), %l2
      30:	80 a4 40 12 	cmp  %l1, %l2
      34:	12 80 00 8c 	bne  264 <CORTOS_HALT_ERROR>
      38:	01 00 00 00 	nop 
      3c:	1d 00 00 57 	sethi  %hi(0x15c00), %sp
      40:	9c 13 a3 a0 	or  %sp, 0x3a0, %sp	! 15fa0 <ajit_global_sw_trap_handlers+0x6d40>
      44:	bc 10 00 00 	mov  %g0, %fp
      48:	05 00 00 38 	sethi  %hi(0xe000), %g2
      4c:	84 10 a3 e0 	or  %g2, 0x3e0, %g2	! e3e0 <INIT_BY_00_DONE>
      50:	c4 00 80 00 	ld  [ %g2 ], %g2
      54:	86 10 20 00 	clr  %g3
      58:	c6 20 80 00 	st  %g3, [ %g2 ]
      5c:	05 00 00 38 	sethi  %hi(0xe000), %g2
      60:	84 10 a3 dc 	or  %g2, 0x3dc, %g2	! e3dc <PT_FLAG>
      64:	c4 00 80 00 	ld  [ %g2 ], %g2
      68:	86 10 20 00 	clr  %g3
      6c:	c6 20 80 00 	st  %g3, [ %g2 ]
      70:	40 00 00 56 	call  1c8 <__cortos_init_region_to_zero>
      74:	01 00 00 00 	nop 
      78:	40 00 1c f4 	call  7448 <page_table_setup>
      7c:	01 00 00 00 	nop 
      80:	2d 00 00 38 	sethi  %hi(0xe000), %l6
      84:	ac 15 a3 dc 	or  %l6, 0x3dc, %l6	! e3dc <PT_FLAG>
      88:	ec 05 80 00 	ld  [ %l6 ], %l6
      8c:	ae 10 20 01 	mov  1, %l7
      90:	ee 25 80 00 	st  %l7, [ %l6 ]
      94:	40 00 1c ef 	call  7450 <set_context_table_pointer>
      98:	01 00 00 00 	nop 
      9c:	90 10 20 01 	mov  1, %o0	! 1 <_start+0x1>
      a0:	d0 a0 00 80 	sta  %o0, [ %g0 ] #ASI_N
      a4:	40 00 00 ed 	call  458 <cortos_init_locks>
      a8:	01 00 00 00 	nop 
      ac:	40 00 10 29 	call  4150 <__cortos_bpool>
      b0:	01 00 00 00 	nop 
      b4:	40 00 02 04 	call  8c4 <cortos_init_hw_traps>
      b8:	01 00 00 00 	nop 
      bc:	40 00 02 08 	call  8dc <cortos_init_sw_traps>
      c0:	01 00 00 00 	nop 
      c4:	40 00 00 9f 	call  340 <cortos_init_printing>
      c8:	01 00 00 00 	nop 
      cc:	40 00 0f e3 	call  4058 <cortos_init_logging>
      d0:	01 00 00 00 	nop 
      d4:	05 00 00 38 	sethi  %hi(0xe000), %g2
      d8:	84 10 a3 e0 	or  %g2, 0x3e0, %g2	! e3e0 <INIT_BY_00_DONE>
      dc:	c4 00 80 00 	ld  [ %g2 ], %g2
      e0:	86 10 20 01 	mov  1, %g3
      e4:	c6 20 80 00 	st  %g3, [ %g2 ]
      e8:	a3 47 40 00 	rd  %asr29, %l1
      ec:	10 80 00 1c 	b  15c <CORTOS_START_THREADS>
      f0:	01 00 00 00 	nop 

000000f4 <AFTER_PTABLE_SETUP>:
      f4:	2d 00 00 38 	sethi  %hi(0xe000), %l6
      f8:	ac 15 a3 dc 	or  %l6, 0x3dc, %l6	! e3dc <PT_FLAG>
      fc:	ec 05 80 00 	ld  [ %l6 ], %l6
     100:	ee 05 80 00 	ld  [ %l6 ], %l7
     104:	b0 10 20 01 	mov  1, %i0
     108:	80 a6 00 17 	cmp  %i0, %l7
     10c:	12 bf ff fa 	bne  f4 <AFTER_PTABLE_SETUP>
     110:	01 00 00 00 	nop 
     114:	40 00 1c cf 	call  7450 <set_context_table_pointer>
     118:	01 00 00 00 	nop 
     11c:	90 10 20 01 	mov  1, %o0	! 1 <_start+0x1>
     120:	d0 a0 00 80 	sta  %o0, [ %g0 ] #ASI_N
     124:	10 80 00 0e 	b  15c <CORTOS_START_THREADS>
     128:	01 00 00 00 	nop 

0000012c <ODD_THREAD_WAIT_ON_PTABLE_SETUP>:
     12c:	2d 00 00 38 	sethi  %hi(0xe000), %l6
     130:	ac 15 a3 dc 	or  %l6, 0x3dc, %l6	! e3dc <PT_FLAG>
     134:	ec 05 80 00 	ld  [ %l6 ], %l6
     138:	ee 05 80 00 	ld  [ %l6 ], %l7
     13c:	b0 10 20 01 	mov  1, %i0
     140:	80 a6 00 17 	cmp  %i0, %l7
     144:	12 bf ff fa 	bne  12c <ODD_THREAD_WAIT_ON_PTABLE_SETUP>
     148:	01 00 00 00 	nop 
     14c:	40 00 1c c1 	call  7450 <set_context_table_pointer>
     150:	01 00 00 00 	nop 
     154:	90 10 20 01 	mov  1, %o0	! 1 <_start+0x1>
     158:	d0 a0 00 80 	sta  %o0, [ %g0 ] #ASI_N

0000015c <CORTOS_START_THREADS>:
     15c:	25 14 14 80 	sethi  %hi(0x50520000), %l2
     160:	80 a4 40 12 	cmp  %l1, %l2
     164:	12 80 00 40 	bne  264 <CORTOS_HALT_ERROR>
     168:	01 00 00 00 	nop 
     16c:	40 00 23 a5 	call  9000 <main>
     170:	01 00 00 00 	nop 

00000174 <START_THREAD_0_0_LOOP>:
     174:	10 80 00 3e 	b  26c <CORTOS_HALT_OKAY>
     178:	01 00 00 00 	nop 

0000017c <__cortos_clear_stack_pointers>:
     17c:	81 90 00 00 	mov  %g0, %wim
     180:	9c 10 00 00 	mov  %g0, %sp
     184:	81 e0 00 00 	save 
     188:	9c 10 00 00 	mov  %g0, %sp
     18c:	81 e0 00 00 	save 
     190:	9c 10 00 00 	mov  %g0, %sp
     194:	81 e0 00 00 	save 
     198:	9c 10 00 00 	mov  %g0, %sp
     19c:	81 e0 00 00 	save 
     1a0:	9c 10 00 00 	mov  %g0, %sp
     1a4:	81 e0 00 00 	save 
     1a8:	9c 10 00 00 	mov  %g0, %sp
     1ac:	81 e0 00 00 	save 
     1b0:	9c 10 00 00 	mov  %g0, %sp
     1b4:	81 e0 00 00 	save 
     1b8:	9c 10 00 00 	mov  %g0, %sp
     1bc:	81 e0 00 00 	save 
     1c0:	81 c3 e0 08 	retl 
     1c4:	01 00 00 00 	nop 

000001c8 <__cortos_init_region_to_zero>:
     1c8:	21 00 00 3c 	sethi  %hi(0xf000), %l0
     1cc:	a0 14 20 00 	mov  %l0, %l0	! f000 <printingLockAddr>
     1d0:	25 00 00 40 	sethi  %hi(0x10000), %l2
     1d4:	a4 14 a0 00 	mov  %l2, %l2	! 10000 <ajit_global_sw_trap_handlers+0xda0>
     1d8:	a4 24 a0 04 	sub  %l2, 4, %l2

000001dc <_cortos_zero_init_area_BssSection>:
     1dc:	c0 2c 00 00 	clrb  [ %l0 ]
     1e0:	80 a4 00 12 	cmp  %l0, %l2
     1e4:	12 bf ff fe 	bne  1dc <_cortos_zero_init_area_BssSection>
     1e8:	a0 04 20 01 	inc  %l0
     1ec:	21 00 00 40 	sethi  %hi(0x10000), %l0
     1f0:	a0 14 20 00 	mov  %l0, %l0	! 10000 <ajit_global_sw_trap_handlers+0xda0>
     1f4:	25 00 00 44 	sethi  %hi(0x11000), %l2
     1f8:	a4 14 a0 00 	mov  %l2, %l2	! 11000 <ajit_global_sw_trap_handlers+0x1da0>
     1fc:	a4 24 a0 04 	sub  %l2, 4, %l2

00000200 <_cortos_zero_init_area_CacheableLocks>:
     200:	c0 2c 00 00 	clrb  [ %l0 ]
     204:	80 a4 00 12 	cmp  %l0, %l2
     208:	12 bf ff fe 	bne  200 <_cortos_zero_init_area_CacheableLocks>
     20c:	a0 04 20 01 	inc  %l0
     210:	21 00 00 44 	sethi  %hi(0x11000), %l0
     214:	a0 14 20 00 	mov  %l0, %l0	! 11000 <ajit_global_sw_trap_handlers+0x1da0>
     218:	25 00 00 48 	sethi  %hi(0x12000), %l2
     21c:	a4 14 a0 00 	mov  %l2, %l2	! 12000 <ajit_global_sw_trap_handlers+0x2da0>
     220:	a4 24 a0 04 	sub  %l2, 4, %l2

00000224 <_cortos_zero_init_area_NonCacheableLocks>:
     224:	c0 2c 00 00 	clrb  [ %l0 ]
     228:	80 a4 00 12 	cmp  %l0, %l2
     22c:	12 bf ff fe 	bne  224 <_cortos_zero_init_area_NonCacheableLocks>
     230:	a0 04 20 01 	inc  %l0
     234:	81 c3 e0 08 	retl 
     238:	01 00 00 00 	nop 

0000023c <__cortos_wait_for_init_by_00>:
     23c:	2d 00 00 38 	sethi  %hi(0xe000), %l6
     240:	ac 15 a3 e0 	or  %l6, 0x3e0, %l6	! e3e0 <INIT_BY_00_DONE>
     244:	ec 05 80 00 	ld  [ %l6 ], %l6

00000248 <_CORTOS_WAIT_FOR_INIT_BY_00>:
     248:	ee 05 80 00 	ld  [ %l6 ], %l7
     24c:	b0 10 20 01 	mov  1, %i0
     250:	80 a6 00 17 	cmp  %i0, %l7
     254:	12 bf ff fd 	bne  248 <_CORTOS_WAIT_FOR_INIT_BY_00>
     258:	01 00 00 00 	nop 
     25c:	81 c3 e0 08 	retl 
     260:	01 00 00 00 	nop 

00000264 <CORTOS_HALT_ERROR>:
     264:	a1 80 20 01 	mov  1, %asr16
     268:	91 d0 20 00 	ta  0

0000026c <CORTOS_HALT_OKAY>:
     26c:	a1 80 20 00 	mov  %g0, %asr16
     270:	91 d0 20 00 	ta  0

00000274 <clear_stack_pointers>:
     274:	81 90 00 00 	mov  %g0, %wim
     278:	9c 10 00 00 	mov  %g0, %sp
     27c:	81 e0 00 00 	save 
     280:	9c 10 00 00 	mov  %g0, %sp
     284:	81 e0 00 00 	save 
     288:	9c 10 00 00 	mov  %g0, %sp
     28c:	81 e0 00 00 	save 
     290:	9c 10 00 00 	mov  %g0, %sp
     294:	81 e0 00 00 	save 
     298:	9c 10 00 00 	mov  %g0, %sp
     29c:	81 e0 00 00 	save 
     2a0:	9c 10 00 00 	mov  %g0, %sp
     2a4:	81 e0 00 00 	save 
     2a8:	9c 10 00 00 	mov  %g0, %sp
     2ac:	81 e0 00 00 	save 
     2b0:	9c 10 00 00 	mov  %g0, %sp
     2b4:	81 e0 00 00 	save 
     2b8:	81 c3 e0 08 	retl 
     2bc:	01 00 00 00 	nop 

000002c0 <cortos_lock_acquire_buzy>:
     2c0:	9d e3 bf a0 	save  %sp, -96, %sp

000002c4 <wait_for_lock>:
     2c4:	e2 0e 00 00 	ldub  [ %i0 ], %l1
     2c8:	80 94 40 00 	tst  %l1
     2cc:	12 bf ff fe 	bne  2c4 <wait_for_lock>
     2d0:	01 00 00 00 	nop 

000002d4 <try_to_lock>:
     2d4:	e2 6e 00 00 	ldstub  [ %i0 ], %l1
     2d8:	80 94 40 00 	tst  %l1
     2dc:	02 80 00 03 	be  2e8 <out>
     2e0:	01 00 00 00 	nop 
     2e4:	30 bf ff f8 	b,a   2c4 <wait_for_lock>

000002e8 <out>:
     2e8:	b0 10 20 01 	mov  1, %i0	! 1 <_start+0x1>
     2ec:	81 e8 00 00 	restore 
     2f0:	81 c3 e0 08 	retl 
     2f4:	01 00 00 00 	nop 

000002f8 <cortos_lock_acquire>:
     2f8:	9d e3 bf a0 	save  %sp, -96, %sp

000002fc <try_to_lock_once>:
     2fc:	e2 6e 00 00 	ldstub  [ %i0 ], %l1
     300:	80 94 40 00 	tst  %l1
     304:	02 80 00 03 	be  310 <lock_acquired>
     308:	01 00 00 00 	nop 
     30c:	30 80 00 03 	b,a   318 <lock_not_acquired>

00000310 <lock_acquired>:
     310:	10 80 00 03 	b  31c <exit_cortos_lock_acquire>
     314:	b0 10 20 01 	mov  1, %i0

00000318 <lock_not_acquired>:
     318:	b0 10 00 00 	mov  %g0, %i0

0000031c <exit_cortos_lock_acquire>:
     31c:	81 e8 00 00 	restore 
     320:	81 c3 e0 08 	retl 
     324:	01 00 00 00 	nop 

00000328 <cortos_lock_release>:
     328:	9d e3 bf a0 	save  %sp, -96, %sp
     32c:	81 43 c0 00 	stbar 
     330:	c0 2e 00 00 	clrb  [ %i0 ]
     334:	81 e8 00 00 	restore 
     338:	81 c3 e0 08 	retl 
     33c:	01 00 00 00 	nop 

00000340 <cortos_init_printing>:
     340:	84 10 20 01 	mov  1, %g2	! 1 <_start+0x1>
     344:	03 00 00 3c 	sethi  %hi(0xf000), %g1
     348:	82 10 60 20 	or  %g1, 0x20, %g1	! f020 <allocatedLocksNc>
     34c:	c4 28 60 05 	stb  %g2, [ %g1 + 5 ]
     350:	05 00 00 44 	sethi  %hi(0x11000), %g2
     354:	03 00 00 3c 	sethi  %hi(0xf000), %g1
     358:	84 10 a0 05 	or  %g2, 5, %g2
     35c:	81 c3 e0 08 	retl 
     360:	c4 20 60 00 	st  %g2, [ %g1 ]

00000364 <cortos_get_clock_time>:
     364:	82 13 c0 00 	mov  %o7, %g1
     368:	40 00 02 47 	call  c84 <__ajit_get_clock_time>
     36c:	9e 10 40 00 	mov  %g1, %o7

00000370 <cortos_sleep>:
     370:	9d e3 bf a0 	save  %sp, -96, %sp
     374:	f0 27 a0 44 	st  %i0, [ %fp + 0x44 ]
     378:	d0 07 a0 44 	ld  [ %fp + 0x44 ], %o0
     37c:	40 00 02 4c 	call  cac <__ajit_sleep__>
     380:	01 00 00 00 	nop 
     384:	81 e8 00 00 	restore 
     388:	81 c3 e0 08 	retl 
     38c:	01 00 00 00 	nop 

00000390 <cortos_get_thread_id>:
     390:	9d e3 bf a0 	save  %sp, -96, %sp
     394:	a3 47 40 00 	rd  %asr29, %l1
     398:	82 10 00 11 	mov  %l1, %g1
     39c:	b1 30 60 07 	srl  %g1, 7, %i0
     3a0:	b0 0e 21 fe 	and  %i0, 0x1fe, %i0
     3a4:	82 06 00 01 	add  %i0, %g1, %g1
     3a8:	b1 28 60 18 	sll  %g1, 0x18, %i0
     3ac:	b1 3e 20 18 	sra  %i0, 0x18, %i0
     3b0:	81 c7 e0 08 	ret 
     3b4:	81 e8 00 00 	restore 

000003b8 <cortos_IsNcRamAddr>:
     3b8:	81 c3 e0 08 	retl 
     3bc:	90 10 20 00 	clr  %o0

000003c0 <cortos_vprintf>:
     3c0:	9d e3 bb a0 	save  %sp, -1120, %sp
     3c4:	92 10 00 18 	mov  %i0, %o1
     3c8:	94 10 00 19 	mov  %i1, %o2
     3cc:	ba 07 bc 00 	add  %fp, -1024, %i5
     3d0:	40 00 0e dd 	call  3f44 <vsprintf_>
     3d4:	90 10 00 1d 	mov  %i5, %o0
     3d8:	39 00 00 3c 	sethi  %hi(0xf000), %i4
     3dc:	7f ff ff b9 	call  2c0 <cortos_lock_acquire_buzy>
     3e0:	d0 07 20 00 	ld  [ %i4 ], %o0
     3e4:	d0 0f bc 00 	ldub  [ %fp + -1024 ], %o0
     3e8:	91 2a 20 18 	sll  %o0, 0x18, %o0
     3ec:	80 a2 20 00 	cmp  %o0, 0
     3f0:	02 80 00 0a 	be  418 <cortos_vprintf+0x58>
     3f4:	b0 10 20 00 	clr  %i0
     3f8:	40 00 0e 95 	call  3e4c <uart_send_char>
     3fc:	91 3a 20 18 	sra  %o0, 0x18, %o0
     400:	b0 06 20 01 	inc  %i0
     404:	d0 0f 40 18 	ldub  [ %i5 + %i0 ], %o0
     408:	91 2a 20 18 	sll  %o0, 0x18, %o0
     40c:	80 a2 20 00 	cmp  %o0, 0
     410:	12 bf ff fa 	bne  3f8 <cortos_vprintf+0x38>
     414:	01 00 00 00 	nop 
     418:	7f ff ff c4 	call  328 <cortos_lock_release>
     41c:	d0 07 20 00 	ld  [ %i4 ], %o0
     420:	81 c7 e0 08 	ret 
     424:	81 e8 00 00 	restore 

00000428 <cortos_printf>:
     428:	9d e3 bf 98 	save  %sp, -104, %sp
     42c:	92 07 a0 48 	add  %fp, 0x48, %o1
     430:	f2 27 a0 48 	st  %i1, [ %fp + 0x48 ]
     434:	f4 27 a0 4c 	st  %i2, [ %fp + 0x4c ]
     438:	f6 27 a0 50 	st  %i3, [ %fp + 0x50 ]
     43c:	f8 27 a0 54 	st  %i4, [ %fp + 0x54 ]
     440:	fa 27 a0 58 	st  %i5, [ %fp + 0x58 ]
     444:	d2 27 bf fc 	st  %o1, [ %fp + -4 ]
     448:	7f ff ff de 	call  3c0 <cortos_vprintf>
     44c:	90 10 00 18 	mov  %i0, %o0
     450:	81 c7 e0 08 	ret 
     454:	91 e8 00 08 	restore  %g0, %o0, %o0

00000458 <cortos_init_locks>:
     458:	84 10 20 01 	mov  1, %g2
     45c:	03 00 00 3c 	sethi  %hi(0xf000), %g1
     460:	c4 28 60 20 	stb  %g2, [ %g1 + 0x20 ]	! f020 <allocatedLocksNc>
     464:	05 00 00 44 	sethi  %hi(0x11000), %g2
     468:	03 00 00 3c 	sethi  %hi(0xf000), %g1
     46c:	81 c3 e0 08 	retl 
     470:	c4 20 60 18 	st  %g2, [ %g1 + 0x18 ]	! f018 <cortos_reservedLockAddr>

00000474 <cortos_reserveLock>:
     474:	9d e3 bf a0 	save  %sp, -96, %sp
     478:	80 a6 20 00 	cmp  %i0, 0
     47c:	22 80 00 1b 	be,a   4e8 <cortos_reserveLock+0x74>
     480:	03 00 00 38 	sethi  %hi(0xe000), %g1
     484:	03 00 00 38 	sethi  %hi(0xe000), %g1
     488:	39 00 00 3c 	sethi  %hi(0xf000), %i4
     48c:	f0 00 63 e8 	ld  [ %g1 + 0x3e8 ], %i0
     490:	b8 17 20 20 	or  %i4, 0x20, %i4
     494:	3b 00 00 3c 	sethi  %hi(0xf000), %i5
     498:	7f ff ff 8a 	call  2c0 <cortos_lock_acquire_buzy>
     49c:	d0 07 60 18 	ld  [ %i5 + 0x18 ], %o0	! f018 <cortos_reservedLockAddr>
     4a0:	82 10 00 1c 	mov  %i4, %g1
     4a4:	10 80 00 06 	b  4bc <cortos_reserveLock+0x48>
     4a8:	84 10 20 00 	clr  %g2
     4ac:	84 00 a0 01 	inc  %g2
     4b0:	80 a0 a1 00 	cmp  %g2, 0x100
     4b4:	02 80 00 11 	be  4f8 <cortos_reserveLock+0x84>
     4b8:	82 00 60 01 	inc  %g1
     4bc:	c6 48 40 00 	ldsb  [ %g1 ], %g3
     4c0:	80 a0 e0 00 	cmp  %g3, 0
     4c4:	12 bf ff fa 	bne  4ac <cortos_reserveLock+0x38>
     4c8:	b8 10 00 02 	mov  %g2, %i4
     4cc:	86 10 20 01 	mov  1, %g3
     4d0:	d0 07 60 18 	ld  [ %i5 + 0x18 ], %o0
     4d4:	c6 28 40 00 	stb  %g3, [ %g1 ]
     4d8:	7f ff ff 94 	call  328 <cortos_lock_release>
     4dc:	b0 06 00 1c 	add  %i0, %i4, %i0
     4e0:	81 c7 e0 08 	ret 
     4e4:	81 e8 00 00 	restore 
     4e8:	39 00 00 3c 	sethi  %hi(0xf000), %i4
     4ec:	f0 00 63 ec 	ld  [ %g1 + 0x3ec ], %i0
     4f0:	10 bf ff e9 	b  494 <cortos_reserveLock+0x20>
     4f4:	b8 17 21 20 	or  %i4, 0x120, %i4
     4f8:	b8 10 21 00 	mov  0x100, %i4
     4fc:	d0 07 60 18 	ld  [ %i5 + 0x18 ], %o0
     500:	7f ff ff 8a 	call  328 <cortos_lock_release>
     504:	b0 06 00 1c 	add  %i0, %i4, %i0
     508:	81 c7 e0 08 	ret 
     50c:	81 e8 00 00 	restore 

00000510 <cortos_freeLock>:
     510:	9d e3 bf a0 	save  %sp, -96, %sp
     514:	3b 00 00 38 	sethi  %hi(0xe000), %i5
     518:	c2 07 63 ec 	ld  [ %i5 + 0x3ec ], %g1	! e3ec <lockStartAddr>
     51c:	80 a0 40 18 	cmp  %g1, %i0
     520:	18 80 00 05 	bgu  534 <cortos_freeLock+0x24>
     524:	82 00 61 00 	add  %g1, 0x100, %g1
     528:	80 a6 00 01 	cmp  %i0, %g1
     52c:	0a 80 00 0e 	bcs  564 <cortos_freeLock+0x54>
     530:	39 00 00 3c 	sethi  %hi(0xf000), %i4
     534:	3b 00 00 3c 	sethi  %hi(0xf000), %i5
     538:	7f ff ff 62 	call  2c0 <cortos_lock_acquire_buzy>
     53c:	d0 07 60 18 	ld  [ %i5 + 0x18 ], %o0	! f018 <cortos_reservedLockAddr>
     540:	03 00 00 38 	sethi  %hi(0xe000), %g1
     544:	05 00 00 3c 	sethi  %hi(0xf000), %g2
     548:	c2 00 63 e8 	ld  [ %g1 + 0x3e8 ], %g1
     54c:	84 10 a0 20 	or  %g2, 0x20, %g2
     550:	82 26 00 01 	sub  %i0, %g1, %g1
     554:	f0 07 60 18 	ld  [ %i5 + 0x18 ], %i0
     558:	c0 28 80 01 	clrb  [ %g2 + %g1 ]
     55c:	7f ff ff 73 	call  328 <cortos_lock_release>
     560:	81 e8 00 00 	restore 
     564:	7f ff ff 57 	call  2c0 <cortos_lock_acquire_buzy>
     568:	d0 07 20 18 	ld  [ %i4 + 0x18 ], %o0
     56c:	c2 07 63 ec 	ld  [ %i5 + 0x3ec ], %g1
     570:	05 00 00 3c 	sethi  %hi(0xf000), %g2
     574:	82 26 00 01 	sub  %i0, %g1, %g1
     578:	84 10 a1 20 	or  %g2, 0x120, %g2
     57c:	f0 07 20 18 	ld  [ %i4 + 0x18 ], %i0
     580:	c0 28 80 01 	clrb  [ %g2 + %g1 ]
     584:	7f ff ff 69 	call  328 <cortos_lock_release>
     588:	81 e8 00 00 	restore 

0000058c <ajit_initialize_interrupt_handlers_to_null>:
     58c:	03 00 00 3c 	sethi  %hi(0xf000), %g1
     590:	82 10 62 20 	or  %g1, 0x220, %g1	! f220 <ajit_global_interrupt_handlers>
     594:	84 00 60 40 	add  %g1, 0x40, %g2
     598:	c0 20 40 00 	clr  [ %g1 ]
     59c:	82 00 60 04 	add  %g1, 4, %g1
     5a0:	80 a0 40 02 	cmp  %g1, %g2
     5a4:	32 bf ff fe 	bne,a   59c <ajit_initialize_interrupt_handlers_to_null+0x10>
     5a8:	c0 20 40 00 	clr  [ %g1 ]
     5ac:	81 c3 e0 08 	retl 
     5b0:	01 00 00 00 	nop 

000005b4 <ajit_set_interrupt_handler>:
     5b4:	80 a2 20 0f 	cmp  %o0, 0xf
     5b8:	18 80 00 05 	bgu  5cc <ajit_set_interrupt_handler+0x18>
     5bc:	91 2a 20 02 	sll  %o0, 2, %o0
     5c0:	03 00 00 3c 	sethi  %hi(0xf000), %g1
     5c4:	82 10 62 20 	or  %g1, 0x220, %g1	! f220 <ajit_global_interrupt_handlers>
     5c8:	d2 20 40 08 	st  %o1, [ %g1 + %o0 ]
     5cc:	81 c3 e0 08 	retl 
     5d0:	01 00 00 00 	nop 

000005d4 <readInterruptControlRegister>:
     5d4:	90 02 00 08 	add  %o0, %o0, %o0
     5d8:	03 3f ff cc 	sethi  %hi(0xffff3000), %g1
     5dc:	92 02 00 09 	add  %o0, %o1, %o1
     5e0:	91 2a 60 02 	sll  %o1, 2, %o0
     5e4:	90 02 00 01 	add  %o0, %g1, %o0
     5e8:	82 13 c0 00 	mov  %o7, %g1
     5ec:	40 00 02 4e 	call  f24 <__ajit_load_word_mmu_bypass__>
     5f0:	9e 10 40 00 	mov  %g1, %o7

000005f4 <writeInterruptControlRegister>:
     5f4:	90 02 00 08 	add  %o0, %o0, %o0
     5f8:	03 3f ff cc 	sethi  %hi(0xffff3000), %g1
     5fc:	92 02 00 09 	add  %o0, %o1, %o1
     600:	90 10 00 0a 	mov  %o2, %o0
     604:	93 2a 60 02 	sll  %o1, 2, %o1
     608:	92 02 40 01 	add  %o1, %g1, %o1
     60c:	82 13 c0 00 	mov  %o7, %g1
     610:	40 00 01 cd 	call  d44 <__ajit_store_word_mmu_bypass__>
     614:	9e 10 40 00 	mov  %g1, %o7

00000618 <enableInterruptController>:
     618:	9d e3 bf a0 	save  %sp, -96, %sp
     61c:	90 10 00 18 	mov  %i0, %o0
     620:	7f ff ff ed 	call  5d4 <readInterruptControlRegister>
     624:	92 10 00 19 	mov  %i1, %o1
     628:	b4 12 20 01 	or  %o0, 1, %i2
     62c:	7f ff ff f2 	call  5f4 <writeInterruptControlRegister>
     630:	81 e8 00 00 	restore 

00000634 <disableInterruptController>:
     634:	9d e3 bf a0 	save  %sp, -96, %sp
     638:	90 10 00 18 	mov  %i0, %o0
     63c:	7f ff ff e6 	call  5d4 <readInterruptControlRegister>
     640:	92 10 00 19 	mov  %i1, %o1
     644:	b4 0a 3f fe 	and  %o0, -2, %i2
     648:	7f ff ff eb 	call  5f4 <writeInterruptControlRegister>
     64c:	81 e8 00 00 	restore 

00000650 <ajit_generic_interrupt_handler>:
     650:	9d e3 bf 98 	save  %sp, -104, %sp
     654:	90 07 bf fe 	add  %fp, -2, %o0
     658:	40 00 01 80 	call  c58 <ajit_get_core_and_thread_id>
     65c:	92 07 bf ff 	add  %fp, -1, %o1
     660:	d0 0f bf fe 	ldub  [ %fp + -2 ], %o0
     664:	7f ff ff f4 	call  634 <disableInterruptController>
     668:	d2 0f bf ff 	ldub  [ %fp + -1 ], %o1
     66c:	b1 36 20 04 	srl  %i0, 4, %i0
     670:	b0 0e 20 ff 	and  %i0, 0xff, %i0
     674:	82 06 3f ef 	add  %i0, -17, %g1
     678:	80 a0 60 0e 	cmp  %g1, 0xe
     67c:	18 80 00 11 	bgu  6c0 <ajit_generic_interrupt_handler+0x70>
     680:	d0 0f bf fe 	ldub  [ %fp + -2 ], %o0
     684:	b0 06 3f f0 	add  %i0, -16, %i0
     688:	03 00 00 3c 	sethi  %hi(0xf000), %g1
     68c:	b1 2e 20 02 	sll  %i0, 2, %i0
     690:	82 10 62 20 	or  %g1, 0x220, %g1
     694:	c2 00 40 18 	ld  [ %g1 + %i0 ], %g1
     698:	80 a0 60 00 	cmp  %g1, 0
     69c:	02 80 00 09 	be  6c0 <ajit_generic_interrupt_handler+0x70>
     6a0:	01 00 00 00 	nop 
     6a4:	9f c0 40 00 	call  %g1
     6a8:	01 00 00 00 	nop 
     6ac:	d0 0f bf fe 	ldub  [ %fp + -2 ], %o0
     6b0:	7f ff ff da 	call  618 <enableInterruptController>
     6b4:	d2 0f bf ff 	ldub  [ %fp + -1 ], %o1
     6b8:	81 c7 e0 08 	ret 
     6bc:	81 e8 00 00 	restore 
     6c0:	7f ff ff d6 	call  618 <enableInterruptController>
     6c4:	d2 0f bf ff 	ldub  [ %fp + -1 ], %o1
     6c8:	91 d0 20 00 	ta  0
     6cc:	81 c7 e0 08 	ret 
     6d0:	81 e8 00 00 	restore 

000006d4 <enableInterrupt>:
     6d4:	9d e3 bf a0 	save  %sp, -96, %sp
     6d8:	90 10 00 18 	mov  %i0, %o0
     6dc:	7f ff ff be 	call  5d4 <readInterruptControlRegister>
     6e0:	92 10 00 19 	mov  %i1, %o1
     6e4:	82 10 20 01 	mov  1, %g1
     6e8:	b5 28 40 1a 	sll  %g1, %i2, %i2
     6ec:	b4 12 00 1a 	or  %o0, %i2, %i2
     6f0:	7f ff ff c1 	call  5f4 <writeInterruptControlRegister>
     6f4:	81 e8 00 00 	restore 

000006f8 <enableAllInterrupts>:
     6f8:	9d e3 bf a0 	save  %sp, -96, %sp
     6fc:	35 00 00 3f 	sethi  %hi(0xfc00), %i2
     700:	90 10 00 18 	mov  %i0, %o0
     704:	92 10 00 19 	mov  %i1, %o1
     708:	7f ff ff b3 	call  5d4 <readInterruptControlRegister>
     70c:	b4 16 a3 fe 	or  %i2, 0x3fe, %i2
     710:	b4 12 00 1a 	or  %o0, %i2, %i2
     714:	7f ff ff b8 	call  5f4 <writeInterruptControlRegister>
     718:	81 e8 00 00 	restore 

0000071c <enableInterruptControllerAndAllInterrupts>:
     71c:	15 00 00 3f 	sethi  %hi(0xfc00), %o2
     720:	94 12 a3 ff 	or  %o2, 0x3ff, %o2	! ffff <ajit_global_sw_trap_handlers+0xd9f>
     724:	82 13 c0 00 	mov  %o7, %g1
     728:	7f ff ff b3 	call  5f4 <writeInterruptControlRegister>
     72c:	9e 10 40 00 	mov  %g1, %o7

00000730 <setInterruptMask>:
     730:	9d e3 bf a0 	save  %sp, -96, %sp
     734:	90 10 00 18 	mov  %i0, %o0
     738:	7f ff ff a7 	call  5d4 <readInterruptControlRegister>
     73c:	92 10 00 19 	mov  %i1, %o1
     740:	03 3f ff c0 	sethi  %hi(0xffff0000), %g1
     744:	05 00 00 3f 	sethi  %hi(0xfc00), %g2
     748:	82 10 60 01 	or  %g1, 1, %g1
     74c:	84 10 a3 fe 	or  %g2, 0x3fe, %g2
     750:	90 0a 00 01 	and  %o0, %g1, %o0
     754:	b4 0e 80 02 	and  %i2, %g2, %i2
     758:	b4 12 00 1a 	or  %o0, %i2, %i2
     75c:	7f ff ff a6 	call  5f4 <writeInterruptControlRegister>
     760:	81 e8 00 00 	restore 

00000764 <disableInterrupt>:
     764:	9d e3 bf a0 	save  %sp, -96, %sp
     768:	90 10 00 18 	mov  %i0, %o0
     76c:	7f ff ff 9a 	call  5d4 <readInterruptControlRegister>
     770:	92 10 00 19 	mov  %i1, %o1
     774:	82 10 20 01 	mov  1, %g1
     778:	b5 28 40 1a 	sll  %g1, %i2, %i2
     77c:	b4 2a 00 1a 	andn  %o0, %i2, %i2
     780:	7f ff ff 9d 	call  5f4 <writeInterruptControlRegister>
     784:	81 e8 00 00 	restore 

00000788 <clear_and_disable_timer>:
     788:	90 10 20 00 	clr  %o0
     78c:	82 13 c0 00 	mov  %o7, %g1
     790:	40 00 01 f8 	call  f70 <__ajit_write_timer_control_register_via_vmap__>
     794:	9e 10 40 00 	mov  %g1, %o7

00000798 <enable_and_write_timer>:
     798:	90 12 20 01 	or  %o0, 1, %o0
     79c:	82 13 c0 00 	mov  %o7, %g1
     7a0:	40 00 01 f4 	call  f70 <__ajit_write_timer_control_register_via_vmap__>
     7a4:	9e 10 40 00 	mov  %g1, %o7

000007a8 <read_timer_reg>:
     7a8:	82 13 c0 00 	mov  %o7, %g1
     7ac:	40 00 01 f5 	call  f80 <__ajit_read_timer_control_register_via_vmap__>
     7b0:	9e 10 40 00 	mov  %g1, %o7

000007b4 <configure_serial_device>:
     7b4:	9d e3 bf a0 	save  %sp, -96, %sp
     7b8:	94 10 20 01 	mov  1, %o2
     7bc:	90 10 20 01 	mov  1, %o0
     7c0:	40 00 02 e3 	call  134c <__ajit_serial_configure_via_vmap__>
     7c4:	92 10 20 01 	mov  1, %o1
     7c8:	13 01 31 2d 	sethi  %hi(0x4c4b400), %o1
     7cc:	11 00 00 70 	sethi  %hi(0x1c000), %o0
     7d0:	40 00 02 60 	call  1150 <__ajit_serial_set_baudrate_via_vmap__>
     7d4:	90 12 22 00 	or  %o0, 0x200, %o0	! 1c200 <ajit_global_sw_trap_handlers+0xcfa0>
     7d8:	90 10 20 00 	clr  %o0
     7dc:	40 00 03 f2 	call  17a4 <__ajit_serial_set_uart_reset_via_vmap__>
     7e0:	31 00 00 38 	sethi  %hi(0xe000), %i0
     7e4:	7f ff ff 11 	call  428 <cortos_printf>
     7e8:	91 ee 21 90 	restore  %i0, 0x190, %o0

000007ec <verify_timer_write_read>:
     7ec:	9d e3 bf a0 	save  %sp, -96, %sp
     7f0:	7f ff ff e6 	call  788 <clear_and_disable_timer>
     7f4:	01 00 00 00 	nop 
     7f8:	7f ff ff e8 	call  798 <enable_and_write_timer>
     7fc:	90 10 00 18 	mov  %i0, %o0
     800:	40 00 01 e0 	call  f80 <__ajit_read_timer_control_register_via_vmap__>
     804:	01 00 00 00 	nop 
     808:	7f ff ff e0 	call  788 <clear_and_disable_timer>
     80c:	ba 10 00 08 	mov  %o0, %i5
     810:	03 00 00 3c 	sethi  %hi(0xf000), %g1
     814:	f0 20 60 08 	st  %i0, [ %g1 + 8 ]	! f008 <ref_wr_data>
     818:	b0 1f 40 18 	xor  %i5, %i0, %i0
     81c:	b0 0e 3f fe 	and  %i0, -2, %i0
     820:	03 00 00 3c 	sethi  %hi(0xf000), %g1
     824:	80 a0 00 18 	cmp  %g0, %i0
     828:	fa 20 60 04 	st  %i5, [ %g1 + 4 ]
     82c:	b0 60 3f ff 	subx  %g0, -1, %i0
     830:	81 c7 e0 08 	ret 
     834:	81 e8 00 00 	restore 

00000838 <run_edge_case_test>:
     838:	9d e3 bf a0 	save  %sp, -96, %sp
     83c:	7f ff ff ec 	call  7ec <verify_timer_write_read>
     840:	90 10 00 19 	mov  %i1, %o0
     844:	03 00 00 3c 	sethi  %hi(0xf000), %g1
     848:	f4 00 60 08 	ld  [ %g1 + 8 ], %i2	! f008 <ref_wr_data>
     84c:	80 a2 20 00 	cmp  %o0, 0
     850:	12 80 00 08 	bne  870 <run_edge_case_test+0x38>
     854:	b2 10 00 18 	mov  %i0, %i1
     858:	31 00 00 38 	sethi  %hi(0xe000), %i0
     85c:	03 00 00 3c 	sethi  %hi(0xf000), %g1
     860:	b0 16 21 e8 	or  %i0, 0x1e8, %i0
     864:	f6 00 60 04 	ld  [ %g1 + 4 ], %i3
     868:	7f ff fe f0 	call  428 <cortos_printf>
     86c:	81 e8 00 00 	restore 
     870:	31 00 00 38 	sethi  %hi(0xe000), %i0
     874:	03 00 00 3c 	sethi  %hi(0xf000), %g1
     878:	b0 16 21 b8 	or  %i0, 0x1b8, %i0
     87c:	f6 00 60 04 	ld  [ %g1 + 4 ], %i3
     880:	7f ff fe ea 	call  428 <cortos_printf>
     884:	81 e8 00 00 	restore 

00000888 <run_all_timer_edge_case_tests>:
     888:	9d e3 bf a0 	save  %sp, -96, %sp
     88c:	92 10 3f ff 	mov  -1, %o1
     890:	11 00 00 38 	sethi  %hi(0xe000), %o0
     894:	7f ff ff e9 	call  838 <run_edge_case_test>
     898:	90 12 22 18 	or  %o0, 0x218, %o0	! e218 <__clz_tab+0x188>
     89c:	92 10 20 01 	mov  1, %o1
     8a0:	11 00 00 38 	sethi  %hi(0xe000), %o0
     8a4:	31 00 00 38 	sethi  %hi(0xe000), %i0
     8a8:	90 12 22 30 	or  %o0, 0x230, %o0
     8ac:	7f ff ff e3 	call  838 <run_edge_case_test>
     8b0:	b2 10 20 00 	clr  %i1
     8b4:	7f ff ff e1 	call  838 <run_edge_case_test>
     8b8:	91 ee 22 48 	restore  %i0, 0x248, %o0

000008bc <my_timer_interrupt_handler>:
     8bc:	81 c3 e0 08 	retl 
     8c0:	01 00 00 00 	nop 

000008c4 <cortos_init_hw_traps>:
     8c4:	9d e3 bf a0 	save  %sp, -96, %sp
     8c8:	7f ff ff 31 	call  58c <ajit_initialize_interrupt_handlers_to_null>
     8cc:	33 00 00 02 	sethi  %hi(0x800), %i1
     8d0:	b0 10 20 0a 	mov  0xa, %i0
     8d4:	7f ff ff 38 	call  5b4 <ajit_set_interrupt_handler>
     8d8:	93 ee 60 bc 	restore  %i1, 0xbc, %o1

000008dc <cortos_init_sw_traps>:
     8dc:	82 13 c0 00 	mov  %o7, %g1
     8e0:	40 00 0e d1 	call  4424 <ajit_initialize_sw_trap_handlers_to_null>
     8e4:	9e 10 40 00 	mov  %g1, %o7
     8e8:	00 00 0d 60 	unimp  0xd60
     8ec:	00 00 0d 98 	unimp  0xd98
     8f0:	00 00 0d a4 	unimp  0xda4
     8f4:	00 00 0d b0 	unimp  0xdb0
     8f8:	00 00 0d bc 	unimp  0xdbc
     8fc:	00 00 0d c8 	unimp  0xdc8
     900:	00 00 0d d4 	unimp  0xdd4
     904:	00 00 0d e0 	unimp  0xde0
     908:	00 00 0d ec 	unimp  0xdec
     90c:	00 00 0d f8 	unimp  0xdf8
     910:	00 00 0e 04 	unimp  0xe04
     914:	00 00 0e 10 	unimp  0xe10
     918:	00 00 0e 1c 	unimp  0xe1c
     91c:	00 00 0e 28 	unimp  0xe28
     920:	00 00 0d 80 	unimp  0xd80
     924:	00 00 0d 8c 	unimp  0xd8c
     928:	00 00 0e 44 	unimp  0xe44
     92c:	00 00 0e 7c 	unimp  0xe7c
     930:	00 00 0e 88 	unimp  0xe88
     934:	00 00 0e 94 	unimp  0xe94
     938:	00 00 0e a0 	unimp  0xea0
     93c:	00 00 0e ac 	unimp  0xeac
     940:	00 00 0e b8 	unimp  0xeb8
     944:	00 00 0e c4 	unimp  0xec4
     948:	00 00 0e d0 	unimp  0xed0
     94c:	00 00 0e dc 	unimp  0xedc
     950:	00 00 0e e8 	unimp  0xee8
     954:	00 00 0e f4 	unimp  0xef4
     958:	00 00 0f 00 	unimp  0xf00
     95c:	00 00 0f 0c 	unimp  0xf0c
     960:	00 00 0e 64 	unimp  0xe64
     964:	00 00 0e 70 	unimp  0xe70

00000968 <__ajit_clear_all_gp_registers__>:
     968:	82 10 00 00 	mov  %g0, %g1
     96c:	84 10 00 00 	mov  %g0, %g2
     970:	86 10 00 00 	mov  %g0, %g3
     974:	88 10 00 00 	mov  %g0, %g4
     978:	8a 10 00 00 	mov  %g0, %g5
     97c:	8c 10 00 00 	mov  %g0, %g6
     980:	8e 10 00 00 	mov  %g0, %g7
     984:	b0 10 00 00 	mov  %g0, %i0
     988:	b2 10 00 00 	mov  %g0, %i1
     98c:	b4 10 00 00 	mov  %g0, %i2
     990:	b6 10 00 00 	mov  %g0, %i3
     994:	b8 10 00 00 	mov  %g0, %i4
     998:	ba 10 00 00 	mov  %g0, %i5
     99c:	bc 10 00 00 	mov  %g0, %fp
     9a0:	be 10 00 00 	mov  %g0, %i7
     9a4:	a0 10 00 00 	mov  %g0, %l0
     9a8:	a2 10 00 00 	mov  %g0, %l1
     9ac:	a4 10 00 00 	mov  %g0, %l2
     9b0:	a6 10 00 00 	mov  %g0, %l3
     9b4:	a8 10 00 00 	mov  %g0, %l4
     9b8:	aa 10 00 00 	mov  %g0, %l5
     9bc:	ac 10 00 00 	mov  %g0, %l6
     9c0:	ae 10 00 00 	mov  %g0, %l7
     9c4:	90 10 00 00 	mov  %g0, %o0
     9c8:	92 10 00 00 	mov  %g0, %o1
     9cc:	94 10 00 00 	mov  %g0, %o2
     9d0:	96 10 00 00 	mov  %g0, %o3
     9d4:	98 10 00 00 	mov  %g0, %o4
     9d8:	9a 10 00 00 	mov  %g0, %o5
     9dc:	9c 10 00 00 	mov  %g0, %sp
     9e0:	9e 10 00 00 	mov  %g0, %o7
     9e4:	82 10 20 07 	mov  7, %g1
     9e8:	81 e0 00 00 	save 
     9ec:	a0 10 00 00 	mov  %g0, %l0
     9f0:	a2 10 00 00 	mov  %g0, %l1
     9f4:	a4 10 00 00 	mov  %g0, %l2
     9f8:	a6 10 00 00 	mov  %g0, %l3
     9fc:	a8 10 00 00 	mov  %g0, %l4
     a00:	aa 10 00 00 	mov  %g0, %l5
     a04:	ac 10 00 00 	mov  %g0, %l6
     a08:	ae 10 00 00 	mov  %g0, %l7
     a0c:	90 10 00 00 	mov  %g0, %o0
     a10:	92 10 00 00 	mov  %g0, %o1
     a14:	94 10 00 00 	mov  %g0, %o2
     a18:	96 10 00 00 	mov  %g0, %o3
     a1c:	98 10 00 00 	mov  %g0, %o4
     a20:	9a 10 00 00 	mov  %g0, %o5
     a24:	9c 10 00 00 	mov  %g0, %sp
     a28:	9e 10 00 00 	mov  %g0, %o7
     a2c:	82 80 7f ff 	addcc  %g1, -1, %g1
     a30:	12 bf ff ee 	bne  9e8 <__ajit_clear_all_gp_registers__+0x80>
     a34:	01 00 00 00 	nop 
     a38:	82 10 20 07 	mov  7, %g1	! 7 <_start+0x7>
     a3c:	81 e8 00 00 	restore 
     a40:	82 80 7f ff 	addcc  %g1, -1, %g1
     a44:	12 bf ff fe 	bne  a3c <__ajit_clear_all_gp_registers__+0xd4>
     a48:	01 00 00 00 	nop 
     a4c:	81 c3 e0 08 	retl 
     a50:	01 00 00 00 	nop 

00000a54 <ajit_read_from_scratch_pad>:
     a54:	80 a2 20 1f 	cmp  %o0, 0x1f
     a58:	18 80 00 05 	bgu  a6c <ajit_read_from_scratch_pad+0x18>
     a5c:	82 10 20 00 	clr  %g1
     a60:	91 2a 20 02 	sll  %o0, 2, %o0
     a64:	03 3f ff cb 	sethi  %hi(0xffff2c00), %g1
     a68:	c2 02 00 01 	ld  [ %o0 + %g1 ], %g1
     a6c:	81 c3 e0 08 	retl 
     a70:	90 10 00 01 	mov  %g1, %o0

00000a74 <ajit_write_to_scratch_pad>:
     a74:	80 a2 20 1f 	cmp  %o0, 0x1f
     a78:	18 80 00 04 	bgu  a88 <ajit_write_to_scratch_pad+0x14>
     a7c:	91 2a 20 02 	sll  %o0, 2, %o0
     a80:	03 3f ff cb 	sethi  %hi(0xffff2c00), %g1
     a84:	d2 22 00 01 	st  %o1, [ %o0 + %g1 ]
     a88:	81 c3 e0 08 	retl 
     a8c:	01 00 00 00 	nop 

00000a90 <ajit_configure_i2c_master>:
     a90:	81 80 20 00 	mov  %g0, %y
     a94:	01 00 00 00 	nop 
     a98:	01 00 00 00 	nop 
     a9c:	01 00 00 00 	nop 
     aa0:	92 72 00 09 	udiv  %o0, %o1, %o1
     aa4:	03 3f ff cd 	sethi  %hi(0xffff3400), %g1
     aa8:	93 32 60 02 	srl  %o1, 2, %o1
     aac:	82 10 62 00 	or  %g1, 0x200, %g1
     ab0:	90 10 20 00 	clr  %o0
     ab4:	81 c3 e0 08 	retl 
     ab8:	d2 20 40 00 	st  %o1, [ %g1 ]

00000abc <ajit_i2c_master_is_ready>:
     abc:	03 3f ff cd 	sethi  %hi(0xffff3400), %g1
     ac0:	82 10 62 08 	or  %g1, 0x208, %g1	! ffff3608 <ajit_global_sw_trap_handlers+0xfffe43a8>
     ac4:	d0 00 40 00 	ld  [ %g1 ], %o0
     ac8:	91 32 20 0a 	srl  %o0, 0xa, %o0
     acc:	81 c3 e0 08 	retl 
     ad0:	90 0a 20 01 	and  %o0, 1, %o0

00000ad4 <ajit_i2c_master_write_command>:
     ad4:	03 3f ff cd 	sethi  %hi(0xffff3400), %g1
     ad8:	82 10 62 04 	or  %g1, 0x204, %g1	! ffff3604 <ajit_global_sw_trap_handlers+0xfffe43a4>
     adc:	81 c3 e0 08 	retl 
     ae0:	d0 20 40 00 	st  %o0, [ %g1 ]

00000ae4 <ajit_i2c_master_read_status>:
     ae4:	03 3f ff cd 	sethi  %hi(0xffff3400), %g1
     ae8:	82 10 62 08 	or  %g1, 0x208, %g1	! ffff3608 <ajit_global_sw_trap_handlers+0xfffe43a8>
     aec:	81 c3 e0 08 	retl 
     af0:	d0 00 40 00 	ld  [ %g1 ], %o0

00000af4 <ajit_i2c_master_access_slave_memory_device>:
     af4:	03 3f ff cd 	sethi  %hi(0xffff3400), %g1
     af8:	84 10 62 08 	or  %g1, 0x208, %g2	! ffff3608 <ajit_global_sw_trap_handlers+0xfffe43a8>
     afc:	c4 00 80 00 	ld  [ %g2 ], %g2
     b00:	80 88 a4 00 	btst  0x400, %g2
     b04:	02 80 00 11 	be  b48 <ajit_i2c_master_access_slave_memory_device+0x54>
     b08:	82 10 62 04 	or  %g1, 0x204, %g1
     b0c:	91 2a 20 10 	sll  %o0, 0x10, %o0
     b10:	87 2a 60 1f 	sll  %o1, 0x1f, %g3
     b14:	09 18 00 00 	sethi  %hi(0x60000000), %g4
     b18:	95 2a a0 08 	sll  %o2, 8, %o2
     b1c:	90 12 00 04 	or  %o0, %g4, %o0
     b20:	90 12 00 03 	or  %o0, %g3, %o0
     b24:	94 12 00 0a 	or  %o0, %o2, %o2
     b28:	96 12 80 0b 	or  %o2, %o3, %o3
     b2c:	d6 20 40 00 	st  %o3, [ %g1 ]
     b30:	80 a2 60 00 	cmp  %o1, 0
     b34:	02 80 00 03 	be  b40 <ajit_i2c_master_access_slave_memory_device+0x4c>
     b38:	90 10 20 00 	clr  %o0
     b3c:	90 10 00 02 	mov  %g2, %o0
     b40:	81 c3 e0 08 	retl 
     b44:	90 0a 20 ff 	and  %o0, 0xff, %o0
     b48:	30 80 00 00 	b,a   b48 <ajit_i2c_master_access_slave_memory_device+0x54>

00000b4c <__ajit_read_core_thread_id_word__>:
     b4c:	91 47 40 00 	rd  %asr29, %o0
     b50:	81 c3 e0 08 	retl 
     b54:	01 00 00 00 	nop 

00000b58 <ajit_read_thread_descriptor>:
     b58:	9d e3 bf a0 	save  %sp, -96, %sp
     b5c:	83 47 00 00 	rd  %asr28, %g1
     b60:	87 30 60 1e 	srl  %g1, 0x1e, %g3
     b64:	80 a0 e0 03 	cmp  %g3, 3
     b68:	02 80 00 0a 	be  b90 <ajit_read_thread_descriptor+0x38>
     b6c:	84 10 20 20 	mov  0x20, %g2
     b70:	80 a0 e0 02 	cmp  %g3, 2
     b74:	02 80 00 07 	be  b90 <ajit_read_thread_descriptor+0x38>
     b78:	84 10 20 10 	mov  0x10, %g2
     b7c:	86 18 e0 01 	xor  %g3, 1, %g3
     b80:	80 a0 00 03 	cmp  %g0, %g3
     b84:	84 60 20 00 	subx  %g0, 0, %g2
     b88:	84 08 a0 fc 	and  %g2, 0xfc, %g2
     b8c:	84 00 a0 08 	add  %g2, 8, %g2
     b90:	87 30 60 1c 	srl  %g1, 0x1c, %g3
     b94:	86 08 e0 03 	and  %g3, 3, %g3
     b98:	80 a0 e0 03 	cmp  %g3, 3
     b9c:	02 80 00 2d 	be  c50 <ajit_read_thread_descriptor+0xf8>
     ba0:	c4 2e 00 00 	stb  %g2, [ %i0 ]
     ba4:	80 a0 e0 02 	cmp  %g3, 2
     ba8:	02 80 00 07 	be  bc4 <ajit_read_thread_descriptor+0x6c>
     bac:	84 10 20 10 	mov  0x10, %g2
     bb0:	86 18 e0 01 	xor  %g3, 1, %g3
     bb4:	80 a0 00 03 	cmp  %g0, %g3
     bb8:	84 60 20 00 	subx  %g0, 0, %g2
     bbc:	84 08 a0 fc 	and  %g2, 0xfc, %g2
     bc0:	84 00 a0 08 	add  %g2, 8, %g2
     bc4:	99 30 60 1a 	srl  %g1, 0x1a, %o4
     bc8:	9b 30 60 18 	srl  %g1, 0x18, %o5
     bcc:	9f 30 60 14 	srl  %g1, 0x14, %o7
     bd0:	b3 30 60 10 	srl  %g1, 0x10, %i1
     bd4:	b5 30 60 0c 	srl  %g1, 0xc, %i2
     bd8:	b7 30 60 09 	srl  %g1, 9, %i3
     bdc:	b9 30 60 07 	srl  %g1, 7, %i4
     be0:	bb 30 60 05 	srl  %g1, 5, %i5
     be4:	89 30 60 02 	srl  %g1, 2, %g4
     be8:	87 30 60 01 	srl  %g1, 1, %g3
     bec:	98 0b 20 03 	and  %o4, 3, %o4
     bf0:	9a 0b 60 03 	and  %o5, 3, %o5
     bf4:	9e 0b e0 0f 	and  %o7, 0xf, %o7
     bf8:	b2 0e 60 0f 	and  %i1, 0xf, %i1
     bfc:	b4 0e a0 0f 	and  %i2, 0xf, %i2
     c00:	b6 0e e0 07 	and  %i3, 7, %i3
     c04:	b8 0f 20 03 	and  %i4, 3, %i4
     c08:	ba 0f 60 03 	and  %i5, 3, %i5
     c0c:	88 09 20 01 	and  %g4, 1, %g4
     c10:	86 08 e0 01 	and  %g3, 1, %g3
     c14:	82 08 60 01 	and  %g1, 1, %g1
     c18:	c4 2e 20 01 	stb  %g2, [ %i0 + 1 ]
     c1c:	d8 2e 20 02 	stb  %o4, [ %i0 + 2 ]
     c20:	da 2e 20 03 	stb  %o5, [ %i0 + 3 ]
     c24:	de 2e 20 04 	stb  %o7, [ %i0 + 4 ]
     c28:	f2 2e 20 05 	stb  %i1, [ %i0 + 5 ]
     c2c:	f4 2e 20 06 	stb  %i2, [ %i0 + 6 ]
     c30:	f6 2e 20 07 	stb  %i3, [ %i0 + 7 ]
     c34:	f8 2e 20 08 	stb  %i4, [ %i0 + 8 ]
     c38:	fa 2e 20 09 	stb  %i5, [ %i0 + 9 ]
     c3c:	c8 2e 20 0a 	stb  %g4, [ %i0 + 0xa ]
     c40:	c6 2e 20 0b 	stb  %g3, [ %i0 + 0xb ]
     c44:	c2 2e 20 0c 	stb  %g1, [ %i0 + 0xc ]
     c48:	81 c7 e0 08 	ret 
     c4c:	81 e8 00 00 	restore 
     c50:	10 bf ff dd 	b  bc4 <ajit_read_thread_descriptor+0x6c>
     c54:	84 10 20 20 	mov  0x20, %g2

00000c58 <ajit_get_core_and_thread_id>:
     c58:	83 47 40 00 	rd  %asr29, %g1
     c5c:	85 30 60 08 	srl  %g1, 8, %g2
     c60:	c4 2a 00 00 	stb  %g2, [ %o0 ]
     c64:	81 c3 e0 08 	retl 
     c68:	c2 2a 40 00 	stb  %g1, [ %o1 ]

00000c6c <__ajit_read_cycle_count_register_high__>:
     c6c:	91 47 80 00 	rd  %asr30, %o0
     c70:	81 c3 e0 08 	retl 
     c74:	01 00 00 00 	nop 

00000c78 <__ajit_read_cycle_count_register_low__>:
     c78:	91 47 c0 00 	rd  %asr31, %o0
     c7c:	81 c3 e0 08 	retl 
     c80:	01 00 00 00 	nop 

00000c84 <__ajit_get_clock_time>:
     c84:	99 47 c0 00 	rd  %asr31, %o4
     c88:	83 47 80 00 	rd  %asr30, %g1
     c8c:	86 10 20 00 	clr  %g3
     c90:	9a 10 00 0c 	mov  %o4, %o5
     c94:	98 10 20 00 	clr  %o4
     c98:	86 10 c0 0d 	or  %g3, %o5, %g3
     c9c:	84 10 40 0c 	or  %g1, %o4, %g2
     ca0:	92 10 00 03 	mov  %g3, %o1
     ca4:	81 c3 e0 08 	retl 
     ca8:	90 10 00 02 	mov  %g2, %o0

00000cac <__ajit_sleep__>:
     cac:	95 47 c0 00 	rd  %asr31, %o2
     cb0:	83 47 80 00 	rd  %asr30, %g1
     cb4:	9a 10 20 00 	clr  %o5
     cb8:	96 10 00 0a 	mov  %o2, %o3
     cbc:	9a 13 40 0b 	or  %o5, %o3, %o5
     cc0:	92 83 40 08 	addcc  %o5, %o0, %o1
     cc4:	94 10 20 00 	clr  %o2
     cc8:	98 10 40 0a 	or  %g1, %o2, %o4
     ccc:	90 43 20 00 	addx  %o4, 0, %o0
     cd0:	80 a2 00 0c 	cmp  %o0, %o4
     cd4:	08 80 00 0c 	bleu  d04 <__ajit_sleep__+0x58>
     cd8:	01 00 00 00 	nop 
     cdc:	99 47 c0 00 	rd  %asr31, %o4
     ce0:	83 47 80 00 	rd  %asr30, %g1
     ce4:	86 10 20 00 	clr  %g3
     ce8:	9a 10 00 0c 	mov  %o4, %o5
     cec:	98 10 20 00 	clr  %o4
     cf0:	98 10 40 0c 	or  %g1, %o4, %o4
     cf4:	80 a2 00 0c 	cmp  %o0, %o4
     cf8:	18 bf ff f9 	bgu  cdc <__ajit_sleep__+0x30>
     cfc:	9a 10 c0 0d 	or  %g3, %o5, %o5
     d00:	80 a2 00 0c 	cmp  %o0, %o4
     d04:	12 80 00 04 	bne  d14 <__ajit_sleep__+0x68>
     d08:	80 a2 40 0d 	cmp  %o1, %o5
     d0c:	18 bf ff f4 	bgu  cdc <__ajit_sleep__+0x30>
     d10:	01 00 00 00 	nop 
     d14:	81 c3 e0 08 	retl 
     d18:	01 00 00 00 	nop 

00000d1c <__ajit_set_mmu_default_cacheable_bit__>:
     d1c:	80 a0 00 08 	cmp  %g0, %o0
     d20:	84 10 20 00 	clr  %g2
     d24:	82 40 20 00 	addx  %g0, 0, %g1
     d28:	83 28 60 08 	sll  %g1, 8, %g1
     d2c:	c2 a0 80 80 	sta  %g1, [ %g2 ] #ASI_N
     d30:	81 c3 e0 08 	retl 
     d34:	01 00 00 00 	nop 

00000d38 <__ajit_store_word_mmu_reg__>:
     d38:	d0 a2 40 80 	sta  %o0, [ %o1 ] #ASI_N
     d3c:	81 c3 e0 08 	retl 
     d40:	01 00 00 00 	nop 

00000d44 <__ajit_store_word_mmu_bypass__>:
     d44:	d0 a2 44 00 	sta  %o0, [ %o1 ] #ASI_SCRATCHPAD
     d48:	81 c3 e0 08 	retl 
     d4c:	01 00 00 00 	nop 

00000d50 <__ajit_store_word_to_physical_address__>:
     d50:	86 0a 60 0f 	and  %o1, 0xf, %g3
     d54:	80 a0 e0 0f 	cmp  %g3, 0xf
     d58:	08 80 00 05 	bleu  d6c <__ajit_store_word_to_physical_address__+0x1c>
     d5c:	83 28 e0 02 	sll  %g3, 2, %g1
     d60:	d0 a2 84 00 	sta  %o0, [ %o2 ] #ASI_SCRATCHPAD
     d64:	81 c3 e0 08 	retl 
     d68:	01 00 00 00 	nop 
     d6c:	05 00 00 02 	sethi  %hi(0x800), %g2
     d70:	84 10 a0 e8 	or  %g2, 0xe8, %g2	! 8e8 <cortos_init_sw_traps+0xc>
     d74:	c2 00 80 01 	ld  [ %g2 + %g1 ], %g1
     d78:	81 c0 40 00 	jmp  %g1
     d7c:	01 00 00 00 	nop 
     d80:	d0 a2 85 c0 	sta  %o0, [ %o2 ] (46)
     d84:	81 c3 e0 08 	retl 
     d88:	01 00 00 00 	nop 
     d8c:	d0 a2 85 e0 	sta  %o0, [ %o2 ] (47)
     d90:	81 c3 e0 08 	retl 
     d94:	01 00 00 00 	nop 
     d98:	d0 a2 84 20 	sta  %o0, [ %o2 ] #ASI_MMU
     d9c:	81 c3 e0 08 	retl 
     da0:	01 00 00 00 	nop 
     da4:	d0 a2 84 40 	sta  %o0, [ %o2 ] (34)
     da8:	81 c3 e0 08 	retl 
     dac:	01 00 00 00 	nop 
     db0:	d0 a2 84 60 	sta  %o0, [ %o2 ] #ASI_BLK_INIT_QUAD_LDD_AIUS
     db4:	81 c3 e0 08 	retl 
     db8:	01 00 00 00 	nop 
     dbc:	d0 a2 84 80 	sta  %o0, [ %o2 ] #ASI_NUCLEUS_QUAD_LDD
     dc0:	81 c3 e0 08 	retl 
     dc4:	01 00 00 00 	nop 
     dc8:	d0 a2 84 a0 	sta  %o0, [ %o2 ] #ASI_QUEUE
     dcc:	81 c3 e0 08 	retl 
     dd0:	01 00 00 00 	nop 
     dd4:	d0 a2 84 c0 	sta  %o0, [ %o2 ] #ASI_QUAD_LDD_PHYS_4V
     dd8:	81 c3 e0 08 	retl 
     ddc:	01 00 00 00 	nop 
     de0:	d0 a2 84 e0 	sta  %o0, [ %o2 ] (39)
     de4:	81 c3 e0 08 	retl 
     de8:	01 00 00 00 	nop 
     dec:	d0 a2 85 00 	sta  %o0, [ %o2 ] (40)
     df0:	81 c3 e0 08 	retl 
     df4:	01 00 00 00 	nop 
     df8:	d0 a2 85 20 	sta  %o0, [ %o2 ] (41)
     dfc:	81 c3 e0 08 	retl 
     e00:	01 00 00 00 	nop 
     e04:	d0 a2 85 40 	sta  %o0, [ %o2 ] (42)
     e08:	81 c3 e0 08 	retl 
     e0c:	01 00 00 00 	nop 
     e10:	d0 a2 85 60 	sta  %o0, [ %o2 ] (43)
     e14:	81 c3 e0 08 	retl 
     e18:	01 00 00 00 	nop 
     e1c:	d0 a2 85 80 	sta  %o0, [ %o2 ] #ASI_NUCLEUS_QUAD_LDD_L
     e20:	81 c3 e0 08 	retl 
     e24:	01 00 00 00 	nop 
     e28:	d0 a2 85 a0 	sta  %o0, [ %o2 ] (45)
     e2c:	81 c3 e0 08 	retl 
     e30:	01 00 00 00 	nop 

00000e34 <__ajit_load_word_from_physical_address__>:
     e34:	86 0a 20 0f 	and  %o0, 0xf, %g3
     e38:	80 a0 e0 0f 	cmp  %g3, 0xf
     e3c:	08 80 00 05 	bleu  e50 <__ajit_load_word_from_physical_address__+0x1c>
     e40:	83 28 e0 02 	sll  %g3, 2, %g1
     e44:	d0 82 44 00 	lda  [ %o1 ] #ASI_SCRATCHPAD, %o0
     e48:	81 c3 e0 08 	retl 
     e4c:	01 00 00 00 	nop 
     e50:	05 00 00 02 	sethi  %hi(0x800), %g2
     e54:	84 10 a1 28 	or  %g2, 0x128, %g2	! 928 <cortos_init_sw_traps+0x4c>
     e58:	c2 00 80 01 	ld  [ %g2 + %g1 ], %g1
     e5c:	81 c0 40 00 	jmp  %g1
     e60:	01 00 00 00 	nop 
     e64:	d0 82 45 c0 	lda  [ %o1 ] (46), %o0
     e68:	81 c3 e0 08 	retl 
     e6c:	01 00 00 00 	nop 
     e70:	d0 82 45 e0 	lda  [ %o1 ] (47), %o0
     e74:	81 c3 e0 08 	retl 
     e78:	01 00 00 00 	nop 
     e7c:	d0 82 44 20 	lda  [ %o1 ] #ASI_MMU, %o0
     e80:	81 c3 e0 08 	retl 
     e84:	01 00 00 00 	nop 
     e88:	d0 82 44 40 	lda  [ %o1 ] (34), %o0
     e8c:	81 c3 e0 08 	retl 
     e90:	01 00 00 00 	nop 
     e94:	d0 82 44 60 	lda  [ %o1 ] #ASI_BLK_INIT_QUAD_LDD_AIUS, %o0
     e98:	81 c3 e0 08 	retl 
     e9c:	01 00 00 00 	nop 
     ea0:	d0 82 44 80 	lda  [ %o1 ] #ASI_NUCLEUS_QUAD_LDD, %o0
     ea4:	81 c3 e0 08 	retl 
     ea8:	01 00 00 00 	nop 
     eac:	d0 82 44 a0 	lda  [ %o1 ] #ASI_QUEUE, %o0
     eb0:	81 c3 e0 08 	retl 
     eb4:	01 00 00 00 	nop 
     eb8:	d0 82 44 c0 	lda  [ %o1 ] #ASI_QUAD_LDD_PHYS_4V, %o0
     ebc:	81 c3 e0 08 	retl 
     ec0:	01 00 00 00 	nop 
     ec4:	d0 82 44 e0 	lda  [ %o1 ] (39), %o0
     ec8:	81 c3 e0 08 	retl 
     ecc:	01 00 00 00 	nop 
     ed0:	d0 82 45 00 	lda  [ %o1 ] (40), %o0
     ed4:	81 c3 e0 08 	retl 
     ed8:	01 00 00 00 	nop 
     edc:	d0 82 45 20 	lda  [ %o1 ] (41), %o0
     ee0:	81 c3 e0 08 	retl 
     ee4:	01 00 00 00 	nop 
     ee8:	d0 82 45 40 	lda  [ %o1 ] (42), %o0
     eec:	81 c3 e0 08 	retl 
     ef0:	01 00 00 00 	nop 
     ef4:	d0 82 45 60 	lda  [ %o1 ] (43), %o0
     ef8:	81 c3 e0 08 	retl 
     efc:	01 00 00 00 	nop 
     f00:	d0 82 45 80 	lda  [ %o1 ] #ASI_NUCLEUS_QUAD_LDD_L, %o0
     f04:	81 c3 e0 08 	retl 
     f08:	01 00 00 00 	nop 
     f0c:	d0 82 45 a0 	lda  [ %o1 ] (45), %o0
     f10:	81 c3 e0 08 	retl 
     f14:	01 00 00 00 	nop 

00000f18 <__ajit_load_word_mmu_reg__>:
     f18:	d0 82 00 80 	lda  [ %o0 ] #ASI_N, %o0
     f1c:	81 c3 e0 08 	retl 
     f20:	01 00 00 00 	nop 

00000f24 <__ajit_load_word_mmu_bypass__>:
     f24:	d0 82 04 00 	lda  [ %o0 ] #ASI_SCRATCHPAD, %o0
     f28:	81 c3 e0 08 	retl 
     f2c:	01 00 00 00 	nop 

00000f30 <__ajit_flush_icache__>:
     f30:	81 d8 20 00 	flush  %g0
     f34:	81 c3 e0 08 	retl 
     f38:	01 00 00 00 	nop 

00000f3c <__ajit_flush_dcache__>:
     f3c:	c0 a0 02 60 	sta  %g0, [ %g0 ] (19)
     f40:	81 c3 e0 08 	retl 
     f44:	01 00 00 00 	nop 

00000f48 <__ajit_write_timer_control_register_via_bypass__>:
     f48:	03 3f ff cc 	sethi  %hi(0xffff3000), %g1
     f4c:	82 10 61 00 	or  %g1, 0x100, %g1	! ffff3100 <ajit_global_sw_trap_handlers+0xfffe3ea0>
     f50:	d0 a0 44 00 	sta  %o0, [ %g1 ] #ASI_SCRATCHPAD
     f54:	81 c3 e0 08 	retl 
     f58:	01 00 00 00 	nop 

00000f5c <__ajit_read_timer_control_register_via_bypass__>:
     f5c:	11 3f ff cc 	sethi  %hi(0xffff3000), %o0
     f60:	90 12 21 00 	or  %o0, 0x100, %o0	! ffff3100 <ajit_global_sw_trap_handlers+0xfffe3ea0>
     f64:	d0 82 04 00 	lda  [ %o0 ] #ASI_SCRATCHPAD, %o0
     f68:	81 c3 e0 08 	retl 
     f6c:	01 00 00 00 	nop 

00000f70 <__ajit_write_timer_control_register_via_vmap__>:
     f70:	03 3f ff cc 	sethi  %hi(0xffff3000), %g1
     f74:	82 10 61 00 	or  %g1, 0x100, %g1	! ffff3100 <ajit_global_sw_trap_handlers+0xfffe3ea0>
     f78:	81 c3 e0 08 	retl 
     f7c:	d0 20 40 00 	st  %o0, [ %g1 ]

00000f80 <__ajit_read_timer_control_register_via_vmap__>:
     f80:	03 3f ff cc 	sethi  %hi(0xffff3000), %g1
     f84:	82 10 61 00 	or  %g1, 0x100, %g1	! ffff3100 <ajit_global_sw_trap_handlers+0xfffe3ea0>
     f88:	81 c3 e0 08 	retl 
     f8c:	d0 00 40 00 	ld  [ %g1 ], %o0

00000f90 <__ajit_write_serial_control_register_via_bypass__>:
     f90:	03 3f ff cc 	sethi  %hi(0xffff3000), %g1
     f94:	82 10 62 00 	or  %g1, 0x200, %g1	! ffff3200 <ajit_global_sw_trap_handlers+0xfffe3fa0>
     f98:	d0 a0 44 00 	sta  %o0, [ %g1 ] #ASI_SCRATCHPAD
     f9c:	81 c3 e0 08 	retl 
     fa0:	01 00 00 00 	nop 

00000fa4 <__ajit_read_serial_control_register_via_bypass__>:
     fa4:	11 3f ff cc 	sethi  %hi(0xffff3000), %o0
     fa8:	90 12 22 00 	or  %o0, 0x200, %o0	! ffff3200 <ajit_global_sw_trap_handlers+0xfffe3fa0>
     fac:	d0 82 04 00 	lda  [ %o0 ] #ASI_SCRATCHPAD, %o0
     fb0:	81 c3 e0 08 	retl 
     fb4:	01 00 00 00 	nop 

00000fb8 <__ajit_write_serial_tx_register_via_bypass__>:
     fb8:	03 3f ff cc 	sethi  %hi(0xffff3000), %g1
     fbc:	82 10 62 04 	or  %g1, 0x204, %g1	! ffff3204 <ajit_global_sw_trap_handlers+0xfffe3fa4>
     fc0:	d0 a8 44 00 	stba  %o0, [ %g1 ] #ASI_SCRATCHPAD
     fc4:	81 c3 e0 08 	retl 
     fc8:	01 00 00 00 	nop 

00000fcc <__ajit_read_serial_tx_register_via_bypass__>:
     fcc:	11 3f ff cc 	sethi  %hi(0xffff3000), %o0
     fd0:	90 12 22 04 	or  %o0, 0x204, %o0	! ffff3204 <ajit_global_sw_trap_handlers+0xfffe3fa4>
     fd4:	d0 8a 04 00 	lduba  [ %o0 ] #ASI_SCRATCHPAD, %o0
     fd8:	81 c3 e0 08 	retl 
     fdc:	90 0a 20 ff 	and  %o0, 0xff, %o0

00000fe0 <__ajit_read_serial_rx_register_via_bypass__>:
     fe0:	11 3f ff cc 	sethi  %hi(0xffff3000), %o0
     fe4:	90 12 22 08 	or  %o0, 0x208, %o0	! ffff3208 <ajit_global_sw_trap_handlers+0xfffe3fa8>
     fe8:	d0 8a 04 00 	lduba  [ %o0 ] #ASI_SCRATCHPAD, %o0
     fec:	81 c3 e0 08 	retl 
     ff0:	90 0a 20 ff 	and  %o0, 0xff, %o0

00000ff4 <__ajit_write_serial_baud_limit_register_via_bypass__>:
     ff4:	03 3f ff cc 	sethi  %hi(0xffff3000), %g1
     ff8:	82 10 62 0c 	or  %g1, 0x20c, %g1	! ffff320c <ajit_global_sw_trap_handlers+0xfffe3fac>
     ffc:	d0 a0 44 00 	sta  %o0, [ %g1 ] #ASI_SCRATCHPAD
    1000:	81 c3 e0 08 	retl 
    1004:	01 00 00 00 	nop 

00001008 <__ajit_read_serial_baud_limit_register_via_bypass__>:
    1008:	11 3f ff cc 	sethi  %hi(0xffff3000), %o0
    100c:	90 12 22 0c 	or  %o0, 0x20c, %o0	! ffff320c <ajit_global_sw_trap_handlers+0xfffe3fac>
    1010:	d0 82 04 00 	lda  [ %o0 ] #ASI_SCRATCHPAD, %o0
    1014:	81 c3 e0 08 	retl 
    1018:	01 00 00 00 	nop 

0000101c <__ajit_write_serial_baud_frequency_register_via_bypass__>:
    101c:	03 3f ff cc 	sethi  %hi(0xffff3000), %g1
    1020:	82 10 62 10 	or  %g1, 0x210, %g1	! ffff3210 <ajit_global_sw_trap_handlers+0xfffe3fb0>
    1024:	d0 a0 44 00 	sta  %o0, [ %g1 ] #ASI_SCRATCHPAD
    1028:	81 c3 e0 08 	retl 
    102c:	01 00 00 00 	nop 

00001030 <__ajit_read_serial_baud_frequency_register_via_bypass__>:
    1030:	11 3f ff cc 	sethi  %hi(0xffff3000), %o0
    1034:	90 12 22 10 	or  %o0, 0x210, %o0	! ffff3210 <ajit_global_sw_trap_handlers+0xfffe3fb0>
    1038:	d0 82 04 00 	lda  [ %o0 ] #ASI_SCRATCHPAD, %o0
    103c:	81 c3 e0 08 	retl 
    1040:	01 00 00 00 	nop 

00001044 <__ajit_serial_set_baudrate_via_bypass__>:
    1044:	91 2a 20 04 	sll  %o0, 4, %o0
    1048:	80 a2 00 09 	cmp  %o0, %o1
    104c:	1a 80 00 25 	bcc  10e0 <__ajit_serial_set_baudrate_via_bypass__+0x9c>
    1050:	03 3f ff cc 	sethi  %hi(0xffff3000), %g1
    1054:	80 a2 20 00 	cmp  %o0, 0
    1058:	22 80 00 23 	be,a   10e4 <__ajit_serial_set_baudrate_via_bypass__+0xa0>
    105c:	84 10 20 00 	clr  %g2
    1060:	84 10 00 09 	mov  %o1, %g2
    1064:	10 80 00 03 	b  1070 <__ajit_serial_set_baudrate_via_bypass__+0x2c>
    1068:	82 10 00 08 	mov  %o0, %g1
    106c:	82 10 00 03 	mov  %g3, %g1
    1070:	81 80 20 00 	mov  %g0, %y
    1074:	01 00 00 00 	nop 
    1078:	01 00 00 00 	nop 
    107c:	01 00 00 00 	nop 
    1080:	86 70 80 01 	udiv  %g2, %g1, %g3
    1084:	86 58 c0 01 	smul  %g3, %g1, %g3
    1088:	86 20 80 03 	sub  %g2, %g3, %g3
    108c:	80 a0 e0 00 	cmp  %g3, 0
    1090:	12 bf ff f7 	bne  106c <__ajit_serial_set_baudrate_via_bypass__+0x28>
    1094:	84 10 00 01 	mov  %g1, %g2
    1098:	81 80 20 00 	mov  %g0, %y
    109c:	01 00 00 00 	nop 
    10a0:	01 00 00 00 	nop 
    10a4:	01 00 00 00 	nop 
    10a8:	84 72 00 01 	udiv  %o0, %g1, %g2
    10ac:	81 80 20 00 	mov  %g0, %y
    10b0:	01 00 00 00 	nop 
    10b4:	01 00 00 00 	nop 
    10b8:	01 00 00 00 	nop 
    10bc:	86 72 40 01 	udiv  %o1, %g1, %g3
    10c0:	03 3f ff cc 	sethi  %hi(0xffff3000), %g1
    10c4:	86 20 c0 02 	sub  %g3, %g2, %g3
    10c8:	88 10 62 0c 	or  %g1, 0x20c, %g4
    10cc:	c6 a1 04 00 	sta  %g3, [ %g4 ] #ASI_SCRATCHPAD
    10d0:	82 10 62 10 	or  %g1, 0x210, %g1
    10d4:	c4 a0 44 00 	sta  %g2, [ %g1 ] #ASI_SCRATCHPAD
    10d8:	81 c3 e0 08 	retl 
    10dc:	01 00 00 00 	nop 
    10e0:	84 10 20 00 	clr  %g2	! 0 <_start>
    10e4:	86 10 20 00 	clr  %g3
    10e8:	88 10 62 0c 	or  %g1, 0x20c, %g4
    10ec:	c6 a1 04 00 	sta  %g3, [ %g4 ] #ASI_SCRATCHPAD
    10f0:	82 10 62 10 	or  %g1, 0x210, %g1
    10f4:	c4 a0 44 00 	sta  %g2, [ %g1 ] #ASI_SCRATCHPAD
    10f8:	81 c3 e0 08 	retl 
    10fc:	01 00 00 00 	nop 

00001100 <__ajit_write_serial_control_register_via_vmap__>:
    1100:	03 3f ff cc 	sethi  %hi(0xffff3000), %g1
    1104:	82 10 62 00 	or  %g1, 0x200, %g1	! ffff3200 <ajit_global_sw_trap_handlers+0xfffe3fa0>
    1108:	81 c3 e0 08 	retl 
    110c:	d0 20 40 00 	st  %o0, [ %g1 ]

00001110 <__ajit_read_serial_control_register_via_vmap__>:
    1110:	03 3f ff cc 	sethi  %hi(0xffff3000), %g1
    1114:	82 10 62 00 	or  %g1, 0x200, %g1	! ffff3200 <ajit_global_sw_trap_handlers+0xfffe3fa0>
    1118:	81 c3 e0 08 	retl 
    111c:	d0 08 40 00 	ldub  [ %g1 ], %o0

00001120 <__ajit_write_serial_tx_register_via_vmap__>:
    1120:	03 3f ff cc 	sethi  %hi(0xffff3000), %g1
    1124:	82 10 62 04 	or  %g1, 0x204, %g1	! ffff3204 <ajit_global_sw_trap_handlers+0xfffe3fa4>
    1128:	81 c3 e0 08 	retl 
    112c:	d0 28 40 00 	stb  %o0, [ %g1 ]

00001130 <__ajit_read_serial_tx_register_via_vmap__>:
    1130:	03 3f ff cc 	sethi  %hi(0xffff3000), %g1
    1134:	82 10 62 04 	or  %g1, 0x204, %g1	! ffff3204 <ajit_global_sw_trap_handlers+0xfffe3fa4>
    1138:	81 c3 e0 08 	retl 
    113c:	d0 08 40 00 	ldub  [ %g1 ], %o0

00001140 <__ajit_read_serial_rx_register_via_vmap__>:
    1140:	03 3f ff cc 	sethi  %hi(0xffff3000), %g1
    1144:	82 10 62 08 	or  %g1, 0x208, %g1	! ffff3208 <ajit_global_sw_trap_handlers+0xfffe3fa8>
    1148:	81 c3 e0 08 	retl 
    114c:	d0 08 40 00 	ldub  [ %g1 ], %o0

00001150 <__ajit_serial_set_baudrate_via_vmap__>:
    1150:	91 2a 20 04 	sll  %o0, 4, %o0
    1154:	80 a2 00 09 	cmp  %o0, %o1
    1158:	1a 80 00 24 	bcc  11e8 <__ajit_serial_set_baudrate_via_vmap__+0x98>
    115c:	03 3f ff cc 	sethi  %hi(0xffff3000), %g1
    1160:	80 a2 20 00 	cmp  %o0, 0
    1164:	02 80 00 22 	be  11ec <__ajit_serial_set_baudrate_via_vmap__+0x9c>
    1168:	88 10 20 00 	clr  %g4
    116c:	84 10 00 09 	mov  %o1, %g2
    1170:	10 80 00 03 	b  117c <__ajit_serial_set_baudrate_via_vmap__+0x2c>
    1174:	82 10 00 08 	mov  %o0, %g1
    1178:	82 10 00 03 	mov  %g3, %g1
    117c:	81 80 20 00 	mov  %g0, %y
    1180:	01 00 00 00 	nop 
    1184:	01 00 00 00 	nop 
    1188:	01 00 00 00 	nop 
    118c:	86 70 80 01 	udiv  %g2, %g1, %g3
    1190:	86 58 c0 01 	smul  %g3, %g1, %g3
    1194:	86 20 80 03 	sub  %g2, %g3, %g3
    1198:	80 a0 e0 00 	cmp  %g3, 0
    119c:	12 bf ff f7 	bne  1178 <__ajit_serial_set_baudrate_via_vmap__+0x28>
    11a0:	84 10 00 01 	mov  %g1, %g2
    11a4:	81 80 20 00 	mov  %g0, %y
    11a8:	01 00 00 00 	nop 
    11ac:	01 00 00 00 	nop 
    11b0:	01 00 00 00 	nop 
    11b4:	84 72 00 01 	udiv  %o0, %g1, %g2
    11b8:	81 80 20 00 	mov  %g0, %y
    11bc:	01 00 00 00 	nop 
    11c0:	01 00 00 00 	nop 
    11c4:	01 00 00 00 	nop 
    11c8:	88 72 40 01 	udiv  %o1, %g1, %g4
    11cc:	03 3f ff cc 	sethi  %hi(0xffff3000), %g1
    11d0:	88 21 00 02 	sub  %g4, %g2, %g4
    11d4:	86 10 62 0c 	or  %g1, 0x20c, %g3
    11d8:	c8 20 c0 00 	st  %g4, [ %g3 ]
    11dc:	82 10 62 10 	or  %g1, 0x210, %g1
    11e0:	81 c3 e0 08 	retl 
    11e4:	c4 20 40 00 	st  %g2, [ %g1 ]
    11e8:	88 10 20 00 	clr  %g4
    11ec:	86 10 62 0c 	or  %g1, 0x20c, %g3
    11f0:	c8 20 c0 00 	st  %g4, [ %g3 ]
    11f4:	84 10 20 00 	clr  %g2
    11f8:	82 10 62 10 	or  %g1, 0x210, %g1
    11fc:	81 c3 e0 08 	retl 
    1200:	c4 20 40 00 	st  %g2, [ %g1 ]

00001204 <__ajit_read_serial_baud_limit_register_via_vmap__>:
    1204:	03 3f ff cc 	sethi  %hi(0xffff3000), %g1
    1208:	82 10 62 0c 	or  %g1, 0x20c, %g1	! ffff320c <ajit_global_sw_trap_handlers+0xfffe3fac>
    120c:	81 c3 e0 08 	retl 
    1210:	d0 00 40 00 	ld  [ %g1 ], %o0

00001214 <__ajit_write_serial_baud_limit_register_via_vmap__>:
    1214:	03 3f ff cc 	sethi  %hi(0xffff3000), %g1
    1218:	82 10 62 0c 	or  %g1, 0x20c, %g1	! ffff320c <ajit_global_sw_trap_handlers+0xfffe3fac>
    121c:	81 c3 e0 08 	retl 
    1220:	d0 20 40 00 	st  %o0, [ %g1 ]

00001224 <__ajit_read_serial_baud_frequency_register_via_vmap__>:
    1224:	03 3f ff cc 	sethi  %hi(0xffff3000), %g1
    1228:	82 10 62 10 	or  %g1, 0x210, %g1	! ffff3210 <ajit_global_sw_trap_handlers+0xfffe3fb0>
    122c:	81 c3 e0 08 	retl 
    1230:	d0 00 40 00 	ld  [ %g1 ], %o0

00001234 <__ajit_write_serial_baud_frequency_register_via_vmap__>:
    1234:	03 3f ff cc 	sethi  %hi(0xffff3000), %g1
    1238:	82 10 62 10 	or  %g1, 0x210, %g1	! ffff3210 <ajit_global_sw_trap_handlers+0xfffe3fb0>
    123c:	81 c3 e0 08 	retl 
    1240:	d0 20 40 00 	st  %o0, [ %g1 ]

00001244 <calculate_baud_control_values_for_uart>:
    1244:	91 2a 20 04 	sll  %o0, 4, %o0
    1248:	80 a2 00 09 	cmp  %o0, %o1
    124c:	1a 80 00 05 	bcc  1260 <calculate_baud_control_values_for_uart+0x1c>
    1250:	c0 22 80 00 	clr  [ %o2 ]
    1254:	82 92 20 00 	orcc  %o0, 0, %g1
    1258:	12 80 00 05 	bne  126c <calculate_baud_control_values_for_uart+0x28>
    125c:	84 10 00 09 	mov  %o1, %g2
    1260:	81 c3 e0 08 	retl 
    1264:	c0 22 c0 00 	clr  [ %o3 ]
    1268:	82 10 00 03 	mov  %g3, %g1
    126c:	81 80 20 00 	mov  %g0, %y
    1270:	01 00 00 00 	nop 
    1274:	01 00 00 00 	nop 
    1278:	01 00 00 00 	nop 
    127c:	86 70 80 01 	udiv  %g2, %g1, %g3
    1280:	86 58 c0 01 	smul  %g3, %g1, %g3
    1284:	86 20 80 03 	sub  %g2, %g3, %g3
    1288:	80 a0 e0 00 	cmp  %g3, 0
    128c:	12 bf ff f7 	bne  1268 <calculate_baud_control_values_for_uart+0x24>
    1290:	84 10 00 01 	mov  %g1, %g2
    1294:	81 80 20 00 	mov  %g0, %y
    1298:	01 00 00 00 	nop 
    129c:	01 00 00 00 	nop 
    12a0:	01 00 00 00 	nop 
    12a4:	84 72 00 01 	udiv  %o0, %g1, %g2
    12a8:	c4 22 c0 00 	st  %g2, [ %o3 ]
    12ac:	81 80 20 00 	mov  %g0, %y
    12b0:	01 00 00 00 	nop 
    12b4:	01 00 00 00 	nop 
    12b8:	01 00 00 00 	nop 
    12bc:	86 72 40 01 	udiv  %o1, %g1, %g3
    12c0:	84 20 c0 02 	sub  %g3, %g2, %g2
    12c4:	81 c3 e0 08 	retl 
    12c8:	c4 22 80 00 	st  %g2, [ %o2 ]

000012cc <__ajit_serial_configure_inner__>:
    12cc:	05 3f ff cc 	sethi  %hi(0xffff3000), %g2
    12d0:	80 a2 60 00 	cmp  %o1, 0
    12d4:	12 80 00 03 	bne  12e0 <__ajit_serial_configure_inner__+0x14>
    12d8:	82 10 a2 40 	or  %g2, 0x240, %g1
    12dc:	82 10 a2 00 	or  %g2, 0x200, %g1
    12e0:	80 a2 20 00 	cmp  %o0, 0
    12e4:	02 80 00 15 	be  1338 <__ajit_serial_configure_inner__+0x6c>
    12e8:	01 00 00 00 	nop 
    12ec:	c4 00 40 00 	ld  [ %g1 ], %g2
    12f0:	80 a2 a0 00 	cmp  %o2, 0
    12f4:	02 80 00 03 	be  1300 <__ajit_serial_configure_inner__+0x34>
    12f8:	86 08 bf fe 	and  %g2, -2, %g3
    12fc:	86 10 a0 01 	or  %g2, 1, %g3
    1300:	80 a2 e0 00 	cmp  %o3, 0
    1304:	02 80 00 03 	be  1310 <__ajit_serial_configure_inner__+0x44>
    1308:	84 08 ff fd 	and  %g3, -3, %g2
    130c:	84 10 e0 02 	or  %g3, 2, %g2
    1310:	80 a3 20 00 	cmp  %o4, 0
    1314:	02 80 00 03 	be  1320 <__ajit_serial_configure_inner__+0x54>
    1318:	86 08 bf fb 	and  %g2, -5, %g3
    131c:	86 10 a0 04 	or  %g2, 4, %g3
    1320:	80 a2 20 00 	cmp  %o0, 0
    1324:	12 80 00 08 	bne  1344 <__ajit_serial_configure_inner__+0x78>
    1328:	01 00 00 00 	nop 
    132c:	c6 a0 44 00 	sta  %g3, [ %g1 ] #ASI_SCRATCHPAD
    1330:	81 c3 e0 08 	retl 
    1334:	01 00 00 00 	nop 
    1338:	c4 80 44 00 	lda  [ %g1 ] #ASI_SCRATCHPAD, %g2
    133c:	10 bf ff ee 	b  12f4 <__ajit_serial_configure_inner__+0x28>
    1340:	80 a2 a0 00 	cmp  %o2, 0
    1344:	81 c3 e0 08 	retl 
    1348:	c6 20 40 00 	st  %g3, [ %g1 ]

0000134c <__ajit_serial_configure_via_vmap__>:
    134c:	82 10 00 08 	mov  %o0, %g1
    1350:	96 10 00 09 	mov  %o1, %o3
    1354:	98 10 00 0a 	mov  %o2, %o4
    1358:	90 10 20 01 	mov  1, %o0
    135c:	92 10 20 00 	clr  %o1
    1360:	94 10 00 01 	mov  %g1, %o2
    1364:	82 13 c0 00 	mov  %o7, %g1
    1368:	7f ff ff d9 	call  12cc <__ajit_serial_configure_inner__>
    136c:	9e 10 40 00 	mov  %g1, %o7

00001370 <__ajit_serial_configure_via_bypass__>:
    1370:	82 10 00 08 	mov  %o0, %g1
    1374:	96 10 00 09 	mov  %o1, %o3
    1378:	98 10 00 0a 	mov  %o2, %o4
    137c:	90 10 20 00 	clr  %o0
    1380:	92 10 20 00 	clr  %o1
    1384:	94 10 00 01 	mov  %g1, %o2
    1388:	82 13 c0 00 	mov  %o7, %g1
    138c:	7f ff ff d0 	call  12cc <__ajit_serial_configure_inner__>
    1390:	9e 10 40 00 	mov  %g1, %o7

00001394 <__ajit_serial_set_baudrate_inner__>:
    1394:	95 2a a0 04 	sll  %o2, 4, %o2
    1398:	80 a2 80 0b 	cmp  %o2, %o3
    139c:	1a 80 00 06 	bcc  13b4 <__ajit_serial_set_baudrate_inner__+0x20>
    13a0:	84 10 20 00 	clr  %g2
    13a4:	80 a2 a0 00 	cmp  %o2, 0
    13a8:	12 80 00 0f 	bne  13e4 <__ajit_serial_set_baudrate_inner__+0x50>
    13ac:	84 10 00 0b 	mov  %o3, %g2
    13b0:	84 10 20 00 	clr  %g2
    13b4:	86 10 20 00 	clr  %g3
    13b8:	80 a2 60 00 	cmp  %o1, 0
    13bc:	02 80 00 25 	be  1450 <__ajit_serial_set_baudrate_inner__+0xbc>
    13c0:	03 3f ff cc 	sethi  %hi(0xffff3000), %g1
    13c4:	88 10 62 4c 	or  %g1, 0x24c, %g4	! ffff324c <ajit_global_sw_trap_handlers+0xfffe3fec>
    13c8:	80 a2 20 00 	cmp  %o0, 0
    13cc:	12 80 00 25 	bne  1460 <__ajit_serial_set_baudrate_inner__+0xcc>
    13d0:	82 10 62 50 	or  %g1, 0x250, %g1
    13d4:	c6 a1 04 00 	sta  %g3, [ %g4 ] #ASI_SCRATCHPAD
    13d8:	c4 a0 44 00 	sta  %g2, [ %g1 ] #ASI_SCRATCHPAD
    13dc:	81 c3 e0 08 	retl 
    13e0:	01 00 00 00 	nop 
    13e4:	10 80 00 03 	b  13f0 <__ajit_serial_set_baudrate_inner__+0x5c>
    13e8:	82 10 00 0a 	mov  %o2, %g1
    13ec:	82 10 00 03 	mov  %g3, %g1
    13f0:	81 80 20 00 	mov  %g0, %y
    13f4:	01 00 00 00 	nop 
    13f8:	01 00 00 00 	nop 
    13fc:	01 00 00 00 	nop 
    1400:	86 70 80 01 	udiv  %g2, %g1, %g3
    1404:	86 58 c0 01 	smul  %g3, %g1, %g3
    1408:	86 20 80 03 	sub  %g2, %g3, %g3
    140c:	80 a0 e0 00 	cmp  %g3, 0
    1410:	12 bf ff f7 	bne  13ec <__ajit_serial_set_baudrate_inner__+0x58>
    1414:	84 10 00 01 	mov  %g1, %g2
    1418:	81 80 20 00 	mov  %g0, %y
    141c:	01 00 00 00 	nop 
    1420:	01 00 00 00 	nop 
    1424:	01 00 00 00 	nop 
    1428:	84 72 80 01 	udiv  %o2, %g1, %g2
    142c:	81 80 20 00 	mov  %g0, %y
    1430:	01 00 00 00 	nop 
    1434:	01 00 00 00 	nop 
    1438:	01 00 00 00 	nop 
    143c:	86 72 c0 01 	udiv  %o3, %g1, %g3
    1440:	80 a2 60 00 	cmp  %o1, 0
    1444:	86 20 c0 02 	sub  %g3, %g2, %g3
    1448:	12 bf ff df 	bne  13c4 <__ajit_serial_set_baudrate_inner__+0x30>
    144c:	03 3f ff cc 	sethi  %hi(0xffff3000), %g1
    1450:	88 10 62 0c 	or  %g1, 0x20c, %g4	! ffff320c <ajit_global_sw_trap_handlers+0xfffe3fac>
    1454:	80 a2 20 00 	cmp  %o0, 0
    1458:	02 bf ff df 	be  13d4 <__ajit_serial_set_baudrate_inner__+0x40>
    145c:	82 10 62 10 	or  %g1, 0x210, %g1
    1460:	c6 21 00 00 	st  %g3, [ %g4 ]
    1464:	81 c3 e0 08 	retl 
    1468:	c4 20 40 00 	st  %g2, [ %g1 ]

0000146c <__ajit_serial_putchar_inner__>:
    146c:	84 10 00 08 	mov  %o0, %g2
    1470:	80 a2 60 00 	cmp  %o1, 0
    1474:	02 80 00 17 	be  14d0 <__ajit_serial_putchar_inner__+0x64>
    1478:	07 3f ff cc 	sethi  %hi(0xffff3000), %g3
    147c:	82 10 e2 40 	or  %g3, 0x240, %g1	! ffff3240 <ajit_global_sw_trap_handlers+0xfffe3fe0>
    1480:	86 10 e2 44 	or  %g3, 0x244, %g3
    1484:	80 a0 a0 00 	cmp  %g2, 0
    1488:	02 80 00 0f 	be  14c4 <__ajit_serial_putchar_inner__+0x58>
    148c:	01 00 00 00 	nop 
    1490:	c2 00 40 00 	ld  [ %g1 ], %g1
    1494:	80 88 60 01 	btst  1, %g1
    1498:	02 80 00 09 	be  14bc <__ajit_serial_putchar_inner__+0x50>
    149c:	90 10 20 00 	clr  %o0
    14a0:	80 88 60 08 	btst  8, %g1
    14a4:	12 80 00 06 	bne  14bc <__ajit_serial_putchar_inner__+0x50>
    14a8:	80 a0 a0 00 	cmp  %g2, 0
    14ac:	32 80 00 0c 	bne,a   14dc <__ajit_serial_putchar_inner__+0x70>
    14b0:	d4 28 c0 00 	stb  %o2, [ %g3 ]
    14b4:	d4 a8 c4 00 	stba  %o2, [ %g3 ] #ASI_SCRATCHPAD
    14b8:	90 10 20 01 	mov  1, %o0
    14bc:	81 c3 e0 08 	retl 
    14c0:	01 00 00 00 	nop 
    14c4:	c2 80 44 00 	lda  [ %g1 ] #ASI_SCRATCHPAD, %g1
    14c8:	10 bf ff f4 	b  1498 <__ajit_serial_putchar_inner__+0x2c>
    14cc:	80 88 60 01 	btst  1, %g1
    14d0:	82 10 e2 00 	or  %g3, 0x200, %g1
    14d4:	10 bf ff ec 	b  1484 <__ajit_serial_putchar_inner__+0x18>
    14d8:	86 10 e2 04 	or  %g3, 0x204, %g3
    14dc:	81 c3 e0 08 	retl 
    14e0:	90 10 20 01 	mov  1, %o0

000014e4 <__ajit_serial_putchar_via_vmap__>:
    14e4:	94 10 00 08 	mov  %o0, %o2
    14e8:	92 10 20 00 	clr  %o1
    14ec:	90 10 20 01 	mov  1, %o0
    14f0:	82 13 c0 00 	mov  %o7, %g1
    14f4:	7f ff ff de 	call  146c <__ajit_serial_putchar_inner__>
    14f8:	9e 10 40 00 	mov  %g1, %o7

000014fc <__ajit_serial_putchar_via_bypass__>:
    14fc:	94 10 00 08 	mov  %o0, %o2
    1500:	92 10 20 00 	clr  %o1
    1504:	90 10 20 00 	clr  %o0
    1508:	82 13 c0 00 	mov  %o7, %g1
    150c:	7f ff ff d8 	call  146c <__ajit_serial_putchar_inner__>
    1510:	9e 10 40 00 	mov  %g1, %o7

00001514 <__ajit_serial_getchar_inner__>:
    1514:	80 a2 60 00 	cmp  %o1, 0
    1518:	02 80 00 0f 	be  1554 <__ajit_serial_getchar_inner__+0x40>
    151c:	05 3f ff cc 	sethi  %hi(0xffff3000), %g2
    1520:	82 10 a2 40 	or  %g2, 0x240, %g1	! ffff3240 <ajit_global_sw_trap_handlers+0xfffe3fe0>
    1524:	80 a2 20 00 	cmp  %o0, 0
    1528:	02 80 00 0f 	be  1564 <__ajit_serial_getchar_inner__+0x50>
    152c:	84 10 a2 48 	or  %g2, 0x248, %g2
    1530:	c2 00 40 00 	ld  [ %g1 ], %g1
    1534:	82 08 60 12 	and  %g1, 0x12, %g1
    1538:	80 a0 60 12 	cmp  %g1, 0x12
    153c:	12 80 00 13 	bne  1588 <__ajit_serial_getchar_inner__+0x74>
    1540:	01 00 00 00 	nop 
    1544:	c2 08 80 00 	ldub  [ %g2 ], %g1
    1548:	90 10 20 01 	mov  1, %o0
    154c:	81 c3 e0 08 	retl 
    1550:	c2 2a 80 00 	stb  %g1, [ %o2 ]
    1554:	82 10 a2 00 	or  %g2, 0x200, %g1
    1558:	80 a2 20 00 	cmp  %o0, 0
    155c:	12 bf ff f5 	bne  1530 <__ajit_serial_getchar_inner__+0x1c>
    1560:	84 10 a2 08 	or  %g2, 0x208, %g2
    1564:	c2 80 44 00 	lda  [ %g1 ] #ASI_SCRATCHPAD, %g1
    1568:	82 08 60 12 	and  %g1, 0x12, %g1
    156c:	80 a0 60 12 	cmp  %g1, 0x12
    1570:	12 80 00 06 	bne  1588 <__ajit_serial_getchar_inner__+0x74>
    1574:	01 00 00 00 	nop 
    1578:	c4 88 84 00 	lduba  [ %g2 ] #ASI_SCRATCHPAD, %g2
    157c:	90 10 20 01 	mov  1, %o0
    1580:	81 c3 e0 08 	retl 
    1584:	c4 2a 80 00 	stb  %g2, [ %o2 ]
    1588:	81 c3 e0 08 	retl 
    158c:	90 10 20 00 	clr  %o0

00001590 <__ajit_serial_getchar_via_vmap__>:
    1590:	9d e3 bf 98 	save  %sp, -104, %sp
    1594:	90 10 20 01 	mov  1, %o0
    1598:	92 10 20 00 	clr  %o1
    159c:	7f ff ff de 	call  1514 <__ajit_serial_getchar_inner__>
    15a0:	94 07 bf ff 	add  %fp, -1, %o2
    15a4:	80 a2 20 00 	cmp  %o0, 0
    15a8:	22 bf ff fc 	be,a   1598 <__ajit_serial_getchar_via_vmap__+0x8>
    15ac:	90 10 20 01 	mov  1, %o0
    15b0:	f0 4f bf ff 	ldsb  [ %fp + -1 ], %i0
    15b4:	81 c7 e0 08 	ret 
    15b8:	81 e8 00 00 	restore 

000015bc <__ajit_serial_getchar_via_bypass__>:
    15bc:	9d e3 bf 98 	save  %sp, -104, %sp
    15c0:	90 10 20 00 	clr  %o0
    15c4:	92 10 20 00 	clr  %o1
    15c8:	7f ff ff d3 	call  1514 <__ajit_serial_getchar_inner__>
    15cc:	94 07 bf ff 	add  %fp, -1, %o2
    15d0:	80 a2 20 00 	cmp  %o0, 0
    15d4:	22 bf ff fc 	be,a   15c4 <__ajit_serial_getchar_via_bypass__+0x8>
    15d8:	90 10 20 00 	clr  %o0
    15dc:	f0 4f bf ff 	ldsb  [ %fp + -1 ], %i0
    15e0:	81 c7 e0 08 	ret 
    15e4:	81 e8 00 00 	restore 

000015e8 <__ajit_serial_puts_inner__>:
    15e8:	9d e3 bf a0 	save  %sp, -96, %sp
    15ec:	80 a6 e0 00 	cmp  %i3, 0
    15f0:	02 80 00 1a 	be  1658 <__ajit_serial_puts_inner__+0x70>
    15f4:	01 00 00 00 	nop 
    15f8:	d4 0e 80 00 	ldub  [ %i2 ], %o2
    15fc:	95 2a a0 18 	sll  %o2, 0x18, %o2
    1600:	80 a2 a0 00 	cmp  %o2, 0
    1604:	02 80 00 15 	be  1658 <__ajit_serial_puts_inner__+0x70>
    1608:	ba 06 a0 01 	add  %i2, 1, %i5
    160c:	10 80 00 03 	b  1618 <__ajit_serial_puts_inner__+0x30>
    1610:	b8 06 80 1b 	add  %i2, %i3, %i4
    1614:	95 2a a0 18 	sll  %o2, 0x18, %o2
    1618:	95 3a a0 18 	sra  %o2, 0x18, %o2
    161c:	90 10 00 18 	mov  %i0, %o0
    1620:	7f ff ff 93 	call  146c <__ajit_serial_putchar_inner__>
    1624:	92 10 00 19 	mov  %i1, %o1
    1628:	80 a2 20 00 	cmp  %o0, 0
    162c:	22 bf ff fa 	be,a   1614 <__ajit_serial_puts_inner__+0x2c>
    1630:	d4 0e 80 00 	ldub  [ %i2 ], %o2
    1634:	80 a7 40 1c 	cmp  %i5, %i4
    1638:	02 80 00 08 	be  1658 <__ajit_serial_puts_inner__+0x70>
    163c:	b4 10 00 1d 	mov  %i5, %i2
    1640:	ba 07 60 01 	inc  %i5
    1644:	d4 0f 7f ff 	ldub  [ %i5 + -1 ], %o2
    1648:	95 2a a0 18 	sll  %o2, 0x18, %o2
    164c:	80 a2 a0 00 	cmp  %o2, 0
    1650:	12 bf ff f3 	bne  161c <__ajit_serial_puts_inner__+0x34>
    1654:	95 3a a0 18 	sra  %o2, 0x18, %o2
    1658:	81 c7 e0 08 	ret 
    165c:	81 e8 00 00 	restore 

00001660 <__ajit_serial_puts_via_vmap__>:
    1660:	94 10 00 08 	mov  %o0, %o2
    1664:	96 10 00 09 	mov  %o1, %o3
    1668:	90 10 20 01 	mov  1, %o0
    166c:	92 10 20 00 	clr  %o1
    1670:	82 13 c0 00 	mov  %o7, %g1
    1674:	7f ff ff dd 	call  15e8 <__ajit_serial_puts_inner__>
    1678:	9e 10 40 00 	mov  %g1, %o7

0000167c <__ajit_serial_puts_via_bypass__>:
    167c:	94 10 00 08 	mov  %o0, %o2
    1680:	96 10 00 09 	mov  %o1, %o3
    1684:	90 10 20 00 	clr  %o0
    1688:	92 10 20 00 	clr  %o1
    168c:	82 13 c0 00 	mov  %o7, %g1
    1690:	7f ff ff d6 	call  15e8 <__ajit_serial_puts_inner__>
    1694:	9e 10 40 00 	mov  %g1, %o7

00001698 <__ajit_serial_gets_inner__>:
    1698:	9d e3 bf 98 	save  %sp, -104, %sp
    169c:	80 a6 e0 01 	cmp  %i3, 1
    16a0:	22 80 00 18 	be,a   1700 <__ajit_serial_gets_inner__+0x68>
    16a4:	b6 06 80 1b 	add  %i2, %i3, %i3
    16a8:	a0 06 ff ff 	add  %i3, -1, %l0
    16ac:	b8 10 20 00 	clr  %i4
    16b0:	ba 10 20 00 	clr  %i5
    16b4:	c0 2f bf ff 	clrb  [ %fp + -1 ]
    16b8:	90 10 00 18 	mov  %i0, %o0
    16bc:	92 10 00 19 	mov  %i1, %o1
    16c0:	7f ff ff 95 	call  1514 <__ajit_serial_getchar_inner__>
    16c4:	94 07 bf ff 	add  %fp, -1, %o2
    16c8:	80 a2 20 00 	cmp  %o0, 0
    16cc:	22 bf ff fc 	be,a   16bc <__ajit_serial_gets_inner__+0x24>
    16d0:	90 10 00 18 	mov  %i0, %o0
    16d4:	c2 0f bf ff 	ldub  [ %fp + -1 ], %g1
    16d8:	c2 2e 80 1c 	stb  %g1, [ %i2 + %i4 ]
    16dc:	83 28 60 18 	sll  %g1, 0x18, %g1
    16e0:	80 a0 60 00 	cmp  %g1, 0
    16e4:	22 80 00 07 	be,a   1700 <__ajit_serial_gets_inner__+0x68>
    16e8:	b6 06 80 1b 	add  %i2, %i3, %i3
    16ec:	ba 07 60 01 	inc  %i5
    16f0:	80 a7 40 10 	cmp  %i5, %l0
    16f4:	12 bf ff f0 	bne  16b4 <__ajit_serial_gets_inner__+0x1c>
    16f8:	b8 10 00 1d 	mov  %i5, %i4
    16fc:	b6 06 80 1b 	add  %i2, %i3, %i3
    1700:	c0 2e ff ff 	clrb  [ %i3 + -1 ]
    1704:	81 c7 e0 08 	ret 
    1708:	81 e8 00 00 	restore 

0000170c <__ajit_serial_gets_via_vmap__>:
    170c:	94 10 00 08 	mov  %o0, %o2
    1710:	96 10 00 09 	mov  %o1, %o3
    1714:	90 10 20 01 	mov  1, %o0
    1718:	92 10 20 00 	clr  %o1
    171c:	82 13 c0 00 	mov  %o7, %g1
    1720:	7f ff ff de 	call  1698 <__ajit_serial_gets_inner__>
    1724:	9e 10 40 00 	mov  %g1, %o7

00001728 <__ajit_serial_gets_via_bypass__>:
    1728:	94 10 00 08 	mov  %o0, %o2
    172c:	96 10 00 09 	mov  %o1, %o3
    1730:	90 10 20 00 	clr  %o0
    1734:	92 10 20 00 	clr  %o1
    1738:	82 13 c0 00 	mov  %o7, %g1
    173c:	7f ff ff d7 	call  1698 <__ajit_serial_gets_inner__>
    1740:	9e 10 40 00 	mov  %g1, %o7

00001744 <__ajit_serial_set_uart_reset_inner__>:
    1744:	05 3f ff cc 	sethi  %hi(0xffff3000), %g2
    1748:	80 a2 60 00 	cmp  %o1, 0
    174c:	12 80 00 03 	bne  1758 <__ajit_serial_set_uart_reset_inner__+0x14>
    1750:	82 10 a2 40 	or  %g2, 0x240, %g1
    1754:	82 10 a2 00 	or  %g2, 0x200, %g1
    1758:	80 a2 20 00 	cmp  %o0, 0
    175c:	02 80 00 0d 	be  1790 <__ajit_serial_set_uart_reset_inner__+0x4c>
    1760:	01 00 00 00 	nop 
    1764:	c6 00 40 00 	ld  [ %g1 ], %g3
    1768:	80 a2 a0 00 	cmp  %o2, 0
    176c:	12 80 00 03 	bne  1778 <__ajit_serial_set_uart_reset_inner__+0x34>
    1770:	84 10 e0 20 	or  %g3, 0x20, %g2
    1774:	84 08 ff df 	and  %g3, -33, %g2
    1778:	80 a2 20 00 	cmp  %o0, 0
    177c:	12 80 00 08 	bne  179c <__ajit_serial_set_uart_reset_inner__+0x58>
    1780:	01 00 00 00 	nop 
    1784:	c4 a0 44 00 	sta  %g2, [ %g1 ] #ASI_SCRATCHPAD
    1788:	81 c3 e0 08 	retl 
    178c:	01 00 00 00 	nop 
    1790:	c6 80 44 00 	lda  [ %g1 ] #ASI_SCRATCHPAD, %g3
    1794:	10 bf ff f6 	b  176c <__ajit_serial_set_uart_reset_inner__+0x28>
    1798:	80 a2 a0 00 	cmp  %o2, 0
    179c:	81 c3 e0 08 	retl 
    17a0:	c4 20 40 00 	st  %g2, [ %g1 ]

000017a4 <__ajit_serial_set_uart_reset_via_vmap__>:
    17a4:	94 10 00 08 	mov  %o0, %o2
    17a8:	92 10 20 00 	clr  %o1
    17ac:	90 10 20 01 	mov  1, %o0
    17b0:	82 13 c0 00 	mov  %o7, %g1
    17b4:	7f ff ff e4 	call  1744 <__ajit_serial_set_uart_reset_inner__>
    17b8:	9e 10 40 00 	mov  %g1, %o7

000017bc <__ajit_serial_set_uart_reset_via_bypass__>:
    17bc:	94 10 00 08 	mov  %o0, %o2
    17c0:	92 10 20 00 	clr  %o1
    17c4:	90 10 20 00 	clr  %o0
    17c8:	82 13 c0 00 	mov  %o7, %g1
    17cc:	7f ff ff de 	call  1744 <__ajit_serial_set_uart_reset_inner__>
    17d0:	9e 10 40 00 	mov  %g1, %o7

000017d4 <__ajit_write_irc_control_register_via_bypass__>:
    17d4:	03 3f ff cc 	sethi  %hi(0xffff3000), %g1
    17d8:	d0 a0 44 00 	sta  %o0, [ %g1 ] #ASI_SCRATCHPAD
    17dc:	81 c3 e0 08 	retl 
    17e0:	01 00 00 00 	nop 

000017e4 <__ajit_read_irc_control_register_via_bypass__>:
    17e4:	11 3f ff cc 	sethi  %hi(0xffff3000), %o0
    17e8:	d0 82 04 00 	lda  [ %o0 ] #ASI_SCRATCHPAD, %o0
    17ec:	81 c3 e0 08 	retl 
    17f0:	01 00 00 00 	nop 

000017f4 <__ajit_write_irc_control_register_via_vmap__>:
    17f4:	03 3f ff cc 	sethi  %hi(0xffff3000), %g1
    17f8:	81 c3 e0 08 	retl 
    17fc:	d0 20 40 00 	st  %o0, [ %g1 ]

00001800 <__ajit_read_irc_control_register_via_vmap__>:
    1800:	03 3f ff cc 	sethi  %hi(0xffff3000), %g1
    1804:	81 c3 e0 08 	retl 
    1808:	d0 00 40 00 	ld  [ %g1 ], %o0

0000180c <__ajit_write_spi_master_register_via_bypass__>:
    180c:	91 2a 20 02 	sll  %o0, 2, %o0
    1810:	03 3f ff cc 	sethi  %hi(0xffff3000), %g1
    1814:	82 10 63 00 	or  %g1, 0x300, %g1	! ffff3300 <ajit_global_sw_trap_handlers+0xfffe40a0>
    1818:	90 02 00 01 	add  %o0, %g1, %o0
    181c:	d2 a2 04 00 	sta  %o1, [ %o0 ] #ASI_SCRATCHPAD
    1820:	81 c3 e0 08 	retl 
    1824:	01 00 00 00 	nop 

00001828 <__ajit_write_spi_master_register_via_vmap__>:
    1828:	91 2a 20 02 	sll  %o0, 2, %o0
    182c:	03 3f ff cc 	sethi  %hi(0xffff3000), %g1
    1830:	82 10 63 00 	or  %g1, 0x300, %g1	! ffff3300 <ajit_global_sw_trap_handlers+0xfffe40a0>
    1834:	81 c3 e0 08 	retl 
    1838:	d2 2a 00 01 	stb  %o1, [ %o0 + %g1 ]

0000183c <__ajit_read_spi_master_register_via_bypass__>:
    183c:	91 2a 20 02 	sll  %o0, 2, %o0
    1840:	03 3f ff cc 	sethi  %hi(0xffff3000), %g1
    1844:	82 10 63 00 	or  %g1, 0x300, %g1	! ffff3300 <ajit_global_sw_trap_handlers+0xfffe40a0>
    1848:	90 02 00 01 	add  %o0, %g1, %o0
    184c:	d0 82 04 00 	lda  [ %o0 ] #ASI_SCRATCHPAD, %o0
    1850:	81 c3 e0 08 	retl 
    1854:	90 0a 20 ff 	and  %o0, 0xff, %o0

00001858 <__ajit_read_spi_master_register_via_vmap__>:
    1858:	91 2a 20 02 	sll  %o0, 2, %o0
    185c:	03 3f ff cc 	sethi  %hi(0xffff3000), %g1
    1860:	82 10 63 00 	or  %g1, 0x300, %g1	! ffff3300 <ajit_global_sw_trap_handlers+0xfffe40a0>
    1864:	81 c3 e0 08 	retl 
    1868:	d0 0a 00 01 	ldub  [ %o0 + %g1 ], %o0

0000186c <__ajit_do_spi_transfer_via_bypass__>:
    186c:	07 3f ff cc 	sethi  %hi(0xffff3000), %g3
    1870:	82 10 e3 00 	or  %g3, 0x300, %g1	! ffff3300 <ajit_global_sw_trap_handlers+0xfffe40a0>
    1874:	d2 a0 44 00 	sta  %o1, [ %g1 ] #ASI_SCRATCHPAD
    1878:	82 0a 20 07 	and  %o0, 7, %g1
    187c:	94 0a a0 01 	and  %o2, 1, %o2
    1880:	83 28 60 03 	sll  %g1, 3, %g1
    1884:	94 02 80 0a 	add  %o2, %o2, %o2
    1888:	82 10 60 01 	or  %g1, 1, %g1
    188c:	86 10 e3 08 	or  %g3, 0x308, %g3
    1890:	94 12 80 01 	or  %o2, %g1, %o2
    1894:	d4 a0 c4 00 	sta  %o2, [ %g3 ] #ASI_SCRATCHPAD
    1898:	10 80 00 04 	b  18a8 <__ajit_do_spi_transfer_via_bypass__+0x3c>
    189c:	03 00 00 08 	sethi  %hi(0x2000), %g1
    18a0:	02 80 00 07 	be  18bc <__ajit_do_spi_transfer_via_bypass__+0x50>
    18a4:	11 3f ff cc 	sethi  %hi(0xffff3000), %o0
    18a8:	c4 80 c4 00 	lda  [ %g3 ] #ASI_SCRATCHPAD, %g2
    18ac:	80 88 a0 01 	btst  1, %g2
    18b0:	32 bf ff fc 	bne,a   18a0 <__ajit_do_spi_transfer_via_bypass__+0x34>
    18b4:	82 80 7f ff 	addcc  %g1, -1, %g1
    18b8:	11 3f ff cc 	sethi  %hi(0xffff3000), %o0
    18bc:	90 12 23 00 	or  %o0, 0x300, %o0	! ffff3300 <ajit_global_sw_trap_handlers+0xfffe40a0>
    18c0:	d0 82 04 00 	lda  [ %o0 ] #ASI_SCRATCHPAD, %o0
    18c4:	81 c3 e0 08 	retl 
    18c8:	90 0a 20 ff 	and  %o0, 0xff, %o0

000018cc <__ajit_do_spi_transfer_via_vmap__>:
    18cc:	03 3f ff cc 	sethi  %hi(0xffff3000), %g1
    18d0:	90 0a 20 07 	and  %o0, 7, %o0
    18d4:	84 10 63 00 	or  %g1, 0x300, %g2
    18d8:	91 2a 20 03 	sll  %o0, 3, %o0
    18dc:	d2 20 80 00 	st  %o1, [ %g2 ]
    18e0:	90 12 20 01 	or  %o0, 1, %o0
    18e4:	82 10 63 08 	or  %g1, 0x308, %g1
    18e8:	94 0a a0 01 	and  %o2, 1, %o2
    18ec:	94 02 80 0a 	add  %o2, %o2, %o2
    18f0:	94 12 80 08 	or  %o2, %o0, %o2
    18f4:	90 10 00 09 	mov  %o1, %o0
    18f8:	81 c3 e0 08 	retl 
    18fc:	d4 20 40 00 	st  %o2, [ %g1 ]

00001900 <__ajit_configure_spi_master_via_bypass___>:
    1900:	90 0a 20 0f 	and  %o0, 0xf, %o0
    1904:	03 3f ff cc 	sethi  %hi(0xffff3000), %g1
    1908:	90 12 20 10 	or  %o0, 0x10, %o0
    190c:	82 10 63 0c 	or  %g1, 0x30c, %g1
    1910:	d0 a0 44 00 	sta  %o0, [ %g1 ] #ASI_SCRATCHPAD
    1914:	81 c3 e0 08 	retl 
    1918:	90 10 20 00 	clr  %o0

0000191c <__ajit_configure_spi_master_via_vmap___>:
    191c:	90 0a 20 0f 	and  %o0, 0xf, %o0
    1920:	03 3f ff cc 	sethi  %hi(0xffff3000), %g1
    1924:	84 12 20 10 	or  %o0, 0x10, %g2
    1928:	82 10 63 0c 	or  %g1, 0x30c, %g1
    192c:	90 10 20 00 	clr  %o0
    1930:	81 c3 e0 08 	retl 
    1934:	c4 20 40 00 	st  %g2, [ %g1 ]

00001938 <__ajit_do_spi_transfer_inner__>:
    1938:	92 0a 60 07 	and  %o1, 7, %o1
    193c:	83 2a 60 03 	sll  %o1, 3, %g1
    1940:	82 10 60 01 	or  %g1, 1, %g1
    1944:	96 0a e0 01 	and  %o3, 1, %o3
    1948:	80 a2 20 00 	cmp  %o0, 0
    194c:	96 02 c0 0b 	add  %o3, %o3, %o3
    1950:	96 12 c0 01 	or  %o3, %g1, %o3
    1954:	02 80 00 20 	be  19d4 <__ajit_do_spi_transfer_inner__+0x9c>
    1958:	03 3f ff cc 	sethi  %hi(0xffff3000), %g1
    195c:	84 10 63 00 	or  %g1, 0x300, %g2	! ffff3300 <ajit_global_sw_trap_handlers+0xfffe40a0>
    1960:	d4 20 80 00 	st  %o2, [ %g2 ]
    1964:	96 0a e0 ff 	and  %o3, 0xff, %o3
    1968:	82 10 63 08 	or  %g1, 0x308, %g1
    196c:	d6 20 40 00 	st  %o3, [ %g1 ]
    1970:	07 3f ff cc 	sethi  %hi(0xffff3000), %g3
    1974:	03 00 00 08 	sethi  %hi(0x2000), %g1
    1978:	10 80 00 08 	b  1998 <__ajit_do_spi_transfer_inner__+0x60>
    197c:	86 10 e3 08 	or  %g3, 0x308, %g3
    1980:	80 88 a0 01 	btst  1, %g2
    1984:	02 80 00 0d 	be  19b8 <__ajit_do_spi_transfer_inner__+0x80>
    1988:	80 a2 20 00 	cmp  %o0, 0
    198c:	82 80 7f ff 	addcc  %g1, -1, %g1
    1990:	02 80 00 0a 	be  19b8 <__ajit_do_spi_transfer_inner__+0x80>
    1994:	80 a2 20 00 	cmp  %o0, 0
    1998:	80 a2 20 00 	cmp  %o0, 0
    199c:	32 bf ff f9 	bne,a   1980 <__ajit_do_spi_transfer_inner__+0x48>
    19a0:	c4 00 c0 00 	ld  [ %g3 ], %g2
    19a4:	c4 80 c4 00 	lda  [ %g3 ] #ASI_SCRATCHPAD, %g2
    19a8:	80 88 a0 01 	btst  1, %g2
    19ac:	32 bf ff f9 	bne,a   1990 <__ajit_do_spi_transfer_inner__+0x58>
    19b0:	82 80 7f ff 	addcc  %g1, -1, %g1
    19b4:	80 a2 20 00 	cmp  %o0, 0
    19b8:	32 80 00 0d 	bne,a   19ec <__ajit_do_spi_transfer_inner__+0xb4>
    19bc:	03 3f ff cc 	sethi  %hi(0xffff3000), %g1
    19c0:	11 3f ff cc 	sethi  %hi(0xffff3000), %o0
    19c4:	90 12 23 00 	or  %o0, 0x300, %o0	! ffff3300 <ajit_global_sw_trap_handlers+0xfffe40a0>
    19c8:	d0 82 04 00 	lda  [ %o0 ] #ASI_SCRATCHPAD, %o0
    19cc:	81 c3 e0 08 	retl 
    19d0:	90 0a 20 ff 	and  %o0, 0xff, %o0
    19d4:	84 10 63 00 	or  %g1, 0x300, %g2
    19d8:	d4 a0 84 00 	sta  %o2, [ %g2 ] #ASI_SCRATCHPAD
    19dc:	82 10 63 08 	or  %g1, 0x308, %g1
    19e0:	d6 a0 44 00 	sta  %o3, [ %g1 ] #ASI_SCRATCHPAD
    19e4:	10 bf ff e4 	b  1974 <__ajit_do_spi_transfer_inner__+0x3c>
    19e8:	07 3f ff cc 	sethi  %hi(0xffff3000), %g3
    19ec:	82 10 63 00 	or  %g1, 0x300, %g1
    19f0:	d0 00 40 00 	ld  [ %g1 ], %o0
    19f4:	81 c3 e0 08 	retl 
    19f8:	90 0a 20 ff 	and  %o0, 0xff, %o0

000019fc <__ajit_gpio_xfer__>:
    19fc:	09 3f ff cc 	sethi  %hi(0xffff3000), %g4
    1a00:	82 11 23 00 	or  %g4, 0x300, %g1	! ffff3300 <ajit_global_sw_trap_handlers+0xfffe40a0>
    1a04:	d2 a0 44 00 	sta  %o1, [ %g1 ] #ASI_SCRATCHPAD
    1a08:	90 0a 20 07 	and  %o0, 7, %o0
    1a0c:	88 11 23 08 	or  %g4, 0x308, %g4
    1a10:	91 2a 20 03 	sll  %o0, 3, %o0
    1a14:	90 12 20 03 	or  %o0, 3, %o0
    1a18:	d0 a1 04 00 	sta  %o0, [ %g4 ] #ASI_SCRATCHPAD
    1a1c:	82 10 21 00 	mov  0x100, %g1
    1a20:	c4 81 04 00 	lda  [ %g4 ] #ASI_SCRATCHPAD, %g2
    1a24:	82 00 7f ff 	add  %g1, -1, %g1
    1a28:	87 38 60 1f 	sra  %g1, 0x1f, %g3
    1a2c:	86 20 c0 01 	sub  %g3, %g1, %g3
    1a30:	87 30 e0 1f 	srl  %g3, 0x1f, %g3
    1a34:	80 88 c0 02 	btst  %g3, %g2
    1a38:	12 bf ff fa 	bne  1a20 <__ajit_gpio_xfer__+0x24>
    1a3c:	11 3f ff cc 	sethi  %hi(0xffff3000), %o0
    1a40:	90 12 23 00 	or  %o0, 0x300, %o0	! ffff3300 <ajit_global_sw_trap_handlers+0xfffe40a0>
    1a44:	d0 82 04 00 	lda  [ %o0 ] #ASI_SCRATCHPAD, %o0
    1a48:	81 c3 e0 08 	retl 
    1a4c:	90 0a 20 ff 	and  %o0, 0xff, %o0

00001a50 <__ajit_read_gpio_32_via_vmap__>:
    1a50:	03 3f ff cd 	sethi  %hi(0xffff3400), %g1
    1a54:	82 10 60 04 	or  %g1, 4, %g1	! ffff3404 <ajit_global_sw_trap_handlers+0xfffe41a4>
    1a58:	81 c3 e0 08 	retl 
    1a5c:	d0 00 40 00 	ld  [ %g1 ], %o0

00001a60 <__ajit_write_gpio_32_via_vmap__>:
    1a60:	03 3f ff cd 	sethi  %hi(0xffff3400), %g1
    1a64:	81 c3 e0 08 	retl 
    1a68:	d0 20 40 00 	st  %o0, [ %g1 ]

00001a6c <__ajit_read_gpio_32_via_bypass__>:
    1a6c:	11 3f ff cd 	sethi  %hi(0xffff3400), %o0
    1a70:	90 12 20 04 	or  %o0, 4, %o0	! ffff3404 <ajit_global_sw_trap_handlers+0xfffe41a4>
    1a74:	d0 82 04 00 	lda  [ %o0 ] #ASI_SCRATCHPAD, %o0
    1a78:	81 c3 e0 08 	retl 
    1a7c:	01 00 00 00 	nop 

00001a80 <__ajit_write_gpio_32_via_bypass__>:
    1a80:	03 3f ff cd 	sethi  %hi(0xffff3400), %g1
    1a84:	d0 a0 44 00 	sta  %o0, [ %g1 ] #ASI_SCRATCHPAD
    1a88:	81 c3 e0 08 	retl 
    1a8c:	01 00 00 00 	nop 

00001a90 <__ajit_init_thread_performance_counters>:
    1a90:	c0 22 80 00 	clr  [ %o2 ]
    1a94:	c0 22 a0 04 	clr  [ %o2 + 4 ]
    1a98:	c0 22 a0 08 	clr  [ %o2 + 8 ]
    1a9c:	c0 22 a0 0c 	clr  [ %o2 + 0xc ]
    1aa0:	c0 22 a0 10 	clr  [ %o2 + 0x10 ]
    1aa4:	c0 22 a0 14 	clr  [ %o2 + 0x14 ]
    1aa8:	c0 22 a0 18 	clr  [ %o2 + 0x18 ]
    1aac:	c0 22 a0 1c 	clr  [ %o2 + 0x1c ]
    1ab0:	c0 22 a0 20 	clr  [ %o2 + 0x20 ]
    1ab4:	c0 22 a0 24 	clr  [ %o2 + 0x24 ]
    1ab8:	c0 22 a0 28 	clr  [ %o2 + 0x28 ]
    1abc:	c0 22 a0 2c 	clr  [ %o2 + 0x2c ]
    1ac0:	c0 22 a0 30 	clr  [ %o2 + 0x30 ]
    1ac4:	c0 22 a0 34 	clr  [ %o2 + 0x34 ]
    1ac8:	c0 22 a0 38 	clr  [ %o2 + 0x38 ]
    1acc:	c0 22 a0 3c 	clr  [ %o2 + 0x3c ]
    1ad0:	c0 22 a0 40 	clr  [ %o2 + 0x40 ]
    1ad4:	c0 22 a0 44 	clr  [ %o2 + 0x44 ]
    1ad8:	c0 22 a0 48 	clr  [ %o2 + 0x48 ]
    1adc:	81 c3 e0 08 	retl 
    1ae0:	c0 22 a0 4c 	clr  [ %o2 + 0x4c ]

00001ae4 <__ajit_sample_thread_performance_counters>:
    1ae4:	9d e3 bf a0 	save  %sp, -96, %sp
    1ae8:	b0 06 00 18 	add  %i0, %i0, %i0
    1aec:	b2 06 00 19 	add  %i0, %i1, %i1
    1af0:	ae 10 20 00 	clr  %l7
    1af4:	ba 10 20 00 	clr  %i5
    1af8:	03 00 3f ff 	sethi  %hi(0xfffc00), %g1
    1afc:	82 10 63 40 	or  %g1, 0x340, %g1	! ffff40 <ajit_global_sw_trap_handlers+0xff0ce0>
    1b00:	82 06 40 01 	add  %i1, %g1, %g1
    1b04:	b2 10 20 00 	clr  %i1
    1b08:	83 28 60 08 	sll  %g1, 8, %g1
    1b0c:	e0 00 60 04 	ld  [ %g1 + 4 ], %l0
    1b10:	ec 00 40 00 	ld  [ %g1 ], %l6
    1b14:	f8 00 60 08 	ld  [ %g1 + 8 ], %i4
    1b18:	d0 00 60 0c 	ld  [ %g1 + 0xc ], %o0
    1b1c:	f0 00 60 10 	ld  [ %g1 + 0x10 ], %i0
    1b20:	d4 00 60 14 	ld  [ %g1 + 0x14 ], %o2
    1b24:	d8 00 60 1c 	ld  [ %g1 + 0x1c ], %o4
    1b28:	e8 00 60 24 	ld  [ %g1 + 0x24 ], %l4
    1b2c:	e4 00 60 2c 	ld  [ %g1 + 0x2c ], %l2
    1b30:	c4 00 60 34 	ld  [ %g1 + 0x34 ], %g2
    1b34:	a2 10 00 10 	mov  %l0, %l1
    1b38:	92 10 00 08 	mov  %o0, %o1
    1b3c:	a2 14 40 17 	or  %l1, %l7, %l1
    1b40:	92 17 40 09 	or  %i5, %o1, %o1
    1b44:	96 10 00 0a 	mov  %o2, %o3
    1b48:	ba 10 20 00 	clr  %i5
    1b4c:	96 16 40 0b 	or  %i1, %o3, %o3
    1b50:	ae 10 20 00 	clr  %l7
    1b54:	b2 10 20 00 	clr  %i1
    1b58:	a0 10 20 00 	clr  %l0
    1b5c:	90 10 20 00 	clr  %o0
    1b60:	a0 14 00 16 	or  %l0, %l6, %l0
    1b64:	90 17 00 08 	or  %i4, %o0, %o0
    1b68:	ec 00 60 20 	ld  [ %g1 + 0x20 ], %l6
    1b6c:	f8 00 60 18 	ld  [ %g1 + 0x18 ], %i4
    1b70:	94 10 20 00 	clr  %o2
    1b74:	94 16 00 0a 	or  %i0, %o2, %o2
    1b78:	f0 00 60 28 	ld  [ %g1 + 0x28 ], %i0
    1b7c:	a6 10 00 12 	mov  %l2, %l3
    1b80:	86 10 00 02 	mov  %g2, %g3
    1b84:	9a 10 00 0c 	mov  %o4, %o5
    1b88:	aa 10 00 14 	mov  %l4, %l5
    1b8c:	9a 17 40 0d 	or  %i5, %o5, %o5
    1b90:	aa 15 c0 15 	or  %l7, %l5, %l5
    1b94:	a4 10 20 00 	clr  %l2
    1b98:	ae 16 40 13 	or  %i1, %l3, %l7
    1b9c:	84 10 20 00 	clr  %g2
    1ba0:	ba 10 20 00 	clr  %i5
    1ba4:	98 10 20 00 	clr  %o4
    1ba8:	b2 17 40 03 	or  %i5, %g3, %i1
    1bac:	98 17 00 0c 	or  %i4, %o4, %o4
    1bb0:	a8 10 20 00 	clr  %l4
    1bb4:	f8 00 60 30 	ld  [ %g1 + 0x30 ], %i4
    1bb8:	a8 15 80 14 	or  %l6, %l4, %l4
    1bbc:	ac 16 00 12 	or  %i0, %l2, %l6
    1bc0:	b0 17 00 02 	or  %i4, %g2, %i0
    1bc4:	f6 00 60 3c 	ld  [ %g1 + 0x3c ], %i3
    1bc8:	de 00 60 44 	ld  [ %g1 + 0x44 ], %o7
    1bcc:	c8 00 60 4c 	ld  [ %g1 + 0x4c ], %g4
    1bd0:	f8 00 60 40 	ld  [ %g1 + 0x40 ], %i4
    1bd4:	f0 3e a0 30 	std  %i0, [ %i2 + 0x30 ]
    1bd8:	f0 00 60 38 	ld  [ %g1 + 0x38 ], %i0
    1bdc:	b2 10 20 00 	clr  %i1
    1be0:	c4 00 60 48 	ld  [ %g1 + 0x48 ], %g2
    1be4:	a6 16 40 1b 	or  %i1, %i3, %l3
    1be8:	a4 10 20 00 	clr  %l2
    1bec:	ba 10 20 00 	clr  %i5
    1bf0:	a4 16 00 12 	or  %i0, %l2, %l2
    1bf4:	b2 17 40 0f 	or  %i5, %o7, %i1
    1bf8:	b0 10 20 00 	clr  %i0
    1bfc:	86 10 20 00 	clr  %g3
    1c00:	b0 17 00 18 	or  %i4, %i0, %i0
    1c04:	86 10 c0 04 	or  %g3, %g4, %g3
    1c08:	b8 10 20 00 	clr  %i4
    1c0c:	e0 3e 80 00 	std  %l0, [ %i2 ]
    1c10:	84 10 80 1c 	or  %g2, %i4, %g2
    1c14:	d0 3e a0 08 	std  %o0, [ %i2 + 8 ]
    1c18:	d4 3e a0 10 	std  %o2, [ %i2 + 0x10 ]
    1c1c:	d8 3e a0 18 	std  %o4, [ %i2 + 0x18 ]
    1c20:	e8 3e a0 20 	std  %l4, [ %i2 + 0x20 ]
    1c24:	ec 3e a0 28 	std  %l6, [ %i2 + 0x28 ]
    1c28:	e4 3e a0 38 	std  %l2, [ %i2 + 0x38 ]
    1c2c:	f0 3e a0 40 	std  %i0, [ %i2 + 0x40 ]
    1c30:	c4 3e a0 48 	std  %g2, [ %i2 + 0x48 ]
    1c34:	81 c7 e0 08 	ret 
    1c38:	81 e8 00 00 	restore 

00001c3c <__ajit_ta_0__>:
    1c3c:	91 d0 20 00 	ta  0
    1c40:	01 00 00 00 	nop 
    1c44:	01 00 00 00 	nop 
    1c48:	81 c3 e0 08 	retl 
    1c4c:	01 00 00 00 	nop 

00001c50 <__ajit_fsqrtd__>:
    1c50:	c1 1a 00 00 	ldd  [ %o0 ], %f0
    1c54:	85 a0 05 40 	fsqrtd  %f0, %f2
    1c58:	c5 3a 40 00 	std  %f2, [ %o1 ]
    1c5c:	81 c3 e0 08 	retl 
    1c60:	01 00 00 00 	nop 

00001c64 <__ajit_fsqrts__>:
    1c64:	c1 02 00 00 	ld  [ %o0 ], %f0
    1c68:	83 a0 05 20 	fsqrts  %f0, %f1
    1c6c:	c3 22 40 00 	st  %f1, [ %o1 ]
    1c70:	81 c3 e0 08 	retl 
    1c74:	01 00 00 00 	nop 

00001c78 <__ajit_fitod__>:
    1c78:	c1 02 00 00 	ld  [ %o0 ], %f0
    1c7c:	85 a0 19 00 	fitod  %f0, %f2
    1c80:	c5 3a 40 00 	std  %f2, [ %o1 ]
    1c84:	81 c3 e0 08 	retl 
    1c88:	01 00 00 00 	nop 

00001c8c <__ajit_fitos__>:
    1c8c:	c1 02 00 00 	ld  [ %o0 ], %f0
    1c90:	83 a0 18 80 	fitos  %f0, %f1
    1c94:	c3 22 40 00 	st  %f1, [ %o1 ]
    1c98:	81 c3 e0 08 	retl 
    1c9c:	01 00 00 00 	nop 

00001ca0 <__ajit_fdtoi__>:
    1ca0:	c1 1a 00 00 	ldd  [ %o0 ], %f0
    1ca4:	85 a0 1a 40 	fdtoi  %f0, %f2
    1ca8:	c5 22 40 00 	st  %f2, [ %o1 ]
    1cac:	81 c3 e0 08 	retl 
    1cb0:	01 00 00 00 	nop 

00001cb4 <__ajit_fstoi__>:
    1cb4:	c1 02 00 00 	ld  [ %o0 ], %f0
    1cb8:	83 a0 1a 20 	fstoi  %f0, %f1
    1cbc:	c3 22 40 00 	st  %f1, [ %o1 ]
    1cc0:	81 c3 e0 08 	retl 
    1cc4:	01 00 00 00 	nop 
    1cc8:	00 00 36 4c 	unimp  0x364c
    1ccc:	00 00 34 94 	unimp  0x3494
    1cd0:	00 00 34 94 	unimp  0x3494
    1cd4:	00 00 34 94 	unimp  0x3494
    1cd8:	00 00 34 94 	unimp  0x3494
    1cdc:	00 00 34 94 	unimp  0x3494
    1ce0:	00 00 34 94 	unimp  0x3494
    1ce4:	00 00 34 94 	unimp  0x3494
    1ce8:	00 00 34 94 	unimp  0x3494
    1cec:	00 00 34 94 	unimp  0x3494
    1cf0:	00 00 34 94 	unimp  0x3494
    1cf4:	00 00 34 94 	unimp  0x3494
    1cf8:	00 00 34 94 	unimp  0x3494
    1cfc:	00 00 34 94 	unimp  0x3494
    1d00:	00 00 34 94 	unimp  0x3494
    1d04:	00 00 34 94 	unimp  0x3494
    1d08:	00 00 34 94 	unimp  0x3494
    1d0c:	00 00 34 94 	unimp  0x3494
    1d10:	00 00 34 94 	unimp  0x3494
    1d14:	00 00 34 94 	unimp  0x3494
    1d18:	00 00 34 94 	unimp  0x3494
    1d1c:	00 00 34 94 	unimp  0x3494
    1d20:	00 00 34 94 	unimp  0x3494
    1d24:	00 00 34 94 	unimp  0x3494
    1d28:	00 00 34 94 	unimp  0x3494
    1d2c:	00 00 34 94 	unimp  0x3494
    1d30:	00 00 34 94 	unimp  0x3494
    1d34:	00 00 34 94 	unimp  0x3494
    1d38:	00 00 34 94 	unimp  0x3494
    1d3c:	00 00 34 94 	unimp  0x3494
    1d40:	00 00 34 94 	unimp  0x3494
    1d44:	00 00 34 94 	unimp  0x3494
    1d48:	00 00 3a 00 	unimp  0x3a00
    1d4c:	00 00 39 b0 	unimp  0x39b0
    1d50:	00 00 3a 00 	unimp  0x3a00
    1d54:	00 00 34 94 	unimp  0x3494
    1d58:	00 00 34 94 	unimp  0x3494
    1d5c:	00 00 34 94 	unimp  0x3494
    1d60:	00 00 34 94 	unimp  0x3494
    1d64:	00 00 34 94 	unimp  0x3494
    1d68:	00 00 34 94 	unimp  0x3494
    1d6c:	00 00 34 94 	unimp  0x3494
    1d70:	00 00 34 94 	unimp  0x3494
    1d74:	00 00 34 94 	unimp  0x3494
    1d78:	00 00 34 94 	unimp  0x3494
    1d7c:	00 00 34 94 	unimp  0x3494
    1d80:	00 00 34 94 	unimp  0x3494
    1d84:	00 00 34 94 	unimp  0x3494
    1d88:	00 00 34 94 	unimp  0x3494
    1d8c:	00 00 34 94 	unimp  0x3494
    1d90:	00 00 34 94 	unimp  0x3494
    1d94:	00 00 37 90 	unimp  0x3790
    1d98:	00 00 34 94 	unimp  0x3494
    1d9c:	00 00 34 94 	unimp  0x3494
    1da0:	00 00 34 94 	unimp  0x3494
    1da4:	00 00 34 94 	unimp  0x3494
    1da8:	00 00 34 94 	unimp  0x3494
    1dac:	00 00 34 94 	unimp  0x3494
    1db0:	00 00 34 94 	unimp  0x3494
    1db4:	00 00 34 94 	unimp  0x3494
    1db8:	00 00 34 94 	unimp  0x3494
    1dbc:	00 00 37 90 	unimp  0x3790
    1dc0:	00 00 36 e8 	unimp  0x36e8
    1dc4:	00 00 37 90 	unimp  0x3790
    1dc8:	00 00 3a 00 	unimp  0x3a00
    1dcc:	00 00 39 b0 	unimp  0x39b0
    1dd0:	00 00 3a 00 	unimp  0x3a00
    1dd4:	00 00 34 94 	unimp  0x3494
    1dd8:	00 00 37 90 	unimp  0x3790
    1ddc:	00 00 34 94 	unimp  0x3494
    1de0:	00 00 34 94 	unimp  0x3494
    1de4:	00 00 34 94 	unimp  0x3494
    1de8:	00 00 34 94 	unimp  0x3494
    1dec:	00 00 36 bc 	unimp  0x36bc
    1df0:	00 00 37 90 	unimp  0x3790
    1df4:	00 00 36 88 	unimp  0x3688
    1df8:	00 00 34 94 	unimp  0x3494
    1dfc:	00 00 34 94 	unimp  0x3494
    1e00:	00 00 38 70 	unimp  0x3870
    1e04:	00 00 34 94 	unimp  0x3494
    1e08:	00 00 37 90 	unimp  0x3790
    1e0c:	00 00 34 94 	unimp  0x3494
    1e10:	00 00 34 94 	unimp  0x3494
    1e14:	00 00 37 90 	unimp  0x3790
    1e18:	00 00 35 18 	unimp  0x3518
    1e1c:	00 00 33 e8 	unimp  0x33e8
    1e20:	00 00 33 e8 	unimp  0x33e8
    1e24:	00 00 35 0c 	unimp  0x350c
    1e28:	00 00 33 e8 	unimp  0x33e8
    1e2c:	00 00 33 e8 	unimp  0x33e8
    1e30:	00 00 33 e8 	unimp  0x33e8
    1e34:	00 00 33 e8 	unimp  0x33e8
    1e38:	00 00 33 e8 	unimp  0x33e8
    1e3c:	00 00 33 e8 	unimp  0x33e8
    1e40:	00 00 33 e8 	unimp  0x33e8
    1e44:	00 00 35 00 	unimp  0x3500
    1e48:	00 00 33 e8 	unimp  0x33e8
    1e4c:	00 00 34 f4 	unimp  0x34f4
    1e50:	00 00 33 e8 	unimp  0x33e8
    1e54:	00 00 33 e8 	unimp  0x33e8
    1e58:	00 00 34 e8 	unimp  0x34e8
    1e5c:	00 00 36 30 	unimp  0x3630
    1e60:	00 00 34 80 	unimp  0x3480
    1e64:	00 00 36 20 	unimp  0x3620
    1e68:	00 00 34 80 	unimp  0x3480
    1e6c:	00 00 36 00 	unimp  0x3600
    1e70:	00 00 34 80 	unimp  0x3480
    1e74:	00 00 34 80 	unimp  0x3480
    1e78:	00 00 34 80 	unimp  0x3480
    1e7c:	00 00 34 80 	unimp  0x3480
    1e80:	00 00 34 80 	unimp  0x3480
    1e84:	00 00 34 80 	unimp  0x3480
    1e88:	00 00 34 80 	unimp  0x3480
    1e8c:	00 00 34 74 	unimp  0x3474
    1e90:	00 00 34 80 	unimp  0x3480
    1e94:	00 00 34 80 	unimp  0x3480
    1e98:	00 00 34 80 	unimp  0x3480
    1e9c:	00 00 34 80 	unimp  0x3480
    1ea0:	00 00 34 80 	unimp  0x3480
    1ea4:	00 00 34 74 	unimp  0x3474

00001ea8 <get_components>:
    1ea8:	9d e3 bf 80 	save  %sp, -128, %sp
    1eac:	84 10 00 18 	mov  %i0, %g2
    1eb0:	86 10 00 19 	mov  %i1, %g3
    1eb4:	c4 3f bf f8 	std  %g2, [ %fp + -8 ]
    1eb8:	a5 36 20 1f 	srl  %i0, 0x1f, %l2
    1ebc:	80 8c a0 ff 	btst  0xff, %l2
    1ec0:	02 80 00 05 	be  1ed4 <get_components+0x2c>
    1ec4:	f6 07 a0 40 	ld  [ %fp + 0x40 ], %i3
    1ec8:	d1 1f bf f8 	ldd  [ %fp + -8 ], %f8
    1ecc:	91 a0 00 a8 	fnegs  %f8, %f8
    1ed0:	d1 3f bf f8 	std  %f8, [ %fp + -8 ]
    1ed4:	40 00 0f 88 	call  5cf4 <__fixdfdi>
    1ed8:	d0 1f bf f8 	ldd  [ %fp + -8 ], %o0
    1edc:	83 2e a0 03 	sll  %i2, 3, %g1
    1ee0:	05 00 00 38 	sethi  %hi(0xe000), %g2
    1ee4:	84 10 a0 00 	mov  %g2, %g2	! e000 <powers_of_10>
    1ee8:	d5 18 80 01 	ldd  [ %g2 + %g1 ], %f10
    1eec:	a0 10 00 08 	mov  %o0, %l0
    1ef0:	a2 10 00 09 	mov  %o1, %l1
    1ef4:	40 00 0f de 	call  5e6c <__floatdidf>
    1ef8:	d5 3f bf f0 	std  %f10, [ %fp + -16 ]
    1efc:	d1 1f bf f8 	ldd  [ %fp + -8 ], %f8
    1f00:	d5 1f bf f0 	ldd  [ %fp + -16 ], %f10
    1f04:	81 a2 08 c0 	fsubd  %f8, %f0, %f0
    1f08:	91 a0 09 4a 	fmuld  %f0, %f10, %f8
    1f0c:	d1 3f bf e0 	std  %f8, [ %fp + -32 ]
    1f10:	d1 3f bf e8 	std  %f8, [ %fp + -24 ]
    1f14:	40 00 0f 78 	call  5cf4 <__fixdfdi>
    1f18:	d0 1f bf e0 	ldd  [ %fp + -32 ], %o0
    1f1c:	b8 10 00 08 	mov  %o0, %i4
    1f20:	40 00 0f d3 	call  5e6c <__floatdidf>
    1f24:	ba 10 00 09 	mov  %o1, %i5
    1f28:	33 00 00 38 	sethi  %hi(0xe000), %i1
    1f2c:	d1 1f bf e8 	ldd  [ %fp + -24 ], %f8
    1f30:	d5 1e 62 b8 	ldd  [ %i1 + 0x2b8 ], %f10
    1f34:	81 a2 08 c0 	fsubd  %f8, %f0, %f0
    1f38:	81 a8 0a ca 	fcmped  %f0, %f10
    1f3c:	01 00 00 00 	nop 
    1f40:	1d 80 00 29 	fbule  1fe4 <get_components+0x13c>
    1f44:	01 00 00 00 	nop 
    1f48:	86 87 60 01 	addcc  %i5, 1, %g3
    1f4c:	84 47 20 00 	addx  %i4, 0, %g2
    1f50:	ba 10 00 03 	mov  %g3, %i5
    1f54:	b8 10 00 02 	mov  %g2, %i4
    1f58:	90 10 00 02 	mov  %g2, %o0
    1f5c:	40 00 0f c4 	call  5e6c <__floatdidf>
    1f60:	92 10 00 03 	mov  %g3, %o1
    1f64:	d1 1f bf f0 	ldd  [ %fp + -16 ], %f8
    1f68:	81 aa 0a c0 	fcmped  %f8, %f0
    1f6c:	01 00 00 00 	nop 
    1f70:	1b 80 00 29 	fble  2014 <get_components+0x16c>
    1f74:	86 84 60 01 	addcc  %l1, 1, %g3
    1f78:	80 a6 a0 00 	cmp  %i2, 0
    1f7c:	12 80 00 15 	bne  1fd0 <get_components+0x128>
    1f80:	90 10 00 10 	mov  %l0, %o0
    1f84:	40 00 0f ba 	call  5e6c <__floatdidf>
    1f88:	92 10 00 11 	mov  %l1, %o1
    1f8c:	d1 1e 62 b8 	ldd  [ %i1 + 0x2b8 ], %f8
    1f90:	d5 1f bf f8 	ldd  [ %fp + -8 ], %f10
    1f94:	81 a2 88 c0 	fsubd  %f10, %f0, %f0
    1f98:	81 a8 0a c8 	fcmped  %f0, %f8
    1f9c:	01 00 00 00 	nop 
    1fa0:	19 80 00 05 	fbuge  1fb4 <get_components+0x10c>
    1fa4:	01 00 00 00 	nop 
    1fa8:	01 00 00 00 	nop 
    1fac:	1d 80 00 09 	fbule  1fd0 <get_components+0x128>
    1fb0:	01 00 00 00 	nop 
    1fb4:	84 0c 20 00 	and  %l0, 0, %g2
    1fb8:	86 0c 60 01 	and  %l1, 1, %g3
    1fbc:	84 10 80 03 	or  %g2, %g3, %g2
    1fc0:	80 a0 00 02 	cmp  %g0, %g2
    1fc4:	82 40 20 00 	addx  %g0, 0, %g1
    1fc8:	a2 84 40 01 	addcc  %l1, %g1, %l1
    1fcc:	a0 44 20 00 	addx  %l0, 0, %l0
    1fd0:	e0 3e c0 00 	std  %l0, [ %i3 ]
    1fd4:	f8 3e e0 08 	std  %i4, [ %i3 + 8 ]
    1fd8:	e4 2e e0 10 	stb  %l2, [ %i3 + 0x10 ]
    1fdc:	81 c7 e0 0c 	jmp  %i7 + 0xc
    1fe0:	91 e8 00 1b 	restore  %g0, %i3, %o0
    1fe4:	81 a8 0a 4a 	fcmpd  %f0, %f10
    1fe8:	01 00 00 00 	nop 
    1fec:	03 bf ff e4 	fbne  1f7c <get_components+0xd4>
    1ff0:	80 a6 a0 00 	cmp  %i2, 0
    1ff4:	80 97 00 1d 	orcc  %i4, %i5, %g0
    1ff8:	12 80 00 0d 	bne  202c <get_components+0x184>
    1ffc:	84 0f 20 00 	and  %i4, 0, %g2
    2000:	86 87 60 01 	addcc  %i5, 1, %g3
    2004:	84 47 20 00 	addx  %i4, 0, %g2
    2008:	ba 10 00 03 	mov  %g3, %i5
    200c:	10 bf ff db 	b  1f78 <get_components+0xd0>
    2010:	b8 10 00 02 	mov  %g2, %i4
    2014:	b8 10 20 00 	clr  %i4
    2018:	84 44 20 00 	addx  %l0, 0, %g2
    201c:	a2 10 00 03 	mov  %g3, %l1
    2020:	a0 10 00 02 	mov  %g2, %l0
    2024:	10 bf ff d5 	b  1f78 <get_components+0xd0>
    2028:	ba 10 20 00 	clr  %i5
    202c:	86 0f 60 01 	and  %i5, 1, %g3
    2030:	80 90 80 03 	orcc  %g2, %g3, %g0
    2034:	22 bf ff d2 	be,a   1f7c <get_components+0xd4>
    2038:	80 a6 a0 00 	cmp  %i2, 0
    203c:	10 bf ff f2 	b  2004 <get_components+0x15c>
    2040:	86 87 60 01 	addcc  %i5, 1, %g3

00002044 <putchar_wrapper>:
    2044:	9d e3 bf a0 	save  %sp, -96, %sp
    2048:	7f ff fd 2d 	call  14fc <__ajit_serial_putchar_via_bypass__>
    204c:	90 10 00 18 	mov  %i0, %o0
    2050:	80 a2 20 00 	cmp  %o0, 0
    2054:	02 bf ff fd 	be  2048 <putchar_wrapper+0x4>
    2058:	01 00 00 00 	nop 
    205c:	7f ff fb d2 	call  fa4 <__ajit_read_serial_control_register_via_bypass__>
    2060:	01 00 00 00 	nop 
    2064:	90 0a 20 09 	and  %o0, 9, %o0
    2068:	80 a2 20 09 	cmp  %o0, 9
    206c:	02 bf ff fc 	be  205c <putchar_wrapper+0x18>
    2070:	01 00 00 00 	nop 
    2074:	81 c7 e0 08 	ret 
    2078:	81 e8 00 00 	restore 

0000207c <out_rev_>:
    207c:	9d e3 bf a0 	save  %sp, -96, %sp
    2080:	80 8f 20 03 	btst  3, %i4
    2084:	12 80 00 1e 	bne  20fc <out_rev_+0x80>
    2088:	e0 06 20 0c 	ld  [ %i0 + 0xc ], %l0
    208c:	80 a6 80 1b 	cmp  %i2, %i3
    2090:	1a 80 00 1c 	bcc  2100 <out_rev_+0x84>
    2094:	80 a6 a0 00 	cmp  %i2, 0
    2098:	ba 06 a0 01 	add  %i2, 1, %i5
    209c:	82 10 00 10 	mov  %l0, %g1
    20a0:	10 80 00 09 	b  20c4 <out_rev_+0x48>
    20a4:	a2 10 20 20 	mov  0x20, %l1
    20a8:	9f c0 80 00 	call  %g2
    20ac:	d2 06 20 04 	ld  [ %i0 + 4 ], %o1
    20b0:	80 a7 40 1b 	cmp  %i5, %i3
    20b4:	02 80 00 13 	be  2100 <out_rev_+0x84>
    20b8:	80 a6 a0 00 	cmp  %i2, 0
    20bc:	c2 06 20 0c 	ld  [ %i0 + 0xc ], %g1
    20c0:	ba 07 60 01 	inc  %i5
    20c4:	84 00 60 01 	add  %g1, 1, %g2
    20c8:	c4 26 20 0c 	st  %g2, [ %i0 + 0xc ]
    20cc:	c4 06 20 10 	ld  [ %i0 + 0x10 ], %g2
    20d0:	80 a0 80 01 	cmp  %g2, %g1
    20d4:	08 bf ff f8 	bleu  20b4 <out_rev_+0x38>
    20d8:	80 a7 40 1b 	cmp  %i5, %i3
    20dc:	c4 06 00 00 	ld  [ %i0 ], %g2
    20e0:	80 a0 a0 00 	cmp  %g2, 0
    20e4:	12 bf ff f1 	bne  20a8 <out_rev_+0x2c>
    20e8:	90 10 20 20 	mov  0x20, %o0
    20ec:	c4 06 20 08 	ld  [ %i0 + 8 ], %g2
    20f0:	80 a7 40 1b 	cmp  %i5, %i3
    20f4:	12 bf ff f2 	bne  20bc <out_rev_+0x40>
    20f8:	e2 28 80 01 	stb  %l1, [ %g2 + %g1 ]
    20fc:	80 a6 a0 00 	cmp  %i2, 0
    2100:	02 80 00 17 	be  215c <out_rev_+0xe0>
    2104:	80 8f 20 02 	btst  2, %i4
    2108:	c2 06 20 0c 	ld  [ %i0 + 0xc ], %g1
    210c:	b4 06 bf ff 	add  %i2, -1, %i2
    2110:	84 00 60 01 	add  %g1, 1, %g2
    2114:	d0 0e 40 1a 	ldub  [ %i1 + %i2 ], %o0
    2118:	c4 26 20 0c 	st  %g2, [ %i0 + 0xc ]
    211c:	c4 06 20 10 	ld  [ %i0 + 0x10 ], %g2
    2120:	80 a0 40 02 	cmp  %g1, %g2
    2124:	1a bf ff f7 	bcc  2100 <out_rev_+0x84>
    2128:	80 a6 a0 00 	cmp  %i2, 0
    212c:	c4 06 00 00 	ld  [ %i0 ], %g2
    2130:	80 a0 a0 00 	cmp  %g2, 0
    2134:	22 80 00 1f 	be,a   21b0 <out_rev_+0x134>
    2138:	c4 06 20 08 	ld  [ %i0 + 8 ], %g2
    213c:	91 2a 20 18 	sll  %o0, 0x18, %o0
    2140:	d2 06 20 04 	ld  [ %i0 + 4 ], %o1
    2144:	9f c0 80 00 	call  %g2
    2148:	91 3a 20 18 	sra  %o0, 0x18, %o0
    214c:	80 a6 a0 00 	cmp  %i2, 0
    2150:	32 bf ff ef 	bne,a   210c <out_rev_+0x90>
    2154:	c2 06 20 0c 	ld  [ %i0 + 0xc ], %g1
    2158:	80 8f 20 02 	btst  2, %i4
    215c:	02 80 00 1b 	be  21c8 <out_rev_+0x14c>
    2160:	ba 10 20 20 	mov  0x20, %i5
    2164:	c2 06 20 0c 	ld  [ %i0 + 0xc ], %g1
    2168:	86 20 40 10 	sub  %g1, %l0, %g3
    216c:	80 a6 c0 03 	cmp  %i3, %g3
    2170:	08 80 00 16 	bleu  21c8 <out_rev_+0x14c>
    2174:	84 00 60 01 	add  %g1, 1, %g2
    2178:	c4 26 20 0c 	st  %g2, [ %i0 + 0xc ]
    217c:	c6 06 20 10 	ld  [ %i0 + 0x10 ], %g3
    2180:	80 a0 c0 01 	cmp  %g3, %g1
    2184:	28 80 00 0d 	bleu,a   21b8 <out_rev_+0x13c>
    2188:	82 10 00 02 	mov  %g2, %g1
    218c:	c4 06 00 00 	ld  [ %i0 ], %g2
    2190:	80 a0 a0 00 	cmp  %g2, 0
    2194:	22 80 00 0f 	be,a   21d0 <out_rev_+0x154>
    2198:	c4 06 20 08 	ld  [ %i0 + 8 ], %g2
    219c:	90 10 20 20 	mov  0x20, %o0
    21a0:	9f c0 80 00 	call  %g2
    21a4:	d2 06 20 04 	ld  [ %i0 + 4 ], %o1
    21a8:	10 bf ff f0 	b  2168 <out_rev_+0xec>
    21ac:	c2 06 20 0c 	ld  [ %i0 + 0xc ], %g1
    21b0:	10 bf ff d3 	b  20fc <out_rev_+0x80>
    21b4:	d0 28 80 01 	stb  %o0, [ %g2 + %g1 ]
    21b8:	86 20 40 10 	sub  %g1, %l0, %g3
    21bc:	80 a6 c0 03 	cmp  %i3, %g3
    21c0:	18 bf ff ee 	bgu  2178 <out_rev_+0xfc>
    21c4:	84 00 60 01 	add  %g1, 1, %g2
    21c8:	81 c7 e0 08 	ret 
    21cc:	81 e8 00 00 	restore 
    21d0:	10 bf ff e5 	b  2164 <out_rev_+0xe8>
    21d4:	fa 28 80 01 	stb  %i5, [ %g2 + %g1 ]

000021d8 <print_integer>:
    21d8:	9d e3 bf 80 	save  %sp, -128, %sp
    21dc:	e6 07 a0 5c 	ld  [ %fp + 0x5c ], %l3
    21e0:	80 96 40 1a 	orcc  %i1, %i2, %g0
    21e4:	12 80 00 4f 	bne  2320 <print_integer+0x148>
    21e8:	e4 07 a0 60 	ld  [ %fp + 0x60 ], %l2
    21ec:	80 8c a8 00 	btst  0x800, %l2
    21f0:	02 80 00 a8 	be  2490 <print_integer+0x2b8>
    21f4:	80 a7 20 10 	cmp  %i4, 0x10
    21f8:	22 80 00 c2 	be,a   2500 <print_integer+0x328>
    21fc:	a4 0c bf ef 	and  %l2, -17, %l2
    2200:	82 10 20 01 	mov  1, %g1
    2204:	a0 10 20 00 	clr  %l0
    2208:	a2 07 bf e0 	add  %fp, -32, %l1
    220c:	80 8c a0 02 	btst  2, %l2
    2210:	12 80 00 05 	bne  2224 <print_integer+0x4c>
    2214:	94 10 00 10 	mov  %l0, %o2
    2218:	80 a4 e0 00 	cmp  %l3, 0
    221c:	12 80 00 76 	bne  23f4 <print_integer+0x21c>
    2220:	80 8c a0 01 	btst  1, %l2
    2224:	80 a2 80 1d 	cmp  %o2, %i5
    2228:	1a 80 00 0d 	bcc  225c <print_integer+0x84>
    222c:	80 88 60 ff 	btst  0xff, %g1
    2230:	12 80 00 06 	bne  2248 <print_integer+0x70>
    2234:	84 10 20 30 	mov  0x30, %g2
    2238:	10 80 00 0a 	b  2260 <print_integer+0x88>
    223c:	80 a4 00 0a 	cmp  %l0, %o2
    2240:	1a 80 00 08 	bcc  2260 <print_integer+0x88>
    2244:	80 a4 00 0a 	cmp  %l0, %o2
    2248:	c4 2c 40 0a 	stb  %g2, [ %l1 + %o2 ]
    224c:	94 02 a0 01 	inc  %o2
    2250:	80 a2 a0 1f 	cmp  %o2, 0x1f
    2254:	08 bf ff fb 	bleu  2240 <print_integer+0x68>
    2258:	80 a2 80 1d 	cmp  %o2, %i5
    225c:	80 a4 00 0a 	cmp  %l0, %o2
    2260:	1a 80 00 05 	bcc  2274 <print_integer+0x9c>
    2264:	84 40 20 00 	addx  %g0, 0, %g2
    2268:	80 a7 20 08 	cmp  %i4, 8
    226c:	22 80 00 02 	be,a   2274 <print_integer+0x9c>
    2270:	a4 0c bf ef 	and  %l2, -17, %l2
    2274:	03 00 00 08 	sethi  %hi(0x2000), %g1
    2278:	82 10 60 10 	or  %g1, 0x10, %g1	! 2010 <get_components+0x168>
    227c:	80 8c 80 01 	btst  %l2, %g1
    2280:	02 80 00 16 	be  22d8 <print_integer+0x100>
    2284:	80 a2 a0 1f 	cmp  %o2, 0x1f
    2288:	80 8c a8 00 	btst  0x800, %l2
    228c:	02 80 00 4a 	be  23b4 <print_integer+0x1dc>
    2290:	80 a2 a0 00 	cmp  %o2, 0
    2294:	80 a7 20 10 	cmp  %i4, 0x10
    2298:	02 80 00 90 	be  24d8 <print_integer+0x300>
    229c:	80 a2 a0 1f 	cmp  %o2, 0x1f
    22a0:	18 80 00 07 	bgu  22bc <print_integer+0xe4>
    22a4:	80 a7 20 02 	cmp  %i4, 2
    22a8:	12 80 00 05 	bne  22bc <print_integer+0xe4>
    22ac:	82 07 80 0a 	add  %fp, %o2, %g1
    22b0:	84 10 20 62 	mov  0x62, %g2
    22b4:	94 02 a0 01 	inc  %o2
    22b8:	c4 28 7f e0 	stb  %g2, [ %g1 + -32 ]
    22bc:	80 a2 a0 1f 	cmp  %o2, 0x1f
    22c0:	18 80 00 11 	bgu  2304 <print_integer+0x12c>
    22c4:	82 07 80 0a 	add  %fp, %o2, %g1
    22c8:	84 10 20 30 	mov  0x30, %g2
    22cc:	94 02 a0 01 	inc  %o2
    22d0:	c4 28 7f e0 	stb  %g2, [ %g1 + -32 ]
    22d4:	80 a2 a0 1f 	cmp  %o2, 0x1f
    22d8:	18 80 00 0b 	bgu  2304 <print_integer+0x12c>
    22dc:	80 a6 e0 00 	cmp  %i3, 0
    22e0:	12 80 00 61 	bne  2464 <print_integer+0x28c>
    22e4:	80 8c a0 04 	btst  4, %l2
    22e8:	12 80 00 71 	bne  24ac <print_integer+0x2d4>
    22ec:	80 8c a0 08 	btst  8, %l2
    22f0:	02 80 00 05 	be  2304 <print_integer+0x12c>
    22f4:	82 07 80 0a 	add  %fp, %o2, %g1
    22f8:	84 10 20 20 	mov  0x20, %g2
    22fc:	94 02 a0 01 	inc  %o2
    2300:	c4 28 7f e0 	stb  %g2, [ %g1 + -32 ]
    2304:	90 10 00 18 	mov  %i0, %o0
    2308:	92 10 00 11 	mov  %l1, %o1
    230c:	96 10 00 13 	mov  %l3, %o3
    2310:	7f ff ff 5b 	call  207c <out_rev_>
    2314:	98 10 00 12 	mov  %l2, %o4
    2318:	81 c7 e0 08 	ret 
    231c:	81 e8 00 00 	restore 
    2320:	82 0c a0 20 	and  %l2, 0x20, %g1
    2324:	a0 10 20 00 	clr  %l0
    2328:	80 a0 00 01 	cmp  %g0, %g1
    232c:	a2 07 bf e0 	add  %fp, -32, %l1
    2330:	a8 40 3f ff 	addx  %g0, -1, %l4
    2334:	a8 0d 20 20 	and  %l4, 0x20, %l4
    2338:	10 80 00 12 	b  2380 <print_integer+0x1a8>
    233c:	a8 05 20 41 	add  %l4, 0x41, %l4
    2340:	d2 2c 40 10 	stb  %o1, [ %l1 + %l0 ]
    2344:	90 10 00 19 	mov  %i1, %o0
    2348:	92 10 00 1a 	mov  %i2, %o1
    234c:	94 10 20 00 	clr  %o2
    2350:	40 00 10 b5 	call  6624 <__udivdi3>
    2354:	96 10 00 1c 	mov  %i4, %o3
    2358:	a0 04 20 01 	inc  %l0
    235c:	80 a4 20 20 	cmp  %l0, 0x20
    2360:	b2 10 00 08 	mov  %o0, %i1
    2364:	82 40 20 00 	addx  %g0, 0, %g1
    2368:	80 88 60 ff 	btst  0xff, %g1
    236c:	02 bf ff a8 	be  220c <print_integer+0x34>
    2370:	b4 10 00 09 	mov  %o1, %i2
    2374:	80 96 40 09 	orcc  %i1, %o1, %g0
    2378:	02 bf ff a6 	be  2210 <print_integer+0x38>
    237c:	80 8c a0 02 	btst  2, %l2
    2380:	90 10 00 19 	mov  %i1, %o0
    2384:	92 10 00 1a 	mov  %i2, %o1
    2388:	94 10 20 00 	clr  %o2
    238c:	40 00 11 73 	call  6958 <__umoddi3>
    2390:	96 10 00 1c 	mov  %i4, %o3
    2394:	83 2a 60 18 	sll  %o1, 0x18, %g1
    2398:	83 38 60 18 	sra  %g1, 0x18, %g1
    239c:	80 a0 60 09 	cmp  %g1, 9
    23a0:	24 bf ff e8 	ble,a   2340 <print_integer+0x168>
    23a4:	92 02 60 30 	add  %o1, 0x30, %o1
    23a8:	92 02 7f f6 	add  %o1, -10, %o1
    23ac:	10 bf ff e5 	b  2340 <print_integer+0x168>
    23b0:	92 02 40 14 	add  %o1, %l4, %o1
    23b4:	02 bf ff b9 	be  2298 <print_integer+0xc0>
    23b8:	80 a7 20 10 	cmp  %i4, 0x10
    23bc:	80 a2 80 13 	cmp  %o2, %l3
    23c0:	02 80 00 06 	be  23d8 <print_integer+0x200>
    23c4:	80 a0 a0 00 	cmp  %g2, 0
    23c8:	80 a7 40 0a 	cmp  %i5, %o2
    23cc:	12 bf ff b3 	bne  2298 <print_integer+0xc0>
    23d0:	80 a7 20 10 	cmp  %i4, 0x10
    23d4:	80 a0 a0 00 	cmp  %g2, 0
    23d8:	02 80 00 55 	be  252c <print_integer+0x354>
    23dc:	80 a7 20 02 	cmp  %i4, 2
    23e0:	82 82 bf ff 	addcc  %o2, -1, %g1
    23e4:	12 80 00 58 	bne  2544 <print_integer+0x36c>
    23e8:	80 a7 20 02 	cmp  %i4, 2
    23ec:	10 bf ff aa 	b  2294 <print_integer+0xbc>
    23f0:	94 10 20 00 	clr  %o2
    23f4:	02 bf ff 8d 	be  2228 <print_integer+0x50>
    23f8:	80 a2 80 1d 	cmp  %o2, %i5
    23fc:	80 a6 e0 00 	cmp  %i3, 0
    2400:	32 80 00 05 	bne,a   2414 <print_integer+0x23c>
    2404:	a6 04 ff ff 	add  %l3, -1, %l3
    2408:	80 8c a0 0c 	btst  0xc, %l2
    240c:	32 80 00 02 	bne,a   2414 <print_integer+0x23c>
    2410:	a6 04 ff ff 	add  %l3, -1, %l3
    2414:	80 a4 00 13 	cmp  %l0, %l3
    2418:	1a 80 00 55 	bcc  256c <print_integer+0x394>
    241c:	80 88 60 ff 	btst  0xff, %g1
    2420:	02 80 00 53 	be  256c <print_integer+0x394>
    2424:	84 10 20 30 	mov  0x30, %g2
    2428:	82 07 80 10 	add  %fp, %l0, %g1
    242c:	94 04 20 01 	add  %l0, 1, %o2
    2430:	10 80 00 06 	b  2448 <print_integer+0x270>
    2434:	c4 28 7f e0 	stb  %g2, [ %g1 + -32 ]
    2438:	1a bf ff 7c 	bcc  2228 <print_integer+0x50>
    243c:	80 a2 80 1d 	cmp  %o2, %i5
    2440:	c4 2c 40 0a 	stb  %g2, [ %l1 + %o2 ]
    2444:	94 02 a0 01 	inc  %o2
    2448:	80 a2 a0 20 	cmp  %o2, 0x20
    244c:	82 40 20 00 	addx  %g0, 0, %g1
    2450:	80 88 60 ff 	btst  0xff, %g1
    2454:	32 bf ff f9 	bne,a   2438 <print_integer+0x260>
    2458:	80 a2 80 13 	cmp  %o2, %l3
    245c:	10 bf ff 73 	b  2228 <print_integer+0x50>
    2460:	80 a2 80 1d 	cmp  %o2, %i5
    2464:	82 07 80 0a 	add  %fp, %o2, %g1
    2468:	84 10 20 2d 	mov  0x2d, %g2
    246c:	94 02 a0 01 	inc  %o2
    2470:	c4 28 7f e0 	stb  %g2, [ %g1 + -32 ]
    2474:	90 10 00 18 	mov  %i0, %o0
    2478:	92 10 00 11 	mov  %l1, %o1
    247c:	96 10 00 13 	mov  %l3, %o3
    2480:	7f ff fe ff 	call  207c <out_rev_>
    2484:	98 10 00 12 	mov  %l2, %o4
    2488:	81 c7 e0 08 	ret 
    248c:	81 e8 00 00 	restore 
    2490:	82 10 20 30 	mov  0x30, %g1
    2494:	a4 0c bf ef 	and  %l2, -17, %l2
    2498:	c2 2f bf e0 	stb  %g1, [ %fp + -32 ]
    249c:	a0 10 20 01 	mov  1, %l0
    24a0:	82 10 20 01 	mov  1, %g1
    24a4:	10 bf ff 5a 	b  220c <print_integer+0x34>
    24a8:	a2 07 bf e0 	add  %fp, -32, %l1
    24ac:	82 07 80 0a 	add  %fp, %o2, %g1
    24b0:	84 10 20 2b 	mov  0x2b, %g2
    24b4:	94 02 a0 01 	inc  %o2
    24b8:	c4 28 7f e0 	stb  %g2, [ %g1 + -32 ]
    24bc:	90 10 00 18 	mov  %i0, %o0
    24c0:	92 10 00 11 	mov  %l1, %o1
    24c4:	96 10 00 13 	mov  %l3, %o3
    24c8:	7f ff fe ed 	call  207c <out_rev_>
    24cc:	98 10 00 12 	mov  %l2, %o4
    24d0:	81 c7 e0 08 	ret 
    24d4:	81 e8 00 00 	restore 
    24d8:	80 8c a0 20 	btst  0x20, %l2
    24dc:	12 80 00 0d 	bne  2510 <print_integer+0x338>
    24e0:	80 a2 a0 1f 	cmp  %o2, 0x1f
    24e4:	18 bf ff 89 	bgu  2308 <print_integer+0x130>
    24e8:	90 10 00 18 	mov  %i0, %o0
    24ec:	82 07 80 0a 	add  %fp, %o2, %g1
    24f0:	84 10 20 78 	mov  0x78, %g2
    24f4:	94 02 a0 01 	inc  %o2
    24f8:	10 bf ff 71 	b  22bc <print_integer+0xe4>
    24fc:	c4 28 7f e0 	stb  %g2, [ %g1 + -32 ]
    2500:	82 10 20 01 	mov  1, %g1
    2504:	a0 10 20 00 	clr  %l0
    2508:	10 bf ff 41 	b  220c <print_integer+0x34>
    250c:	a2 07 bf e0 	add  %fp, -32, %l1
    2510:	18 bf ff 7e 	bgu  2308 <print_integer+0x130>
    2514:	90 10 00 18 	mov  %i0, %o0
    2518:	82 07 80 0a 	add  %fp, %o2, %g1
    251c:	84 10 20 58 	mov  0x58, %g2
    2520:	94 02 a0 01 	inc  %o2
    2524:	10 bf ff 66 	b  22bc <print_integer+0xe4>
    2528:	c4 28 7f e0 	stb  %g2, [ %g1 + -32 ]
    252c:	02 bf ff 5b 	be  2298 <print_integer+0xc0>
    2530:	80 a7 20 10 	cmp  %i4, 0x10
    2534:	02 bf ff 59 	be  2298 <print_integer+0xc0>
    2538:	82 10 00 0a 	mov  %o2, %g1
    253c:	10 bf ff 60 	b  22bc <print_integer+0xe4>
    2540:	94 10 00 01 	mov  %g1, %o2
    2544:	02 80 00 06 	be  255c <print_integer+0x384>
    2548:	80 a4 00 01 	cmp  %l0, %g1
    254c:	80 a7 20 10 	cmp  %i4, 0x10
    2550:	32 bf ff 5b 	bne,a   22bc <print_integer+0xe4>
    2554:	94 10 00 01 	mov  %g1, %o2
    2558:	80 a4 00 01 	cmp  %l0, %g1
    255c:	0a bf ff 4e 	bcs  2294 <print_integer+0xbc>
    2560:	94 02 bf fe 	add  %o2, -2, %o2
    2564:	10 bf ff 4c 	b  2294 <print_integer+0xbc>
    2568:	94 10 00 01 	mov  %g1, %o2
    256c:	10 bf ff 2e 	b  2224 <print_integer+0x4c>
    2570:	94 10 00 10 	mov  %l0, %o2

00002574 <print_broken_up_decimal.isra.4>:
    2574:	9d e3 bf a0 	save  %sp, -96, %sp
    2578:	e0 07 a0 5c 	ld  [ %fp + 0x5c ], %l0
    257c:	a2 10 00 1a 	mov  %i2, %l1
    2580:	a6 10 00 1b 	mov  %i3, %l3
    2584:	a8 10 00 1c 	mov  %i4, %l4
    2588:	f6 07 a0 60 	ld  [ %fp + 0x60 ], %i3
    258c:	f8 07 a0 64 	ld  [ %fp + 0x64 ], %i4
    2590:	e4 07 a0 68 	ld  [ %fp + 0x68 ], %l2
    2594:	80 a4 20 00 	cmp  %l0, 0
    2598:	02 80 00 73 	be  2764 <print_broken_up_decimal.isra.4+0x1f0>
    259c:	f4 07 a0 6c 	ld  [ %fp + 0x6c ], %i2
    25a0:	03 00 00 04 	sethi  %hi(0x1000), %g1
    25a4:	84 10 60 10 	or  %g1, 0x10, %g2	! 1010 <__ajit_read_serial_baud_limit_register_via_bypass__+0x8>
    25a8:	84 0f 00 02 	and  %i4, %g2, %g2
    25ac:	80 a0 80 01 	cmp  %g2, %g1
    25b0:	02 80 00 90 	be  27f0 <print_broken_up_decimal.isra.4+0x27c>
    25b4:	80 a4 60 00 	cmp  %l1, 0
    25b8:	80 a6 a0 1f 	cmp  %i2, 0x1f
    25bc:	18 80 00 57 	bgu  2718 <print_broken_up_decimal.isra.4+0x1a4>
    25c0:	94 10 20 00 	clr  %o2
    25c4:	96 10 20 0a 	mov  0xa, %o3
    25c8:	90 10 00 11 	mov  %l1, %o0
    25cc:	40 00 0f 26 	call  6264 <__moddi3>
    25d0:	92 10 00 13 	mov  %l3, %o1
    25d4:	92 02 60 30 	add  %o1, 0x30, %o1
    25d8:	90 10 00 11 	mov  %l1, %o0
    25dc:	d2 2c 80 1a 	stb  %o1, [ %l2 + %i2 ]
    25e0:	94 10 20 00 	clr  %o2
    25e4:	96 10 20 0a 	mov  0xa, %o3
    25e8:	10 80 00 0f 	b  2624 <print_broken_up_decimal.isra.4+0xb0>
    25ec:	92 10 00 13 	mov  %l3, %o1
    25f0:	90 10 00 13 	mov  %l3, %o0
    25f4:	94 10 20 00 	clr  %o2
    25f8:	80 a6 a0 20 	cmp  %i2, 0x20
    25fc:	02 80 00 47 	be  2718 <print_broken_up_decimal.isra.4+0x1a4>
    2600:	96 10 20 0a 	mov  0xa, %o3
    2604:	40 00 0f 18 	call  6264 <__moddi3>
    2608:	01 00 00 00 	nop 
    260c:	92 02 60 30 	add  %o1, 0x30, %o1
    2610:	90 10 00 13 	mov  %l3, %o0
    2614:	d2 2c 80 1a 	stb  %o1, [ %l2 + %i2 ]
    2618:	94 10 20 00 	clr  %o2
    261c:	96 10 20 0a 	mov  0xa, %o3
    2620:	92 10 00 11 	mov  %l1, %o1
    2624:	40 00 0e 27 	call  5ec0 <__divdi3>
    2628:	a0 04 3f ff 	add  %l0, -1, %l0
    262c:	a6 10 00 08 	mov  %o0, %l3
    2630:	a2 10 00 09 	mov  %o1, %l1
    2634:	80 94 c0 09 	orcc  %l3, %o1, %g0
    2638:	12 bf ff ee 	bne  25f0 <print_broken_up_decimal.isra.4+0x7c>
    263c:	b4 06 a0 01 	inc  %i2
    2640:	80 a6 a0 1f 	cmp  %i2, 0x1f
    2644:	18 80 00 0e 	bgu  267c <print_broken_up_decimal.isra.4+0x108>
    2648:	80 a4 20 00 	cmp  %l0, 0
    264c:	02 80 00 0c 	be  267c <print_broken_up_decimal.isra.4+0x108>
    2650:	82 10 20 30 	mov  0x30, %g1
    2654:	10 80 00 06 	b  266c <print_broken_up_decimal.isra.4+0xf8>
    2658:	c2 2c 80 1a 	stb  %g1, [ %l2 + %i2 ]
    265c:	80 a4 20 00 	cmp  %l0, 0
    2660:	02 80 00 08 	be  2680 <print_broken_up_decimal.isra.4+0x10c>
    2664:	80 a6 a0 1f 	cmp  %i2, 0x1f
    2668:	c2 2c 80 1a 	stb  %g1, [ %l2 + %i2 ]
    266c:	b4 06 a0 01 	inc  %i2
    2670:	80 a6 a0 1f 	cmp  %i2, 0x1f
    2674:	08 bf ff fa 	bleu  265c <print_broken_up_decimal.isra.4+0xe8>
    2678:	a0 04 3f ff 	add  %l0, -1, %l0
    267c:	80 a6 a0 1f 	cmp  %i2, 0x1f
    2680:	18 80 00 27 	bgu  271c <print_broken_up_decimal.isra.4+0x1a8>
    2684:	82 0f 20 03 	and  %i4, 3, %g1
    2688:	82 10 20 2e 	mov  0x2e, %g1
    268c:	c2 2c 80 1a 	stb  %g1, [ %l2 + %i2 ]
    2690:	b4 06 a0 01 	inc  %i2
    2694:	80 a6 a0 1f 	cmp  %i2, 0x1f
    2698:	18 80 00 20 	bgu  2718 <print_broken_up_decimal.isra.4+0x1a4>
    269c:	94 10 20 00 	clr  %o2
    26a0:	96 10 20 0a 	mov  0xa, %o3
    26a4:	90 10 00 18 	mov  %i0, %o0
    26a8:	40 00 0e ef 	call  6264 <__moddi3>
    26ac:	92 10 00 19 	mov  %i1, %o1
    26b0:	94 10 20 00 	clr  %o2
    26b4:	82 02 60 30 	add  %o1, 0x30, %g1
    26b8:	96 10 20 0a 	mov  0xa, %o3
    26bc:	90 10 00 18 	mov  %i0, %o0
    26c0:	92 10 00 19 	mov  %i1, %o1
    26c4:	10 80 00 0f 	b  2700 <print_broken_up_decimal.isra.4+0x18c>
    26c8:	c2 2c 80 1a 	stb  %g1, [ %l2 + %i2 ]
    26cc:	90 10 00 11 	mov  %l1, %o0
    26d0:	94 10 20 00 	clr  %o2
    26d4:	80 a6 a0 20 	cmp  %i2, 0x20
    26d8:	02 80 00 10 	be  2718 <print_broken_up_decimal.isra.4+0x1a4>
    26dc:	96 10 20 0a 	mov  0xa, %o3
    26e0:	40 00 0e e1 	call  6264 <__moddi3>
    26e4:	01 00 00 00 	nop 
    26e8:	92 02 60 30 	add  %o1, 0x30, %o1
    26ec:	90 10 00 11 	mov  %l1, %o0
    26f0:	d2 2c 80 1a 	stb  %o1, [ %l2 + %i2 ]
    26f4:	94 10 20 00 	clr  %o2
    26f8:	96 10 20 0a 	mov  0xa, %o3
    26fc:	92 10 00 10 	mov  %l0, %o1
    2700:	40 00 0d f0 	call  5ec0 <__divdi3>
    2704:	b4 06 a0 01 	inc  %i2
    2708:	a2 10 00 08 	mov  %o0, %l1
    270c:	80 94 40 09 	orcc  %l1, %o1, %g0
    2710:	12 bf ff ef 	bne  26cc <print_broken_up_decimal.isra.4+0x158>
    2714:	a0 10 00 09 	mov  %o1, %l0
    2718:	82 0f 20 03 	and  %i4, 3, %g1
    271c:	80 a0 60 01 	cmp  %g1, 1
    2720:	02 80 00 1d 	be  2794 <print_broken_up_decimal.isra.4+0x220>
    2724:	80 a6 e0 00 	cmp  %i3, 0
    2728:	80 a6 a0 1f 	cmp  %i2, 0x1f
    272c:	18 80 00 0b 	bgu  2758 <print_broken_up_decimal.isra.4+0x1e4>
    2730:	80 a5 20 00 	cmp  %l4, 0
    2734:	12 80 00 13 	bne  2780 <print_broken_up_decimal.isra.4+0x20c>
    2738:	82 10 20 2d 	mov  0x2d, %g1
    273c:	80 8f 20 04 	btst  4, %i4
    2740:	12 80 00 4d 	bne  2874 <print_broken_up_decimal.isra.4+0x300>
    2744:	80 8f 20 08 	btst  8, %i4
    2748:	02 80 00 04 	be  2758 <print_broken_up_decimal.isra.4+0x1e4>
    274c:	82 10 20 20 	mov  0x20, %g1
    2750:	c2 2c 80 1a 	stb  %g1, [ %l2 + %i2 ]
    2754:	b4 06 a0 01 	inc  %i2
    2758:	b0 10 00 1d 	mov  %i5, %i0
    275c:	7f ff fe 48 	call  207c <out_rev_>
    2760:	93 e8 00 12 	restore  %g0, %l2, %o1
    2764:	80 8f 20 10 	btst  0x10, %i4
    2768:	02 bf ff cc 	be  2698 <print_broken_up_decimal.isra.4+0x124>
    276c:	80 a6 a0 1f 	cmp  %i2, 0x1f
    2770:	28 bf ff c7 	bleu,a   268c <print_broken_up_decimal.isra.4+0x118>
    2774:	82 10 20 2e 	mov  0x2e, %g1
    2778:	10 bf ff e9 	b  271c <print_broken_up_decimal.isra.4+0x1a8>
    277c:	82 0f 20 03 	and  %i4, 3, %g1
    2780:	b0 10 00 1d 	mov  %i5, %i0
    2784:	c2 2c 80 1a 	stb  %g1, [ %l2 + %i2 ]
    2788:	b2 10 00 12 	mov  %l2, %i1
    278c:	7f ff fe 3c 	call  207c <out_rev_>
    2790:	95 ee a0 01 	restore  %i2, 1, %o2
    2794:	02 bf ff e6 	be  272c <print_broken_up_decimal.isra.4+0x1b8>
    2798:	80 a6 a0 1f 	cmp  %i2, 0x1f
    279c:	80 a5 20 00 	cmp  %l4, 0
    27a0:	32 80 00 05 	bne,a   27b4 <print_broken_up_decimal.isra.4+0x240>
    27a4:	b6 06 ff ff 	add  %i3, -1, %i3
    27a8:	80 8f 20 0c 	btst  0xc, %i4
    27ac:	32 80 00 02 	bne,a   27b4 <print_broken_up_decimal.isra.4+0x240>
    27b0:	b6 06 ff ff 	add  %i3, -1, %i3
    27b4:	80 a6 80 1b 	cmp  %i2, %i3
    27b8:	1a bf ff dc 	bcc  2728 <print_broken_up_decimal.isra.4+0x1b4>
    27bc:	80 a6 a0 1f 	cmp  %i2, 0x1f
    27c0:	18 bf ff db 	bgu  272c <print_broken_up_decimal.isra.4+0x1b8>
    27c4:	82 10 20 30 	mov  0x30, %g1
    27c8:	10 80 00 05 	b  27dc <print_broken_up_decimal.isra.4+0x268>
    27cc:	c2 2c 80 1a 	stb  %g1, [ %l2 + %i2 ]
    27d0:	1a bf ff d7 	bcc  272c <print_broken_up_decimal.isra.4+0x1b8>
    27d4:	80 a6 a0 1f 	cmp  %i2, 0x1f
    27d8:	c2 2c 80 1a 	stb  %g1, [ %l2 + %i2 ]
    27dc:	b4 06 a0 01 	inc  %i2
    27e0:	80 a6 a0 1f 	cmp  %i2, 0x1f
    27e4:	28 bf ff fb 	bleu,a   27d0 <print_broken_up_decimal.isra.4+0x25c>
    27e8:	80 a6 80 1b 	cmp  %i2, %i3
    27ec:	30 bf ff d0 	b,a   272c <print_broken_up_decimal.isra.4+0x1b8>
    27f0:	04 80 00 27 	ble  288c <print_broken_up_decimal.isra.4+0x318>
    27f4:	80 a4 60 00 	cmp  %l1, 0
    27f8:	90 10 00 11 	mov  %l1, %o0
    27fc:	92 10 00 13 	mov  %l3, %o1
    2800:	94 10 20 00 	clr  %o2
    2804:	40 00 0e 98 	call  6264 <__moddi3>
    2808:	96 10 20 0a 	mov  0xa, %o3
    280c:	80 92 00 09 	orcc  %o0, %o1, %g0
    2810:	12 bf ff 6b 	bne  25bc <print_broken_up_decimal.isra.4+0x48>
    2814:	80 a6 a0 1f 	cmp  %i2, 0x1f
    2818:	94 10 20 00 	clr  %o2
    281c:	96 10 20 0a 	mov  0xa, %o3
    2820:	90 10 00 11 	mov  %l1, %o0
    2824:	40 00 0d a7 	call  5ec0 <__divdi3>
    2828:	92 10 00 13 	mov  %l3, %o1
    282c:	94 10 20 00 	clr  %o2
    2830:	a2 10 00 08 	mov  %o0, %l1
    2834:	a6 10 00 09 	mov  %o1, %l3
    2838:	96 10 20 0a 	mov  0xa, %o3
    283c:	40 00 0e 8a 	call  6264 <__moddi3>
    2840:	a0 04 3f ff 	add  %l0, -1, %l0
    2844:	80 92 00 09 	orcc  %o0, %o1, %g0
    2848:	02 bf ff f5 	be  281c <print_broken_up_decimal.isra.4+0x2a8>
    284c:	94 10 20 00 	clr  %o2
    2850:	80 a4 60 00 	cmp  %l1, 0
    2854:	14 bf ff 5a 	bg  25bc <print_broken_up_decimal.isra.4+0x48>
    2858:	80 a6 a0 1f 	cmp  %i2, 0x1f
    285c:	80 a4 60 00 	cmp  %l1, 0
    2860:	12 bf ff 8d 	bne  2694 <print_broken_up_decimal.isra.4+0x120>
    2864:	80 a4 e0 00 	cmp  %l3, 0
    2868:	12 bf ff 55 	bne  25bc <print_broken_up_decimal.isra.4+0x48>
    286c:	80 a6 a0 1f 	cmp  %i2, 0x1f
    2870:	30 bf ff 8a 	b,a   2698 <print_broken_up_decimal.isra.4+0x124>
    2874:	82 10 20 2b 	mov  0x2b, %g1
    2878:	b0 10 00 1d 	mov  %i5, %i0
    287c:	c2 2c 80 1a 	stb  %g1, [ %l2 + %i2 ]
    2880:	b2 10 00 12 	mov  %l2, %i1
    2884:	7f ff fd fe 	call  207c <out_rev_>
    2888:	95 ee a0 01 	restore  %i2, 1, %o2
    288c:	12 bf ff 82 	bne  2694 <print_broken_up_decimal.isra.4+0x120>
    2890:	80 a4 e0 00 	cmp  %l3, 0
    2894:	12 bf ff da 	bne  27fc <print_broken_up_decimal.isra.4+0x288>
    2898:	90 10 00 11 	mov  %l1, %o0
    289c:	10 bf ff 7f 	b  2698 <print_broken_up_decimal.isra.4+0x124>
    28a0:	80 a6 a0 1f 	cmp  %i2, 0x1f

000028a4 <print_exponential_number>:
    28a4:	9d e3 bf 40 	save  %sp, -192, %sp
    28a8:	84 10 00 19 	mov  %i1, %g2
    28ac:	86 10 00 1a 	mov  %i2, %g3
    28b0:	c4 3f bf c8 	std  %g2, [ %fp + -56 ]
    28b4:	ad 36 60 1f 	srl  %i1, 0x1f, %l6
    28b8:	a8 10 00 1b 	mov  %i3, %l4
    28bc:	82 8d a0 ff 	andcc  %l6, 0xff, %g1
    28c0:	02 80 00 03 	be  28cc <print_exponential_number+0x28>
    28c4:	d1 1f bf c8 	ldd  [ %fp + -56 ], %f8
    28c8:	91 a0 00 a8 	fnegs  %f8, %f8
    28cc:	09 00 00 38 	sethi  %hi(0xe000), %g4
    28d0:	d5 19 22 c8 	ldd  [ %g4 + 0x2c8 ], %f10	! e2c8 <__clz_tab+0x238>
    28d4:	81 aa 0a 4a 	fcmpd  %f8, %f10
    28d8:	01 00 00 00 	nop 
    28dc:	33 80 00 e8 	fbe,a   2c7c <print_exponential_number+0x3d8>
    28e0:	88 10 20 01 	mov  1, %g4	! 1 <_start+0x1>
    28e4:	d1 3f bf c0 	std  %f8, [ %fp + -64 ]
    28e8:	19 00 03 ff 	sethi  %hi(0xffc00), %o4
    28ec:	f4 1f bf c0 	ldd  [ %fp + -64 ], %i2
    28f0:	98 13 23 ff 	or  %o4, 0x3ff, %o4
    28f4:	05 0f fc 00 	sethi  %hi(0x3ff00000), %g2
    28f8:	98 0e 80 0c 	and  %i2, %o4, %o4
    28fc:	84 13 00 02 	or  %o4, %g2, %g2
    2900:	1b 3f ff ff 	sethi  %hi(0xfffffc00), %o5
    2904:	86 10 20 00 	clr  %g3
    2908:	9a 13 63 ff 	or  %o5, 0x3ff, %o5
    290c:	9a 0e c0 0d 	and  %i3, %o5, %o5
    2910:	86 13 40 03 	or  %o5, %g3, %g3
    2914:	c4 3f bf c8 	std  %g2, [ %fp + -56 ]
    2918:	05 00 00 38 	sethi  %hi(0xe000), %g2
    291c:	e1 1f bf c8 	ldd  [ %fp + -56 ], %f16
    2920:	37 00 00 38 	sethi  %hi(0xe000), %i3
    2924:	dd 1e e2 d0 	ldd  [ %i3 + 0x2d0 ], %f14	! e2d0 <__clz_tab+0x240>
    2928:	99 a4 08 ce 	fsubd  %f16, %f14, %f12
    292c:	e1 18 a2 d8 	ldd  [ %g2 + 0x2d8 ], %f16
    2930:	05 00 00 38 	sethi  %hi(0xe000), %g2
    2934:	e5 18 a2 e0 	ldd  [ %g2 + 0x2e0 ], %f18	! e2e0 <__clz_tab+0x250>
    2938:	9d a3 09 4c 	fmuld  %f12, %f12, %f14
    293c:	a1 a3 09 50 	fmuld  %f12, %f16, %f16
    2940:	05 00 00 38 	sethi  %hi(0xe000), %g2
    2944:	a1 a4 08 52 	faddd  %f16, %f18, %f16
    2948:	37 00 00 38 	sethi  %hi(0xe000), %i3
    294c:	e5 18 a2 e8 	ldd  [ %g2 + 0x2e8 ], %f18
    2950:	a5 a3 89 52 	fmuld  %f14, %f18, %f18
    2954:	87 36 a0 14 	srl  %i2, 0x14, %g3
    2958:	a1 a4 08 d2 	fsubd  %f16, %f18, %f16
    295c:	86 08 e7 ff 	and  %g3, 0x7ff, %g3
    2960:	e5 1e e2 f0 	ldd  [ %i3 + 0x2f0 ], %f18
    2964:	b6 00 fc 01 	add  %g3, -1023, %i3
    2968:	f6 27 bf bc 	st  %i3, [ %fp + -68 ]
    296c:	99 a3 09 4e 	fmuld  %f12, %f14, %f12
    2970:	05 00 00 38 	sethi  %hi(0xe000), %g2
    2974:	99 a3 09 52 	fmuld  %f12, %f18, %f12
    2978:	dd 18 a2 f8 	ldd  [ %g2 + 0x2f8 ], %f14
    297c:	99 a4 08 4c 	faddd  %f16, %f12, %f12
    2980:	e1 07 bf bc 	ld  [ %fp + -68 ], %f16
    2984:	a1 a0 19 10 	fitod  %f16, %f16
    2988:	a1 a4 09 4e 	fmuld  %f16, %f14, %f16
    298c:	99 a3 08 50 	faddd  %f12, %f16, %f12
    2990:	81 ab 0a ca 	fcmped  %f12, %f10
    2994:	01 00 00 00 	nop 
    2998:	07 80 01 49 	fbul  2ebc <print_exponential_number+0x618>
    299c:	01 00 00 00 	nop 
    29a0:	95 a0 1a 4c 	fdtoi  %f12, %f10
    29a4:	d5 27 bf bc 	st  %f10, [ %fp + -68 ]
    29a8:	ea 07 bf bc 	ld  [ %fp + -68 ], %l5
    29ac:	80 a5 7e cc 	cmp  %l5, -308
    29b0:	02 80 01 b6 	be  3088 <print_exponential_number+0x7e4>
    29b4:	05 00 00 38 	sethi  %hi(0xe000), %g2
    29b8:	ea 27 bf bc 	st  %l5, [ %fp + -68 ]
    29bc:	e1 07 bf bc 	ld  [ %fp + -68 ], %f16
    29c0:	d9 18 a3 00 	ldd  [ %g2 + 0x300 ], %f12
    29c4:	9d a0 19 10 	fitod  %f16, %f14
    29c8:	d5 19 22 c8 	ldd  [ %g4 + 0x2c8 ], %f10
    29cc:	99 a3 89 4c 	fmuld  %f14, %f12, %f12
    29d0:	05 00 00 38 	sethi  %hi(0xe000), %g2
    29d4:	e1 18 a2 b8 	ldd  [ %g2 + 0x2b8 ], %f16	! e2b8 <__clz_tab+0x228>
    29d8:	99 a3 08 50 	faddd  %f12, %f16, %f12
    29dc:	81 ab 0a ca 	fcmped  %f12, %f10
    29e0:	01 00 00 00 	nop 
    29e4:	07 80 01 9d 	fbul  3058 <print_exponential_number+0x7b4>
    29e8:	01 00 00 00 	nop 
    29ec:	a3 a0 1a 4c 	fdtoi  %f12, %f17
    29f0:	e3 27 bf bc 	st  %f17, [ %fp + -68 ]
    29f4:	a1 a0 19 11 	fitod  %f17, %f16
    29f8:	c4 07 bf bc 	ld  [ %fp + -68 ], %g2
    29fc:	07 00 00 38 	sethi  %hi(0xe000), %g3
    2a00:	d5 18 e3 08 	ldd  [ %g3 + 0x308 ], %f10	! e308 <__clz_tab+0x278>
    2a04:	09 00 00 38 	sethi  %hi(0xe000), %g4
    2a08:	9d a3 89 4a 	fmuld  %f14, %f10, %f14
    2a0c:	07 00 00 38 	sethi  %hi(0xe000), %g3
    2a10:	d5 18 e3 10 	ldd  [ %g3 + 0x310 ], %f10	! e310 <__clz_tab+0x280>
    2a14:	a1 a4 09 4a 	fmuld  %f16, %f10, %f16
    2a18:	95 a3 88 d0 	fsubd  %f14, %f16, %f10
    2a1c:	e1 19 23 18 	ldd  [ %g4 + 0x318 ], %f16
    2a20:	09 00 00 38 	sethi  %hi(0xe000), %g4
    2a24:	99 a2 89 4a 	fmuld  %f10, %f10, %f12
    2a28:	9d a2 88 4a 	faddd  %f10, %f10, %f14
    2a2c:	95 a4 08 ca 	fsubd  %f16, %f10, %f10
    2a30:	e1 19 23 20 	ldd  [ %g4 + 0x320 ], %f16
    2a34:	09 00 00 38 	sethi  %hi(0xe000), %g4
    2a38:	e5 19 23 28 	ldd  [ %g4 + 0x328 ], %f18	! e328 <__clz_tab+0x298>
    2a3c:	a1 a3 09 d0 	fdivd  %f12, %f16, %f16
    2a40:	09 00 00 38 	sethi  %hi(0xe000), %g4
    2a44:	a1 a4 08 52 	faddd  %f16, %f18, %f16
    2a48:	e5 19 23 30 	ldd  [ %g4 + 0x330 ], %f18
    2a4c:	a1 a3 09 d0 	fdivd  %f12, %f16, %f16
    2a50:	a1 a4 08 52 	faddd  %f16, %f18, %f16
    2a54:	9a 80 a3 ff 	addcc  %g2, 0x3ff, %o5
    2a58:	99 a3 09 d0 	fdivd  %f12, %f16, %f12
    2a5c:	85 2b 60 14 	sll  %o5, 0x14, %g2
    2a60:	86 10 20 00 	clr  %g3
    2a64:	95 a2 88 4c 	faddd  %f10, %f12, %f10
    2a68:	09 00 00 38 	sethi  %hi(0xe000), %g4
    2a6c:	95 a3 89 ca 	fdivd  %f14, %f10, %f10
    2a70:	c4 3f bf c8 	std  %g2, [ %fp + -56 ]
    2a74:	dd 19 23 38 	ldd  [ %g4 + 0x338 ], %f14
    2a78:	e1 1f bf c8 	ldd  [ %fp + -56 ], %f16
    2a7c:	95 a2 88 4e 	faddd  %f10, %f14, %f10
    2a80:	95 a2 89 50 	fmuld  %f10, %f16, %f10
    2a84:	81 aa 0a ca 	fcmped  %f8, %f10
    2a88:	01 00 00 00 	nop 
    2a8c:	19 80 00 06 	fbuge  2aa4 <print_exponential_number+0x200>
    2a90:	01 00 00 00 	nop 
    2a94:	05 00 00 38 	sethi  %hi(0xe000), %g2
    2a98:	aa 05 7f ff 	add  %l5, -1, %l5
    2a9c:	d9 18 a3 28 	ldd  [ %g2 + 0x328 ], %f12
    2aa0:	95 a2 89 cc 	fdivd  %f10, %f12, %f10
    2aa4:	84 05 60 11 	add  %l5, 0x11, %g2
    2aa8:	80 a0 a0 22 	cmp  %g2, 0x22
    2aac:	18 80 01 00 	bgu  2eac <print_exponential_number+0x608>
    2ab0:	99 a0 00 2a 	fmovs  %f10, %f12
    2ab4:	85 3d 60 1f 	sra  %l5, 0x1f, %g2
    2ab8:	80 a0 00 15 	cmp  %g0, %l5
    2abc:	86 18 80 15 	xor  %g2, %l5, %g3
    2ac0:	84 20 c0 02 	sub  %g3, %g2, %g2
    2ac4:	85 28 a0 03 	sll  %g2, 3, %g2
    2ac8:	88 60 3f ff 	subx  %g0, -1, %g4
    2acc:	37 00 00 38 	sethi  %hi(0xe000), %i3
    2ad0:	b6 16 e0 00 	mov  %i3, %i3	! e000 <powers_of_10>
    2ad4:	d9 1e c0 02 	ldd  [ %i3 + %g2 ], %f12
    2ad8:	05 00 00 04 	sethi  %hi(0x1000), %g2
    2adc:	80 8f 40 02 	btst  %i5, %g2
    2ae0:	12 80 00 6d 	bne  2c94 <print_exponential_number+0x3f0>
    2ae4:	87 35 60 1f 	srl  %l5, 0x1f, %g3
    2ae8:	b2 10 20 00 	clr  %i1
    2aec:	80 89 20 ff 	btst  0xff, %g4
    2af0:	02 80 00 cf 	be  2e2c <print_exponential_number+0x588>
    2af4:	80 a0 60 00 	cmp  %g1, 0
    2af8:	32 80 00 8d 	bne,a   2d2c <print_exponential_number+0x488>
    2afc:	91 a0 00 a8 	fnegs  %f8, %f8
    2b00:	82 07 bf e8 	add  %fp, -24, %g1
    2b04:	d1 3f bf c8 	std  %f8, [ %fp + -56 ]
    2b08:	c2 23 a0 40 	st  %g1, [ %sp + 0x40 ]
    2b0c:	d0 1f bf c8 	ldd  [ %fp + -56 ], %o0
    2b10:	94 10 00 14 	mov  %l4, %o2
    2b14:	7f ff fc e5 	call  1ea8 <get_components>
    2b18:	01 00 00 00 	nop 
    2b1c:	00 00 00 18 	unimp  0x18
    2b20:	80 a6 60 00 	cmp  %i1, 0
    2b24:	f4 1f bf e8 	ldd  [ %fp + -24 ], %i2
    2b28:	e2 07 bf f0 	ld  [ %fp + -16 ], %l1
    2b2c:	e0 07 bf f4 	ld  [ %fp + -12 ], %l0
    2b30:	02 80 00 8d 	be  2d64 <print_exponential_number+0x4c0>
    2b34:	ec 0f bf f8 	ldub  [ %fp + -8 ], %l6
    2b38:	03 00 00 04 	sethi  %hi(0x1000), %g1
    2b3c:	80 8f 40 01 	btst  %i5, %g1
    2b40:	12 80 00 a2 	bne  2dc8 <print_exponential_number+0x524>
    2b44:	80 a5 7f ff 	cmp  %l5, -1
    2b48:	90 10 00 1a 	mov  %i2, %o0
    2b4c:	96 10 00 10 	mov  %l0, %o3
    2b50:	94 10 00 11 	mov  %l1, %o2
    2b54:	b4 0f 60 02 	and  %i5, 2, %i2
    2b58:	92 10 00 1b 	mov  %i3, %o1
    2b5c:	a0 10 20 00 	clr  %l0
    2b60:	80 a7 00 10 	cmp  %i4, %l0
    2b64:	18 80 00 70 	bgu  2d24 <print_exponential_number+0x480>
    2b68:	82 10 20 00 	clr  %g1
    2b6c:	c2 23 a0 60 	st  %g1, [ %sp + 0x60 ]
    2b70:	c2 07 a0 5c 	ld  [ %fp + 0x5c ], %g1
    2b74:	c2 23 a0 68 	st  %g1, [ %sp + 0x68 ]
    2b78:	c2 07 a0 60 	ld  [ %fp + 0x60 ], %g1
    2b7c:	f6 06 20 0c 	ld  [ %i0 + 0xc ], %i3
    2b80:	e8 23 a0 5c 	st  %l4, [ %sp + 0x5c ]
    2b84:	fa 23 a0 64 	st  %i5, [ %sp + 0x64 ]
    2b88:	c2 23 a0 6c 	st  %g1, [ %sp + 0x6c ]
    2b8c:	98 0d a0 ff 	and  %l6, 0xff, %o4
    2b90:	7f ff fe 79 	call  2574 <print_broken_up_decimal.isra.4>
    2b94:	9a 10 00 18 	mov  %i0, %o5
    2b98:	80 a6 60 00 	cmp  %i1, 0
    2b9c:	12 80 00 5d 	bne  2d10 <print_exponential_number+0x46c>
    2ba0:	ba 0f 60 20 	and  %i5, 0x20, %i5
    2ba4:	c4 06 20 0c 	ld  [ %i0 + 0xc ], %g2
    2ba8:	82 00 a0 01 	add  %g2, 1, %g1
    2bac:	c6 06 20 10 	ld  [ %i0 + 0x10 ], %g3
    2bb0:	c2 26 20 0c 	st  %g1, [ %i0 + 0xc ]
    2bb4:	80 a0 00 1d 	cmp  %g0, %i5
    2bb8:	82 40 3f ff 	addx  %g0, -1, %g1
    2bbc:	82 08 60 20 	and  %g1, 0x20, %g1
    2bc0:	80 a0 80 03 	cmp  %g2, %g3
    2bc4:	86 00 60 45 	add  %g1, 0x45, %g3
    2bc8:	1a 80 00 09 	bcc  2bec <print_exponential_number+0x348>
    2bcc:	82 10 00 03 	mov  %g3, %g1
    2bd0:	c8 06 00 00 	ld  [ %i0 ], %g4
    2bd4:	80 a1 20 00 	cmp  %g4, 0
    2bd8:	02 80 01 18 	be  3038 <print_exponential_number+0x794>
    2bdc:	91 28 60 18 	sll  %g1, 0x18, %o0
    2be0:	d2 06 20 04 	ld  [ %i0 + 4 ], %o1
    2be4:	9f c1 00 00 	call  %g4
    2be8:	91 3a 20 18 	sra  %o0, 0x18, %o0
    2bec:	86 10 00 15 	mov  %l5, %g3
    2bf0:	80 a5 60 00 	cmp  %l5, 0
    2bf4:	04 80 00 bb 	ble  2ee0 <print_exponential_number+0x63c>
    2bf8:	85 3d 60 1f 	sra  %l5, 0x1f, %g2
    2bfc:	82 10 20 05 	mov  5, %g1
    2c00:	a0 04 3f ff 	add  %l0, -1, %l0
    2c04:	c2 23 a0 60 	st  %g1, [ %sp + 0x60 ]
    2c08:	e0 23 a0 5c 	st  %l0, [ %sp + 0x5c ]
    2c0c:	90 10 00 18 	mov  %i0, %o0
    2c10:	92 10 00 02 	mov  %g2, %o1
    2c14:	94 10 00 03 	mov  %g3, %o2
    2c18:	97 35 60 1f 	srl  %l5, 0x1f, %o3
    2c1c:	98 10 20 0a 	mov  0xa, %o4
    2c20:	7f ff fd 6e 	call  21d8 <print_integer>
    2c24:	9a 10 20 00 	clr  %o5
    2c28:	80 a6 a0 00 	cmp  %i2, 0
    2c2c:	02 80 00 39 	be  2d10 <print_exponential_number+0x46c>
    2c30:	ba 10 20 20 	mov  0x20, %i5
    2c34:	c2 06 20 0c 	ld  [ %i0 + 0xc ], %g1
    2c38:	86 20 40 1b 	sub  %g1, %i3, %g3
    2c3c:	80 a7 00 03 	cmp  %i4, %g3
    2c40:	08 80 00 34 	bleu  2d10 <print_exponential_number+0x46c>
    2c44:	84 00 60 01 	add  %g1, 1, %g2
    2c48:	c4 26 20 0c 	st  %g2, [ %i0 + 0xc ]
    2c4c:	c6 06 20 10 	ld  [ %i0 + 0x10 ], %g3
    2c50:	80 a0 c0 01 	cmp  %g3, %g1
    2c54:	28 80 00 2b 	bleu,a   2d00 <print_exponential_number+0x45c>
    2c58:	82 10 00 02 	mov  %g2, %g1
    2c5c:	c4 06 00 00 	ld  [ %i0 ], %g2
    2c60:	80 a0 a0 00 	cmp  %g2, 0
    2c64:	02 80 00 2d 	be  2d18 <print_exponential_number+0x474>
    2c68:	90 10 20 20 	mov  0x20, %o0
    2c6c:	9f c0 80 00 	call  %g2
    2c70:	d2 06 20 04 	ld  [ %i0 + 4 ], %o1
    2c74:	10 bf ff f1 	b  2c38 <print_exponential_number+0x394>
    2c78:	c2 06 20 0c 	ld  [ %i0 + 0xc ], %g1
    2c7c:	86 10 20 00 	clr  %g3
    2c80:	aa 10 20 00 	clr  %l5
    2c84:	05 00 00 04 	sethi  %hi(0x1000), %g2
    2c88:	80 8f 40 02 	btst  %i5, %g2
    2c8c:	02 bf ff 98 	be  2aec <print_exponential_number+0x248>
    2c90:	b2 10 20 00 	clr  %i1
    2c94:	80 a5 20 00 	cmp  %l4, 0
    2c98:	12 80 00 04 	bne  2ca8 <print_exponential_number+0x404>
    2c9c:	84 10 00 14 	mov  %l4, %g2
    2ca0:	84 10 20 00 	clr  %g2
    2ca4:	a8 10 20 01 	mov  1, %l4
    2ca8:	80 a5 40 14 	cmp  %l5, %l4
    2cac:	16 80 00 41 	bge  2db0 <print_exponential_number+0x50c>
    2cb0:	b2 10 20 01 	mov  1, %i1
    2cb4:	80 a5 7f fc 	cmp  %l5, -4
    2cb8:	06 80 00 54 	bl  2e08 <print_exponential_number+0x564>
    2cbc:	b6 10 20 01 	mov  1, %i3
    2cc0:	b2 0e 40 1b 	and  %i1, %i3, %i1
    2cc4:	b2 8e 60 ff 	andcc  %i1, 0xff, %i1
    2cc8:	02 80 00 03 	be  2cd4 <print_exponential_number+0x430>
    2ccc:	84 00 bf ff 	add  %g2, -1, %g2
    2cd0:	84 20 80 15 	sub  %g2, %l5, %g2
    2cd4:	a8 38 00 02 	xnor  %g0, %g2, %l4
    2cd8:	ba 17 68 00 	or  %i5, 0x800, %i5
    2cdc:	a9 3d 20 1f 	sra  %l4, 0x1f, %l4
    2ce0:	80 a6 60 00 	cmp  %i1, 0
    2ce4:	02 bf ff 82 	be  2aec <print_exponential_number+0x248>
    2ce8:	a8 08 80 14 	and  %g2, %l4, %l4
    2cec:	80 a0 60 00 	cmp  %g1, 0
    2cf0:	02 bf ff 85 	be  2b04 <print_exponential_number+0x260>
    2cf4:	82 07 bf e8 	add  %fp, -24, %g1
    2cf8:	10 80 00 0e 	b  2d30 <print_exponential_number+0x48c>
    2cfc:	91 a0 00 a8 	fnegs  %f8, %f8
    2d00:	86 20 40 1b 	sub  %g1, %i3, %g3
    2d04:	80 a7 00 03 	cmp  %i4, %g3
    2d08:	18 bf ff d0 	bgu  2c48 <print_exponential_number+0x3a4>
    2d0c:	84 00 60 01 	add  %g1, 1, %g2
    2d10:	81 c7 e0 08 	ret 
    2d14:	81 e8 00 00 	restore 
    2d18:	c4 06 20 08 	ld  [ %i0 + 8 ], %g2
    2d1c:	10 bf ff c6 	b  2c34 <print_exponential_number+0x390>
    2d20:	fa 28 80 01 	stb  %i5, [ %g2 + %g1 ]
    2d24:	10 bf ff 92 	b  2b6c <print_exponential_number+0x2c8>
    2d28:	82 27 00 10 	sub  %i4, %l0, %g1
    2d2c:	82 07 bf e8 	add  %fp, -24, %g1
    2d30:	d1 3f bf c8 	std  %f8, [ %fp + -56 ]
    2d34:	c2 23 a0 40 	st  %g1, [ %sp + 0x40 ]
    2d38:	d0 1f bf c8 	ldd  [ %fp + -56 ], %o0
    2d3c:	94 10 00 14 	mov  %l4, %o2
    2d40:	7f ff fc 5a 	call  1ea8 <get_components>
    2d44:	01 00 00 00 	nop 
    2d48:	00 00 00 18 	unimp  0x18
    2d4c:	80 a6 60 00 	cmp  %i1, 0
    2d50:	f4 1f bf e8 	ldd  [ %fp + -24 ], %i2
    2d54:	e2 07 bf f0 	ld  [ %fp + -16 ], %l1
    2d58:	e0 07 bf f4 	ld  [ %fp + -12 ], %l0
    2d5c:	12 bf ff 77 	bne  2b38 <print_exponential_number+0x294>
    2d60:	ec 0f bf f8 	ldub  [ %fp + -8 ], %l6
    2d64:	90 10 00 1a 	mov  %i2, %o0
    2d68:	94 10 00 11 	mov  %l1, %o2
    2d6c:	92 10 00 1b 	mov  %i3, %o1
    2d70:	80 a2 20 00 	cmp  %o0, 0
    2d74:	14 80 00 48 	bg  2e94 <print_exponential_number+0x5f0>
    2d78:	96 10 00 10 	mov  %l0, %o3
    2d7c:	80 a2 20 00 	cmp  %o0, 0
    2d80:	02 80 00 aa 	be  3028 <print_exponential_number+0x784>
    2d84:	80 a2 60 09 	cmp  %o1, 9
    2d88:	82 05 60 63 	add  %l5, 0x63, %g1
    2d8c:	80 a0 60 c6 	cmp  %g1, 0xc6
    2d90:	18 80 00 03 	bgu  2d9c <print_exponential_number+0x4f8>
    2d94:	a0 10 20 05 	mov  5, %l0
    2d98:	a0 10 20 04 	mov  4, %l0
    2d9c:	b4 8f 60 02 	andcc  %i5, 2, %i2
    2da0:	12 bf ff 73 	bne  2b6c <print_exponential_number+0x2c8>
    2da4:	82 10 20 00 	clr  %g1
    2da8:	10 bf ff 6f 	b  2b64 <print_exponential_number+0x2c0>
    2dac:	80 a7 00 10 	cmp  %i4, %l0
    2db0:	b2 10 20 00 	clr  %i1
    2db4:	80 a5 7f fc 	cmp  %l5, -4
    2db8:	16 bf ff c2 	bge  2cc0 <print_exponential_number+0x41c>
    2dbc:	b6 10 20 01 	mov  1, %i3
    2dc0:	10 80 00 13 	b  2e0c <print_exponential_number+0x568>
    2dc4:	b6 10 20 00 	clr  %i3
    2dc8:	06 bf ff 60 	bl  2b48 <print_exponential_number+0x2a4>
    2dcc:	90 10 00 1a 	mov  %i2, %o0
    2dd0:	40 00 0c 27 	call  5e6c <__floatdidf>
    2dd4:	92 10 00 1b 	mov  %i3, %o1
    2dd8:	a4 05 60 01 	add  %l5, 1, %l2
    2ddc:	05 00 00 38 	sethi  %hi(0xe000), %g2
    2de0:	83 2c a0 03 	sll  %l2, 3, %g1
    2de4:	84 10 a0 00 	mov  %g2, %g2
    2de8:	d1 18 80 01 	ldd  [ %g2 + %g1 ], %f8
    2dec:	81 a8 0a 48 	fcmpd  %f0, %f8
    2df0:	01 00 00 00 	nop 
    2df4:	03 bf ff 56 	fbne  2b4c <print_exponential_number+0x2a8>
    2df8:	90 10 00 1a 	mov  %i2, %o0
    2dfc:	a8 05 3f ff 	add  %l4, -1, %l4
    2e00:	10 bf ff 53 	b  2b4c <print_exponential_number+0x2a8>
    2e04:	aa 10 00 12 	mov  %l2, %l5
    2e08:	b6 10 20 00 	clr  %i3
    2e0c:	b2 0e 40 1b 	and  %i1, %i3, %i1
    2e10:	b2 8e 60 ff 	andcc  %i1, 0xff, %i1
    2e14:	02 bf ff b0 	be  2cd4 <print_exponential_number+0x430>
    2e18:	84 00 bf ff 	add  %g2, -1, %g2
    2e1c:	10 bf ff ae 	b  2cd4 <print_exponential_number+0x430>
    2e20:	84 20 80 15 	sub  %g2, %l5, %g2
    2e24:	81 c7 e0 08 	ret 
    2e28:	81 e8 00 00 	restore 
    2e2c:	b6 88 e0 ff 	andcc  %g3, 0xff, %i3
    2e30:	02 80 00 3d 	be  2f24 <print_exponential_number+0x680>
    2e34:	84 25 00 15 	sub  %l4, %l5, %g2
    2e38:	80 a0 a1 32 	cmp  %g2, 0x132
    2e3c:	04 80 00 3d 	ble  2f30 <print_exponential_number+0x68c>
    2e40:	95 a2 09 4c 	fmuld  %f8, %f12, %f10
    2e44:	80 a0 60 00 	cmp  %g1, 0
    2e48:	32 80 00 02 	bne,a   2e50 <print_exponential_number+0x5ac>
    2e4c:	95 a0 00 aa 	fnegs  %f10, %f10
    2e50:	82 07 bf e8 	add  %fp, -24, %g1
    2e54:	d5 3f bf c8 	std  %f10, [ %fp + -56 ]
    2e58:	c2 23 a0 40 	st  %g1, [ %sp + 0x40 ]
    2e5c:	d0 1f bf c8 	ldd  [ %fp + -56 ], %o0
    2e60:	94 10 00 14 	mov  %l4, %o2
    2e64:	7f ff fc 11 	call  1ea8 <get_components>
    2e68:	01 00 00 00 	nop 
    2e6c:	00 00 00 18 	unimp  0x18
    2e70:	e0 1f bf e8 	ldd  [ %fp + -24 ], %l0
    2e74:	f4 1f bf f0 	ldd  [ %fp + -16 ], %i2
    2e78:	ec 0f bf f8 	ldub  [ %fp + -8 ], %l6
    2e7c:	90 10 00 10 	mov  %l0, %o0
    2e80:	92 10 00 11 	mov  %l1, %o1
    2e84:	94 10 00 1a 	mov  %i2, %o2
    2e88:	80 a2 20 00 	cmp  %o0, 0
    2e8c:	04 bf ff bd 	ble  2d80 <print_exponential_number+0x4dc>
    2e90:	96 10 00 1b 	mov  %i3, %o3
    2e94:	aa 05 60 01 	inc  %l5
    2e98:	94 10 20 00 	clr  %o2
    2e9c:	96 10 20 00 	clr  %o3
    2ea0:	90 10 20 00 	clr  %o0
    2ea4:	10 bf ff b9 	b  2d88 <print_exponential_number+0x4e4>
    2ea8:	92 10 20 01 	mov  1, %o1
    2eac:	9b a0 00 2b 	fmovs  %f11, %f13
    2eb0:	88 10 20 00 	clr  %g4
    2eb4:	10 bf ff 74 	b  2c84 <print_exponential_number+0x3e0>
    2eb8:	86 10 20 00 	clr  %g3
    2ebc:	97 a0 1a 4c 	fdtoi  %f12, %f11
    2ec0:	d7 27 bf bc 	st  %f11, [ %fp + -68 ]
    2ec4:	95 a0 19 0b 	fitod  %f11, %f10
    2ec8:	81 ab 0a 4a 	fcmpd  %f12, %f10
    2ecc:	01 00 00 00 	nop 
    2ed0:	13 bf fe b7 	fbe  29ac <print_exponential_number+0x108>
    2ed4:	ea 07 bf bc 	ld  [ %fp + -68 ], %l5
    2ed8:	10 bf fe b5 	b  29ac <print_exponential_number+0x108>
    2edc:	aa 05 7f ff 	add  %l5, -1, %l5
    2ee0:	86 a0 00 15 	subcc  %g0, %l5, %g3
    2ee4:	82 10 20 05 	mov  5, %g1
    2ee8:	84 60 00 02 	subx  %g0, %g2, %g2
    2eec:	a0 04 3f ff 	add  %l0, -1, %l0
    2ef0:	c2 23 a0 60 	st  %g1, [ %sp + 0x60 ]
    2ef4:	e0 23 a0 5c 	st  %l0, [ %sp + 0x5c ]
    2ef8:	90 10 00 18 	mov  %i0, %o0
    2efc:	92 10 00 02 	mov  %g2, %o1
    2f00:	94 10 00 03 	mov  %g3, %o2
    2f04:	97 35 60 1f 	srl  %l5, 0x1f, %o3
    2f08:	98 10 20 0a 	mov  0xa, %o4
    2f0c:	7f ff fc b3 	call  21d8 <print_integer>
    2f10:	9a 10 20 00 	clr  %o5
    2f14:	80 a6 a0 00 	cmp  %i2, 0
    2f18:	12 bf ff 47 	bne  2c34 <print_exponential_number+0x390>
    2f1c:	ba 10 20 20 	mov  0x20, %i5
    2f20:	30 bf ff c1 	b,a   2e24 <print_exponential_number+0x580>
    2f24:	80 a0 a1 32 	cmp  %g2, 0x132
    2f28:	14 bf ff c7 	bg  2e44 <print_exponential_number+0x5a0>
    2f2c:	95 a2 09 cc 	fdivd  %f8, %f12, %f10
    2f30:	d5 3f bf c8 	std  %f10, [ %fp + -56 ]
    2f34:	d1 3f bf d8 	std  %f8, [ %fp + -40 ]
    2f38:	d9 3f bf d0 	std  %f12, [ %fp + -48 ]
    2f3c:	40 00 0b 6e 	call  5cf4 <__fixdfdi>
    2f40:	d0 1f bf c8 	ldd  [ %fp + -56 ], %o0
    2f44:	a0 10 00 08 	mov  %o0, %l0
    2f48:	40 00 0b c9 	call  5e6c <__floatdidf>
    2f4c:	a2 10 00 09 	mov  %o1, %l1
    2f50:	80 a6 e0 00 	cmp  %i3, 0
    2f54:	d1 1f bf d8 	ldd  [ %fp + -40 ], %f8
    2f58:	02 80 00 4f 	be  3094 <print_exponential_number+0x7f0>
    2f5c:	d9 1f bf d0 	ldd  [ %fp + -48 ], %f12
    2f60:	81 a0 09 cc 	fdivd  %f0, %f12, %f0
    2f64:	83 2d 20 03 	sll  %l4, 3, %g1
    2f68:	05 00 00 38 	sethi  %hi(0xe000), %g2
    2f6c:	91 a2 08 c0 	fsubd  %f8, %f0, %f8
    2f70:	84 10 a0 00 	mov  %g2, %g2
    2f74:	d5 18 80 01 	ldd  [ %g2 + %g1 ], %f10
    2f78:	d5 3f bf e0 	std  %f10, [ %fp + -32 ]
    2f7c:	99 a3 09 4a 	fmuld  %f12, %f10, %f12
    2f80:	91 a2 09 4c 	fmuld  %f8, %f12, %f8
    2f84:	d1 3f bf c8 	std  %f8, [ %fp + -56 ]
    2f88:	d1 3f bf d8 	std  %f8, [ %fp + -40 ]
    2f8c:	40 00 0b 5a 	call  5cf4 <__fixdfdi>
    2f90:	d0 1f bf c8 	ldd  [ %fp + -56 ], %o0
    2f94:	a4 10 00 08 	mov  %o0, %l2
    2f98:	40 00 0b b5 	call  5e6c <__floatdidf>
    2f9c:	a6 10 00 09 	mov  %o1, %l3
    2fa0:	d1 1f bf d8 	ldd  [ %fp + -40 ], %f8
    2fa4:	03 00 00 38 	sethi  %hi(0xe000), %g1
    2fa8:	81 a2 08 c0 	fsubd  %f8, %f0, %f0
    2fac:	84 10 20 00 	clr  %g2
    2fb0:	d1 18 62 b8 	ldd  [ %g1 + 0x2b8 ], %f8
    2fb4:	81 a8 0a c8 	fcmped  %f0, %f8
    2fb8:	01 00 00 00 	nop 
    2fbc:	17 80 00 05 	fbge  2fd0 <print_exponential_number+0x72c>
    2fc0:	86 10 20 01 	mov  1, %g3	! 1 <_start+0x1>
    2fc4:	84 10 20 00 	clr  %g2
    2fc8:	86 10 20 00 	clr  %g3
    2fcc:	d1 18 62 b8 	ldd  [ %g1 + 0x2b8 ], %f8
    2fd0:	b6 84 c0 03 	addcc  %l3, %g3, %i3
    2fd4:	81 a8 0a 48 	fcmpd  %f0, %f8
    2fd8:	01 00 00 00 	nop 
    2fdc:	03 80 00 04 	fbne  2fec <print_exponential_number+0x748>
    2fe0:	b4 44 80 02 	addx  %l2, %g2, %i2
    2fe4:	b4 0e bf ff 	and  %i2, -1, %i2
    2fe8:	b6 0e ff fe 	and  %i3, -2, %i3
    2fec:	90 10 00 1a 	mov  %i2, %o0
    2ff0:	40 00 0b 9f 	call  5e6c <__floatdidf>
    2ff4:	92 10 00 1b 	mov  %i3, %o1
    2ff8:	d9 1f bf e0 	ldd  [ %fp + -32 ], %f12
    2ffc:	81 a8 0a cc 	fcmped  %f0, %f12
    3000:	01 00 00 00 	nop 
    3004:	07 bf ff 9e 	fbul  2e7c <print_exponential_number+0x5d8>
    3008:	01 00 00 00 	nop 
    300c:	86 84 60 01 	addcc  %l1, 1, %g3
    3010:	b4 10 20 00 	clr  %i2
    3014:	84 44 20 00 	addx  %l0, 0, %g2
    3018:	a2 10 00 03 	mov  %g3, %l1
    301c:	a0 10 00 02 	mov  %g2, %l0
    3020:	10 bf ff 97 	b  2e7c <print_exponential_number+0x5d8>
    3024:	b6 10 20 00 	clr  %i3
    3028:	08 bf ff 59 	bleu  2d8c <print_exponential_number+0x4e8>
    302c:	82 05 60 63 	add  %l5, 0x63, %g1
    3030:	10 bf ff 9a 	b  2e98 <print_exponential_number+0x5f4>
    3034:	aa 05 60 01 	inc  %l5
    3038:	c2 06 20 08 	ld  [ %i0 + 8 ], %g1
    303c:	c6 28 40 02 	stb  %g3, [ %g1 + %g2 ]
    3040:	80 a5 60 00 	cmp  %l5, 0
    3044:	86 10 00 15 	mov  %l5, %g3
    3048:	14 bf fe ed 	bg  2bfc <print_exponential_number+0x358>
    304c:	85 3d 60 1f 	sra  %l5, 0x1f, %g2
    3050:	10 bf ff a5 	b  2ee4 <print_exponential_number+0x640>
    3054:	86 a0 00 15 	subcc  %g0, %l5, %g3
    3058:	97 a0 1a 4c 	fdtoi  %f12, %f11
    305c:	d7 27 bf bc 	st  %f11, [ %fp + -68 ]
    3060:	a1 a0 19 0b 	fitod  %f11, %f16
    3064:	81 ab 0a 50 	fcmpd  %f12, %f16
    3068:	01 00 00 00 	nop 
    306c:	13 bf fe 64 	fbe  29fc <print_exponential_number+0x158>
    3070:	c4 07 bf bc 	ld  [ %fp + -68 ], %g2
    3074:	84 00 bf ff 	add  %g2, -1, %g2
    3078:	c4 27 bf bc 	st  %g2, [ %fp + -68 ]
    307c:	d9 07 bf bc 	ld  [ %fp + -68 ], %f12
    3080:	10 bf fe 5f 	b  29fc <print_exponential_number+0x158>
    3084:	a1 a0 19 0c 	fitod  %f12, %f16
    3088:	05 00 00 38 	sethi  %hi(0xe000), %g2
    308c:	10 bf fe 7e 	b  2a84 <print_exponential_number+0x1e0>
    3090:	d5 18 a2 c0 	ldd  [ %g2 + 0x2c0 ], %f10	! e2c0 <__clz_tab+0x230>
    3094:	83 2d 20 03 	sll  %l4, 3, %g1
    3098:	05 00 00 38 	sethi  %hi(0xe000), %g2
    309c:	d9 27 bf bc 	st  %f12, [ %fp + -68 ]
    30a0:	84 10 a0 00 	mov  %g2, %g2
    30a4:	e1 18 80 01 	ldd  [ %g2 + %g1 ], %f16
    30a8:	c2 07 bf bc 	ld  [ %fp + -68 ], %g1
    30ac:	e1 3f bf e0 	std  %f16, [ %fp + -32 ]
    30b0:	b7 30 60 14 	srl  %g1, 0x14, %i3
    30b4:	c2 07 bf e0 	ld  [ %fp + -32 ], %g1
    30b8:	b6 0e e7 ff 	and  %i3, 0x7ff, %i3
    30bc:	87 30 60 14 	srl  %g1, 0x14, %g3
    30c0:	82 06 fc 01 	add  %i3, -1023, %g1
    30c4:	86 08 e7 ff 	and  %g3, 0x7ff, %g3
    30c8:	89 38 60 1f 	sra  %g1, 0x1f, %g4
    30cc:	84 00 fc 01 	add  %g3, -1023, %g2
    30d0:	81 a3 09 40 	fmuld  %f12, %f0, %f0
    30d4:	86 19 00 01 	xor  %g4, %g1, %g3
    30d8:	83 38 a0 1f 	sra  %g2, 0x1f, %g1
    30dc:	88 20 c0 04 	sub  %g3, %g4, %g4
    30e0:	84 18 40 02 	xor  %g1, %g2, %g2
    30e4:	82 20 80 01 	sub  %g2, %g1, %g1
    30e8:	80 a1 00 01 	cmp  %g4, %g1
    30ec:	04 80 00 05 	ble  3100 <print_exponential_number+0x85c>
    30f0:	91 a2 08 c0 	fsubd  %f8, %f0, %f8
    30f4:	99 a3 09 d0 	fdivd  %f12, %f16, %f12
    30f8:	10 bf ff a3 	b  2f84 <print_exponential_number+0x6e0>
    30fc:	91 a2 09 cc 	fdivd  %f8, %f12, %f8
    3100:	d5 1f bf e0 	ldd  [ %fp + -32 ], %f10
    3104:	10 bf ff 9f 	b  2f80 <print_exponential_number+0x6dc>
    3108:	99 a2 89 cc 	fdivd  %f10, %f12, %f12

0000310c <print_floating_point>:
    310c:	9d e3 bf 48 	save  %sp, -184, %sp
    3110:	f2 27 bf c0 	st  %i1, [ %fp + -64 ]
    3114:	f4 27 bf c4 	st  %i2, [ %fp + -60 ]
    3118:	d1 1f bf c0 	ldd  [ %fp + -64 ], %f8
    311c:	81 aa 0a 48 	fcmpd  %f8, %f8
    3120:	01 00 00 00 	nop 
    3124:	03 80 00 40 	fbne  3224 <print_floating_point+0x118>
    3128:	c6 0f a0 5f 	ldub  [ %fp + 0x5f ], %g3
    312c:	03 00 00 38 	sethi  %hi(0xe000), %g1
    3130:	d5 18 63 40 	ldd  [ %g1 + 0x340 ], %f10	! e340 <__clz_tab+0x2b0>
    3134:	81 aa 0a ca 	fcmped  %f8, %f10
    3138:	01 00 00 00 	nop 
    313c:	09 80 00 43 	fbl  3248 <print_floating_point+0x13c>
    3140:	03 00 00 38 	sethi  %hi(0xe000), %g1
    3144:	d5 18 63 48 	ldd  [ %g1 + 0x348 ], %f10	! e348 <__clz_tab+0x2b8>
    3148:	81 aa 0a ca 	fcmped  %f8, %f10
    314c:	01 00 00 00 	nop 
    3150:	1d 80 00 0e 	fbule  3188 <print_floating_point+0x7c>
    3154:	01 00 00 00 	nop 
    3158:	80 8f 60 04 	btst  4, %i5
    315c:	12 80 00 52 	bne  32a4 <print_floating_point+0x198>
    3160:	94 10 20 04 	mov  4, %o2
    3164:	94 10 20 03 	mov  3, %o2
    3168:	13 00 00 38 	sethi  %hi(0xe000), %o1
    316c:	90 10 00 18 	mov  %i0, %o0
    3170:	92 12 63 68 	or  %o1, 0x368, %o1
    3174:	96 10 00 1c 	mov  %i4, %o3
    3178:	7f ff fb c1 	call  207c <out_rev_>
    317c:	98 10 00 1d 	mov  %i5, %o4
    3180:	81 c7 e0 08 	ret 
    3184:	81 e8 00 00 	restore 
    3188:	80 a0 e0 00 	cmp  %g3, 0
    318c:	02 80 00 38 	be  326c <print_floating_point+0x160>
    3190:	03 00 00 38 	sethi  %hi(0xe000), %g1
    3194:	80 8f 68 00 	btst  0x800, %i5
    3198:	02 80 00 4b 	be  32c4 <print_floating_point+0x1b8>
    319c:	b4 10 20 00 	clr  %i2
    31a0:	80 a6 e0 11 	cmp  %i3, 0x11
    31a4:	08 80 00 10 	bleu  31e4 <print_floating_point+0xd8>
    31a8:	b2 07 bf e0 	add  %fp, -32, %i1
    31ac:	10 80 00 09 	b  31d0 <print_floating_point+0xc4>
    31b0:	84 10 20 30 	mov  0x30, %g2
    31b4:	80 a6 e0 11 	cmp  %i3, 0x11
    31b8:	18 80 00 03 	bgu  31c4 <print_floating_point+0xb8>
    31bc:	82 10 20 01 	mov  1, %g1
    31c0:	82 10 20 00 	clr  %g1
    31c4:	80 88 60 ff 	btst  0xff, %g1
    31c8:	02 80 00 08 	be  31e8 <print_floating_point+0xdc>
    31cc:	80 a0 e0 00 	cmp  %g3, 0
    31d0:	c4 2e 40 1a 	stb  %g2, [ %i1 + %i2 ]
    31d4:	b4 06 a0 01 	inc  %i2
    31d8:	80 a6 a0 1f 	cmp  %i2, 0x1f
    31dc:	08 bf ff f6 	bleu  31b4 <print_floating_point+0xa8>
    31e0:	b6 06 ff ff 	add  %i3, -1, %i3
    31e4:	80 a0 e0 00 	cmp  %g3, 0
    31e8:	02 80 00 3a 	be  32d0 <print_floating_point+0x1c4>
    31ec:	82 07 bf c8 	add  %fp, -56, %g1
    31f0:	f2 23 a0 5c 	st  %i1, [ %sp + 0x5c ]
    31f4:	f4 23 a0 60 	st  %i2, [ %sp + 0x60 ]
    31f8:	d1 3f bf c0 	std  %f8, [ %fp + -64 ]
    31fc:	c4 1f bf c0 	ldd  [ %fp + -64 ], %g2
    3200:	90 10 00 18 	mov  %i0, %o0
    3204:	92 10 00 02 	mov  %g2, %o1
    3208:	94 10 00 03 	mov  %g3, %o2
    320c:	96 10 00 1b 	mov  %i3, %o3
    3210:	98 10 00 1c 	mov  %i4, %o4
    3214:	7f ff fd a4 	call  28a4 <print_exponential_number>
    3218:	9a 10 00 1d 	mov  %i5, %o5
    321c:	81 c7 e0 08 	ret 
    3220:	81 e8 00 00 	restore 
    3224:	90 10 00 18 	mov  %i0, %o0
    3228:	13 00 00 38 	sethi  %hi(0xe000), %o1
    322c:	94 10 20 03 	mov  3, %o2
    3230:	92 12 63 70 	or  %o1, 0x370, %o1
    3234:	96 10 00 1c 	mov  %i4, %o3
    3238:	7f ff fb 91 	call  207c <out_rev_>
    323c:	98 10 00 1d 	mov  %i5, %o4
    3240:	81 c7 e0 08 	ret 
    3244:	81 e8 00 00 	restore 
    3248:	90 10 00 18 	mov  %i0, %o0
    324c:	13 00 00 38 	sethi  %hi(0xe000), %o1
    3250:	94 10 20 04 	mov  4, %o2
    3254:	92 12 63 78 	or  %o1, 0x378, %o1
    3258:	96 10 00 1c 	mov  %i4, %o3
    325c:	7f ff fb 88 	call  207c <out_rev_>
    3260:	98 10 00 1d 	mov  %i5, %o4
    3264:	81 c7 e0 08 	ret 
    3268:	81 e8 00 00 	restore 
    326c:	d5 18 63 50 	ldd  [ %g1 + 0x350 ], %f10
    3270:	81 aa 0a ca 	fcmped  %f8, %f10
    3274:	01 00 00 00 	nop 
    3278:	0d 80 00 07 	fbg  3294 <print_floating_point+0x188>
    327c:	03 00 00 38 	sethi  %hi(0xe000), %g1
    3280:	d5 18 63 58 	ldd  [ %g1 + 0x358 ], %f10	! e358 <__clz_tab+0x2c8>
    3284:	81 aa 0a ca 	fcmped  %f8, %f10
    3288:	01 00 00 00 	nop 
    328c:	19 bf ff c2 	fbuge  3194 <print_floating_point+0x88>
    3290:	01 00 00 00 	nop 
    3294:	82 07 bf e0 	add  %fp, -32, %g1
    3298:	c0 23 a0 60 	clr  [ %sp + 0x60 ]
    329c:	10 bf ff d7 	b  31f8 <print_floating_point+0xec>
    32a0:	c2 23 a0 5c 	st  %g1, [ %sp + 0x5c ]
    32a4:	13 00 00 38 	sethi  %hi(0xe000), %o1
    32a8:	90 10 00 18 	mov  %i0, %o0
    32ac:	92 12 63 60 	or  %o1, 0x360, %o1
    32b0:	96 10 00 1c 	mov  %i4, %o3
    32b4:	7f ff fb 72 	call  207c <out_rev_>
    32b8:	98 10 00 1d 	mov  %i5, %o4
    32bc:	81 c7 e0 08 	ret 
    32c0:	81 e8 00 00 	restore 
    32c4:	b6 10 20 06 	mov  6, %i3
    32c8:	10 bf ff c7 	b  31e4 <print_floating_point+0xd8>
    32cc:	b2 07 bf e0 	add  %fp, -32, %i1
    32d0:	d1 3f bf c0 	std  %f8, [ %fp + -64 ]
    32d4:	94 10 00 1b 	mov  %i3, %o2
    32d8:	d0 1f bf c0 	ldd  [ %fp + -64 ], %o0
    32dc:	c2 23 a0 40 	st  %g1, [ %sp + 0x40 ]
    32e0:	7f ff fa f2 	call  1ea8 <get_components>
    32e4:	01 00 00 00 	nop 
    32e8:	00 00 00 18 	unimp  0x18
    32ec:	d0 1f bf c8 	ldd  [ %fp + -56 ], %o0
    32f0:	d8 0f bf d8 	ldub  [ %fp + -40 ], %o4
    32f4:	f6 23 a0 5c 	st  %i3, [ %sp + 0x5c ]
    32f8:	f8 23 a0 60 	st  %i4, [ %sp + 0x60 ]
    32fc:	fa 23 a0 64 	st  %i5, [ %sp + 0x64 ]
    3300:	f2 23 a0 68 	st  %i1, [ %sp + 0x68 ]
    3304:	f4 23 a0 6c 	st  %i2, [ %sp + 0x6c ]
    3308:	d4 1f bf d0 	ldd  [ %fp + -48 ], %o2
    330c:	7f ff fc 9a 	call  2574 <print_broken_up_decimal.isra.4>
    3310:	9a 10 00 18 	mov  %i0, %o5
    3314:	81 c7 e0 08 	ret 
    3318:	81 e8 00 00 	restore 

0000331c <_vsnprintf>:
    331c:	9d e3 bf 48 	save  %sp, -184, %sp
    3320:	25 00 00 08 	sethi  %hi(0x2000), %l2
    3324:	27 00 00 38 	sethi  %hi(0xe000), %l3
    3328:	29 1f ff ff 	sethi  %hi(0x7ffffc00), %l4
    332c:	2d 00 00 38 	sethi  %hi(0xe000), %l6
    3330:	2b 00 00 3f 	sethi  %hi(0xfc00), %l5
    3334:	a4 14 a0 01 	or  %l2, 1, %l2
    3338:	a6 14 e3 88 	or  %l3, 0x388, %l3
    333c:	a8 15 23 ff 	or  %l4, 0x3ff, %l4
    3340:	ac 15 a3 80 	or  %l6, 0x380, %l6
    3344:	aa 15 63 ff 	or  %l5, 0x3ff, %l5
    3348:	d0 4e 40 00 	ldsb  [ %i1 ], %o0
    334c:	80 a2 20 00 	cmp  %o0, 0
    3350:	02 80 00 17 	be  33ac <_vsnprintf+0x90>
    3354:	c6 0e 40 00 	ldub  [ %i1 ], %g3
    3358:	80 a2 20 25 	cmp  %o0, 0x25
    335c:	22 80 00 1b 	be,a   33c8 <_vsnprintf+0xac>
    3360:	b2 06 60 02 	add  %i1, 2, %i1
    3364:	c2 06 20 0c 	ld  [ %i0 + 0xc ], %g1
    3368:	84 00 60 01 	add  %g1, 1, %g2
    336c:	c4 26 20 0c 	st  %g2, [ %i0 + 0xc ]
    3370:	c4 06 20 10 	ld  [ %i0 + 0x10 ], %g2
    3374:	80 a0 40 02 	cmp  %g1, %g2
    3378:	3a 80 00 09 	bcc,a   339c <_vsnprintf+0x80>
    337c:	b2 06 60 01 	inc  %i1
    3380:	c4 06 00 00 	ld  [ %i0 ], %g2
    3384:	80 a0 a0 00 	cmp  %g2, 0
    3388:	22 80 00 67 	be,a   3524 <_vsnprintf+0x208>
    338c:	c4 06 20 08 	ld  [ %i0 + 8 ], %g2
    3390:	9f c0 80 00 	call  %g2
    3394:	d2 06 20 04 	ld  [ %i0 + 4 ], %o1
    3398:	b2 06 60 01 	inc  %i1
    339c:	d0 4e 40 00 	ldsb  [ %i1 ], %o0
    33a0:	80 a2 20 00 	cmp  %o0, 0
    33a4:	12 bf ff ed 	bne  3358 <_vsnprintf+0x3c>
    33a8:	c6 0e 40 00 	ldub  [ %i1 ], %g3
    33ac:	c2 06 00 00 	ld  [ %i0 ], %g1
    33b0:	80 a0 60 00 	cmp  %g1, 0
    33b4:	22 80 01 ca 	be,a   3adc <_vsnprintf+0x7c0>
    33b8:	c2 06 20 10 	ld  [ %i0 + 0x10 ], %g1
    33bc:	f0 06 20 0c 	ld  [ %i0 + 0xc ], %i0
    33c0:	81 c7 e0 08 	ret 
    33c4:	81 e8 00 00 	restore 
    33c8:	b6 10 20 00 	clr  %i3
    33cc:	09 00 00 07 	sethi  %hi(0x1c00), %g4
    33d0:	c2 0e 7f ff 	ldub  [ %i1 + -1 ], %g1
    33d4:	84 00 7f e0 	add  %g1, -32, %g2
    33d8:	84 08 a0 ff 	and  %g2, 0xff, %g2
    33dc:	80 a0 a0 10 	cmp  %g2, 0x10
    33e0:	08 80 00 3d 	bleu  34d4 <_vsnprintf+0x1b8>
    33e4:	ba 06 7f ff 	add  %i1, -1, %i5
    33e8:	84 00 7f d0 	add  %g1, -48, %g2
    33ec:	84 08 a0 ff 	and  %g2, 0xff, %g2
    33f0:	80 a0 a0 09 	cmp  %g2, 9
    33f4:	18 80 00 4f 	bgu  3530 <_vsnprintf+0x214>
    33f8:	86 10 00 1d 	mov  %i5, %g3
    33fc:	b8 10 20 00 	clr  %i4
    3400:	84 07 00 1c 	add  %i4, %i4, %g2
    3404:	83 28 60 18 	sll  %g1, 0x18, %g1
    3408:	83 38 60 18 	sra  %g1, 0x18, %g1
    340c:	b9 2f 20 03 	sll  %i4, 3, %i4
    3410:	ba 07 60 01 	inc  %i5
    3414:	b8 00 80 1c 	add  %g2, %i4, %i4
    3418:	b8 07 00 01 	add  %i4, %g1, %i4
    341c:	c2 0f 40 00 	ldub  [ %i5 ], %g1
    3420:	84 00 7f d0 	add  %g1, -48, %g2
    3424:	84 08 a0 ff 	and  %g2, 0xff, %g2
    3428:	80 a0 a0 09 	cmp  %g2, 9
    342c:	08 bf ff f5 	bleu  3400 <_vsnprintf+0xe4>
    3430:	b8 07 3f d0 	add  %i4, -48, %i4
    3434:	85 28 60 18 	sll  %g1, 0x18, %g2
    3438:	85 38 a0 18 	sra  %g2, 0x18, %g2
    343c:	80 a0 a0 2e 	cmp  %g2, 0x2e
    3440:	02 80 00 4d 	be  3574 <_vsnprintf+0x258>
    3444:	a0 10 20 00 	clr  %l0
    3448:	84 00 7f 98 	add  %g1, -104, %g2
    344c:	84 08 a0 ff 	and  %g2, 0xff, %g2
    3450:	80 a0 a0 12 	cmp  %g2, 0x12
    3454:	38 80 00 0c 	bgu,a   3484 <_vsnprintf+0x168>
    3458:	84 00 7f db 	add  %g1, -37, %g2
    345c:	85 28 a0 02 	sll  %g2, 2, %g2
    3460:	07 00 00 07 	sethi  %hi(0x1c00), %g3
    3464:	86 10 e2 5c 	or  %g3, 0x25c, %g3	! 1e5c <__ajit_fstoi__+0x1a8>
    3468:	c4 00 c0 02 	ld  [ %g3 + %g2 ], %g2
    346c:	81 c0 80 00 	jmp  %g2
    3470:	01 00 00 00 	nop 
    3474:	c2 0f 60 01 	ldub  [ %i5 + 1 ], %g1
    3478:	b6 16 e2 00 	or  %i3, 0x200, %i3
    347c:	ba 07 60 01 	inc  %i5
    3480:	84 00 7f db 	add  %g1, -37, %g2
    3484:	84 08 a0 ff 	and  %g2, 0xff, %g2
    3488:	80 a0 a0 53 	cmp  %g2, 0x53
    348c:	08 80 00 35 	bleu  3560 <_vsnprintf+0x244>
    3490:	85 28 a0 02 	sll  %g2, 2, %g2
    3494:	c4 06 20 0c 	ld  [ %i0 + 0xc ], %g2
    3498:	86 00 a0 01 	add  %g2, 1, %g3
    349c:	c6 26 20 0c 	st  %g3, [ %i0 + 0xc ]
    34a0:	c6 06 20 10 	ld  [ %i0 + 0x10 ], %g3
    34a4:	80 a0 80 03 	cmp  %g2, %g3
    34a8:	1a bf ff a8 	bcc  3348 <_vsnprintf+0x2c>
    34ac:	b2 07 60 01 	add  %i5, 1, %i1
    34b0:	c6 06 00 00 	ld  [ %i0 ], %g3
    34b4:	80 a0 e0 00 	cmp  %g3, 0
    34b8:	02 80 01 fe 	be  3cb0 <_vsnprintf+0x994>
    34bc:	91 28 60 18 	sll  %g1, 0x18, %o0
    34c0:	d2 06 20 04 	ld  [ %i0 + 4 ], %o1
    34c4:	9f c0 c0 00 	call  %g3
    34c8:	91 3a 20 18 	sra  %o0, 0x18, %o0
    34cc:	10 bf ff 9f 	b  3348 <_vsnprintf+0x2c>
    34d0:	b2 07 60 01 	add  %i5, 1, %i1
    34d4:	86 11 22 18 	or  %g4, 0x218, %g3
    34d8:	85 28 a0 02 	sll  %g2, 2, %g2
    34dc:	c4 00 c0 02 	ld  [ %g3 + %g2 ], %g2
    34e0:	81 c0 80 00 	jmp  %g2
    34e4:	01 00 00 00 	nop 
    34e8:	b6 16 e0 01 	or  %i3, 1, %i3
    34ec:	10 bf ff b9 	b  33d0 <_vsnprintf+0xb4>
    34f0:	b2 06 60 01 	inc  %i1
    34f4:	b6 16 e0 02 	or  %i3, 2, %i3
    34f8:	10 bf ff b6 	b  33d0 <_vsnprintf+0xb4>
    34fc:	b2 06 60 01 	inc  %i1
    3500:	b6 16 e0 04 	or  %i3, 4, %i3
    3504:	10 bf ff b3 	b  33d0 <_vsnprintf+0xb4>
    3508:	b2 06 60 01 	inc  %i1
    350c:	b6 16 e0 10 	or  %i3, 0x10, %i3
    3510:	10 bf ff b0 	b  33d0 <_vsnprintf+0xb4>
    3514:	b2 06 60 01 	inc  %i1
    3518:	b6 16 e0 08 	or  %i3, 8, %i3
    351c:	10 bf ff ad 	b  33d0 <_vsnprintf+0xb4>
    3520:	b2 06 60 01 	inc  %i1
    3524:	b2 06 60 01 	inc  %i1
    3528:	10 bf ff 9d 	b  339c <_vsnprintf+0x80>
    352c:	c6 28 80 01 	stb  %g3, [ %g2 + %g1 ]
    3530:	85 28 60 18 	sll  %g1, 0x18, %g2
    3534:	89 38 a0 18 	sra  %g2, 0x18, %g4
    3538:	80 a1 20 2a 	cmp  %g4, 0x2a
    353c:	12 bf ff bf 	bne  3438 <_vsnprintf+0x11c>
    3540:	b8 10 20 00 	clr  %i4
    3544:	f8 06 80 00 	ld  [ %i2 ], %i4
    3548:	80 a7 20 00 	cmp  %i4, 0
    354c:	06 80 01 99 	bl  3bb0 <_vsnprintf+0x894>
    3550:	b4 06 a0 04 	add  %i2, 4, %i2
    3554:	c2 08 e0 01 	ldub  [ %g3 + 1 ], %g1
    3558:	10 bf ff b7 	b  3434 <_vsnprintf+0x118>
    355c:	ba 07 60 01 	inc  %i5
    3560:	07 00 00 07 	sethi  %hi(0x1c00), %g3
    3564:	86 10 e0 c8 	or  %g3, 0xc8, %g3	! 1cc8 <__ajit_fstoi__+0x14>
    3568:	c4 00 c0 02 	ld  [ %g3 + %g2 ], %g2
    356c:	81 c0 80 00 	jmp  %g2
    3570:	01 00 00 00 	nop 
    3574:	c2 0f 60 01 	ldub  [ %i5 + 1 ], %g1
    3578:	b6 16 e8 00 	or  %i3, 0x800, %i3
    357c:	86 00 7f d0 	add  %g1, -48, %g3
    3580:	86 08 e0 ff 	and  %g3, 0xff, %g3
    3584:	80 a0 e0 09 	cmp  %g3, 9
    3588:	18 80 00 11 	bgu  35cc <_vsnprintf+0x2b0>
    358c:	84 07 60 01 	add  %i5, 1, %g2
    3590:	86 04 00 10 	add  %l0, %l0, %g3
    3594:	83 28 60 18 	sll  %g1, 0x18, %g1
    3598:	83 38 60 18 	sra  %g1, 0x18, %g1
    359c:	a1 2c 20 03 	sll  %l0, 3, %l0
    35a0:	84 00 a0 01 	inc  %g2
    35a4:	a0 00 c0 10 	add  %g3, %l0, %l0
    35a8:	a0 04 00 01 	add  %l0, %g1, %l0
    35ac:	c2 08 80 00 	ldub  [ %g2 ], %g1
    35b0:	86 00 7f d0 	add  %g1, -48, %g3
    35b4:	86 08 e0 ff 	and  %g3, 0xff, %g3
    35b8:	80 a0 e0 09 	cmp  %g3, 9
    35bc:	08 bf ff f5 	bleu  3590 <_vsnprintf+0x274>
    35c0:	a0 04 3f d0 	add  %l0, -48, %l0
    35c4:	10 bf ff a1 	b  3448 <_vsnprintf+0x12c>
    35c8:	ba 10 00 02 	mov  %g2, %i5
    35cc:	87 28 60 18 	sll  %g1, 0x18, %g3
    35d0:	87 38 e0 18 	sra  %g3, 0x18, %g3
    35d4:	80 a0 e0 2a 	cmp  %g3, 0x2a
    35d8:	32 bf ff 9c 	bne,a   3448 <_vsnprintf+0x12c>
    35dc:	ba 10 00 02 	mov  %g2, %i5
    35e0:	c4 06 80 00 	ld  [ %i2 ], %g2
    35e4:	c2 0f 60 02 	ldub  [ %i5 + 2 ], %g1
    35e8:	a0 38 00 02 	xnor  %g0, %g2, %l0
    35ec:	b4 06 a0 04 	add  %i2, 4, %i2
    35f0:	a1 3c 20 1f 	sra  %l0, 0x1f, %l0
    35f4:	ba 07 60 02 	add  %i5, 2, %i5
    35f8:	10 bf ff 94 	b  3448 <_vsnprintf+0x12c>
    35fc:	a0 08 80 10 	and  %g2, %l0, %l0
    3600:	c4 4f 60 01 	ldsb  [ %i5 + 1 ], %g2
    3604:	80 a0 a0 6c 	cmp  %g2, 0x6c
    3608:	12 bf ff 9c 	bne  3478 <_vsnprintf+0x15c>
    360c:	c2 0f 60 01 	ldub  [ %i5 + 1 ], %g1
    3610:	c2 0f 60 02 	ldub  [ %i5 + 2 ], %g1
    3614:	b6 16 e6 00 	or  %i3, 0x600, %i3
    3618:	10 bf ff 9a 	b  3480 <_vsnprintf+0x164>
    361c:	ba 07 60 02 	add  %i5, 2, %i5
    3620:	c2 0f 60 01 	ldub  [ %i5 + 1 ], %g1
    3624:	b6 16 e4 00 	or  %i3, 0x400, %i3
    3628:	10 bf ff 96 	b  3480 <_vsnprintf+0x164>
    362c:	ba 07 60 01 	inc  %i5
    3630:	c4 4f 60 01 	ldsb  [ %i5 + 1 ], %g2
    3634:	80 a0 a0 68 	cmp  %g2, 0x68
    3638:	02 80 01 88 	be  3c58 <_vsnprintf+0x93c>
    363c:	c2 0f 60 01 	ldub  [ %i5 + 1 ], %g1
    3640:	b6 16 e0 80 	or  %i3, 0x80, %i3
    3644:	10 bf ff 8f 	b  3480 <_vsnprintf+0x164>
    3648:	ba 07 60 01 	inc  %i5
    364c:	c2 06 20 0c 	ld  [ %i0 + 0xc ], %g1
    3650:	84 00 60 01 	add  %g1, 1, %g2
    3654:	c4 26 20 0c 	st  %g2, [ %i0 + 0xc ]
    3658:	c4 06 20 10 	ld  [ %i0 + 0x10 ], %g2
    365c:	80 a0 40 02 	cmp  %g1, %g2
    3660:	1a bf ff 3a 	bcc  3348 <_vsnprintf+0x2c>
    3664:	b2 07 60 01 	add  %i5, 1, %i1
    3668:	c4 06 00 00 	ld  [ %i0 ], %g2
    366c:	80 a0 a0 00 	cmp  %g2, 0
    3670:	02 80 01 89 	be  3c94 <_vsnprintf+0x978>
    3674:	90 10 20 25 	mov  0x25, %o0
    3678:	9f c0 80 00 	call  %g2
    367c:	d2 06 20 04 	ld  [ %i0 + 4 ], %o1
    3680:	10 bf ff 33 	b  334c <_vsnprintf+0x30>
    3684:	d0 4e 40 00 	ldsb  [ %i1 ], %o0
    3688:	d4 06 80 00 	ld  [ %i2 ], %o2
    368c:	98 16 c0 12 	or  %i3, %l2, %o4
    3690:	80 a2 a0 00 	cmp  %o2, 0
    3694:	12 80 01 3b 	bne  3b80 <_vsnprintf+0x864>
    3698:	b4 06 a0 04 	add  %i2, 4, %i2
    369c:	90 10 00 18 	mov  %i0, %o0
    36a0:	92 10 00 13 	mov  %l3, %o1
    36a4:	94 10 20 05 	mov  5, %o2
    36a8:	96 10 20 0a 	mov  0xa, %o3
    36ac:	7f ff fa 74 	call  207c <out_rev_>
    36b0:	b2 07 60 01 	add  %i5, 1, %i1
    36b4:	10 bf ff 26 	b  334c <_vsnprintf+0x30>
    36b8:	d0 4e 40 00 	ldsb  [ %i1 ], %o0
    36bc:	c2 06 80 00 	ld  [ %i2 ], %g1
    36c0:	c4 06 20 0c 	ld  [ %i0 + 0xc ], %g2
    36c4:	80 8e e0 40 	btst  0x40, %i3
    36c8:	12 80 01 18 	bne  3b28 <_vsnprintf+0x80c>
    36cc:	b4 06 a0 04 	add  %i2, 4, %i2
    36d0:	80 8e e0 80 	btst  0x80, %i3
    36d4:	02 80 01 65 	be  3c68 <_vsnprintf+0x94c>
    36d8:	80 8e e2 00 	btst  0x200, %i3
    36dc:	c4 30 40 00 	sth  %g2, [ %g1 ]
    36e0:	10 bf ff 1a 	b  3348 <_vsnprintf+0x2c>
    36e4:	b2 07 60 01 	add  %i5, 1, %i1
    36e8:	c2 06 20 0c 	ld  [ %i0 + 0xc ], %g1
    36ec:	b6 8e e0 02 	andcc  %i3, 2, %i3
    36f0:	02 80 01 11 	be  3b34 <_vsnprintf+0x818>
    36f4:	c6 06 20 10 	ld  [ %i0 + 0x10 ], %g3
    36f8:	b2 10 20 01 	mov  1, %i1
    36fc:	c8 06 80 00 	ld  [ %i2 ], %g4
    3700:	84 00 60 01 	add  %g1, 1, %g2
    3704:	c4 26 20 0c 	st  %g2, [ %i0 + 0xc ]
    3708:	80 a0 40 03 	cmp  %g1, %g3
    370c:	1a 80 00 0a 	bcc  3734 <_vsnprintf+0x418>
    3710:	b4 06 a0 04 	add  %i2, 4, %i2
    3714:	c4 06 00 00 	ld  [ %i0 ], %g2
    3718:	80 a0 a0 00 	cmp  %g2, 0
    371c:	22 80 01 63 	be,a   3ca8 <_vsnprintf+0x98c>
    3720:	c4 06 20 08 	ld  [ %i0 + 8 ], %g2
    3724:	91 29 20 18 	sll  %g4, 0x18, %o0
    3728:	d2 06 20 04 	ld  [ %i0 + 4 ], %o1
    372c:	9f c0 80 00 	call  %g2
    3730:	91 3a 20 18 	sra  %o0, 0x18, %o0
    3734:	80 a6 e0 00 	cmp  %i3, 0
    3738:	22 bf ff 04 	be,a   3348 <_vsnprintf+0x2c>
    373c:	b2 07 60 01 	add  %i5, 1, %i1
    3740:	b6 10 20 20 	mov  0x20, %i3
    3744:	80 a7 00 19 	cmp  %i4, %i1
    3748:	28 bf ff 00 	bleu,a   3348 <_vsnprintf+0x2c>
    374c:	b2 07 60 01 	add  %i5, 1, %i1
    3750:	c2 06 20 0c 	ld  [ %i0 + 0xc ], %g1
    3754:	84 00 60 01 	add  %g1, 1, %g2
    3758:	c4 26 20 0c 	st  %g2, [ %i0 + 0xc ]
    375c:	c4 06 20 10 	ld  [ %i0 + 0x10 ], %g2
    3760:	80 a0 40 02 	cmp  %g1, %g2
    3764:	3a bf ff f8 	bcc,a   3744 <_vsnprintf+0x428>
    3768:	b2 06 60 01 	inc  %i1
    376c:	c4 06 00 00 	ld  [ %i0 ], %g2
    3770:	80 a0 a0 00 	cmp  %g2, 0
    3774:	22 80 01 1d 	be,a   3be8 <_vsnprintf+0x8cc>
    3778:	c4 06 20 08 	ld  [ %i0 + 8 ], %g2
    377c:	90 10 20 20 	mov  0x20, %o0
    3780:	9f c0 80 00 	call  %g2
    3784:	d2 06 20 04 	ld  [ %i0 + 4 ], %o1
    3788:	10 bf ff ef 	b  3744 <_vsnprintf+0x428>
    378c:	b2 06 60 01 	inc  %i1
    3790:	85 28 60 18 	sll  %g1, 0x18, %g2
    3794:	87 38 a0 18 	sra  %g2, 0x18, %g3
    3798:	80 a0 e0 69 	cmp  %g3, 0x69
    379c:	12 80 00 df 	bne  3b18 <_vsnprintf+0x7fc>
    37a0:	80 a0 e0 64 	cmp  %g3, 0x64
    37a4:	07 00 00 10 	sethi  %hi(0x4000), %g3
    37a8:	b6 16 c0 03 	or  %i3, %g3, %i3
    37ac:	82 08 7f df 	and  %g1, -33, %g1
    37b0:	83 28 60 18 	sll  %g1, 0x18, %g1
    37b4:	83 38 60 18 	sra  %g1, 0x18, %g1
    37b8:	80 a0 60 58 	cmp  %g1, 0x58
    37bc:	22 80 00 0b 	be,a   37e8 <_vsnprintf+0x4cc>
    37c0:	a2 10 20 10 	mov  0x10, %l1
    37c4:	83 38 a0 18 	sra  %g2, 0x18, %g1
    37c8:	80 a0 60 6f 	cmp  %g1, 0x6f
    37cc:	02 80 00 0b 	be  37f8 <_vsnprintf+0x4dc>
    37d0:	a2 10 20 08 	mov  8, %l1
    37d4:	80 a0 60 62 	cmp  %g1, 0x62
    37d8:	02 80 00 08 	be  37f8 <_vsnprintf+0x4dc>
    37dc:	a2 10 20 02 	mov  2, %l1
    37e0:	b6 0e ff ef 	and  %i3, -17, %i3
    37e4:	a2 10 20 0a 	mov  0xa, %l1
    37e8:	85 38 a0 18 	sra  %g2, 0x18, %g2
    37ec:	80 a0 a0 58 	cmp  %g2, 0x58
    37f0:	22 80 00 02 	be,a   37f8 <_vsnprintf+0x4dc>
    37f4:	b6 16 e0 20 	or  %i3, 0x20, %i3
    37f8:	80 8e e8 00 	btst  0x800, %i3
    37fc:	02 80 00 03 	be  3808 <_vsnprintf+0x4ec>
    3800:	b2 07 60 01 	add  %i5, 1, %i1
    3804:	b6 0e ff fe 	and  %i3, -2, %i3
    3808:	03 00 00 10 	sethi  %hi(0x4000), %g1
    380c:	80 8e c0 01 	btst  %i3, %g1
    3810:	02 80 00 fc 	be  3c00 <_vsnprintf+0x8e4>
    3814:	80 8e e4 00 	btst  0x400, %i3
    3818:	12 80 01 5d 	bne  3d8c <_vsnprintf+0xa70>
    381c:	80 8e e2 00 	btst  0x200, %i3
    3820:	02 80 01 28 	be  3cc0 <_vsnprintf+0x9a4>
    3824:	80 8e e0 40 	btst  0x40, %i3
    3828:	d6 06 80 00 	ld  [ %i2 ], %o3
    382c:	80 a2 e0 00 	cmp  %o3, 0
    3830:	04 80 01 3f 	ble  3d2c <_vsnprintf+0xa10>
    3834:	b4 06 a0 04 	add  %i2, 4, %i2
    3838:	83 3a e0 1f 	sra  %o3, 0x1f, %g1
    383c:	d6 27 bf cc 	st  %o3, [ %fp + -52 ]
    3840:	c2 27 bf c8 	st  %g1, [ %fp + -56 ]
    3844:	f8 23 a0 5c 	st  %i4, [ %sp + 0x5c ]
    3848:	f6 23 a0 60 	st  %i3, [ %sp + 0x60 ]
    384c:	90 10 00 18 	mov  %i0, %o0
    3850:	d2 07 bf c8 	ld  [ %fp + -56 ], %o1
    3854:	d4 07 bf cc 	ld  [ %fp + -52 ], %o2
    3858:	97 32 e0 1f 	srl  %o3, 0x1f, %o3
    385c:	98 0c 60 1a 	and  %l1, 0x1a, %o4
    3860:	7f ff fa 5e 	call  21d8 <print_integer>
    3864:	9a 10 00 10 	mov  %l0, %o5
    3868:	10 bf fe b9 	b  334c <_vsnprintf+0x30>
    386c:	d0 4e 40 00 	ldsb  [ %i1 ], %o0
    3870:	f2 06 80 00 	ld  [ %i2 ], %i1
    3874:	80 a6 60 00 	cmp  %i1, 0
    3878:	02 80 01 62 	be  3e00 <_vsnprintf+0xae4>
    387c:	b4 06 a0 04 	add  %i2, 4, %i2
    3880:	82 94 20 00 	orcc  %l0, 0, %g1
    3884:	22 80 00 02 	be,a   388c <_vsnprintf+0x570>
    3888:	82 10 00 14 	mov  %l4, %g1
    388c:	c4 0e 40 00 	ldub  [ %i1 ], %g2
    3890:	91 28 a0 18 	sll  %g2, 0x18, %o0
    3894:	80 a2 20 00 	cmp  %o0, 0
    3898:	22 80 00 0c 	be,a   38c8 <_vsnprintf+0x5ac>
    389c:	a2 10 20 00 	clr  %l1
    38a0:	10 80 00 04 	b  38b0 <_vsnprintf+0x594>
    38a4:	a2 10 00 19 	mov  %i1, %l1
    38a8:	22 80 00 08 	be,a   38c8 <_vsnprintf+0x5ac>
    38ac:	a2 24 40 19 	sub  %l1, %i1, %l1
    38b0:	a2 04 60 01 	inc  %l1
    38b4:	c6 4c 40 00 	ldsb  [ %l1 ], %g3
    38b8:	80 a0 e0 00 	cmp  %g3, 0
    38bc:	32 bf ff fb 	bne,a   38a8 <_vsnprintf+0x58c>
    38c0:	82 80 7f ff 	addcc  %g1, -1, %g1
    38c4:	a2 24 40 19 	sub  %l1, %i1, %l1
    38c8:	ae 8e e8 00 	andcc  %i3, 0x800, %l7
    38cc:	22 80 00 06 	be,a   38e4 <_vsnprintf+0x5c8>
    38d0:	b6 8e e0 02 	andcc  %i3, 2, %i3
    38d4:	80 a4 40 10 	cmp  %l1, %l0
    38d8:	38 80 00 02 	bgu,a   38e0 <_vsnprintf+0x5c4>
    38dc:	a2 10 00 10 	mov  %l0, %l1
    38e0:	b6 8e e0 02 	andcc  %i3, 2, %i3
    38e4:	12 80 00 63 	bne  3a70 <_vsnprintf+0x754>
    38e8:	f6 27 bf dc 	st  %i3, [ %fp + -36 ]
    38ec:	80 a7 00 11 	cmp  %i4, %l1
    38f0:	08 80 00 13 	bleu  393c <_vsnprintf+0x620>
    38f4:	b6 04 60 01 	add  %l1, 1, %i3
    38f8:	c2 06 20 0c 	ld  [ %i0 + 0xc ], %g1
    38fc:	84 00 60 01 	add  %g1, 1, %g2
    3900:	c4 26 20 0c 	st  %g2, [ %i0 + 0xc ]
    3904:	c4 06 20 10 	ld  [ %i0 + 0x10 ], %g2
    3908:	80 a0 40 02 	cmp  %g1, %g2
    390c:	1a 80 00 09 	bcc  3930 <_vsnprintf+0x614>
    3910:	a2 10 00 1b 	mov  %i3, %l1
    3914:	c4 06 00 00 	ld  [ %i0 ], %g2
    3918:	80 a0 a0 00 	cmp  %g2, 0
    391c:	02 80 00 6b 	be  3ac8 <_vsnprintf+0x7ac>
    3920:	90 10 20 20 	mov  0x20, %o0
    3924:	9f c0 80 00 	call  %g2
    3928:	d2 06 20 04 	ld  [ %i0 + 4 ], %o1
    392c:	a2 10 00 1b 	mov  %i3, %l1
    3930:	80 a7 00 11 	cmp  %i4, %l1
    3934:	18 bf ff f1 	bgu  38f8 <_vsnprintf+0x5dc>
    3938:	b6 04 60 01 	add  %l1, 1, %i3
    393c:	c4 0e 40 00 	ldub  [ %i1 ], %g2
    3940:	91 28 a0 18 	sll  %g2, 0x18, %o0
    3944:	80 a2 20 00 	cmp  %o0, 0
    3948:	12 80 00 4d 	bne  3a7c <_vsnprintf+0x760>
    394c:	a2 10 00 1b 	mov  %i3, %l1
    3950:	d8 07 bf dc 	ld  [ %fp + -36 ], %o4
    3954:	80 a3 20 00 	cmp  %o4, 0
    3958:	22 bf fe 7c 	be,a   3348 <_vsnprintf+0x2c>
    395c:	b2 07 60 01 	add  %i5, 1, %i1
    3960:	b6 10 20 20 	mov  0x20, %i3
    3964:	80 a7 00 11 	cmp  %i4, %l1
    3968:	28 bf fe 78 	bleu,a   3348 <_vsnprintf+0x2c>
    396c:	b2 07 60 01 	add  %i5, 1, %i1
    3970:	c2 06 20 0c 	ld  [ %i0 + 0xc ], %g1
    3974:	84 00 60 01 	add  %g1, 1, %g2
    3978:	c4 26 20 0c 	st  %g2, [ %i0 + 0xc ]
    397c:	c4 06 20 10 	ld  [ %i0 + 0x10 ], %g2
    3980:	80 a0 40 02 	cmp  %g1, %g2
    3984:	3a bf ff f8 	bcc,a   3964 <_vsnprintf+0x648>
    3988:	a2 04 60 01 	inc  %l1
    398c:	c4 06 00 00 	ld  [ %i0 ], %g2
    3990:	80 a0 a0 00 	cmp  %g2, 0
    3994:	22 80 00 98 	be,a   3bf4 <_vsnprintf+0x8d8>
    3998:	c4 06 20 08 	ld  [ %i0 + 8 ], %g2
    399c:	90 10 20 20 	mov  0x20, %o0
    39a0:	9f c0 80 00 	call  %g2
    39a4:	d2 06 20 04 	ld  [ %i0 + 4 ], %o1
    39a8:	10 bf ff ef 	b  3964 <_vsnprintf+0x648>
    39ac:	a2 04 60 01 	inc  %l1
    39b0:	83 28 60 18 	sll  %g1, 0x18, %g1
    39b4:	83 38 60 18 	sra  %g1, 0x18, %g1
    39b8:	80 a0 60 46 	cmp  %g1, 0x46
    39bc:	22 80 00 02 	be,a   39c4 <_vsnprintf+0x6a8>
    39c0:	b6 16 e0 20 	or  %i3, 0x20, %i3
    39c4:	92 10 00 1a 	mov  %i2, %o1
    39c8:	94 10 20 08 	mov  8, %o2
    39cc:	40 00 04 ad 	call  4c80 <__GI_memcpy>
    39d0:	90 07 bf f0 	add  %fp, -16, %o0
    39d4:	90 10 00 18 	mov  %i0, %o0
    39d8:	c0 23 a0 5c 	clr  [ %sp + 0x5c ]
    39dc:	d2 07 bf f0 	ld  [ %fp + -16 ], %o1
    39e0:	d4 07 bf f4 	ld  [ %fp + -12 ], %o2
    39e4:	96 10 00 10 	mov  %l0, %o3
    39e8:	98 10 00 1c 	mov  %i4, %o4
    39ec:	9a 10 00 1b 	mov  %i3, %o5
    39f0:	7f ff fd c7 	call  310c <print_floating_point>
    39f4:	b4 06 a0 08 	add  %i2, 8, %i2
    39f8:	10 bf fe 54 	b  3348 <_vsnprintf+0x2c>
    39fc:	b2 07 60 01 	add  %i5, 1, %i1
    3a00:	84 08 7f df 	and  %g1, -33, %g2
    3a04:	85 28 a0 18 	sll  %g2, 0x18, %g2
    3a08:	85 38 a0 18 	sra  %g2, 0x18, %g2
    3a0c:	80 a0 a0 47 	cmp  %g2, 0x47
    3a10:	12 80 00 04 	bne  3a20 <_vsnprintf+0x704>
    3a14:	82 08 7f fd 	and  %g1, -3, %g1
    3a18:	05 00 00 04 	sethi  %hi(0x1000), %g2
    3a1c:	b6 16 c0 02 	or  %i3, %g2, %i3
    3a20:	83 28 60 18 	sll  %g1, 0x18, %g1
    3a24:	83 38 60 18 	sra  %g1, 0x18, %g1
    3a28:	80 a0 60 45 	cmp  %g1, 0x45
    3a2c:	22 80 00 02 	be,a   3a34 <_vsnprintf+0x718>
    3a30:	b6 16 e0 20 	or  %i3, 0x20, %i3
    3a34:	92 10 00 1a 	mov  %i2, %o1
    3a38:	94 10 20 08 	mov  8, %o2
    3a3c:	40 00 04 91 	call  4c80 <__GI_memcpy>
    3a40:	90 07 bf f8 	add  %fp, -8, %o0
    3a44:	82 10 20 01 	mov  1, %g1
    3a48:	90 10 00 18 	mov  %i0, %o0
    3a4c:	d2 07 bf f8 	ld  [ %fp + -8 ], %o1
    3a50:	d4 07 bf fc 	ld  [ %fp + -4 ], %o2
    3a54:	10 bf ff e4 	b  39e4 <_vsnprintf+0x6c8>
    3a58:	c2 23 a0 5c 	st  %g1, [ %sp + 0x5c ]
    3a5c:	9f c0 c0 00 	call  %g3
    3a60:	d2 06 20 04 	ld  [ %i0 + 4 ], %o1
    3a64:	c4 0e 40 00 	ldub  [ %i1 ], %g2
    3a68:	a0 04 3f ff 	add  %l0, -1, %l0
    3a6c:	91 28 a0 18 	sll  %g2, 0x18, %o0
    3a70:	80 a2 20 00 	cmp  %o0, 0
    3a74:	02 bf ff b8 	be  3954 <_vsnprintf+0x638>
    3a78:	d8 07 bf dc 	ld  [ %fp + -36 ], %o4
    3a7c:	80 a5 e0 00 	cmp  %l7, 0
    3a80:	02 80 00 04 	be  3a90 <_vsnprintf+0x774>
    3a84:	80 a4 20 00 	cmp  %l0, 0
    3a88:	02 bf ff b3 	be  3954 <_vsnprintf+0x638>
    3a8c:	d8 07 bf dc 	ld  [ %fp + -36 ], %o4
    3a90:	c2 06 20 0c 	ld  [ %i0 + 0xc ], %g1
    3a94:	86 00 60 01 	add  %g1, 1, %g3
    3a98:	c6 26 20 0c 	st  %g3, [ %i0 + 0xc ]
    3a9c:	c6 06 20 10 	ld  [ %i0 + 0x10 ], %g3
    3aa0:	80 a0 40 03 	cmp  %g1, %g3
    3aa4:	1a bf ff f0 	bcc  3a64 <_vsnprintf+0x748>
    3aa8:	b2 06 60 01 	inc  %i1
    3aac:	c6 06 00 00 	ld  [ %i0 ], %g3
    3ab0:	80 a0 e0 00 	cmp  %g3, 0
    3ab4:	12 bf ff ea 	bne  3a5c <_vsnprintf+0x740>
    3ab8:	91 3a 20 18 	sra  %o0, 0x18, %o0
    3abc:	c6 06 20 08 	ld  [ %i0 + 8 ], %g3
    3ac0:	10 bf ff e9 	b  3a64 <_vsnprintf+0x748>
    3ac4:	c4 28 c0 01 	stb  %g2, [ %g3 + %g1 ]
    3ac8:	c4 06 20 08 	ld  [ %i0 + 8 ], %g2
    3acc:	86 10 20 20 	mov  0x20, %g3
    3ad0:	a2 10 00 1b 	mov  %i3, %l1
    3ad4:	10 bf ff 97 	b  3930 <_vsnprintf+0x614>
    3ad8:	c6 28 80 01 	stb  %g3, [ %g2 + %g1 ]
    3adc:	80 a0 60 00 	cmp  %g1, 0
    3ae0:	22 bf fe 38 	be,a   33c0 <_vsnprintf+0xa4>
    3ae4:	f0 06 20 0c 	ld  [ %i0 + 0xc ], %i0
    3ae8:	c6 06 20 08 	ld  [ %i0 + 8 ], %g3
    3aec:	80 a0 e0 00 	cmp  %g3, 0
    3af0:	22 bf fe 34 	be,a   33c0 <_vsnprintf+0xa4>
    3af4:	f0 06 20 0c 	ld  [ %i0 + 0xc ], %i0
    3af8:	c4 06 20 0c 	ld  [ %i0 + 0xc ], %g2
    3afc:	80 a0 40 02 	cmp  %g1, %g2
    3b00:	28 80 00 02 	bleu,a   3b08 <_vsnprintf+0x7ec>
    3b04:	84 00 7f ff 	add  %g1, -1, %g2
    3b08:	c0 28 c0 02 	clrb  [ %g3 + %g2 ]
    3b0c:	f0 06 20 0c 	ld  [ %i0 + 0xc ], %i0
    3b10:	81 c7 e0 08 	ret 
    3b14:	81 e8 00 00 	restore 
    3b18:	32 bf ff 26 	bne,a   37b0 <_vsnprintf+0x494>
    3b1c:	82 08 7f df 	and  %g1, -33, %g1
    3b20:	10 bf ff 22 	b  37a8 <_vsnprintf+0x48c>
    3b24:	07 00 00 10 	sethi  %hi(0x4000), %g3
    3b28:	c4 28 40 00 	stb  %g2, [ %g1 ]
    3b2c:	10 bf fe 07 	b  3348 <_vsnprintf+0x2c>
    3b30:	b2 07 60 01 	add  %i5, 1, %i1
    3b34:	84 10 20 01 	mov  1, %g2
    3b38:	a0 10 20 20 	mov  0x20, %l0
    3b3c:	80 a7 00 02 	cmp  %i4, %g2
    3b40:	08 bf fe ef 	bleu  36fc <_vsnprintf+0x3e0>
    3b44:	b2 00 a0 01 	add  %g2, 1, %i1
    3b48:	84 00 60 01 	add  %g1, 1, %g2
    3b4c:	80 a0 c0 01 	cmp  %g3, %g1
    3b50:	08 80 00 1d 	bleu  3bc4 <_vsnprintf+0x8a8>
    3b54:	c4 26 20 0c 	st  %g2, [ %i0 + 0xc ]
    3b58:	c4 06 00 00 	ld  [ %i0 ], %g2
    3b5c:	80 a0 a0 00 	cmp  %g2, 0
    3b60:	02 80 00 1c 	be  3bd0 <_vsnprintf+0x8b4>
    3b64:	90 10 20 20 	mov  0x20, %o0
    3b68:	9f c0 80 00 	call  %g2
    3b6c:	d2 06 20 04 	ld  [ %i0 + 4 ], %o1
    3b70:	c2 06 20 0c 	ld  [ %i0 + 0xc ], %g1
    3b74:	c6 06 20 10 	ld  [ %i0 + 0x10 ], %g3
    3b78:	10 bf ff f1 	b  3b3c <_vsnprintf+0x820>
    3b7c:	84 10 00 19 	mov  %i1, %g2
    3b80:	82 10 20 0a 	mov  0xa, %g1
    3b84:	d8 23 a0 60 	st  %o4, [ %sp + 0x60 ]
    3b88:	c2 23 a0 5c 	st  %g1, [ %sp + 0x5c ]
    3b8c:	90 10 00 18 	mov  %i0, %o0
    3b90:	92 10 20 00 	clr  %o1
    3b94:	96 10 20 00 	clr  %o3
    3b98:	98 10 20 10 	mov  0x10, %o4
    3b9c:	9a 10 00 10 	mov  %l0, %o5
    3ba0:	7f ff f9 8e 	call  21d8 <print_integer>
    3ba4:	b2 07 60 01 	add  %i5, 1, %i1
    3ba8:	10 bf fd e9 	b  334c <_vsnprintf+0x30>
    3bac:	d0 4e 40 00 	ldsb  [ %i1 ], %o0
    3bb0:	b6 16 e0 02 	or  %i3, 2, %i3
    3bb4:	b8 20 00 1c 	neg  %i4
    3bb8:	c2 08 e0 01 	ldub  [ %g3 + 1 ], %g1
    3bbc:	10 bf fe 1e 	b  3434 <_vsnprintf+0x118>
    3bc0:	ba 07 60 01 	inc  %i5
    3bc4:	82 10 00 02 	mov  %g2, %g1
    3bc8:	10 bf ff dd 	b  3b3c <_vsnprintf+0x820>
    3bcc:	84 10 00 19 	mov  %i1, %g2
    3bd0:	c4 06 20 08 	ld  [ %i0 + 8 ], %g2
    3bd4:	e0 28 80 01 	stb  %l0, [ %g2 + %g1 ]
    3bd8:	84 10 00 19 	mov  %i1, %g2
    3bdc:	c2 06 20 0c 	ld  [ %i0 + 0xc ], %g1
    3be0:	10 bf ff d7 	b  3b3c <_vsnprintf+0x820>
    3be4:	c6 06 20 10 	ld  [ %i0 + 0x10 ], %g3
    3be8:	b2 06 60 01 	inc  %i1
    3bec:	10 bf fe d6 	b  3744 <_vsnprintf+0x428>
    3bf0:	f6 28 80 01 	stb  %i3, [ %g2 + %g1 ]
    3bf4:	a2 04 60 01 	inc  %l1
    3bf8:	10 bf ff 5b 	b  3964 <_vsnprintf+0x648>
    3bfc:	f6 28 80 01 	stb  %i3, [ %g2 + %g1 ]
    3c00:	12 80 00 53 	bne  3d4c <_vsnprintf+0xa30>
    3c04:	ba 0e ff f3 	and  %i3, -13, %i5
    3c08:	80 8e e2 00 	btst  0x200, %i3
    3c0c:	12 80 00 79 	bne  3df0 <_vsnprintf+0xad4>
    3c10:	80 8e e0 40 	btst  0x40, %i3
    3c14:	32 80 00 42 	bne,a   3d1c <_vsnprintf+0xa00>
    3c18:	d4 0e a0 03 	ldub  [ %i2 + 3 ], %o2
    3c1c:	d4 06 80 00 	ld  [ %i2 ], %o2
    3c20:	80 8e e0 80 	btst  0x80, %i3
    3c24:	02 80 00 03 	be  3c30 <_vsnprintf+0x914>
    3c28:	b4 06 a0 04 	add  %i2, 4, %i2
    3c2c:	94 0a 80 15 	and  %o2, %l5, %o2
    3c30:	f8 23 a0 5c 	st  %i4, [ %sp + 0x5c ]
    3c34:	fa 23 a0 60 	st  %i5, [ %sp + 0x60 ]
    3c38:	90 10 00 18 	mov  %i0, %o0
    3c3c:	92 10 20 00 	clr  %o1
    3c40:	96 10 20 00 	clr  %o3
    3c44:	98 0c 60 1a 	and  %l1, 0x1a, %o4
    3c48:	7f ff f9 64 	call  21d8 <print_integer>
    3c4c:	9a 10 00 10 	mov  %l0, %o5
    3c50:	10 bf fd bf 	b  334c <_vsnprintf+0x30>
    3c54:	d0 4e 40 00 	ldsb  [ %i1 ], %o0
    3c58:	c2 0f 60 02 	ldub  [ %i5 + 2 ], %g1
    3c5c:	b6 16 e0 c0 	or  %i3, 0xc0, %i3
    3c60:	10 bf fe 08 	b  3480 <_vsnprintf+0x164>
    3c64:	ba 07 60 02 	add  %i5, 2, %i5
    3c68:	32 80 00 09 	bne,a   3c8c <_vsnprintf+0x970>
    3c6c:	c4 20 40 00 	st  %g2, [ %g1 ]
    3c70:	80 8e e4 00 	btst  0x400, %i3
    3c74:	22 80 00 06 	be,a   3c8c <_vsnprintf+0x970>
    3c78:	c4 20 40 00 	st  %g2, [ %g1 ]
    3c7c:	c0 20 40 00 	clr  [ %g1 ]
    3c80:	c4 20 60 04 	st  %g2, [ %g1 + 4 ]
    3c84:	10 bf fd b1 	b  3348 <_vsnprintf+0x2c>
    3c88:	b2 07 60 01 	add  %i5, 1, %i1
    3c8c:	10 bf fd af 	b  3348 <_vsnprintf+0x2c>
    3c90:	b2 07 60 01 	add  %i5, 1, %i1
    3c94:	c4 06 20 08 	ld  [ %i0 + 8 ], %g2
    3c98:	86 10 20 25 	mov  0x25, %g3
    3c9c:	b2 07 60 01 	add  %i5, 1, %i1
    3ca0:	10 bf fd aa 	b  3348 <_vsnprintf+0x2c>
    3ca4:	c6 28 80 01 	stb  %g3, [ %g2 + %g1 ]
    3ca8:	10 bf fe a3 	b  3734 <_vsnprintf+0x418>
    3cac:	c8 28 80 01 	stb  %g4, [ %g2 + %g1 ]
    3cb0:	c6 06 20 08 	ld  [ %i0 + 8 ], %g3
    3cb4:	b2 07 60 01 	add  %i5, 1, %i1
    3cb8:	10 bf fd a4 	b  3348 <_vsnprintf+0x2c>
    3cbc:	c2 28 c0 02 	stb  %g1, [ %g3 + %g2 ]
    3cc0:	32 80 00 19 	bne,a   3d24 <_vsnprintf+0xa08>
    3cc4:	d6 4e a0 03 	ldsb  [ %i2 + 3 ], %o3
    3cc8:	80 8e e0 80 	btst  0x80, %i3
    3ccc:	22 80 00 5e 	be,a   3e44 <_vsnprintf+0xb28>
    3cd0:	d6 06 80 00 	ld  [ %i2 ], %o3
    3cd4:	d6 56 a0 02 	ldsh  [ %i2 + 2 ], %o3
    3cd8:	b4 06 a0 04 	add  %i2, 4, %i2
    3cdc:	80 a2 e0 00 	cmp  %o3, 0
    3ce0:	04 80 00 51 	ble  3e24 <_vsnprintf+0xb08>
    3ce4:	99 3a e0 1f 	sra  %o3, 0x1f, %o4
    3ce8:	d6 27 bf c4 	st  %o3, [ %fp + -60 ]
    3cec:	d8 27 bf c0 	st  %o4, [ %fp + -64 ]
    3cf0:	f8 23 a0 5c 	st  %i4, [ %sp + 0x5c ]
    3cf4:	f6 23 a0 60 	st  %i3, [ %sp + 0x60 ]
    3cf8:	90 10 00 18 	mov  %i0, %o0
    3cfc:	d2 07 bf c0 	ld  [ %fp + -64 ], %o1
    3d00:	d4 07 bf c4 	ld  [ %fp + -60 ], %o2
    3d04:	97 32 e0 1f 	srl  %o3, 0x1f, %o3
    3d08:	98 0c 60 1a 	and  %l1, 0x1a, %o4
    3d0c:	7f ff f9 33 	call  21d8 <print_integer>
    3d10:	9a 10 00 10 	mov  %l0, %o5
    3d14:	10 bf fd 8e 	b  334c <_vsnprintf+0x30>
    3d18:	d0 4e 40 00 	ldsb  [ %i1 ], %o0
    3d1c:	10 bf ff c5 	b  3c30 <_vsnprintf+0x914>
    3d20:	b4 06 a0 04 	add  %i2, 4, %i2
    3d24:	10 bf ff ee 	b  3cdc <_vsnprintf+0x9c0>
    3d28:	b4 06 a0 04 	add  %i2, 4, %i2
    3d2c:	87 3a e0 1f 	sra  %o3, 0x1f, %g3
    3d30:	d6 27 bf bc 	st  %o3, [ %fp + -68 ]
    3d34:	c6 27 bf b8 	st  %g3, [ %fp + -72 ]
    3d38:	c4 1f bf b8 	ldd  [ %fp + -72 ], %g2
    3d3c:	86 a0 00 03 	subcc  %g0, %g3, %g3
    3d40:	84 60 00 02 	subx  %g0, %g2, %g2
    3d44:	10 bf fe c0 	b  3844 <_vsnprintf+0x528>
    3d48:	c4 3f bf c8 	std  %g2, [ %fp + -56 ]
    3d4c:	92 10 00 1a 	mov  %i2, %o1
    3d50:	90 07 bf e8 	add  %fp, -24, %o0
    3d54:	40 00 03 cb 	call  4c80 <__GI_memcpy>
    3d58:	94 10 20 08 	mov  8, %o2
    3d5c:	b4 06 a0 08 	add  %i2, 8, %i2
    3d60:	f8 23 a0 5c 	st  %i4, [ %sp + 0x5c ]
    3d64:	fa 23 a0 60 	st  %i5, [ %sp + 0x60 ]
    3d68:	90 10 00 18 	mov  %i0, %o0
    3d6c:	d2 07 bf e8 	ld  [ %fp + -24 ], %o1
    3d70:	d4 07 bf ec 	ld  [ %fp + -20 ], %o2
    3d74:	96 10 20 00 	clr  %o3
    3d78:	98 0c 60 1a 	and  %l1, 0x1a, %o4
    3d7c:	7f ff f9 17 	call  21d8 <print_integer>
    3d80:	9a 10 00 10 	mov  %l0, %o5
    3d84:	10 bf fd 72 	b  334c <_vsnprintf+0x30>
    3d88:	d0 4e 40 00 	ldsb  [ %i1 ], %o0
    3d8c:	92 10 00 1a 	mov  %i2, %o1
    3d90:	90 07 bf e0 	add  %fp, -32, %o0
    3d94:	40 00 03 bb 	call  4c80 <__GI_memcpy>
    3d98:	94 10 20 08 	mov  8, %o2
    3d9c:	c4 1f bf e0 	ldd  [ %fp + -32 ], %g2
    3da0:	f8 23 a0 5c 	st  %i4, [ %sp + 0x5c ]
    3da4:	83 38 a0 1f 	sra  %g2, 0x1f, %g1
    3da8:	97 30 a0 1f 	srl  %g2, 0x1f, %o3
    3dac:	c2 27 bf d4 	st  %g1, [ %fp + -44 ]
    3db0:	c2 27 bf d0 	st  %g1, [ %fp + -48 ]
    3db4:	d8 1f bf d0 	ldd  [ %fp + -48 ], %o4
    3db8:	b8 1b 00 02 	xor  %o4, %g2, %i4
    3dbc:	ba 1b 40 03 	xor  %o5, %g3, %i5
    3dc0:	86 a7 40 0d 	subcc  %i5, %o5, %g3
    3dc4:	84 67 00 0c 	subx  %i4, %o4, %g2
    3dc8:	b4 06 a0 08 	add  %i2, 8, %i2
    3dcc:	f6 23 a0 60 	st  %i3, [ %sp + 0x60 ]
    3dd0:	90 10 00 18 	mov  %i0, %o0
    3dd4:	98 0c 60 1a 	and  %l1, 0x1a, %o4
    3dd8:	92 10 00 02 	mov  %g2, %o1
    3ddc:	94 10 00 03 	mov  %g3, %o2
    3de0:	7f ff f8 fe 	call  21d8 <print_integer>
    3de4:	9a 10 00 10 	mov  %l0, %o5
    3de8:	10 bf fd 59 	b  334c <_vsnprintf+0x30>
    3dec:	d0 4e 40 00 	ldsb  [ %i1 ], %o0
    3df0:	d4 06 80 00 	ld  [ %i2 ], %o2
    3df4:	f8 23 a0 5c 	st  %i4, [ %sp + 0x5c ]
    3df8:	10 bf ff 8f 	b  3c34 <_vsnprintf+0x918>
    3dfc:	b4 06 a0 04 	add  %i2, 4, %i2
    3e00:	90 10 00 18 	mov  %i0, %o0
    3e04:	92 10 00 16 	mov  %l6, %o1
    3e08:	94 10 20 06 	mov  6, %o2
    3e0c:	96 10 00 1c 	mov  %i4, %o3
    3e10:	98 10 00 1b 	mov  %i3, %o4
    3e14:	7f ff f8 9a 	call  207c <out_rev_>
    3e18:	b2 07 60 01 	add  %i5, 1, %i1
    3e1c:	10 bf fd 4c 	b  334c <_vsnprintf+0x30>
    3e20:	d0 4e 40 00 	ldsb  [ %i1 ], %o0
    3e24:	d6 27 bf b4 	st  %o3, [ %fp + -76 ]
    3e28:	83 3a e0 1f 	sra  %o3, 0x1f, %g1
    3e2c:	c2 27 bf b0 	st  %g1, [ %fp + -80 ]
    3e30:	c4 1f bf b0 	ldd  [ %fp + -80 ], %g2
    3e34:	86 a0 00 03 	subcc  %g0, %g3, %g3
    3e38:	84 60 00 02 	subx  %g0, %g2, %g2
    3e3c:	10 bf ff ad 	b  3cf0 <_vsnprintf+0x9d4>
    3e40:	c4 3f bf c0 	std  %g2, [ %fp + -64 ]
    3e44:	10 bf ff a6 	b  3cdc <_vsnprintf+0x9c0>
    3e48:	b4 06 a0 04 	add  %i2, 4, %i2

00003e4c <uart_send_char>:
    3e4c:	9d e3 bf a0 	save  %sp, -96, %sp
    3e50:	7f ff f5 ab 	call  14fc <__ajit_serial_putchar_via_bypass__>
    3e54:	90 10 00 18 	mov  %i0, %o0
    3e58:	80 a2 20 00 	cmp  %o0, 0
    3e5c:	02 bf ff fd 	be  3e50 <uart_send_char+0x4>
    3e60:	01 00 00 00 	nop 
    3e64:	7f ff f4 50 	call  fa4 <__ajit_read_serial_control_register_via_bypass__>
    3e68:	01 00 00 00 	nop 
    3e6c:	90 0a 20 09 	and  %o0, 9, %o0
    3e70:	80 a2 20 09 	cmp  %o0, 9
    3e74:	02 bf ff fc 	be  3e64 <uart_send_char+0x18>
    3e78:	01 00 00 00 	nop 
    3e7c:	81 c7 e0 08 	ret 
    3e80:	81 e8 00 00 	restore 

00003e84 <vprintf_>:
    3e84:	9d e3 bf 88 	save  %sp, -120, %sp
    3e88:	03 00 00 08 	sethi  %hi(0x2000), %g1
    3e8c:	82 10 60 44 	or  %g1, 0x44, %g1	! 2044 <putchar_wrapper>
    3e90:	c2 27 bf ec 	st  %g1, [ %fp + -20 ]
    3e94:	03 1f ff ff 	sethi  %hi(0x7ffffc00), %g1
    3e98:	82 10 63 ff 	or  %g1, 0x3ff, %g1	! 7fffffff <ajit_global_sw_trap_handlers+0x7fff0d9f>
    3e9c:	92 10 00 18 	mov  %i0, %o1
    3ea0:	c0 27 bf f0 	clr  [ %fp + -16 ]
    3ea4:	c0 27 bf f4 	clr  [ %fp + -12 ]
    3ea8:	c0 27 bf f8 	clr  [ %fp + -8 ]
    3eac:	90 07 bf ec 	add  %fp, -20, %o0
    3eb0:	c2 27 bf fc 	st  %g1, [ %fp + -4 ]
    3eb4:	7f ff fd 1a 	call  331c <_vsnprintf>
    3eb8:	94 10 00 19 	mov  %i1, %o2
    3ebc:	81 c7 e0 08 	ret 
    3ec0:	91 e8 00 08 	restore  %g0, %o0, %o0

00003ec4 <vsnprintf_>:
    3ec4:	9d e3 bf 88 	save  %sp, -120, %sp
    3ec8:	80 a6 60 00 	cmp  %i1, 0
    3ecc:	06 80 00 0f 	bl  3f08 <vsnprintf_+0x44>
    3ed0:	80 a0 00 18 	cmp  %g0, %i0
    3ed4:	82 60 20 00 	subx  %g0, 0, %g1
    3ed8:	f0 27 bf f4 	st  %i0, [ %fp + -12 ]
    3edc:	b2 0e 40 01 	and  %i1, %g1, %i1
    3ee0:	c0 27 bf ec 	clr  [ %fp + -20 ]
    3ee4:	c0 27 bf f0 	clr  [ %fp + -16 ]
    3ee8:	c0 27 bf f8 	clr  [ %fp + -8 ]
    3eec:	f2 27 bf fc 	st  %i1, [ %fp + -4 ]
    3ef0:	90 07 bf ec 	add  %fp, -20, %o0
    3ef4:	92 10 00 1a 	mov  %i2, %o1
    3ef8:	7f ff fd 09 	call  331c <_vsnprintf>
    3efc:	94 10 00 1b 	mov  %i3, %o2
    3f00:	81 c7 e0 08 	ret 
    3f04:	91 e8 00 08 	restore  %g0, %o0, %o0
    3f08:	82 60 20 00 	subx  %g0, 0, %g1
    3f0c:	f0 27 bf f4 	st  %i0, [ %fp + -12 ]
    3f10:	c0 27 bf ec 	clr  [ %fp + -20 ]
    3f14:	c0 27 bf f0 	clr  [ %fp + -16 ]
    3f18:	c0 27 bf f8 	clr  [ %fp + -8 ]
    3f1c:	90 07 bf ec 	add  %fp, -20, %o0
    3f20:	92 10 00 1a 	mov  %i2, %o1
    3f24:	94 10 00 1b 	mov  %i3, %o2
    3f28:	33 1f ff ff 	sethi  %hi(0x7ffffc00), %i1
    3f2c:	b2 16 63 ff 	or  %i1, 0x3ff, %i1	! 7fffffff <ajit_global_sw_trap_handlers+0x7fff0d9f>
    3f30:	b2 0e 40 01 	and  %i1, %g1, %i1
    3f34:	7f ff fc fa 	call  331c <_vsnprintf>
    3f38:	f2 27 bf fc 	st  %i1, [ %fp + -4 ]
    3f3c:	81 c7 e0 08 	ret 
    3f40:	91 e8 00 08 	restore  %g0, %o0, %o0

00003f44 <vsprintf_>:
    3f44:	96 10 00 0a 	mov  %o2, %o3
    3f48:	94 10 00 09 	mov  %o1, %o2
    3f4c:	13 1f ff ff 	sethi  %hi(0x7ffffc00), %o1
    3f50:	92 12 63 ff 	or  %o1, 0x3ff, %o1	! 7fffffff <ajit_global_sw_trap_handlers+0x7fff0d9f>
    3f54:	82 13 c0 00 	mov  %o7, %g1
    3f58:	7f ff ff db 	call  3ec4 <vsnprintf_>
    3f5c:	9e 10 40 00 	mov  %g1, %o7

00003f60 <vfctprintf>:
    3f60:	9d e3 bf 88 	save  %sp, -120, %sp
    3f64:	03 1f ff ff 	sethi  %hi(0x7ffffc00), %g1
    3f68:	82 10 63 ff 	or  %g1, 0x3ff, %g1	! 7fffffff <ajit_global_sw_trap_handlers+0x7fff0d9f>
    3f6c:	f0 27 bf ec 	st  %i0, [ %fp + -20 ]
    3f70:	f2 27 bf f0 	st  %i1, [ %fp + -16 ]
    3f74:	c0 27 bf f4 	clr  [ %fp + -12 ]
    3f78:	c0 27 bf f8 	clr  [ %fp + -8 ]
    3f7c:	90 07 bf ec 	add  %fp, -20, %o0
    3f80:	92 10 00 1a 	mov  %i2, %o1
    3f84:	c2 27 bf fc 	st  %g1, [ %fp + -4 ]
    3f88:	7f ff fc e5 	call  331c <_vsnprintf>
    3f8c:	94 10 00 1b 	mov  %i3, %o2
    3f90:	81 c7 e0 08 	ret 
    3f94:	91 e8 00 08 	restore  %g0, %o0, %o0

00003f98 <printf_>:
    3f98:	9d e3 bf 98 	save  %sp, -104, %sp
    3f9c:	92 07 a0 48 	add  %fp, 0x48, %o1
    3fa0:	f2 27 a0 48 	st  %i1, [ %fp + 0x48 ]
    3fa4:	f4 27 a0 4c 	st  %i2, [ %fp + 0x4c ]
    3fa8:	f6 27 a0 50 	st  %i3, [ %fp + 0x50 ]
    3fac:	f8 27 a0 54 	st  %i4, [ %fp + 0x54 ]
    3fb0:	fa 27 a0 58 	st  %i5, [ %fp + 0x58 ]
    3fb4:	d2 27 bf fc 	st  %o1, [ %fp + -4 ]
    3fb8:	7f ff ff b3 	call  3e84 <vprintf_>
    3fbc:	90 10 00 18 	mov  %i0, %o0
    3fc0:	81 c7 e0 08 	ret 
    3fc4:	91 e8 00 08 	restore  %g0, %o0, %o0

00003fc8 <sprintf_>:
    3fc8:	9d e3 bf 98 	save  %sp, -104, %sp
    3fcc:	94 07 a0 4c 	add  %fp, 0x4c, %o2
    3fd0:	f4 27 a0 4c 	st  %i2, [ %fp + 0x4c ]
    3fd4:	f6 27 a0 50 	st  %i3, [ %fp + 0x50 ]
    3fd8:	f8 27 a0 54 	st  %i4, [ %fp + 0x54 ]
    3fdc:	fa 27 a0 58 	st  %i5, [ %fp + 0x58 ]
    3fe0:	d4 27 bf fc 	st  %o2, [ %fp + -4 ]
    3fe4:	90 10 00 18 	mov  %i0, %o0
    3fe8:	7f ff ff d7 	call  3f44 <vsprintf_>
    3fec:	92 10 00 19 	mov  %i1, %o1
    3ff0:	81 c7 e0 08 	ret 
    3ff4:	91 e8 00 08 	restore  %g0, %o0, %o0

00003ff8 <snprintf_>:
    3ff8:	9d e3 bf 98 	save  %sp, -104, %sp
    3ffc:	96 07 a0 50 	add  %fp, 0x50, %o3
    4000:	f6 27 a0 50 	st  %i3, [ %fp + 0x50 ]
    4004:	f8 27 a0 54 	st  %i4, [ %fp + 0x54 ]
    4008:	fa 27 a0 58 	st  %i5, [ %fp + 0x58 ]
    400c:	d6 27 bf fc 	st  %o3, [ %fp + -4 ]
    4010:	90 10 00 18 	mov  %i0, %o0
    4014:	92 10 00 19 	mov  %i1, %o1
    4018:	7f ff ff ab 	call  3ec4 <vsnprintf_>
    401c:	94 10 00 1a 	mov  %i2, %o2
    4020:	81 c7 e0 08 	ret 
    4024:	91 e8 00 08 	restore  %g0, %o0, %o0

00004028 <fctprintf>:
    4028:	9d e3 bf 98 	save  %sp, -104, %sp
    402c:	96 07 a0 50 	add  %fp, 0x50, %o3
    4030:	f6 27 a0 50 	st  %i3, [ %fp + 0x50 ]
    4034:	f8 27 a0 54 	st  %i4, [ %fp + 0x54 ]
    4038:	fa 27 a0 58 	st  %i5, [ %fp + 0x58 ]
    403c:	d6 27 bf fc 	st  %o3, [ %fp + -4 ]
    4040:	90 10 00 18 	mov  %i0, %o0
    4044:	92 10 00 19 	mov  %i1, %o1
    4048:	7f ff ff c6 	call  3f60 <vfctprintf>
    404c:	94 10 00 1a 	mov  %i2, %o2
    4050:	81 c7 e0 08 	ret 
    4054:	91 e8 00 08 	restore  %g0, %o0, %o0

00004058 <cortos_init_logging>:
    4058:	84 10 20 01 	mov  1, %g2
    405c:	03 00 00 3c 	sethi  %hi(0xf000), %g1
    4060:	82 10 60 20 	or  %g1, 0x20, %g1	! f020 <allocatedLocksNc>
    4064:	c4 28 60 04 	stb  %g2, [ %g1 + 4 ]
    4068:	05 00 00 44 	sethi  %hi(0x11000), %g2
    406c:	03 00 00 3c 	sethi  %hi(0xf000), %g1
    4070:	84 10 a0 04 	or  %g2, 4, %g2
    4074:	81 c3 e0 08 	retl 
    4078:	c4 20 60 0c 	st  %g2, [ %g1 + 0xc ]

0000407c <__cortos_log_printf>:
    407c:	9d e3 bb 80 	save  %sp, -1152, %sp
    4080:	21 00 00 3c 	sethi  %hi(0xf000), %l0
    4084:	fa 27 a0 58 	st  %i5, [ %fp + 0x58 ]
    4088:	7f ff f0 8e 	call  2c0 <cortos_lock_acquire_buzy>
    408c:	d0 04 20 0c 	ld  [ %l0 + 0xc ], %o0
    4090:	7f ff f0 b5 	call  364 <cortos_get_clock_time>
    4094:	01 00 00 00 	nop 
    4098:	a3 47 40 00 	rd  %asr29, %l1
    409c:	82 10 00 11 	mov  %l1, %g1
    40a0:	d0 3f bb f0 	std  %o0, [ %fp + -1040 ]
    40a4:	96 08 60 ff 	and  %g1, 0xff, %o3
    40a8:	95 30 60 08 	srl  %g1, 8, %o2
    40ac:	c2 07 bb f0 	ld  [ %fp + -1040 ], %g1
    40b0:	c2 23 a0 60 	st  %g1, [ %sp + 0x60 ]
    40b4:	c2 07 bb f4 	ld  [ %fp + -1036 ], %g1
    40b8:	92 10 00 18 	mov  %i0, %o1
    40bc:	c2 23 a0 64 	st  %g1, [ %sp + 0x64 ]
    40c0:	98 10 00 19 	mov  %i1, %o4
    40c4:	9a 10 00 1b 	mov  %i3, %o5
    40c8:	94 0a a0 ff 	and  %o2, 0xff, %o2
    40cc:	f4 23 a0 5c 	st  %i2, [ %sp + 0x5c ]
    40d0:	11 00 00 38 	sethi  %hi(0xe000), %o0
    40d4:	7f ff ff b1 	call  3f98 <printf_>
    40d8:	90 12 23 90 	or  %o0, 0x390, %o0	! e390 <__clz_tab+0x300>
    40dc:	94 07 a0 58 	add  %fp, 0x58, %o2
    40e0:	b0 10 00 08 	mov  %o0, %i0
    40e4:	d4 27 bb fc 	st  %o2, [ %fp + -1028 ]
    40e8:	ba 07 bc 00 	add  %fp, -1024, %i5
    40ec:	92 10 00 1c 	mov  %i4, %o1
    40f0:	7f ff ff 95 	call  3f44 <vsprintf_>
    40f4:	90 10 00 1d 	mov  %i5, %o0
    40f8:	c2 0f bc 00 	ldub  [ %fp + -1024 ], %g1
    40fc:	91 28 60 18 	sll  %g1, 0x18, %o0
    4100:	80 a2 20 00 	cmp  %o0, 0
    4104:	22 80 00 0c 	be,a   4134 <__cortos_log_printf+0xb8>
    4108:	11 00 00 38 	sethi  %hi(0xe000), %o0
    410c:	ba 27 40 18 	sub  %i5, %i0, %i5
    4110:	7f ff ff 4f 	call  3e4c <uart_send_char>
    4114:	91 3a 20 18 	sra  %o0, 0x18, %o0
    4118:	b0 06 20 01 	inc  %i0
    411c:	c2 0f 40 18 	ldub  [ %i5 + %i0 ], %g1
    4120:	91 28 60 18 	sll  %g1, 0x18, %o0
    4124:	80 a2 20 00 	cmp  %o0, 0
    4128:	12 bf ff fa 	bne  4110 <__cortos_log_printf+0x94>
    412c:	01 00 00 00 	nop 
    4130:	11 00 00 38 	sethi  %hi(0xe000), %o0
    4134:	7f ff ff 99 	call  3f98 <printf_>
    4138:	90 12 22 b0 	or  %o0, 0x2b0, %o0	! e2b0 <__clz_tab+0x220>
    413c:	b0 02 00 18 	add  %o0, %i0, %i0
    4140:	7f ff f0 7a 	call  328 <cortos_lock_release>
    4144:	d0 04 20 0c 	ld  [ %l0 + 0xc ], %o0
    4148:	81 c7 e0 08 	ret 
    414c:	81 e8 00 00 	restore 

00004150 <__cortos_bpool>:
    4150:	9d e3 bf a0 	save  %sp, -96, %sp
    4154:	3b 00 00 3c 	sethi  %hi(0xf000), %i5
    4158:	c2 07 60 14 	ld  [ %i5 + 0x14 ], %g1	! f014 <bgetLockAddr>
    415c:	80 a0 60 00 	cmp  %g1, 0
    4160:	12 80 00 0b 	bne  418c <__cortos_bpool+0x3c>
    4164:	11 00 00 48 	sethi  %hi(0x12000), %o0
    4168:	40 00 01 06 	call  4580 <bpool>
    416c:	13 00 00 04 	sethi  %hi(0x1000), %o1
    4170:	03 00 00 3c 	sethi  %hi(0xf000), %g1
    4174:	82 10 60 20 	or  %g1, 0x20, %g1	! f020 <allocatedLocksNc>
    4178:	84 10 20 01 	mov  1, %g2
    417c:	c4 28 60 02 	stb  %g2, [ %g1 + 2 ]
    4180:	03 00 00 44 	sethi  %hi(0x11000), %g1
    4184:	82 10 60 02 	or  %g1, 2, %g1	! 11002 <ajit_global_sw_trap_handlers+0x1da2>
    4188:	c2 27 60 14 	st  %g1, [ %i5 + 0x14 ]
    418c:	81 c7 e0 08 	ret 
    4190:	81 e8 00 00 	restore 

00004194 <cortos_bget>:
    4194:	9d e3 bf a0 	save  %sp, -96, %sp
    4198:	3b 00 00 3c 	sethi  %hi(0xf000), %i5
    419c:	7f ff f0 49 	call  2c0 <cortos_lock_acquire_buzy>
    41a0:	d0 07 60 14 	ld  [ %i5 + 0x14 ], %o0	! f014 <bgetLockAddr>
    41a4:	40 00 00 c7 	call  44c0 <bget>
    41a8:	90 10 00 18 	mov  %i0, %o0
    41ac:	b0 10 00 08 	mov  %o0, %i0
    41b0:	7f ff f0 5e 	call  328 <cortos_lock_release>
    41b4:	d0 07 60 14 	ld  [ %i5 + 0x14 ], %o0
    41b8:	81 c7 e0 08 	ret 
    41bc:	81 e8 00 00 	restore 

000041c0 <cortos_brel>:
    41c0:	9d e3 bf a0 	save  %sp, -96, %sp
    41c4:	3b 00 00 3c 	sethi  %hi(0xf000), %i5
    41c8:	7f ff f0 3e 	call  2c0 <cortos_lock_acquire_buzy>
    41cc:	d0 07 60 14 	ld  [ %i5 + 0x14 ], %o0	! f014 <bgetLockAddr>
    41d0:	40 00 00 fd 	call  45c4 <brel>
    41d4:	90 10 00 18 	mov  %i0, %o0
    41d8:	f0 07 60 14 	ld  [ %i5 + 0x14 ], %i0
    41dc:	7f ff f0 53 	call  328 <cortos_lock_release>
    41e0:	81 e8 00 00 	restore 

000041e4 <__cortos_bpool_ncram>:
    41e4:	9d e3 bf a0 	save  %sp, -96, %sp
    41e8:	3b 00 00 3c 	sethi  %hi(0xf000), %i5
    41ec:	c2 07 60 10 	ld  [ %i5 + 0x10 ], %g1	! f010 <bgetNcramLockAddr>
    41f0:	80 a0 60 00 	cmp  %g1, 0
    41f4:	12 80 00 0b 	bne  4220 <__cortos_bpool_ncram+0x3c>
    41f8:	90 10 20 00 	clr  %o0
    41fc:	40 00 00 55 	call  4350 <bpool_ncram>
    4200:	92 10 3f ff 	mov  -1, %o1
    4204:	03 00 00 3c 	sethi  %hi(0xf000), %g1
    4208:	82 10 60 20 	or  %g1, 0x20, %g1	! f020 <allocatedLocksNc>
    420c:	84 10 20 01 	mov  1, %g2
    4210:	c4 28 60 03 	stb  %g2, [ %g1 + 3 ]
    4214:	03 00 00 44 	sethi  %hi(0x11000), %g1
    4218:	82 10 60 03 	or  %g1, 3, %g1	! 11003 <ajit_global_sw_trap_handlers+0x1da3>
    421c:	c2 27 60 10 	st  %g1, [ %i5 + 0x10 ]
    4220:	81 c7 e0 08 	ret 
    4224:	81 e8 00 00 	restore 

00004228 <cortos_bget_ncram>:
    4228:	9d e3 bf a0 	save  %sp, -96, %sp
    422c:	3b 00 00 3c 	sethi  %hi(0xf000), %i5
    4230:	7f ff f0 24 	call  2c0 <cortos_lock_acquire_buzy>
    4234:	d0 07 60 10 	ld  [ %i5 + 0x10 ], %o0	! f010 <bgetNcramLockAddr>
    4238:	40 00 00 10 	call  4278 <bget_ncram>
    423c:	90 10 00 18 	mov  %i0, %o0
    4240:	b0 10 00 08 	mov  %o0, %i0
    4244:	7f ff f0 39 	call  328 <cortos_lock_release>
    4248:	d0 07 60 10 	ld  [ %i5 + 0x10 ], %o0
    424c:	81 c7 e0 08 	ret 
    4250:	81 e8 00 00 	restore 

00004254 <cortos_brel_ncram>:
    4254:	9d e3 bf a0 	save  %sp, -96, %sp
    4258:	3b 00 00 3c 	sethi  %hi(0xf000), %i5
    425c:	7f ff f0 19 	call  2c0 <cortos_lock_acquire_buzy>
    4260:	d0 07 60 10 	ld  [ %i5 + 0x10 ], %o0	! f010 <bgetNcramLockAddr>
    4264:	40 00 00 4c 	call  4394 <brel_ncram>
    4268:	90 10 00 18 	mov  %i0, %o0
    426c:	f0 07 60 10 	ld  [ %i5 + 0x10 ], %i0
    4270:	7f ff f0 2e 	call  328 <cortos_lock_release>
    4274:	81 e8 00 00 	restore 

00004278 <bget_ncram>:
    4278:	83 3a 20 1f 	sra  %o0, 0x1f, %g1
    427c:	83 30 60 1c 	srl  %g1, 0x1c, %g1
    4280:	84 02 00 01 	add  %o0, %g1, %g2
    4284:	84 08 a0 0f 	and  %g2, 0xf, %g2
    4288:	82 20 80 01 	sub  %g2, %g1, %g1
    428c:	90 00 40 08 	add  %g1, %o0, %o0
    4290:	80 a2 20 0f 	cmp  %o0, 0xf
    4294:	08 80 00 23 	bleu  4320 <bget_ncram+0xa8>
    4298:	86 10 20 18 	mov  0x18, %g3
    429c:	88 02 20 0f 	add  %o0, 0xf, %g4
    42a0:	88 09 3f f0 	and  %g4, -16, %g4
    42a4:	88 01 20 08 	add  %g4, 8, %g4
    42a8:	86 10 00 04 	mov  %g4, %g3
    42ac:	05 00 00 38 	sethi  %hi(0xe000), %g2
    42b0:	84 10 a3 f0 	or  %g2, 0x3f0, %g2	! e3f0 <freelist_ncram>
    42b4:	d0 00 a0 08 	ld  [ %g2 + 8 ], %o0
    42b8:	80 a2 00 02 	cmp  %o0, %g2
    42bc:	32 80 00 08 	bne,a   42dc <bget_ncram+0x64>
    42c0:	c2 02 20 04 	ld  [ %o0 + 4 ], %g1
    42c4:	81 c3 e0 08 	retl 
    42c8:	90 10 20 00 	clr  %o0
    42cc:	80 a2 00 02 	cmp  %o0, %g2
    42d0:	02 80 00 12 	be  4318 <bget_ncram+0xa0>
    42d4:	01 00 00 00 	nop 
    42d8:	c2 02 20 04 	ld  [ %o0 + 4 ], %g1
    42dc:	80 a0 40 03 	cmp  %g1, %g3
    42e0:	26 bf ff fb 	bl,a   42cc <bget_ncram+0x54>
    42e4:	d0 02 20 08 	ld  [ %o0 + 8 ], %o0
    42e8:	84 20 40 03 	sub  %g1, %g3, %g2
    42ec:	80 a0 a0 18 	cmp  %g2, 0x18
    42f0:	28 80 00 0e 	bleu,a   4328 <bget_ncram+0xb0>
    42f4:	c6 02 20 08 	ld  [ %o0 + 8 ], %g3
    42f8:	c4 22 20 04 	st  %g2, [ %o0 + 4 ]
    42fc:	c4 22 00 02 	st  %g2, [ %o0 + %g2 ]
    4300:	86 20 00 03 	neg  %g3
    4304:	90 02 00 02 	add  %o0, %g2, %o0
    4308:	c0 22 00 04 	clr  [ %o0 + %g4 ]
    430c:	c6 22 20 04 	st  %g3, [ %o0 + 4 ]
    4310:	81 c3 e0 08 	retl 
    4314:	90 02 20 08 	add  %o0, 8, %o0
    4318:	81 c3 e0 08 	retl 
    431c:	90 10 20 00 	clr  %o0
    4320:	10 bf ff e3 	b  42ac <bget_ncram+0x34>
    4324:	88 10 20 18 	mov  0x18, %g4
    4328:	c4 02 20 0c 	ld  [ %o0 + 0xc ], %g2
    432c:	c6 20 a0 08 	st  %g3, [ %g2 + 8 ]
    4330:	c6 02 20 08 	ld  [ %o0 + 8 ], %g3
    4334:	c4 20 e0 0c 	st  %g2, [ %g3 + 0xc ]
    4338:	c0 22 00 01 	clr  [ %o0 + %g1 ]
    433c:	84 20 00 01 	neg  %g1, %g2
    4340:	c4 22 20 04 	st  %g2, [ %o0 + 4 ]
    4344:	90 02 20 08 	add  %o0, 8, %o0
    4348:	81 c3 e0 08 	retl 
    434c:	01 00 00 00 	nop 

00004350 <bpool_ncram>:
    4350:	03 00 00 38 	sethi  %hi(0xe000), %g1
    4354:	82 10 63 f0 	or  %g1, 0x3f0, %g1	! e3f0 <freelist_ncram>
    4358:	c4 00 60 0c 	ld  [ %g1 + 0xc ], %g2
    435c:	c2 22 20 08 	st  %g1, [ %o0 + 8 ]
    4360:	c4 22 20 0c 	st  %g2, [ %o0 + 0xc ]
    4364:	d0 20 60 0c 	st  %o0, [ %g1 + 0xc ]
    4368:	c0 22 00 00 	clr  [ %o0 ]
    436c:	c2 02 20 0c 	ld  [ %o0 + 0xc ], %g1
    4370:	92 0a 7f f0 	and  %o1, -16, %o1
    4374:	d0 20 60 08 	st  %o0, [ %g1 + 8 ]
    4378:	92 02 7f f8 	add  %o1, -8, %o1
    437c:	d2 22 20 04 	st  %o1, [ %o0 + 4 ]
    4380:	82 02 00 09 	add  %o0, %o1, %g1
    4384:	05 20 00 00 	sethi  %hi(0x80000000), %g2
    4388:	d2 22 00 09 	st  %o1, [ %o0 + %o1 ]
    438c:	81 c3 e0 08 	retl 
    4390:	c4 20 60 04 	st  %g2, [ %g1 + 4 ]

00004394 <brel_ncram>:
    4394:	c2 02 3f f8 	ld  [ %o0 + -8 ], %g1
    4398:	80 a0 60 00 	cmp  %g1, 0
    439c:	02 80 00 16 	be  43f4 <brel_ncram+0x60>
    43a0:	84 02 3f f8 	add  %o0, -8, %g2
    43a4:	84 20 80 01 	sub  %g2, %g1, %g2
    43a8:	c2 02 3f fc 	ld  [ %o0 + -4 ], %g1
    43ac:	c6 00 a0 04 	ld  [ %g2 + 4 ], %g3
    43b0:	82 20 c0 01 	sub  %g3, %g1, %g1
    43b4:	c2 20 a0 04 	st  %g1, [ %g2 + 4 ]
    43b8:	86 00 80 01 	add  %g2, %g1, %g3
    43bc:	c8 00 e0 04 	ld  [ %g3 + 4 ], %g4
    43c0:	80 a1 20 00 	cmp  %g4, 0
    43c4:	04 80 00 0a 	ble  43ec <brel_ncram+0x58>
    43c8:	01 00 00 00 	nop 
    43cc:	da 00 e0 0c 	ld  [ %g3 + 0xc ], %o5
    43d0:	82 00 40 04 	add  %g1, %g4, %g1
    43d4:	d8 00 e0 08 	ld  [ %g3 + 8 ], %o4
    43d8:	c2 20 a0 04 	st  %g1, [ %g2 + 4 ]
    43dc:	d8 23 60 08 	st  %o4, [ %o5 + 8 ]
    43e0:	c8 00 e0 08 	ld  [ %g3 + 8 ], %g4
    43e4:	86 00 80 01 	add  %g2, %g1, %g3
    43e8:	da 21 20 0c 	st  %o5, [ %g4 + 0xc ]
    43ec:	81 c3 e0 08 	retl 
    43f0:	c2 20 c0 00 	st  %g1, [ %g3 ]
    43f4:	07 00 00 38 	sethi  %hi(0xe000), %g3
    43f8:	86 10 e3 f0 	or  %g3, 0x3f0, %g3	! e3f0 <freelist_ncram>
    43fc:	c2 00 e0 0c 	ld  [ %g3 + 0xc ], %g1
    4400:	c6 22 00 00 	st  %g3, [ %o0 ]
    4404:	c2 22 20 04 	st  %g1, [ %o0 + 4 ]
    4408:	c4 20 e0 0c 	st  %g2, [ %g3 + 0xc ]
    440c:	c2 02 3f fc 	ld  [ %o0 + -4 ], %g1
    4410:	c6 02 20 04 	ld  [ %o0 + 4 ], %g3
    4414:	82 20 00 01 	neg  %g1
    4418:	c4 20 e0 08 	st  %g2, [ %g3 + 8 ]
    441c:	10 bf ff e7 	b  43b8 <brel_ncram+0x24>
    4420:	c2 22 3f fc 	st  %g1, [ %o0 + -4 ]

00004424 <ajit_initialize_sw_trap_handlers_to_null>:
    4424:	03 00 00 3c 	sethi  %hi(0xf000), %g1
    4428:	82 10 62 60 	or  %g1, 0x260, %g1	! f260 <ajit_global_sw_trap_handlers>
    442c:	84 00 60 44 	add  %g1, 0x44, %g2
    4430:	c0 20 40 00 	clr  [ %g1 ]
    4434:	82 00 60 04 	add  %g1, 4, %g1
    4438:	80 a0 40 02 	cmp  %g1, %g2
    443c:	32 bf ff fe 	bne,a   4434 <ajit_initialize_sw_trap_handlers_to_null+0x10>
    4440:	c0 20 40 00 	clr  [ %g1 ]
    4444:	81 c3 e0 08 	retl 
    4448:	01 00 00 00 	nop 

0000444c <ajit_set_sw_trap_handler>:
    444c:	80 a2 20 10 	cmp  %o0, 0x10
    4450:	18 80 00 05 	bgu  4464 <ajit_set_sw_trap_handler+0x18>
    4454:	91 2a 20 02 	sll  %o0, 2, %o0
    4458:	03 00 00 3c 	sethi  %hi(0xf000), %g1
    445c:	82 10 62 60 	or  %g1, 0x260, %g1	! f260 <ajit_global_sw_trap_handlers>
    4460:	d2 20 40 08 	st  %o1, [ %g1 + %o0 ]
    4464:	81 c3 e0 08 	retl 
    4468:	01 00 00 00 	nop 

0000446c <ajit_generic_sw_trap_handler>:
    446c:	9d e3 bf a0 	save  %sp, -96, %sp
    4470:	b1 36 20 04 	srl  %i0, 4, %i0
    4474:	82 0e 20 ff 	and  %i0, 0xff, %g1
    4478:	82 00 7f 80 	add  %g1, -128, %g1
    447c:	80 a0 60 10 	cmp  %g1, 0x10
    4480:	18 80 00 0d 	bgu  44b4 <ajit_generic_sw_trap_handler+0x48>
    4484:	83 28 60 02 	sll  %g1, 2, %g1
    4488:	05 00 00 3c 	sethi  %hi(0xf000), %g2
    448c:	84 10 a2 60 	or  %g2, 0x260, %g2	! f260 <ajit_global_sw_trap_handlers>
    4490:	c2 00 80 01 	ld  [ %g2 + %g1 ], %g1
    4494:	80 a0 60 00 	cmp  %g1, 0
    4498:	02 80 00 07 	be  44b4 <ajit_generic_sw_trap_handler+0x48>
    449c:	90 10 00 19 	mov  %i1, %o0
    44a0:	92 10 00 1a 	mov  %i2, %o1
    44a4:	9f c0 40 00 	call  %g1
    44a8:	94 10 00 1b 	mov  %i3, %o2
    44ac:	81 c7 e0 08 	ret 
    44b0:	81 e8 00 00 	restore 
    44b4:	91 d0 20 00 	ta  0
    44b8:	81 c7 e0 08 	ret 
    44bc:	81 e8 00 00 	restore 

000044c0 <bget>:
    44c0:	80 a2 20 07 	cmp  %o0, 7
    44c4:	08 80 00 23 	bleu  4550 <bget+0x90>
    44c8:	86 10 20 10 	mov  0x10, %g3
    44cc:	88 02 20 07 	add  %o0, 7, %g4
    44d0:	88 09 3f f8 	and  %g4, -8, %g4
    44d4:	88 01 20 08 	add  %g4, 8, %g4
    44d8:	86 10 00 04 	mov  %g4, %g3
    44dc:	05 00 00 39 	sethi  %hi(0xe400), %g2
    44e0:	84 10 a0 00 	mov  %g2, %g2	! e400 <freelist>
    44e4:	d0 00 a0 08 	ld  [ %g2 + 8 ], %o0
    44e8:	80 a2 00 02 	cmp  %o0, %g2
    44ec:	32 80 00 08 	bne,a   450c <bget+0x4c>
    44f0:	c2 02 20 04 	ld  [ %o0 + 4 ], %g1
    44f4:	81 c3 e0 08 	retl 
    44f8:	90 10 20 00 	clr  %o0
    44fc:	80 a2 00 02 	cmp  %o0, %g2
    4500:	02 80 00 12 	be  4548 <bget+0x88>
    4504:	01 00 00 00 	nop 
    4508:	c2 02 20 04 	ld  [ %o0 + 4 ], %g1
    450c:	80 a0 40 03 	cmp  %g1, %g3
    4510:	26 bf ff fb 	bl,a   44fc <bget+0x3c>
    4514:	d0 02 20 08 	ld  [ %o0 + 8 ], %o0
    4518:	84 20 40 03 	sub  %g1, %g3, %g2
    451c:	80 a0 a0 10 	cmp  %g2, 0x10
    4520:	28 80 00 0e 	bleu,a   4558 <bget+0x98>
    4524:	c6 02 20 08 	ld  [ %o0 + 8 ], %g3
    4528:	c4 22 20 04 	st  %g2, [ %o0 + 4 ]
    452c:	c4 22 00 02 	st  %g2, [ %o0 + %g2 ]
    4530:	86 20 00 03 	neg  %g3
    4534:	90 02 00 02 	add  %o0, %g2, %o0
    4538:	c0 22 00 04 	clr  [ %o0 + %g4 ]
    453c:	c6 22 20 04 	st  %g3, [ %o0 + 4 ]
    4540:	81 c3 e0 08 	retl 
    4544:	90 02 20 08 	add  %o0, 8, %o0
    4548:	81 c3 e0 08 	retl 
    454c:	90 10 20 00 	clr  %o0
    4550:	10 bf ff e3 	b  44dc <bget+0x1c>
    4554:	88 10 20 10 	mov  0x10, %g4
    4558:	c4 02 20 0c 	ld  [ %o0 + 0xc ], %g2
    455c:	c6 20 a0 08 	st  %g3, [ %g2 + 8 ]
    4560:	c6 02 20 08 	ld  [ %o0 + 8 ], %g3
    4564:	c4 20 e0 0c 	st  %g2, [ %g3 + 0xc ]
    4568:	c0 22 00 01 	clr  [ %o0 + %g1 ]
    456c:	84 20 00 01 	neg  %g1, %g2
    4570:	c4 22 20 04 	st  %g2, [ %o0 + 4 ]
    4574:	90 02 20 08 	add  %o0, 8, %o0
    4578:	81 c3 e0 08 	retl 
    457c:	01 00 00 00 	nop 

00004580 <bpool>:
    4580:	03 00 00 39 	sethi  %hi(0xe400), %g1
    4584:	82 10 60 00 	mov  %g1, %g1	! e400 <freelist>
    4588:	c4 00 60 0c 	ld  [ %g1 + 0xc ], %g2
    458c:	c2 22 20 08 	st  %g1, [ %o0 + 8 ]
    4590:	c4 22 20 0c 	st  %g2, [ %o0 + 0xc ]
    4594:	d0 20 60 0c 	st  %o0, [ %g1 + 0xc ]
    4598:	c0 22 00 00 	clr  [ %o0 ]
    459c:	c2 02 20 0c 	ld  [ %o0 + 0xc ], %g1
    45a0:	92 0a 7f f8 	and  %o1, -8, %o1
    45a4:	d0 20 60 08 	st  %o0, [ %g1 + 8 ]
    45a8:	92 02 7f f8 	add  %o1, -8, %o1
    45ac:	d2 22 20 04 	st  %o1, [ %o0 + 4 ]
    45b0:	82 02 00 09 	add  %o0, %o1, %g1
    45b4:	05 20 00 00 	sethi  %hi(0x80000000), %g2
    45b8:	d2 22 00 09 	st  %o1, [ %o0 + %o1 ]
    45bc:	81 c3 e0 08 	retl 
    45c0:	c4 20 60 04 	st  %g2, [ %g1 + 4 ]

000045c4 <brel>:
    45c4:	c2 02 3f f8 	ld  [ %o0 + -8 ], %g1
    45c8:	80 a0 60 00 	cmp  %g1, 0
    45cc:	02 80 00 16 	be  4624 <brel+0x60>
    45d0:	84 02 3f f8 	add  %o0, -8, %g2
    45d4:	84 20 80 01 	sub  %g2, %g1, %g2
    45d8:	c2 02 3f fc 	ld  [ %o0 + -4 ], %g1
    45dc:	c6 00 a0 04 	ld  [ %g2 + 4 ], %g3
    45e0:	82 20 c0 01 	sub  %g3, %g1, %g1
    45e4:	c2 20 a0 04 	st  %g1, [ %g2 + 4 ]
    45e8:	86 00 80 01 	add  %g2, %g1, %g3
    45ec:	c8 00 e0 04 	ld  [ %g3 + 4 ], %g4
    45f0:	80 a1 20 00 	cmp  %g4, 0
    45f4:	04 80 00 0a 	ble  461c <brel+0x58>
    45f8:	01 00 00 00 	nop 
    45fc:	da 00 e0 0c 	ld  [ %g3 + 0xc ], %o5
    4600:	82 00 40 04 	add  %g1, %g4, %g1
    4604:	d8 00 e0 08 	ld  [ %g3 + 8 ], %o4
    4608:	c2 20 a0 04 	st  %g1, [ %g2 + 4 ]
    460c:	d8 23 60 08 	st  %o4, [ %o5 + 8 ]
    4610:	c8 00 e0 08 	ld  [ %g3 + 8 ], %g4
    4614:	86 00 80 01 	add  %g2, %g1, %g3
    4618:	da 21 20 0c 	st  %o5, [ %g4 + 0xc ]
    461c:	81 c3 e0 08 	retl 
    4620:	c2 20 c0 00 	st  %g1, [ %g3 ]
    4624:	07 00 00 39 	sethi  %hi(0xe400), %g3
    4628:	86 10 e0 00 	mov  %g3, %g3	! e400 <freelist>
    462c:	c2 00 e0 0c 	ld  [ %g3 + 0xc ], %g1
    4630:	c6 22 00 00 	st  %g3, [ %o0 ]
    4634:	c2 22 20 04 	st  %g1, [ %o0 + 4 ]
    4638:	c4 20 e0 0c 	st  %g2, [ %g3 + 0xc ]
    463c:	c2 02 3f fc 	ld  [ %o0 + -4 ], %g1
    4640:	c6 02 20 04 	ld  [ %o0 + 4 ], %g3
    4644:	82 20 00 01 	neg  %g1
    4648:	c4 20 e0 08 	st  %g2, [ %g3 + 8 ]
    464c:	10 bf ff e7 	b  45e8 <brel+0x24>
    4650:	c2 22 3f fc 	st  %g1, [ %o0 + -4 ]
    4654:	80 8a 60 01 	btst  1, %o1
    4658:	02 80 00 08 	be  4678 <brel+0xb4>
    465c:	80 8a 60 02 	btst  2, %o1
    4660:	c4 0a 7f ff 	ldub  [ %o1 + -1 ], %g2
    4664:	92 22 60 01 	dec  %o1
    4668:	c4 2a 3f ff 	stb  %g2, [ %o0 + -1 ]
    466c:	94 22 a0 01 	dec  %o2
    4670:	02 80 00 1a 	be  46d8 <__GI_memmove+0x3c>
    4674:	90 22 20 01 	dec  %o0
    4678:	c4 12 7f fe 	lduh  [ %o1 + -2 ], %g2
    467c:	92 22 60 02 	sub  %o1, 2, %o1
    4680:	c4 32 3f fe 	sth  %g2, [ %o0 + -2 ]
    4684:	94 22 a0 02 	sub  %o2, 2, %o2
    4688:	10 80 00 14 	b  46d8 <__GI_memmove+0x3c>
    468c:	90 22 20 02 	sub  %o0, 2, %o0

00004690 <bcopy>:
    4690:	96 10 00 08 	mov  %o0, %o3
    4694:	90 10 00 09 	mov  %o1, %o0
    4698:	92 10 00 0b 	mov  %o3, %o1

0000469c <__GI_memmove>:
    469c:	80 a2 00 09 	cmp  %o0, %o1
    46a0:	d0 23 a0 40 	st  %o0, [ %sp + 0x40 ]
    46a4:	08 80 01 79 	bleu  4c88 <__GI_memcpy+0x8>
    46a8:	98 22 00 09 	sub  %o0, %o1, %o4
    46ac:	96 02 40 0a 	add  %o1, %o2, %o3
    46b0:	80 a2 c0 08 	cmp  %o3, %o0
    46b4:	08 80 01 76 	bleu  4c8c <__GI_memcpy+0xc>
    46b8:	9a 8b 20 03 	andcc  %o4, 3, %o5
    46bc:	92 02 40 0a 	add  %o1, %o2, %o1
    46c0:	90 02 00 0a 	add  %o0, %o2, %o0
    46c4:	12 80 00 f9 	bne  4aa8 <__GI_memmove+0x40c>
    46c8:	80 a2 a0 0f 	cmp  %o2, 0xf
    46cc:	08 80 00 eb 	bleu  4a78 <__GI_memmove+0x3dc>
    46d0:	80 8a 60 03 	btst  3, %o1
    46d4:	12 bf ff e0 	bne  4654 <brel+0x90>
    46d8:	80 8a 60 04 	btst  4, %o1
    46dc:	02 80 00 07 	be  46f8 <__GI_memmove+0x5c>
    46e0:	82 10 00 0a 	mov  %o2, %g1
    46e4:	d8 02 7f fc 	ld  [ %o1 + -4 ], %o4
    46e8:	82 20 60 04 	sub  %g1, 4, %g1
    46ec:	d8 22 3f fc 	st  %o4, [ %o0 + -4 ]
    46f0:	92 22 60 04 	sub  %o1, 4, %o1
    46f4:	90 22 20 04 	sub  %o0, 4, %o0
    46f8:	8c 88 7f 80 	andcc  %g1, -128, %g6
    46fc:	02 80 00 37 	be  47d8 <__GI_memmove+0x13c>
    4700:	80 8a 20 04 	btst  4, %o0
    4704:	02 80 00 84 	be  4914 <__GI_memmove+0x278>
    4708:	d4 1a 7f e0 	ldd  [ %o1 + -32 ], %o2
    470c:	d8 1a 7f e8 	ldd  [ %o1 + -24 ], %o4
    4710:	c4 1a 7f f0 	ldd  [ %o1 + -16 ], %g2
    4714:	c8 1a 7f f8 	ldd  [ %o1 + -8 ], %g4
    4718:	d4 22 3f e0 	st  %o2, [ %o0 + -32 ]
    471c:	d6 22 3f e4 	st  %o3, [ %o0 + -28 ]
    4720:	d8 22 3f e8 	st  %o4, [ %o0 + -24 ]
    4724:	da 22 3f ec 	st  %o5, [ %o0 + -20 ]
    4728:	c4 22 3f f0 	st  %g2, [ %o0 + -16 ]
    472c:	c6 22 3f f4 	st  %g3, [ %o0 + -12 ]
    4730:	c8 22 3f f8 	st  %g4, [ %o0 + -8 ]
    4734:	ca 22 3f fc 	st  %g5, [ %o0 + -4 ]
    4738:	d4 1a 7f c0 	ldd  [ %o1 + -64 ], %o2
    473c:	d8 1a 7f c8 	ldd  [ %o1 + -56 ], %o4
    4740:	c4 1a 7f d0 	ldd  [ %o1 + -48 ], %g2
    4744:	c8 1a 7f d8 	ldd  [ %o1 + -40 ], %g4
    4748:	d4 22 3f c0 	st  %o2, [ %o0 + -64 ]
    474c:	d6 22 3f c4 	st  %o3, [ %o0 + -60 ]
    4750:	d8 22 3f c8 	st  %o4, [ %o0 + -56 ]
    4754:	da 22 3f cc 	st  %o5, [ %o0 + -52 ]
    4758:	c4 22 3f d0 	st  %g2, [ %o0 + -48 ]
    475c:	c6 22 3f d4 	st  %g3, [ %o0 + -44 ]
    4760:	c8 22 3f d8 	st  %g4, [ %o0 + -40 ]
    4764:	ca 22 3f dc 	st  %g5, [ %o0 + -36 ]
    4768:	d4 1a 7f a0 	ldd  [ %o1 + -96 ], %o2
    476c:	d8 1a 7f a8 	ldd  [ %o1 + -88 ], %o4
    4770:	c4 1a 7f b0 	ldd  [ %o1 + -80 ], %g2
    4774:	c8 1a 7f b8 	ldd  [ %o1 + -72 ], %g4
    4778:	d4 22 3f a0 	st  %o2, [ %o0 + -96 ]
    477c:	d6 22 3f a4 	st  %o3, [ %o0 + -92 ]
    4780:	d8 22 3f a8 	st  %o4, [ %o0 + -88 ]
    4784:	da 22 3f ac 	st  %o5, [ %o0 + -84 ]
    4788:	c4 22 3f b0 	st  %g2, [ %o0 + -80 ]
    478c:	c6 22 3f b4 	st  %g3, [ %o0 + -76 ]
    4790:	c8 22 3f b8 	st  %g4, [ %o0 + -72 ]
    4794:	ca 22 3f bc 	st  %g5, [ %o0 + -68 ]
    4798:	d4 1a 7f 80 	ldd  [ %o1 + -128 ], %o2
    479c:	d8 1a 7f 88 	ldd  [ %o1 + -120 ], %o4
    47a0:	c4 1a 7f 90 	ldd  [ %o1 + -112 ], %g2
    47a4:	c8 1a 7f 98 	ldd  [ %o1 + -104 ], %g4
    47a8:	d4 22 3f 80 	st  %o2, [ %o0 + -128 ]
    47ac:	d6 22 3f 84 	st  %o3, [ %o0 + -124 ]
    47b0:	d8 22 3f 88 	st  %o4, [ %o0 + -120 ]
    47b4:	da 22 3f 8c 	st  %o5, [ %o0 + -116 ]
    47b8:	c4 22 3f 90 	st  %g2, [ %o0 + -112 ]
    47bc:	c6 22 3f 94 	st  %g3, [ %o0 + -108 ]
    47c0:	c8 22 3f 98 	st  %g4, [ %o0 + -104 ]
    47c4:	ca 22 3f 9c 	st  %g5, [ %o0 + -100 ]
    47c8:	8c a1 a0 80 	subcc  %g6, 0x80, %g6
    47cc:	92 22 60 80 	sub  %o1, 0x80, %o1
    47d0:	12 bf ff ce 	bne  4708 <__GI_memmove+0x6c>
    47d4:	90 22 20 80 	sub  %o0, 0x80, %o0
    47d8:	8c 88 60 70 	andcc  %g1, 0x70, %g6
    47dc:	02 80 00 34 	be  48ac <__GI_memmove+0x210>
    47e0:	80 88 60 08 	btst  8, %g1
    47e4:	99 31 a0 01 	srl  %g6, 1, %o4
    47e8:	84 10 00 0f 	mov  %o7, %g2
    47ec:	98 01 80 0c 	add  %g6, %o4, %o4
    47f0:	40 00 05 3d 	call  5ce4 <__GI_memcpy+0x1064>
    47f4:	92 22 40 06 	sub  %o1, %g6, %o1
    47f8:	9e 10 00 02 	mov  %g2, %o7
    47fc:	81 c3 60 bc 	jmp  %o5 + 0xbc
    4800:	90 22 00 06 	sub  %o0, %g6, %o0
    4804:	c4 1a 60 60 	ldd  [ %o1 + 0x60 ], %g2
    4808:	c8 1a 60 68 	ldd  [ %o1 + 0x68 ], %g4
    480c:	c4 22 20 60 	st  %g2, [ %o0 + 0x60 ]
    4810:	c6 22 20 64 	st  %g3, [ %o0 + 0x64 ]
    4814:	c8 22 20 68 	st  %g4, [ %o0 + 0x68 ]
    4818:	ca 22 20 6c 	st  %g5, [ %o0 + 0x6c ]
    481c:	c4 1a 60 50 	ldd  [ %o1 + 0x50 ], %g2
    4820:	c8 1a 60 58 	ldd  [ %o1 + 0x58 ], %g4
    4824:	c4 22 20 50 	st  %g2, [ %o0 + 0x50 ]
    4828:	c6 22 20 54 	st  %g3, [ %o0 + 0x54 ]
    482c:	c8 22 20 58 	st  %g4, [ %o0 + 0x58 ]
    4830:	ca 22 20 5c 	st  %g5, [ %o0 + 0x5c ]
    4834:	c4 1a 60 40 	ldd  [ %o1 + 0x40 ], %g2
    4838:	c8 1a 60 48 	ldd  [ %o1 + 0x48 ], %g4
    483c:	c4 22 20 40 	st  %g2, [ %o0 + 0x40 ]
    4840:	c6 22 20 44 	st  %g3, [ %o0 + 0x44 ]
    4844:	c8 22 20 48 	st  %g4, [ %o0 + 0x48 ]
    4848:	ca 22 20 4c 	st  %g5, [ %o0 + 0x4c ]
    484c:	c4 1a 60 30 	ldd  [ %o1 + 0x30 ], %g2
    4850:	c8 1a 60 38 	ldd  [ %o1 + 0x38 ], %g4
    4854:	c4 22 20 30 	st  %g2, [ %o0 + 0x30 ]
    4858:	c6 22 20 34 	st  %g3, [ %o0 + 0x34 ]
    485c:	c8 22 20 38 	st  %g4, [ %o0 + 0x38 ]
    4860:	ca 22 20 3c 	st  %g5, [ %o0 + 0x3c ]
    4864:	c4 1a 60 20 	ldd  [ %o1 + 0x20 ], %g2
    4868:	c8 1a 60 28 	ldd  [ %o1 + 0x28 ], %g4
    486c:	c4 22 20 20 	st  %g2, [ %o0 + 0x20 ]
    4870:	c6 22 20 24 	st  %g3, [ %o0 + 0x24 ]
    4874:	c8 22 20 28 	st  %g4, [ %o0 + 0x28 ]
    4878:	ca 22 20 2c 	st  %g5, [ %o0 + 0x2c ]
    487c:	c4 1a 60 10 	ldd  [ %o1 + 0x10 ], %g2
    4880:	c8 1a 60 18 	ldd  [ %o1 + 0x18 ], %g4
    4884:	c4 22 20 10 	st  %g2, [ %o0 + 0x10 ]
    4888:	c6 22 20 14 	st  %g3, [ %o0 + 0x14 ]
    488c:	c8 22 20 18 	st  %g4, [ %o0 + 0x18 ]
    4890:	ca 22 20 1c 	st  %g5, [ %o0 + 0x1c ]
    4894:	c4 1a 60 00 	ldd  [ %o1 ], %g2
    4898:	c8 1a 60 08 	ldd  [ %o1 + 8 ], %g4
    489c:	c4 22 20 00 	st  %g2, [ %o0 ]
    48a0:	c6 22 20 04 	st  %g3, [ %o0 + 4 ]
    48a4:	c8 22 20 08 	st  %g4, [ %o0 + 8 ]
    48a8:	ca 22 20 0c 	st  %g5, [ %o0 + 0xc ]
    48ac:	02 80 00 07 	be  48c8 <__GI_memmove+0x22c>
    48b0:	80 88 60 04 	btst  4, %g1
    48b4:	c4 1a 7f f8 	ldd  [ %o1 + -8 ], %g2
    48b8:	90 22 20 08 	sub  %o0, 8, %o0
    48bc:	92 22 60 08 	sub  %o1, 8, %o1
    48c0:	c4 22 00 00 	st  %g2, [ %o0 ]
    48c4:	c6 22 20 04 	st  %g3, [ %o0 + 4 ]
    48c8:	02 80 00 06 	be  48e0 <__GI_memmove+0x244>
    48cc:	80 88 60 02 	btst  2, %g1
    48d0:	c4 02 7f fc 	ld  [ %o1 + -4 ], %g2
    48d4:	92 22 60 04 	sub  %o1, 4, %o1
    48d8:	c4 22 3f fc 	st  %g2, [ %o0 + -4 ]
    48dc:	90 22 20 04 	sub  %o0, 4, %o0
    48e0:	02 80 00 06 	be  48f8 <__GI_memmove+0x25c>
    48e4:	80 88 60 01 	btst  1, %g1
    48e8:	c4 12 7f fe 	lduh  [ %o1 + -2 ], %g2
    48ec:	92 22 60 02 	sub  %o1, 2, %o1
    48f0:	c4 32 3f fe 	sth  %g2, [ %o0 + -2 ]
    48f4:	90 22 20 02 	sub  %o0, 2, %o0
    48f8:	02 80 00 04 	be  4908 <__GI_memmove+0x26c>
    48fc:	01 00 00 00 	nop 
    4900:	c4 0a 7f ff 	ldub  [ %o1 + -1 ], %g2
    4904:	c4 2a 3f ff 	stb  %g2, [ %o0 + -1 ]
    4908:	81 c3 e0 08 	retl 
    490c:	d0 03 a0 40 	ld  [ %sp + 0x40 ], %o0
    4910:	d4 1a 7f e0 	ldd  [ %o1 + -32 ], %o2
    4914:	d8 1a 7f e8 	ldd  [ %o1 + -24 ], %o4
    4918:	c4 1a 7f f0 	ldd  [ %o1 + -16 ], %g2
    491c:	c8 1a 7f f8 	ldd  [ %o1 + -8 ], %g4
    4920:	d4 3a 3f e0 	std  %o2, [ %o0 + -32 ]
    4924:	d8 3a 3f e8 	std  %o4, [ %o0 + -24 ]
    4928:	c4 3a 3f f0 	std  %g2, [ %o0 + -16 ]
    492c:	c8 3a 3f f8 	std  %g4, [ %o0 + -8 ]
    4930:	d4 1a 7f c0 	ldd  [ %o1 + -64 ], %o2
    4934:	d8 1a 7f c8 	ldd  [ %o1 + -56 ], %o4
    4938:	c4 1a 7f d0 	ldd  [ %o1 + -48 ], %g2
    493c:	c8 1a 7f d8 	ldd  [ %o1 + -40 ], %g4
    4940:	d4 3a 3f c0 	std  %o2, [ %o0 + -64 ]
    4944:	d8 3a 3f c8 	std  %o4, [ %o0 + -56 ]
    4948:	c4 3a 3f d0 	std  %g2, [ %o0 + -48 ]
    494c:	c8 3a 3f d8 	std  %g4, [ %o0 + -40 ]
    4950:	d4 1a 7f a0 	ldd  [ %o1 + -96 ], %o2
    4954:	d8 1a 7f a8 	ldd  [ %o1 + -88 ], %o4
    4958:	c4 1a 7f b0 	ldd  [ %o1 + -80 ], %g2
    495c:	c8 1a 7f b8 	ldd  [ %o1 + -72 ], %g4
    4960:	d4 3a 3f a0 	std  %o2, [ %o0 + -96 ]
    4964:	d8 3a 3f a8 	std  %o4, [ %o0 + -88 ]
    4968:	c4 3a 3f b0 	std  %g2, [ %o0 + -80 ]
    496c:	c8 3a 3f b8 	std  %g4, [ %o0 + -72 ]
    4970:	d4 1a 7f 80 	ldd  [ %o1 + -128 ], %o2
    4974:	d8 1a 7f 88 	ldd  [ %o1 + -120 ], %o4
    4978:	c4 1a 7f 90 	ldd  [ %o1 + -112 ], %g2
    497c:	c8 1a 7f 98 	ldd  [ %o1 + -104 ], %g4
    4980:	d4 3a 3f 80 	std  %o2, [ %o0 + -128 ]
    4984:	d8 3a 3f 88 	std  %o4, [ %o0 + -120 ]
    4988:	c4 3a 3f 90 	std  %g2, [ %o0 + -112 ]
    498c:	c8 3a 3f 98 	std  %g4, [ %o0 + -104 ]
    4990:	8c a1 a0 80 	subcc  %g6, 0x80, %g6
    4994:	92 22 60 80 	sub  %o1, 0x80, %o1
    4998:	12 bf ff de 	bne  4910 <__GI_memmove+0x274>
    499c:	90 22 20 80 	sub  %o0, 0x80, %o0
    49a0:	8c 88 60 70 	andcc  %g1, 0x70, %g6
    49a4:	02 bf ff c2 	be  48ac <__GI_memmove+0x210>
    49a8:	80 88 60 08 	btst  8, %g1
    49ac:	99 31 a0 01 	srl  %g6, 1, %o4
    49b0:	84 10 00 0f 	mov  %o7, %g2
    49b4:	98 01 80 0c 	add  %g6, %o4, %o4
    49b8:	40 00 04 cb 	call  5ce4 <__GI_memcpy+0x1064>
    49bc:	92 22 40 06 	sub  %o1, %g6, %o1
    49c0:	9e 10 00 02 	mov  %g2, %o7
    49c4:	81 c3 7e f4 	jmp  %o5 + -268
    49c8:	90 22 00 06 	sub  %o0, %g6, %o0
    49cc:	96 0a a0 0e 	and  %o2, 0xe, %o3
    49d0:	84 10 00 0f 	mov  %o7, %g2
    49d4:	99 2a e0 03 	sll  %o3, 3, %o4
    49d8:	90 22 00 0b 	sub  %o0, %o3, %o0
    49dc:	40 00 04 c2 	call  5ce4 <__GI_memcpy+0x1064>
    49e0:	92 22 40 0b 	sub  %o1, %o3, %o1
    49e4:	9e 10 00 02 	mov  %g2, %o7
    49e8:	81 c3 60 84 	jmp  %o5 + 0x84
    49ec:	80 8a a0 01 	btst  1, %o2
    49f0:	c4 0a 60 0c 	ldub  [ %o1 + 0xc ], %g2
    49f4:	c6 0a 60 0d 	ldub  [ %o1 + 0xd ], %g3
    49f8:	c4 2a 20 0c 	stb  %g2, [ %o0 + 0xc ]
    49fc:	c6 2a 20 0d 	stb  %g3, [ %o0 + 0xd ]
    4a00:	c4 0a 60 0a 	ldub  [ %o1 + 0xa ], %g2
    4a04:	c6 0a 60 0b 	ldub  [ %o1 + 0xb ], %g3
    4a08:	c4 2a 20 0a 	stb  %g2, [ %o0 + 0xa ]
    4a0c:	c6 2a 20 0b 	stb  %g3, [ %o0 + 0xb ]
    4a10:	c4 0a 60 08 	ldub  [ %o1 + 8 ], %g2
    4a14:	c6 0a 60 09 	ldub  [ %o1 + 9 ], %g3
    4a18:	c4 2a 20 08 	stb  %g2, [ %o0 + 8 ]
    4a1c:	c6 2a 20 09 	stb  %g3, [ %o0 + 9 ]
    4a20:	c4 0a 60 06 	ldub  [ %o1 + 6 ], %g2
    4a24:	c6 0a 60 07 	ldub  [ %o1 + 7 ], %g3
    4a28:	c4 2a 20 06 	stb  %g2, [ %o0 + 6 ]
    4a2c:	c6 2a 20 07 	stb  %g3, [ %o0 + 7 ]
    4a30:	c4 0a 60 04 	ldub  [ %o1 + 4 ], %g2
    4a34:	c6 0a 60 05 	ldub  [ %o1 + 5 ], %g3
    4a38:	c4 2a 20 04 	stb  %g2, [ %o0 + 4 ]
    4a3c:	c6 2a 20 05 	stb  %g3, [ %o0 + 5 ]
    4a40:	c4 0a 60 02 	ldub  [ %o1 + 2 ], %g2
    4a44:	c6 0a 60 03 	ldub  [ %o1 + 3 ], %g3
    4a48:	c4 2a 20 02 	stb  %g2, [ %o0 + 2 ]
    4a4c:	c6 2a 20 03 	stb  %g3, [ %o0 + 3 ]
    4a50:	c4 0a 60 00 	ldub  [ %o1 ], %g2
    4a54:	c6 0a 60 01 	ldub  [ %o1 + 1 ], %g3
    4a58:	c4 2a 20 00 	stb  %g2, [ %o0 ]
    4a5c:	c6 2a 20 01 	stb  %g3, [ %o0 + 1 ]
    4a60:	02 80 00 04 	be  4a70 <__GI_memmove+0x3d4>
    4a64:	01 00 00 00 	nop 
    4a68:	c4 0a 7f ff 	ldub  [ %o1 + -1 ], %g2
    4a6c:	c4 2a 3f ff 	stb  %g2, [ %o0 + -1 ]
    4a70:	81 c3 e0 08 	retl 
    4a74:	d0 03 a0 40 	ld  [ %sp + 0x40 ], %o0
    4a78:	12 bf ff d5 	bne  49cc <__GI_memmove+0x330>
    4a7c:	80 8a a0 08 	btst  8, %o2
    4a80:	02 80 00 08 	be  4aa0 <__GI_memmove+0x404>
    4a84:	80 8a a0 04 	btst  4, %o2
    4a88:	c4 02 7f f8 	ld  [ %o1 + -8 ], %g2
    4a8c:	c6 02 7f fc 	ld  [ %o1 + -4 ], %g3
    4a90:	92 22 60 08 	sub  %o1, 8, %o1
    4a94:	c4 22 3f f8 	st  %g2, [ %o0 + -8 ]
    4a98:	c6 22 3f fc 	st  %g3, [ %o0 + -4 ]
    4a9c:	90 22 20 08 	sub  %o0, 8, %o0
    4aa0:	10 bf ff 8a 	b  48c8 <__GI_memmove+0x22c>
    4aa4:	82 10 00 0a 	mov  %o2, %g1
    4aa8:	80 a2 a0 0f 	cmp  %o2, 0xf
    4aac:	08 bf ff c8 	bleu  49cc <__GI_memmove+0x330>
    4ab0:	80 8a 20 03 	btst  3, %o0
    4ab4:	02 80 00 11 	be  4af8 <__GI_memmove+0x45c>
    4ab8:	80 8a 20 01 	btst  1, %o0
    4abc:	02 80 00 08 	be  4adc <__GI_memmove+0x440>
    4ac0:	80 8a 20 02 	btst  2, %o0
    4ac4:	ca 0a 7f ff 	ldub  [ %o1 + -1 ], %g5
    4ac8:	92 22 60 01 	dec  %o1
    4acc:	ca 2a 3f ff 	stb  %g5, [ %o0 + -1 ]
    4ad0:	90 22 20 01 	dec  %o0
    4ad4:	02 80 00 09 	be  4af8 <__GI_memmove+0x45c>
    4ad8:	94 22 a0 01 	dec  %o2
    4adc:	ca 0a 7f ff 	ldub  [ %o1 + -1 ], %g5
    4ae0:	92 22 60 02 	sub  %o1, 2, %o1
    4ae4:	ca 2a 3f ff 	stb  %g5, [ %o0 + -1 ]
    4ae8:	90 22 20 02 	sub  %o0, 2, %o0
    4aec:	ca 0a 40 00 	ldub  [ %o1 ], %g5
    4af0:	94 22 a0 02 	sub  %o2, 2, %o2
    4af4:	ca 2a 00 00 	stb  %g5, [ %o0 ]
    4af8:	84 0a 60 03 	and  %o1, 3, %g2
    4afc:	92 0a 7f fc 	and  %o1, -4, %o1
    4b00:	86 0a a0 0c 	and  %o2, 0xc, %g3
    4b04:	92 02 60 04 	add  %o1, 4, %o1
    4b08:	80 a0 e0 04 	cmp  %g3, 4
    4b0c:	89 28 a0 03 	sll  %g2, 3, %g4
    4b10:	84 10 20 20 	mov  0x20, %g2
    4b14:	02 80 00 18 	be  4b74 <__GI_memmove+0x4d8>
    4b18:	8c 20 80 04 	sub  %g2, %g4, %g6
    4b1c:	0a 80 00 10 	bcs  4b5c <__GI_memmove+0x4c0>
    4b20:	80 a0 e0 08 	cmp  %g3, 8
    4b24:	02 80 00 08 	be  4b44 <__GI_memmove+0x4a8>
    4b28:	87 32 a0 02 	srl  %o2, 2, %g3
    4b2c:	d6 02 7f fc 	ld  [ %o1 + -4 ], %o3
    4b30:	90 02 3f f8 	add  %o0, -8, %o0
    4b34:	d8 02 7f f8 	ld  [ %o1 + -8 ], %o4
    4b38:	92 02 7f f0 	add  %o1, -16, %o1
    4b3c:	10 80 00 1e 	b  4bb4 <__GI_memmove+0x518>
    4b40:	86 00 e0 01 	inc  %g3
    4b44:	d8 02 7f fc 	ld  [ %o1 + -4 ], %o4
    4b48:	90 02 3f fc 	add  %o0, -4, %o0
    4b4c:	c2 02 7f f8 	ld  [ %o1 + -8 ], %g1
    4b50:	92 02 7f f4 	add  %o1, -12, %o1
    4b54:	10 80 00 1d 	b  4bc8 <__GI_memmove+0x52c>
    4b58:	86 00 e0 02 	add  %g3, 2, %g3
    4b5c:	da 02 7f fc 	ld  [ %o1 + -4 ], %o5
    4b60:	90 02 3f f4 	add  %o0, -12, %o0
    4b64:	d6 02 7f f8 	ld  [ %o1 + -8 ], %o3
    4b68:	92 02 7f ec 	add  %o1, -20, %o1
    4b6c:	10 80 00 0d 	b  4ba0 <__GI_memmove+0x504>
    4b70:	87 32 a0 02 	srl  %o2, 2, %g3
    4b74:	c2 02 7f fc 	ld  [ %o1 + -4 ], %g1
    4b78:	87 32 a0 02 	srl  %o2, 2, %g3
    4b7c:	da 02 7f f8 	ld  [ %o1 + -8 ], %o5
    4b80:	92 02 7f e8 	add  %o1, -24, %o1
    4b84:	90 02 3f f0 	add  %o0, -16, %o0
    4b88:	86 00 ff ff 	add  %g3, -1, %g3
    4b8c:	d6 02 60 0c 	ld  [ %o1 + 0xc ], %o3
    4b90:	85 2b 40 04 	sll  %o5, %g4, %g2
    4b94:	8b 30 40 06 	srl  %g1, %g6, %g5
    4b98:	84 10 80 05 	or  %g2, %g5, %g2
    4b9c:	c4 22 20 0c 	st  %g2, [ %o0 + 0xc ]
    4ba0:	d8 02 60 08 	ld  [ %o1 + 8 ], %o4
    4ba4:	85 2a c0 04 	sll  %o3, %g4, %g2
    4ba8:	8b 33 40 06 	srl  %o5, %g6, %g5
    4bac:	84 10 80 05 	or  %g2, %g5, %g2
    4bb0:	c4 22 20 08 	st  %g2, [ %o0 + 8 ]
    4bb4:	c2 02 60 04 	ld  [ %o1 + 4 ], %g1
    4bb8:	85 2b 00 04 	sll  %o4, %g4, %g2
    4bbc:	8b 32 c0 06 	srl  %o3, %g6, %g5
    4bc0:	84 10 80 05 	or  %g2, %g5, %g2
    4bc4:	c4 22 20 04 	st  %g2, [ %o0 + 4 ]
    4bc8:	da 02 40 00 	ld  [ %o1 ], %o5
    4bcc:	85 28 40 04 	sll  %g1, %g4, %g2
    4bd0:	8b 33 00 06 	srl  %o4, %g6, %g5
    4bd4:	86 80 ff fc 	addcc  %g3, -4, %g3
    4bd8:	84 10 80 05 	or  %g2, %g5, %g2
    4bdc:	92 02 7f f0 	add  %o1, -16, %o1
    4be0:	c4 22 00 00 	st  %g2, [ %o0 ]
    4be4:	90 02 3f f0 	add  %o0, -16, %o0
    4be8:	32 bf ff ea 	bne,a   4b90 <__GI_memmove+0x4f4>
    4bec:	d6 02 60 0c 	ld  [ %o1 + 0xc ], %o3
    4bf0:	85 2b 40 04 	sll  %o5, %g4, %g2
    4bf4:	8b 30 40 06 	srl  %g1, %g6, %g5
    4bf8:	87 31 20 03 	srl  %g4, 3, %g3
    4bfc:	84 10 80 05 	or  %g2, %g5, %g2
    4c00:	92 02 40 03 	add  %o1, %g3, %o1
    4c04:	80 8a a0 02 	btst  2, %o2
    4c08:	c4 22 20 0c 	st  %g2, [ %o0 + 0xc ]
    4c0c:	02 80 00 08 	be  4c2c <__GI_memmove+0x590>
    4c10:	80 8a a0 01 	btst  1, %o2
    4c14:	ca 0a 60 0f 	ldub  [ %o1 + 0xf ], %g5
    4c18:	92 02 7f fe 	add  %o1, -2, %o1
    4c1c:	ca 2a 20 0b 	stb  %g5, [ %o0 + 0xb ]
    4c20:	90 02 3f fe 	add  %o0, -2, %o0
    4c24:	ca 0a 60 10 	ldub  [ %o1 + 0x10 ], %g5
    4c28:	ca 2a 20 0c 	stb  %g5, [ %o0 + 0xc ]
    4c2c:	02 80 00 04 	be  4c3c <__GI_memmove+0x5a0>
    4c30:	01 00 00 00 	nop 
    4c34:	ca 0a 60 0f 	ldub  [ %o1 + 0xf ], %g5
    4c38:	ca 2a 20 0b 	stb  %g5, [ %o0 + 0xb ]
    4c3c:	81 c3 e0 08 	retl 
    4c40:	d0 03 a0 40 	ld  [ %sp + 0x40 ], %o0
    4c44:	80 8a 60 01 	btst  1, %o1
    4c48:	02 80 00 08 	be  4c68 <__GI_memmove+0x5cc>
    4c4c:	80 8a 60 02 	btst  2, %o1
    4c50:	c4 0a 40 00 	ldub  [ %o1 ], %g2
    4c54:	92 02 60 01 	inc  %o1
    4c58:	c4 2a 00 00 	stb  %g2, [ %o0 ]
    4c5c:	94 22 a0 01 	dec  %o2
    4c60:	12 80 00 10 	bne  4ca0 <__GI_memcpy+0x20>
    4c64:	90 02 20 01 	inc  %o0
    4c68:	c4 12 40 00 	lduh  [ %o1 ], %g2
    4c6c:	92 02 60 02 	add  %o1, 2, %o1
    4c70:	c4 32 00 00 	sth  %g2, [ %o0 ]
    4c74:	94 22 a0 02 	sub  %o2, 2, %o2
    4c78:	10 80 00 0a 	b  4ca0 <__GI_memcpy+0x20>
    4c7c:	90 02 20 02 	add  %o0, 2, %o0

00004c80 <__GI_memcpy>:
    4c80:	98 22 00 09 	sub  %o0, %o1, %o4
    4c84:	d0 23 a0 40 	st  %o0, [ %sp + 0x40 ]
    4c88:	9a 8b 20 03 	andcc  %o4, 3, %o5
    4c8c:	12 80 00 f4 	bne  505c <__GI_memcpy+0x3dc>
    4c90:	80 a2 a0 0f 	cmp  %o2, 0xf
    4c94:	08 80 04 08 	bleu  5cb4 <__GI_memcpy+0x1034>
    4c98:	80 8a 60 03 	btst  3, %o1
    4c9c:	12 bf ff ea 	bne  4c44 <__GI_memmove+0x5a8>
    4ca0:	80 8a 60 04 	btst  4, %o1
    4ca4:	02 80 00 07 	be  4cc0 <__GI_memcpy+0x40>
    4ca8:	82 10 00 0a 	mov  %o2, %g1
    4cac:	d8 02 40 00 	ld  [ %o1 ], %o4
    4cb0:	82 20 60 04 	sub  %g1, 4, %g1
    4cb4:	d8 22 00 00 	st  %o4, [ %o0 ]
    4cb8:	92 02 60 04 	add  %o1, 4, %o1
    4cbc:	90 02 20 04 	add  %o0, 4, %o0
    4cc0:	8c 88 7f 80 	andcc  %g1, -128, %g6
    4cc4:	02 80 00 37 	be  4da0 <__GI_memcpy+0x120>
    4cc8:	80 8a 20 04 	btst  4, %o0
    4ccc:	02 80 00 84 	be  4edc <__GI_memcpy+0x25c>
    4cd0:	d4 1a 60 00 	ldd  [ %o1 ], %o2
    4cd4:	d8 1a 60 08 	ldd  [ %o1 + 8 ], %o4
    4cd8:	c4 1a 60 10 	ldd  [ %o1 + 0x10 ], %g2
    4cdc:	c8 1a 60 18 	ldd  [ %o1 + 0x18 ], %g4
    4ce0:	d4 22 20 00 	st  %o2, [ %o0 ]
    4ce4:	d6 22 20 04 	st  %o3, [ %o0 + 4 ]
    4ce8:	d8 22 20 08 	st  %o4, [ %o0 + 8 ]
    4cec:	da 22 20 0c 	st  %o5, [ %o0 + 0xc ]
    4cf0:	c4 22 20 10 	st  %g2, [ %o0 + 0x10 ]
    4cf4:	c6 22 20 14 	st  %g3, [ %o0 + 0x14 ]
    4cf8:	c8 22 20 18 	st  %g4, [ %o0 + 0x18 ]
    4cfc:	ca 22 20 1c 	st  %g5, [ %o0 + 0x1c ]
    4d00:	d4 1a 60 20 	ldd  [ %o1 + 0x20 ], %o2
    4d04:	d8 1a 60 28 	ldd  [ %o1 + 0x28 ], %o4
    4d08:	c4 1a 60 30 	ldd  [ %o1 + 0x30 ], %g2
    4d0c:	c8 1a 60 38 	ldd  [ %o1 + 0x38 ], %g4
    4d10:	d4 22 20 20 	st  %o2, [ %o0 + 0x20 ]
    4d14:	d6 22 20 24 	st  %o3, [ %o0 + 0x24 ]
    4d18:	d8 22 20 28 	st  %o4, [ %o0 + 0x28 ]
    4d1c:	da 22 20 2c 	st  %o5, [ %o0 + 0x2c ]
    4d20:	c4 22 20 30 	st  %g2, [ %o0 + 0x30 ]
    4d24:	c6 22 20 34 	st  %g3, [ %o0 + 0x34 ]
    4d28:	c8 22 20 38 	st  %g4, [ %o0 + 0x38 ]
    4d2c:	ca 22 20 3c 	st  %g5, [ %o0 + 0x3c ]
    4d30:	d4 1a 60 40 	ldd  [ %o1 + 0x40 ], %o2
    4d34:	d8 1a 60 48 	ldd  [ %o1 + 0x48 ], %o4
    4d38:	c4 1a 60 50 	ldd  [ %o1 + 0x50 ], %g2
    4d3c:	c8 1a 60 58 	ldd  [ %o1 + 0x58 ], %g4
    4d40:	d4 22 20 40 	st  %o2, [ %o0 + 0x40 ]
    4d44:	d6 22 20 44 	st  %o3, [ %o0 + 0x44 ]
    4d48:	d8 22 20 48 	st  %o4, [ %o0 + 0x48 ]
    4d4c:	da 22 20 4c 	st  %o5, [ %o0 + 0x4c ]
    4d50:	c4 22 20 50 	st  %g2, [ %o0 + 0x50 ]
    4d54:	c6 22 20 54 	st  %g3, [ %o0 + 0x54 ]
    4d58:	c8 22 20 58 	st  %g4, [ %o0 + 0x58 ]
    4d5c:	ca 22 20 5c 	st  %g5, [ %o0 + 0x5c ]
    4d60:	d4 1a 60 60 	ldd  [ %o1 + 0x60 ], %o2
    4d64:	d8 1a 60 68 	ldd  [ %o1 + 0x68 ], %o4
    4d68:	c4 1a 60 70 	ldd  [ %o1 + 0x70 ], %g2
    4d6c:	c8 1a 60 78 	ldd  [ %o1 + 0x78 ], %g4
    4d70:	d4 22 20 60 	st  %o2, [ %o0 + 0x60 ]
    4d74:	d6 22 20 64 	st  %o3, [ %o0 + 0x64 ]
    4d78:	d8 22 20 68 	st  %o4, [ %o0 + 0x68 ]
    4d7c:	da 22 20 6c 	st  %o5, [ %o0 + 0x6c ]
    4d80:	c4 22 20 70 	st  %g2, [ %o0 + 0x70 ]
    4d84:	c6 22 20 74 	st  %g3, [ %o0 + 0x74 ]
    4d88:	c8 22 20 78 	st  %g4, [ %o0 + 0x78 ]
    4d8c:	ca 22 20 7c 	st  %g5, [ %o0 + 0x7c ]
    4d90:	8c a1 a0 80 	subcc  %g6, 0x80, %g6
    4d94:	92 02 60 80 	add  %o1, 0x80, %o1
    4d98:	12 bf ff ce 	bne  4cd0 <__GI_memcpy+0x50>
    4d9c:	90 02 20 80 	add  %o0, 0x80, %o0
    4da0:	8c 88 60 70 	andcc  %g1, 0x70, %g6
    4da4:	02 80 00 34 	be  4e74 <__GI_memcpy+0x1f4>
    4da8:	80 88 60 08 	btst  8, %g1
    4dac:	99 31 a0 01 	srl  %g6, 1, %o4
    4db0:	84 10 00 0f 	mov  %o7, %g2
    4db4:	98 01 80 0c 	add  %g6, %o4, %o4
    4db8:	92 02 40 06 	add  %o1, %g6, %o1
    4dbc:	40 00 03 ca 	call  5ce4 <__GI_memcpy+0x1064>
    4dc0:	90 02 00 06 	add  %o0, %g6, %o0
    4dc4:	81 c3 60 b8 	jmp  %o5 + 0xb8
    4dc8:	9e 10 00 02 	mov  %g2, %o7
    4dcc:	c4 1a 7f 90 	ldd  [ %o1 + -112 ], %g2
    4dd0:	c8 1a 7f 98 	ldd  [ %o1 + -104 ], %g4
    4dd4:	c4 22 3f 90 	st  %g2, [ %o0 + -112 ]
    4dd8:	c6 22 3f 94 	st  %g3, [ %o0 + -108 ]
    4ddc:	c8 22 3f 98 	st  %g4, [ %o0 + -104 ]
    4de0:	ca 22 3f 9c 	st  %g5, [ %o0 + -100 ]
    4de4:	c4 1a 7f a0 	ldd  [ %o1 + -96 ], %g2
    4de8:	c8 1a 7f a8 	ldd  [ %o1 + -88 ], %g4
    4dec:	c4 22 3f a0 	st  %g2, [ %o0 + -96 ]
    4df0:	c6 22 3f a4 	st  %g3, [ %o0 + -92 ]
    4df4:	c8 22 3f a8 	st  %g4, [ %o0 + -88 ]
    4df8:	ca 22 3f ac 	st  %g5, [ %o0 + -84 ]
    4dfc:	c4 1a 7f b0 	ldd  [ %o1 + -80 ], %g2
    4e00:	c8 1a 7f b8 	ldd  [ %o1 + -72 ], %g4
    4e04:	c4 22 3f b0 	st  %g2, [ %o0 + -80 ]
    4e08:	c6 22 3f b4 	st  %g3, [ %o0 + -76 ]
    4e0c:	c8 22 3f b8 	st  %g4, [ %o0 + -72 ]
    4e10:	ca 22 3f bc 	st  %g5, [ %o0 + -68 ]
    4e14:	c4 1a 7f c0 	ldd  [ %o1 + -64 ], %g2
    4e18:	c8 1a 7f c8 	ldd  [ %o1 + -56 ], %g4
    4e1c:	c4 22 3f c0 	st  %g2, [ %o0 + -64 ]
    4e20:	c6 22 3f c4 	st  %g3, [ %o0 + -60 ]
    4e24:	c8 22 3f c8 	st  %g4, [ %o0 + -56 ]
    4e28:	ca 22 3f cc 	st  %g5, [ %o0 + -52 ]
    4e2c:	c4 1a 7f d0 	ldd  [ %o1 + -48 ], %g2
    4e30:	c8 1a 7f d8 	ldd  [ %o1 + -40 ], %g4
    4e34:	c4 22 3f d0 	st  %g2, [ %o0 + -48 ]
    4e38:	c6 22 3f d4 	st  %g3, [ %o0 + -44 ]
    4e3c:	c8 22 3f d8 	st  %g4, [ %o0 + -40 ]
    4e40:	ca 22 3f dc 	st  %g5, [ %o0 + -36 ]
    4e44:	c4 1a 7f e0 	ldd  [ %o1 + -32 ], %g2
    4e48:	c8 1a 7f e8 	ldd  [ %o1 + -24 ], %g4
    4e4c:	c4 22 3f e0 	st  %g2, [ %o0 + -32 ]
    4e50:	c6 22 3f e4 	st  %g3, [ %o0 + -28 ]
    4e54:	c8 22 3f e8 	st  %g4, [ %o0 + -24 ]
    4e58:	ca 22 3f ec 	st  %g5, [ %o0 + -20 ]
    4e5c:	c4 1a 7f f0 	ldd  [ %o1 + -16 ], %g2
    4e60:	c8 1a 7f f8 	ldd  [ %o1 + -8 ], %g4
    4e64:	c4 22 3f f0 	st  %g2, [ %o0 + -16 ]
    4e68:	c6 22 3f f4 	st  %g3, [ %o0 + -12 ]
    4e6c:	c8 22 3f f8 	st  %g4, [ %o0 + -8 ]
    4e70:	ca 22 3f fc 	st  %g5, [ %o0 + -4 ]
    4e74:	02 80 00 07 	be  4e90 <__GI_memcpy+0x210>
    4e78:	80 88 60 04 	btst  4, %g1
    4e7c:	c4 1a 40 00 	ldd  [ %o1 ], %g2
    4e80:	90 02 20 08 	add  %o0, 8, %o0
    4e84:	c4 22 3f f8 	st  %g2, [ %o0 + -8 ]
    4e88:	92 02 60 08 	add  %o1, 8, %o1
    4e8c:	c6 22 3f fc 	st  %g3, [ %o0 + -4 ]
    4e90:	02 80 00 06 	be  4ea8 <__GI_memcpy+0x228>
    4e94:	80 88 60 02 	btst  2, %g1
    4e98:	c4 02 40 00 	ld  [ %o1 ], %g2
    4e9c:	92 02 60 04 	add  %o1, 4, %o1
    4ea0:	c4 22 00 00 	st  %g2, [ %o0 ]
    4ea4:	90 02 20 04 	add  %o0, 4, %o0
    4ea8:	02 80 00 06 	be  4ec0 <__GI_memcpy+0x240>
    4eac:	80 88 60 01 	btst  1, %g1
    4eb0:	c4 12 40 00 	lduh  [ %o1 ], %g2
    4eb4:	92 02 60 02 	add  %o1, 2, %o1
    4eb8:	c4 32 00 00 	sth  %g2, [ %o0 ]
    4ebc:	90 02 20 02 	add  %o0, 2, %o0
    4ec0:	02 80 00 04 	be  4ed0 <__GI_memcpy+0x250>
    4ec4:	01 00 00 00 	nop 
    4ec8:	c4 0a 40 00 	ldub  [ %o1 ], %g2
    4ecc:	c4 2a 00 00 	stb  %g2, [ %o0 ]
    4ed0:	81 c3 e0 08 	retl 
    4ed4:	d0 03 a0 40 	ld  [ %sp + 0x40 ], %o0
    4ed8:	d4 1a 60 00 	ldd  [ %o1 ], %o2
    4edc:	d8 1a 60 08 	ldd  [ %o1 + 8 ], %o4
    4ee0:	c4 1a 60 10 	ldd  [ %o1 + 0x10 ], %g2
    4ee4:	c8 1a 60 18 	ldd  [ %o1 + 0x18 ], %g4
    4ee8:	d4 3a 20 00 	std  %o2, [ %o0 ]
    4eec:	d8 3a 20 08 	std  %o4, [ %o0 + 8 ]
    4ef0:	c4 3a 20 10 	std  %g2, [ %o0 + 0x10 ]
    4ef4:	c8 3a 20 18 	std  %g4, [ %o0 + 0x18 ]
    4ef8:	d4 1a 60 20 	ldd  [ %o1 + 0x20 ], %o2
    4efc:	d8 1a 60 28 	ldd  [ %o1 + 0x28 ], %o4
    4f00:	c4 1a 60 30 	ldd  [ %o1 + 0x30 ], %g2
    4f04:	c8 1a 60 38 	ldd  [ %o1 + 0x38 ], %g4
    4f08:	d4 3a 20 20 	std  %o2, [ %o0 + 0x20 ]
    4f0c:	d8 3a 20 28 	std  %o4, [ %o0 + 0x28 ]
    4f10:	c4 3a 20 30 	std  %g2, [ %o0 + 0x30 ]
    4f14:	c8 3a 20 38 	std  %g4, [ %o0 + 0x38 ]
    4f18:	d4 1a 60 40 	ldd  [ %o1 + 0x40 ], %o2
    4f1c:	d8 1a 60 48 	ldd  [ %o1 + 0x48 ], %o4
    4f20:	c4 1a 60 50 	ldd  [ %o1 + 0x50 ], %g2
    4f24:	c8 1a 60 58 	ldd  [ %o1 + 0x58 ], %g4
    4f28:	d4 3a 20 40 	std  %o2, [ %o0 + 0x40 ]
    4f2c:	d8 3a 20 48 	std  %o4, [ %o0 + 0x48 ]
    4f30:	c4 3a 20 50 	std  %g2, [ %o0 + 0x50 ]
    4f34:	c8 3a 20 58 	std  %g4, [ %o0 + 0x58 ]
    4f38:	d4 1a 60 60 	ldd  [ %o1 + 0x60 ], %o2
    4f3c:	d8 1a 60 68 	ldd  [ %o1 + 0x68 ], %o4
    4f40:	c4 1a 60 70 	ldd  [ %o1 + 0x70 ], %g2
    4f44:	c8 1a 60 78 	ldd  [ %o1 + 0x78 ], %g4
    4f48:	d4 3a 20 60 	std  %o2, [ %o0 + 0x60 ]
    4f4c:	d8 3a 20 68 	std  %o4, [ %o0 + 0x68 ]
    4f50:	c4 3a 20 70 	std  %g2, [ %o0 + 0x70 ]
    4f54:	c8 3a 20 78 	std  %g4, [ %o0 + 0x78 ]
    4f58:	8c a1 a0 80 	subcc  %g6, 0x80, %g6
    4f5c:	92 02 60 80 	add  %o1, 0x80, %o1
    4f60:	12 bf ff de 	bne  4ed8 <__GI_memcpy+0x258>
    4f64:	90 02 20 80 	add  %o0, 0x80, %o0
    4f68:	8c 88 60 70 	andcc  %g1, 0x70, %g6
    4f6c:	02 80 00 24 	be  4ffc <__GI_memcpy+0x37c>
    4f70:	80 88 60 08 	btst  8, %g1
    4f74:	84 10 00 0f 	mov  %o7, %g2
    4f78:	40 00 03 5d 	call  5cec <__GI_memcpy+0x106c>
    4f7c:	92 02 40 06 	add  %o1, %g6, %o1
    4f80:	9e 10 00 02 	mov  %g2, %o7
    4f84:	81 c3 60 84 	jmp  %o5 + 0x84
    4f88:	90 02 00 06 	add  %o0, %g6, %o0
    4f8c:	c4 1a 7f 90 	ldd  [ %o1 + -112 ], %g2
    4f90:	c8 1a 7f 98 	ldd  [ %o1 + -104 ], %g4
    4f94:	c4 3a 3f 90 	std  %g2, [ %o0 + -112 ]
    4f98:	c8 3a 3f 98 	std  %g4, [ %o0 + -104 ]
    4f9c:	c4 1a 7f a0 	ldd  [ %o1 + -96 ], %g2
    4fa0:	c8 1a 7f a8 	ldd  [ %o1 + -88 ], %g4
    4fa4:	c4 3a 3f a0 	std  %g2, [ %o0 + -96 ]
    4fa8:	c8 3a 3f a8 	std  %g4, [ %o0 + -88 ]
    4fac:	c4 1a 7f b0 	ldd  [ %o1 + -80 ], %g2
    4fb0:	c8 1a 7f b8 	ldd  [ %o1 + -72 ], %g4
    4fb4:	c4 3a 3f b0 	std  %g2, [ %o0 + -80 ]
    4fb8:	c8 3a 3f b8 	std  %g4, [ %o0 + -72 ]
    4fbc:	c4 1a 7f c0 	ldd  [ %o1 + -64 ], %g2
    4fc0:	c8 1a 7f c8 	ldd  [ %o1 + -56 ], %g4
    4fc4:	c4 3a 3f c0 	std  %g2, [ %o0 + -64 ]
    4fc8:	c8 3a 3f c8 	std  %g4, [ %o0 + -56 ]
    4fcc:	c4 1a 7f d0 	ldd  [ %o1 + -48 ], %g2
    4fd0:	c8 1a 7f d8 	ldd  [ %o1 + -40 ], %g4
    4fd4:	c4 3a 3f d0 	std  %g2, [ %o0 + -48 ]
    4fd8:	c8 3a 3f d8 	std  %g4, [ %o0 + -40 ]
    4fdc:	c4 1a 7f e0 	ldd  [ %o1 + -32 ], %g2
    4fe0:	c8 1a 7f e8 	ldd  [ %o1 + -24 ], %g4
    4fe4:	c4 3a 3f e0 	std  %g2, [ %o0 + -32 ]
    4fe8:	c8 3a 3f e8 	std  %g4, [ %o0 + -24 ]
    4fec:	c4 1a 7f f0 	ldd  [ %o1 + -16 ], %g2
    4ff0:	c8 1a 7f f8 	ldd  [ %o1 + -8 ], %g4
    4ff4:	c4 3a 3f f0 	std  %g2, [ %o0 + -16 ]
    4ff8:	c8 3a 3f f8 	std  %g4, [ %o0 + -8 ]
    4ffc:	02 80 00 06 	be  5014 <__GI_memcpy+0x394>
    5000:	80 88 60 04 	btst  4, %g1
    5004:	c4 1a 40 00 	ldd  [ %o1 ], %g2
    5008:	90 02 20 08 	add  %o0, 8, %o0
    500c:	c4 3a 3f f8 	std  %g2, [ %o0 + -8 ]
    5010:	92 02 60 08 	add  %o1, 8, %o1
    5014:	02 80 00 06 	be  502c <__GI_memcpy+0x3ac>
    5018:	80 88 60 02 	btst  2, %g1
    501c:	c4 02 40 00 	ld  [ %o1 ], %g2
    5020:	92 02 60 04 	add  %o1, 4, %o1
    5024:	c4 22 00 00 	st  %g2, [ %o0 ]
    5028:	90 02 20 04 	add  %o0, 4, %o0
    502c:	02 80 00 06 	be  5044 <__GI_memcpy+0x3c4>
    5030:	80 88 60 01 	btst  1, %g1
    5034:	c4 12 40 00 	lduh  [ %o1 ], %g2
    5038:	92 02 60 02 	add  %o1, 2, %o1
    503c:	c4 32 00 00 	sth  %g2, [ %o0 ]
    5040:	90 02 20 02 	add  %o0, 2, %o0
    5044:	02 80 00 04 	be  5054 <__GI_memcpy+0x3d4>
    5048:	01 00 00 00 	nop 
    504c:	c4 0a 40 00 	ldub  [ %o1 ], %g2
    5050:	c4 2a 00 00 	stb  %g2, [ %o0 ]
    5054:	81 c3 e0 08 	retl 
    5058:	d0 03 a0 40 	ld  [ %sp + 0x40 ], %o0
    505c:	80 a2 a0 06 	cmp  %o2, 6
    5060:	08 80 02 ea 	bleu  5c08 <__GI_memcpy+0xf88>
    5064:	80 a2 a1 00 	cmp  %o2, 0x100
    5068:	1a 80 00 65 	bcc  51fc <__GI_memcpy+0x57c>
    506c:	80 8a 20 03 	btst  3, %o0
    5070:	02 80 00 11 	be  50b4 <__GI_memcpy+0x434>
    5074:	80 8a 20 01 	btst  1, %o0
    5078:	02 80 00 08 	be  5098 <__GI_memcpy+0x418>
    507c:	80 8a 20 02 	btst  2, %o0
    5080:	ca 0a 40 00 	ldub  [ %o1 ], %g5
    5084:	92 02 60 01 	inc  %o1
    5088:	ca 2a 00 00 	stb  %g5, [ %o0 ]
    508c:	94 22 a0 01 	dec  %o2
    5090:	12 80 00 09 	bne  50b4 <__GI_memcpy+0x434>
    5094:	90 02 20 01 	inc  %o0
    5098:	c6 0a 40 00 	ldub  [ %o1 ], %g3
    509c:	92 02 60 02 	add  %o1, 2, %o1
    50a0:	c6 2a 00 00 	stb  %g3, [ %o0 ]
    50a4:	94 22 a0 02 	sub  %o2, 2, %o2
    50a8:	c6 0a 7f ff 	ldub  [ %o1 + -1 ], %g3
    50ac:	90 02 20 02 	add  %o0, 2, %o0
    50b0:	c6 2a 3f ff 	stb  %g3, [ %o0 + -1 ]
    50b4:	84 0a 60 03 	and  %o1, 3, %g2
    50b8:	86 0a a0 0c 	and  %o2, 0xc, %g3
    50bc:	92 0a 7f fc 	and  %o1, -4, %o1
    50c0:	80 a0 e0 04 	cmp  %g3, 4
    50c4:	89 28 a0 03 	sll  %g2, 3, %g4
    50c8:	84 10 20 20 	mov  0x20, %g2
    50cc:	02 80 00 17 	be  5128 <__GI_memcpy+0x4a8>
    50d0:	8c 20 80 04 	sub  %g2, %g4, %g6
    50d4:	0a 80 00 0f 	bcs  5110 <__GI_memcpy+0x490>
    50d8:	80 a0 e0 08 	cmp  %g3, 8
    50dc:	02 80 00 07 	be  50f8 <__GI_memcpy+0x478>
    50e0:	87 32 a0 02 	srl  %o2, 2, %g3
    50e4:	d6 02 40 00 	ld  [ %o1 ], %o3
    50e8:	90 02 3f f8 	add  %o0, -8, %o0
    50ec:	d8 02 60 04 	ld  [ %o1 + 4 ], %o4
    50f0:	10 80 00 1f 	b  516c <__GI_memcpy+0x4ec>
    50f4:	86 00 e0 01 	inc  %g3
    50f8:	d8 02 40 00 	ld  [ %o1 ], %o4
    50fc:	90 02 3f f4 	add  %o0, -12, %o0
    5100:	da 02 60 04 	ld  [ %o1 + 4 ], %o5
    5104:	86 00 e0 02 	add  %g3, 2, %g3
    5108:	10 80 00 1e 	b  5180 <__GI_memcpy+0x500>
    510c:	92 02 7f fc 	add  %o1, -4, %o1
    5110:	c2 02 40 00 	ld  [ %o1 ], %g1
    5114:	90 02 3f fc 	add  %o0, -4, %o0
    5118:	d6 02 60 04 	ld  [ %o1 + 4 ], %o3
    511c:	87 32 a0 02 	srl  %o2, 2, %g3
    5120:	10 80 00 0e 	b  5158 <__GI_memcpy+0x4d8>
    5124:	92 02 60 04 	add  %o1, 4, %o1
    5128:	da 02 40 00 	ld  [ %o1 ], %o5
    512c:	80 a2 a0 07 	cmp  %o2, 7
    5130:	c2 02 60 04 	ld  [ %o1 + 4 ], %g1
    5134:	87 32 a0 02 	srl  %o2, 2, %g3
    5138:	08 80 00 1c 	bleu  51a8 <__GI_memcpy+0x528>
    513c:	92 02 60 08 	add  %o1, 8, %o1
    5140:	d6 02 40 00 	ld  [ %o1 ], %o3
    5144:	86 00 ff ff 	add  %g3, -1, %g3
    5148:	85 2b 40 04 	sll  %o5, %g4, %g2
    514c:	8b 30 40 06 	srl  %g1, %g6, %g5
    5150:	84 10 80 05 	or  %g2, %g5, %g2
    5154:	c4 22 00 00 	st  %g2, [ %o0 ]
    5158:	d8 02 60 04 	ld  [ %o1 + 4 ], %o4
    515c:	85 28 40 04 	sll  %g1, %g4, %g2
    5160:	8b 32 c0 06 	srl  %o3, %g6, %g5
    5164:	84 10 80 05 	or  %g2, %g5, %g2
    5168:	c4 22 20 04 	st  %g2, [ %o0 + 4 ]
    516c:	da 02 60 08 	ld  [ %o1 + 8 ], %o5
    5170:	85 2a c0 04 	sll  %o3, %g4, %g2
    5174:	8b 33 00 06 	srl  %o4, %g6, %g5
    5178:	84 10 80 05 	or  %g2, %g5, %g2
    517c:	c4 22 20 08 	st  %g2, [ %o0 + 8 ]
    5180:	c2 02 60 0c 	ld  [ %o1 + 0xc ], %g1
    5184:	85 2b 00 04 	sll  %o4, %g4, %g2
    5188:	8b 33 40 06 	srl  %o5, %g6, %g5
    518c:	86 80 ff fc 	addcc  %g3, -4, %g3
    5190:	84 10 80 05 	or  %g2, %g5, %g2
    5194:	92 02 60 10 	add  %o1, 0x10, %o1
    5198:	c4 22 20 0c 	st  %g2, [ %o0 + 0xc ]
    519c:	90 02 20 10 	add  %o0, 0x10, %o0
    51a0:	32 bf ff ea 	bne,a   5148 <__GI_memcpy+0x4c8>
    51a4:	d6 02 40 00 	ld  [ %o1 ], %o3
    51a8:	85 2b 40 04 	sll  %o5, %g4, %g2
    51ac:	8b 30 40 06 	srl  %g1, %g6, %g5
    51b0:	87 31 a0 03 	srl  %g6, 3, %g3
    51b4:	84 10 80 05 	or  %g2, %g5, %g2
    51b8:	92 22 40 03 	sub  %o1, %g3, %o1
    51bc:	80 8a a0 02 	btst  2, %o2
    51c0:	c4 22 00 00 	st  %g2, [ %o0 ]
    51c4:	02 80 00 08 	be  51e4 <__GI_memcpy+0x564>
    51c8:	80 8a a0 01 	btst  1, %o2
    51cc:	c4 0a 40 00 	ldub  [ %o1 ], %g2
    51d0:	92 02 60 02 	add  %o1, 2, %o1
    51d4:	c4 2a 20 04 	stb  %g2, [ %o0 + 4 ]
    51d8:	90 02 20 02 	add  %o0, 2, %o0
    51dc:	c4 0a 7f ff 	ldub  [ %o1 + -1 ], %g2
    51e0:	c4 2a 20 03 	stb  %g2, [ %o0 + 3 ]
    51e4:	02 80 00 04 	be  51f4 <__GI_memcpy+0x574>
    51e8:	01 00 00 00 	nop 
    51ec:	c4 0a 40 00 	ldub  [ %o1 ], %g2
    51f0:	c4 2a 20 04 	stb  %g2, [ %o0 + 4 ]
    51f4:	81 c3 e0 08 	retl 
    51f8:	d0 03 a0 40 	ld  [ %sp + 0x40 ], %o0
    51fc:	80 8a 60 03 	btst  3, %o1
    5200:	02 80 00 11 	be  5244 <__GI_memcpy+0x5c4>
    5204:	80 8a 60 01 	btst  1, %o1
    5208:	02 80 00 08 	be  5228 <__GI_memcpy+0x5a8>
    520c:	80 8a 60 02 	btst  2, %o1
    5210:	c4 0a 40 00 	ldub  [ %o1 ], %g2
    5214:	92 02 60 01 	inc  %o1
    5218:	c4 2a 00 00 	stb  %g2, [ %o0 ]
    521c:	94 22 a0 01 	dec  %o2
    5220:	12 80 00 09 	bne  5244 <__GI_memcpy+0x5c4>
    5224:	90 02 20 01 	inc  %o0
    5228:	c4 12 40 00 	lduh  [ %o1 ], %g2
    522c:	92 02 60 02 	add  %o1, 2, %o1
    5230:	87 30 a0 08 	srl  %g2, 8, %g3
    5234:	94 22 a0 02 	sub  %o2, 2, %o2
    5238:	c6 2a 00 00 	stb  %g3, [ %o0 ]
    523c:	90 02 20 02 	add  %o0, 2, %o0
    5240:	c4 2a 3f ff 	stb  %g2, [ %o0 + -1 ]
    5244:	80 8a 60 04 	btst  4, %o1
    5248:	12 80 00 0d 	bne  527c <__GI_memcpy+0x5fc>
    524c:	80 a3 60 01 	cmp  %o5, 1
    5250:	d8 02 40 00 	ld  [ %o1 ], %o4
    5254:	85 33 20 18 	srl  %o4, 0x18, %g2
    5258:	c4 2a 00 00 	stb  %g2, [ %o0 ]
    525c:	87 33 20 10 	srl  %o4, 0x10, %g3
    5260:	c6 2a 20 01 	stb  %g3, [ %o0 + 1 ]
    5264:	85 33 20 08 	srl  %o4, 8, %g2
    5268:	c4 2a 20 02 	stb  %g2, [ %o0 + 2 ]
    526c:	94 22 a0 04 	sub  %o2, 4, %o2
    5270:	d8 2a 20 03 	stb  %o4, [ %o0 + 3 ]
    5274:	92 02 60 04 	add  %o1, 4, %o1
    5278:	90 02 20 04 	add  %o0, 4, %o0
    527c:	02 80 00 da 	be  55e4 <__GI_memcpy+0x964>
    5280:	80 a3 60 02 	cmp  %o5, 2
    5284:	02 80 00 6e 	be  543c <__GI_memcpy+0x7bc>
    5288:	94 22 a0 04 	sub  %o2, 4, %o2
    528c:	c4 02 40 00 	ld  [ %o1 ], %g2
    5290:	92 02 60 04 	add  %o1, 4, %o1
    5294:	87 30 a0 18 	srl  %g2, 0x18, %g3
    5298:	8a 0a 20 07 	and  %o0, 7, %g5
    529c:	c6 2a 00 00 	stb  %g3, [ %o0 ]
    52a0:	80 a1 60 07 	cmp  %g5, 7
    52a4:	83 28 a0 08 	sll  %g2, 8, %g1
    52a8:	90 02 20 04 	add  %o0, 4, %o0
    52ac:	02 80 01 3b 	be  5798 <__GI_memcpy+0xb18>
    52b0:	96 0a bf c0 	and  %o2, -64, %o3
    52b4:	d8 02 3f f9 	ld  [ %o0 + -7 ], %o4
    52b8:	c4 1a 60 00 	ldd  [ %o1 ], %g2
    52bc:	c8 1a 60 08 	ldd  [ %o1 + 8 ], %g4
    52c0:	9b 30 a0 18 	srl  %g2, 0x18, %o5
    52c4:	8d 30 e0 18 	srl  %g3, 0x18, %g6
    52c8:	85 28 a0 08 	sll  %g2, 8, %g2
    52cc:	9a 13 40 01 	or  %o5, %g1, %o5
    52d0:	83 28 e0 08 	sll  %g3, 8, %g1
    52d4:	84 11 80 02 	or  %g6, %g2, %g2
    52d8:	87 31 20 18 	srl  %g4, 0x18, %g3
    52dc:	8d 31 60 18 	srl  %g5, 0x18, %g6
    52e0:	89 29 20 08 	sll  %g4, 8, %g4
    52e4:	86 10 c0 01 	or  %g3, %g1, %g3
    52e8:	d8 3a 3f f9 	std  %o4, [ %o0 + -7 ]
    52ec:	c4 3a 20 01 	std  %g2, [ %o0 + 1 ]
    52f0:	83 29 60 08 	sll  %g5, 8, %g1
    52f4:	98 11 80 04 	or  %g6, %g4, %o4
    52f8:	c4 1a 60 10 	ldd  [ %o1 + 0x10 ], %g2
    52fc:	c8 1a 60 18 	ldd  [ %o1 + 0x18 ], %g4
    5300:	9b 30 a0 18 	srl  %g2, 0x18, %o5
    5304:	8d 30 e0 18 	srl  %g3, 0x18, %g6
    5308:	85 28 a0 08 	sll  %g2, 8, %g2
    530c:	9a 13 40 01 	or  %o5, %g1, %o5
    5310:	83 28 e0 08 	sll  %g3, 8, %g1
    5314:	84 11 80 02 	or  %g6, %g2, %g2
    5318:	87 31 20 18 	srl  %g4, 0x18, %g3
    531c:	8d 31 60 18 	srl  %g5, 0x18, %g6
    5320:	89 29 20 08 	sll  %g4, 8, %g4
    5324:	86 10 c0 01 	or  %g3, %g1, %g3
    5328:	d8 3a 20 09 	std  %o4, [ %o0 + 9 ]
    532c:	c4 3a 20 11 	std  %g2, [ %o0 + 0x11 ]
    5330:	83 29 60 08 	sll  %g5, 8, %g1
    5334:	98 11 80 04 	or  %g6, %g4, %o4
    5338:	c4 1a 60 20 	ldd  [ %o1 + 0x20 ], %g2
    533c:	c8 1a 60 28 	ldd  [ %o1 + 0x28 ], %g4
    5340:	9b 30 a0 18 	srl  %g2, 0x18, %o5
    5344:	8d 30 e0 18 	srl  %g3, 0x18, %g6
    5348:	85 28 a0 08 	sll  %g2, 8, %g2
    534c:	9a 13 40 01 	or  %o5, %g1, %o5
    5350:	83 28 e0 08 	sll  %g3, 8, %g1
    5354:	84 11 80 02 	or  %g6, %g2, %g2
    5358:	87 31 20 18 	srl  %g4, 0x18, %g3
    535c:	8d 31 60 18 	srl  %g5, 0x18, %g6
    5360:	89 29 20 08 	sll  %g4, 8, %g4
    5364:	86 10 c0 01 	or  %g3, %g1, %g3
    5368:	d8 3a 20 19 	std  %o4, [ %o0 + 0x19 ]
    536c:	c4 3a 20 21 	std  %g2, [ %o0 + 0x21 ]
    5370:	83 29 60 08 	sll  %g5, 8, %g1
    5374:	98 11 80 04 	or  %g6, %g4, %o4
    5378:	c4 1a 60 30 	ldd  [ %o1 + 0x30 ], %g2
    537c:	c8 1a 60 38 	ldd  [ %o1 + 0x38 ], %g4
    5380:	9b 30 a0 18 	srl  %g2, 0x18, %o5
    5384:	8d 30 e0 18 	srl  %g3, 0x18, %g6
    5388:	85 28 a0 08 	sll  %g2, 8, %g2
    538c:	9a 13 40 01 	or  %o5, %g1, %o5
    5390:	83 28 e0 08 	sll  %g3, 8, %g1
    5394:	84 11 80 02 	or  %g6, %g2, %g2
    5398:	87 31 20 18 	srl  %g4, 0x18, %g3
    539c:	8d 31 60 18 	srl  %g5, 0x18, %g6
    53a0:	89 29 20 08 	sll  %g4, 8, %g4
    53a4:	86 10 c0 01 	or  %g3, %g1, %g3
    53a8:	d8 3a 20 29 	std  %o4, [ %o0 + 0x29 ]
    53ac:	c4 3a 20 31 	std  %g2, [ %o0 + 0x31 ]
    53b0:	83 29 60 08 	sll  %g5, 8, %g1
    53b4:	98 11 80 04 	or  %g6, %g4, %o4
    53b8:	96 a2 e0 40 	subcc  %o3, 0x40, %o3
    53bc:	92 02 60 40 	add  %o1, 0x40, %o1
    53c0:	12 bf ff be 	bne  52b8 <__GI_memcpy+0x638>
    53c4:	90 02 20 40 	add  %o0, 0x40, %o0
    53c8:	96 8a a0 30 	andcc  %o2, 0x30, %o3
    53cc:	22 80 00 17 	be,a   5428 <__GI_memcpy+0x7a8>
    53d0:	85 30 60 10 	srl  %g1, 0x10, %g2
    53d4:	c4 1a 60 00 	ldd  [ %o1 ], %g2
    53d8:	c8 1a 60 08 	ldd  [ %o1 + 8 ], %g4
    53dc:	9b 30 a0 18 	srl  %g2, 0x18, %o5
    53e0:	8d 30 e0 18 	srl  %g3, 0x18, %g6
    53e4:	85 28 a0 08 	sll  %g2, 8, %g2
    53e8:	9a 13 40 01 	or  %o5, %g1, %o5
    53ec:	83 28 e0 08 	sll  %g3, 8, %g1
    53f0:	84 11 80 02 	or  %g6, %g2, %g2
    53f4:	87 31 20 18 	srl  %g4, 0x18, %g3
    53f8:	8d 31 60 18 	srl  %g5, 0x18, %g6
    53fc:	89 29 20 08 	sll  %g4, 8, %g4
    5400:	86 10 c0 01 	or  %g3, %g1, %g3
    5404:	d8 3a 3f f9 	std  %o4, [ %o0 + -7 ]
    5408:	c4 3a 20 01 	std  %g2, [ %o0 + 1 ]
    540c:	83 29 60 08 	sll  %g5, 8, %g1
    5410:	98 11 80 04 	or  %g6, %g4, %o4
    5414:	96 a2 e0 10 	subcc  %o3, 0x10, %o3
    5418:	92 02 60 10 	add  %o1, 0x10, %o1
    541c:	12 bf ff ee 	bne  53d4 <__GI_memcpy+0x754>
    5420:	90 02 20 10 	add  %o0, 0x10, %o0
    5424:	85 30 60 10 	srl  %g1, 0x10, %g2
    5428:	d8 22 3f f9 	st  %o4, [ %o0 + -7 ]
    542c:	c4 32 3f fd 	sth  %g2, [ %o0 + -3 ]
    5430:	89 30 60 08 	srl  %g1, 8, %g4
    5434:	10 80 01 f5 	b  5c08 <__GI_memcpy+0xf88>
    5438:	c8 2a 3f ff 	stb  %g4, [ %o0 + -1 ]
    543c:	c4 02 40 00 	ld  [ %o1 ], %g2
    5440:	92 02 60 04 	add  %o1, 4, %o1
    5444:	87 30 a0 10 	srl  %g2, 0x10, %g3
    5448:	8a 0a 20 07 	and  %o0, 7, %g5
    544c:	c6 32 00 00 	sth  %g3, [ %o0 ]
    5450:	80 a1 60 06 	cmp  %g5, 6
    5454:	83 28 a0 10 	sll  %g2, 0x10, %g1
    5458:	90 02 20 04 	add  %o0, 4, %o0
    545c:	02 80 01 8e 	be  5a94 <__GI_memcpy+0xe14>
    5460:	96 0a bf c0 	and  %o2, -64, %o3
    5464:	d8 02 3f fa 	ld  [ %o0 + -6 ], %o4
    5468:	c4 1a 60 00 	ldd  [ %o1 ], %g2
    546c:	c8 1a 60 08 	ldd  [ %o1 + 8 ], %g4
    5470:	9b 30 a0 10 	srl  %g2, 0x10, %o5
    5474:	8d 30 e0 10 	srl  %g3, 0x10, %g6
    5478:	85 28 a0 10 	sll  %g2, 0x10, %g2
    547c:	9a 13 40 01 	or  %o5, %g1, %o5
    5480:	83 28 e0 10 	sll  %g3, 0x10, %g1
    5484:	84 11 80 02 	or  %g6, %g2, %g2
    5488:	87 31 20 10 	srl  %g4, 0x10, %g3
    548c:	8d 31 60 10 	srl  %g5, 0x10, %g6
    5490:	89 29 20 10 	sll  %g4, 0x10, %g4
    5494:	86 10 c0 01 	or  %g3, %g1, %g3
    5498:	d8 3a 3f fa 	std  %o4, [ %o0 + -6 ]
    549c:	c4 3a 20 02 	std  %g2, [ %o0 + 2 ]
    54a0:	83 29 60 10 	sll  %g5, 0x10, %g1
    54a4:	98 11 80 04 	or  %g6, %g4, %o4
    54a8:	c4 1a 60 10 	ldd  [ %o1 + 0x10 ], %g2
    54ac:	c8 1a 60 18 	ldd  [ %o1 + 0x18 ], %g4
    54b0:	9b 30 a0 10 	srl  %g2, 0x10, %o5
    54b4:	8d 30 e0 10 	srl  %g3, 0x10, %g6
    54b8:	85 28 a0 10 	sll  %g2, 0x10, %g2
    54bc:	9a 13 40 01 	or  %o5, %g1, %o5
    54c0:	83 28 e0 10 	sll  %g3, 0x10, %g1
    54c4:	84 11 80 02 	or  %g6, %g2, %g2
    54c8:	87 31 20 10 	srl  %g4, 0x10, %g3
    54cc:	8d 31 60 10 	srl  %g5, 0x10, %g6
    54d0:	89 29 20 10 	sll  %g4, 0x10, %g4
    54d4:	86 10 c0 01 	or  %g3, %g1, %g3
    54d8:	d8 3a 20 0a 	std  %o4, [ %o0 + 0xa ]
    54dc:	c4 3a 20 12 	std  %g2, [ %o0 + 0x12 ]
    54e0:	83 29 60 10 	sll  %g5, 0x10, %g1
    54e4:	98 11 80 04 	or  %g6, %g4, %o4
    54e8:	c4 1a 60 20 	ldd  [ %o1 + 0x20 ], %g2
    54ec:	c8 1a 60 28 	ldd  [ %o1 + 0x28 ], %g4
    54f0:	9b 30 a0 10 	srl  %g2, 0x10, %o5
    54f4:	8d 30 e0 10 	srl  %g3, 0x10, %g6
    54f8:	85 28 a0 10 	sll  %g2, 0x10, %g2
    54fc:	9a 13 40 01 	or  %o5, %g1, %o5
    5500:	83 28 e0 10 	sll  %g3, 0x10, %g1
    5504:	84 11 80 02 	or  %g6, %g2, %g2
    5508:	87 31 20 10 	srl  %g4, 0x10, %g3
    550c:	8d 31 60 10 	srl  %g5, 0x10, %g6
    5510:	89 29 20 10 	sll  %g4, 0x10, %g4
    5514:	86 10 c0 01 	or  %g3, %g1, %g3
    5518:	d8 3a 20 1a 	std  %o4, [ %o0 + 0x1a ]
    551c:	c4 3a 20 22 	std  %g2, [ %o0 + 0x22 ]
    5520:	83 29 60 10 	sll  %g5, 0x10, %g1
    5524:	98 11 80 04 	or  %g6, %g4, %o4
    5528:	c4 1a 60 30 	ldd  [ %o1 + 0x30 ], %g2
    552c:	c8 1a 60 38 	ldd  [ %o1 + 0x38 ], %g4
    5530:	9b 30 a0 10 	srl  %g2, 0x10, %o5
    5534:	8d 30 e0 10 	srl  %g3, 0x10, %g6
    5538:	85 28 a0 10 	sll  %g2, 0x10, %g2
    553c:	9a 13 40 01 	or  %o5, %g1, %o5
    5540:	83 28 e0 10 	sll  %g3, 0x10, %g1
    5544:	84 11 80 02 	or  %g6, %g2, %g2
    5548:	87 31 20 10 	srl  %g4, 0x10, %g3
    554c:	8d 31 60 10 	srl  %g5, 0x10, %g6
    5550:	89 29 20 10 	sll  %g4, 0x10, %g4
    5554:	86 10 c0 01 	or  %g3, %g1, %g3
    5558:	d8 3a 20 2a 	std  %o4, [ %o0 + 0x2a ]
    555c:	c4 3a 20 32 	std  %g2, [ %o0 + 0x32 ]
    5560:	83 29 60 10 	sll  %g5, 0x10, %g1
    5564:	98 11 80 04 	or  %g6, %g4, %o4
    5568:	96 a2 e0 40 	subcc  %o3, 0x40, %o3
    556c:	92 02 60 40 	add  %o1, 0x40, %o1
    5570:	12 bf ff be 	bne  5468 <__GI_memcpy+0x7e8>
    5574:	90 02 20 40 	add  %o0, 0x40, %o0
    5578:	96 8a a0 30 	andcc  %o2, 0x30, %o3
    557c:	22 80 00 17 	be,a   55d8 <__GI_memcpy+0x958>
    5580:	85 30 60 10 	srl  %g1, 0x10, %g2
    5584:	c4 1a 60 00 	ldd  [ %o1 ], %g2
    5588:	c8 1a 60 08 	ldd  [ %o1 + 8 ], %g4
    558c:	9b 30 a0 10 	srl  %g2, 0x10, %o5
    5590:	8d 30 e0 10 	srl  %g3, 0x10, %g6
    5594:	85 28 a0 10 	sll  %g2, 0x10, %g2
    5598:	9a 13 40 01 	or  %o5, %g1, %o5
    559c:	83 28 e0 10 	sll  %g3, 0x10, %g1
    55a0:	84 11 80 02 	or  %g6, %g2, %g2
    55a4:	87 31 20 10 	srl  %g4, 0x10, %g3
    55a8:	8d 31 60 10 	srl  %g5, 0x10, %g6
    55ac:	89 29 20 10 	sll  %g4, 0x10, %g4
    55b0:	86 10 c0 01 	or  %g3, %g1, %g3
    55b4:	d8 3a 3f fa 	std  %o4, [ %o0 + -6 ]
    55b8:	c4 3a 20 02 	std  %g2, [ %o0 + 2 ]
    55bc:	83 29 60 10 	sll  %g5, 0x10, %g1
    55c0:	98 11 80 04 	or  %g6, %g4, %o4
    55c4:	96 a2 e0 10 	subcc  %o3, 0x10, %o3
    55c8:	92 02 60 10 	add  %o1, 0x10, %o1
    55cc:	12 bf ff ee 	bne  5584 <__GI_memcpy+0x904>
    55d0:	90 02 20 10 	add  %o0, 0x10, %o0
    55d4:	85 30 60 10 	srl  %g1, 0x10, %g2
    55d8:	d8 22 3f fa 	st  %o4, [ %o0 + -6 ]
    55dc:	10 80 01 8b 	b  5c08 <__GI_memcpy+0xf88>
    55e0:	c4 32 3f fe 	sth  %g2, [ %o0 + -2 ]
    55e4:	c4 02 40 00 	ld  [ %o1 ], %g2
    55e8:	94 22 a0 04 	sub  %o2, 4, %o2
    55ec:	87 30 a0 18 	srl  %g2, 0x18, %g3
    55f0:	8a 0a 20 07 	and  %o0, 7, %g5
    55f4:	c6 2a 00 00 	stb  %g3, [ %o0 ]
    55f8:	80 a1 60 05 	cmp  %g5, 5
    55fc:	89 30 a0 08 	srl  %g2, 8, %g4
    5600:	83 28 a0 18 	sll  %g2, 0x18, %g1
    5604:	c8 32 20 01 	sth  %g4, [ %o0 + 1 ]
    5608:	92 02 60 04 	add  %o1, 4, %o1
    560c:	02 80 00 c3 	be  5918 <__GI_memcpy+0xc98>
    5610:	96 0a bf c0 	and  %o2, -64, %o3
    5614:	d8 02 3f ff 	ld  [ %o0 + -1 ], %o4
    5618:	90 02 20 04 	add  %o0, 4, %o0
    561c:	c4 1a 60 00 	ldd  [ %o1 ], %g2
    5620:	c8 1a 60 08 	ldd  [ %o1 + 8 ], %g4
    5624:	9b 30 a0 08 	srl  %g2, 8, %o5
    5628:	8d 30 e0 08 	srl  %g3, 8, %g6
    562c:	85 28 a0 18 	sll  %g2, 0x18, %g2
    5630:	9a 13 40 01 	or  %o5, %g1, %o5
    5634:	83 28 e0 18 	sll  %g3, 0x18, %g1
    5638:	84 11 80 02 	or  %g6, %g2, %g2
    563c:	87 31 20 08 	srl  %g4, 8, %g3
    5640:	8d 31 60 08 	srl  %g5, 8, %g6
    5644:	89 29 20 18 	sll  %g4, 0x18, %g4
    5648:	86 10 c0 01 	or  %g3, %g1, %g3
    564c:	d8 3a 3f fb 	std  %o4, [ %o0 + -5 ]
    5650:	c4 3a 20 03 	std  %g2, [ %o0 + 3 ]
    5654:	83 29 60 18 	sll  %g5, 0x18, %g1
    5658:	98 11 80 04 	or  %g6, %g4, %o4
    565c:	c4 1a 60 10 	ldd  [ %o1 + 0x10 ], %g2
    5660:	c8 1a 60 18 	ldd  [ %o1 + 0x18 ], %g4
    5664:	9b 30 a0 08 	srl  %g2, 8, %o5
    5668:	8d 30 e0 08 	srl  %g3, 8, %g6
    566c:	85 28 a0 18 	sll  %g2, 0x18, %g2
    5670:	9a 13 40 01 	or  %o5, %g1, %o5
    5674:	83 28 e0 18 	sll  %g3, 0x18, %g1
    5678:	84 11 80 02 	or  %g6, %g2, %g2
    567c:	87 31 20 08 	srl  %g4, 8, %g3
    5680:	8d 31 60 08 	srl  %g5, 8, %g6
    5684:	89 29 20 18 	sll  %g4, 0x18, %g4
    5688:	86 10 c0 01 	or  %g3, %g1, %g3
    568c:	d8 3a 20 0b 	std  %o4, [ %o0 + 0xb ]
    5690:	c4 3a 20 13 	std  %g2, [ %o0 + 0x13 ]
    5694:	83 29 60 18 	sll  %g5, 0x18, %g1
    5698:	98 11 80 04 	or  %g6, %g4, %o4
    569c:	c4 1a 60 20 	ldd  [ %o1 + 0x20 ], %g2
    56a0:	c8 1a 60 28 	ldd  [ %o1 + 0x28 ], %g4
    56a4:	9b 30 a0 08 	srl  %g2, 8, %o5
    56a8:	8d 30 e0 08 	srl  %g3, 8, %g6
    56ac:	85 28 a0 18 	sll  %g2, 0x18, %g2
    56b0:	9a 13 40 01 	or  %o5, %g1, %o5
    56b4:	83 28 e0 18 	sll  %g3, 0x18, %g1
    56b8:	84 11 80 02 	or  %g6, %g2, %g2
    56bc:	87 31 20 08 	srl  %g4, 8, %g3
    56c0:	8d 31 60 08 	srl  %g5, 8, %g6
    56c4:	89 29 20 18 	sll  %g4, 0x18, %g4
    56c8:	86 10 c0 01 	or  %g3, %g1, %g3
    56cc:	d8 3a 20 1b 	std  %o4, [ %o0 + 0x1b ]
    56d0:	c4 3a 20 23 	std  %g2, [ %o0 + 0x23 ]
    56d4:	83 29 60 18 	sll  %g5, 0x18, %g1
    56d8:	98 11 80 04 	or  %g6, %g4, %o4
    56dc:	c4 1a 60 30 	ldd  [ %o1 + 0x30 ], %g2
    56e0:	c8 1a 60 38 	ldd  [ %o1 + 0x38 ], %g4
    56e4:	9b 30 a0 08 	srl  %g2, 8, %o5
    56e8:	8d 30 e0 08 	srl  %g3, 8, %g6
    56ec:	85 28 a0 18 	sll  %g2, 0x18, %g2
    56f0:	9a 13 40 01 	or  %o5, %g1, %o5
    56f4:	83 28 e0 18 	sll  %g3, 0x18, %g1
    56f8:	84 11 80 02 	or  %g6, %g2, %g2
