
.//hello_world.elf:     file format elf32-sparc


Disassembly of section .text:

00000000 <_start>:
       0:	3d 00 00 80 	sethi  %hi(0x20000), %fp
       4:	9c 27 a0 40 	sub  %fp, 0x40, %sp
       8:	a0 10 20 01 	mov  1, %l0
       c:	81 94 20 00 	mov  %l0, %wim
      10:	21 00 00 04 	sethi  %hi(0x1000), %l0
      14:	a0 14 20 e7 	or  %l0, 0xe7, %l0	! 10e7 <window_underflow_trap_handler+0x83>
      18:	81 88 00 10 	mov  %l0, %psr
      1c:	21 00 00 08 	sethi  %hi(0x2000), %l0
      20:	a0 14 20 00 	mov  %l0, %l0	! 2000 <trap_table_base>
      24:	81 9c 20 00 	mov  %l0, %tbr
      28:	40 00 18 3d 	call  611c <main>
      2c:	01 00 00 00 	nop 
      30:	91 d0 20 00 	ta  0

00000034 <page_table_setup>:
      34:	81 c3 e0 08 	retl 
      38:	01 00 00 00 	nop 

0000003c <set_context_table_pointer>:
      3c:	81 c3 e0 08 	retl 
      40:	01 00 00 00 	nop 
	...

00001000 <window_overflow_trap_handler>:
    1000:	a7 50 00 00 	rd  %wim, %l3
    1004:	a9 2c e0 07 	sll  %l3, 7, %l4
    1008:	a7 34 e0 01 	srl  %l3, 1, %l3
    100c:	a6 14 c0 14 	or  %l3, %l4, %l3
    1010:	a6 0c e0 ff 	and  %l3, 0xff, %l3
    1014:	81 90 00 00 	mov  %g0, %wim
    1018:	01 00 00 00 	nop 
    101c:	01 00 00 00 	nop 
    1020:	01 00 00 00 	nop 
    1024:	81 e0 00 00 	save 
    1028:	e0 3b a0 00 	std  %l0, [ %sp ]
    102c:	e4 3b a0 08 	std  %l2, [ %sp + 8 ]
    1030:	e8 3b a0 10 	std  %l4, [ %sp + 0x10 ]
    1034:	ec 3b a0 18 	std  %l6, [ %sp + 0x18 ]
    1038:	f0 3b a0 20 	std  %i0, [ %sp + 0x20 ]
    103c:	f4 3b a0 28 	std  %i2, [ %sp + 0x28 ]
    1040:	f8 3b a0 30 	std  %i4, [ %sp + 0x30 ]
    1044:	fc 3b a0 38 	std  %fp, [ %sp + 0x38 ]
    1048:	81 e8 00 00 	restore 
    104c:	81 90 00 13 	mov  %l3, %wim
    1050:	01 00 00 00 	nop 
    1054:	01 00 00 00 	nop 
    1058:	01 00 00 00 	nop 
    105c:	81 c4 40 00 	jmp  %l1
    1060:	81 cc 80 00 	rett  %l2

00001064 <window_underflow_trap_handler>:
    1064:	a7 50 00 00 	rd  %wim, %l3
    1068:	a9 34 e0 07 	srl  %l3, 7, %l4
    106c:	a7 2c e0 01 	sll  %l3, 1, %l3
    1070:	a6 14 c0 14 	or  %l3, %l4, %l3
    1074:	a6 0c e0 ff 	and  %l3, 0xff, %l3
    1078:	81 90 00 00 	mov  %g0, %wim
    107c:	01 00 00 00 	nop 
    1080:	01 00 00 00 	nop 
    1084:	01 00 00 00 	nop 
    1088:	81 e8 00 00 	restore 
    108c:	81 e8 00 00 	restore 
    1090:	e0 1b a0 00 	ldd  [ %sp ], %l0
    1094:	e4 1b a0 08 	ldd  [ %sp + 8 ], %l2
    1098:	e8 1b a0 10 	ldd  [ %sp + 0x10 ], %l4
    109c:	ec 1b a0 18 	ldd  [ %sp + 0x18 ], %l6
    10a0:	f0 1b a0 20 	ldd  [ %sp + 0x20 ], %i0
    10a4:	f4 1b a0 28 	ldd  [ %sp + 0x28 ], %i2
    10a8:	f8 1b a0 30 	ldd  [ %sp + 0x30 ], %i4
    10ac:	fc 1b a0 38 	ldd  [ %sp + 0x38 ], %fp
    10b0:	81 e0 00 00 	save 
    10b4:	81 e0 00 00 	save 
    10b8:	81 90 00 13 	mov  %l3, %wim
    10bc:	01 00 00 00 	nop 
    10c0:	01 00 00 00 	nop 
    10c4:	01 00 00 00 	nop 
    10c8:	81 c4 40 00 	jmp  %l1
    10cc:	81 cc 80 00 	rett  %l2
    10d0:	01 00 00 00 	nop 
    10d4:	01 00 00 00 	nop 
    10d8:	01 00 00 00 	nop 
    10dc:	01 00 00 00 	nop 
    10e0:	01 00 00 00 	nop 
    10e4:	01 00 00 00 	nop 
    10e8:	01 00 00 00 	nop 
    10ec:	01 00 00 00 	nop 
    10f0:	01 00 00 00 	nop 
    10f4:	01 00 00 00 	nop 
    10f8:	01 00 00 00 	nop 
    10fc:	01 00 00 00 	nop 
    1100:	01 00 00 00 	nop 
    1104:	01 00 00 00 	nop 
    1108:	01 00 00 00 	nop 
    110c:	01 00 00 00 	nop 
    1110:	01 00 00 00 	nop 
    1114:	01 00 00 00 	nop 
    1118:	01 00 00 00 	nop 
    111c:	01 00 00 00 	nop 
    1120:	01 00 00 00 	nop 
    1124:	01 00 00 00 	nop 
    1128:	01 00 00 00 	nop 
    112c:	01 00 00 00 	nop 
    1130:	01 00 00 00 	nop 
    1134:	01 00 00 00 	nop 
    1138:	01 00 00 00 	nop 
    113c:	01 00 00 00 	nop 
    1140:	01 00 00 00 	nop 
    1144:	01 00 00 00 	nop 
    1148:	01 00 00 00 	nop 
    114c:	01 00 00 00 	nop 
    1150:	01 00 00 00 	nop 
    1154:	01 00 00 00 	nop 
    1158:	01 00 00 00 	nop 
    115c:	01 00 00 00 	nop 
    1160:	01 00 00 00 	nop 
    1164:	01 00 00 00 	nop 
    1168:	01 00 00 00 	nop 
    116c:	01 00 00 00 	nop 
    1170:	01 00 00 00 	nop 
    1174:	01 00 00 00 	nop 
    1178:	01 00 00 00 	nop 
    117c:	01 00 00 00 	nop 
    1180:	01 00 00 00 	nop 
    1184:	01 00 00 00 	nop 
    1188:	01 00 00 00 	nop 
    118c:	01 00 00 00 	nop 
    1190:	01 00 00 00 	nop 
    1194:	01 00 00 00 	nop 
    1198:	01 00 00 00 	nop 
    119c:	01 00 00 00 	nop 
    11a0:	01 00 00 00 	nop 
    11a4:	01 00 00 00 	nop 
    11a8:	01 00 00 00 	nop 
    11ac:	01 00 00 00 	nop 
    11b0:	01 00 00 00 	nop 
    11b4:	01 00 00 00 	nop 
    11b8:	01 00 00 00 	nop 
    11bc:	01 00 00 00 	nop 
    11c0:	01 00 00 00 	nop 
    11c4:	01 00 00 00 	nop 
    11c8:	01 00 00 00 	nop 
    11cc:	01 00 00 00 	nop 
    11d0:	01 00 00 00 	nop 
    11d4:	01 00 00 00 	nop 
    11d8:	01 00 00 00 	nop 
    11dc:	01 00 00 00 	nop 
    11e0:	01 00 00 00 	nop 
    11e4:	01 00 00 00 	nop 
    11e8:	01 00 00 00 	nop 
    11ec:	01 00 00 00 	nop 
    11f0:	01 00 00 00 	nop 
    11f4:	01 00 00 00 	nop 
    11f8:	01 00 00 00 	nop 
    11fc:	01 00 00 00 	nop 
    1200:	01 00 00 00 	nop 
    1204:	01 00 00 00 	nop 
    1208:	01 00 00 00 	nop 
    120c:	01 00 00 00 	nop 
    1210:	01 00 00 00 	nop 
    1214:	01 00 00 00 	nop 
    1218:	01 00 00 00 	nop 
    121c:	01 00 00 00 	nop 
    1220:	01 00 00 00 	nop 
    1224:	01 00 00 00 	nop 
    1228:	01 00 00 00 	nop 
    122c:	01 00 00 00 	nop 
    1230:	01 00 00 00 	nop 
    1234:	01 00 00 00 	nop 
    1238:	01 00 00 00 	nop 
    123c:	01 00 00 00 	nop 
    1240:	01 00 00 00 	nop 
    1244:	01 00 00 00 	nop 
    1248:	01 00 00 00 	nop 
    124c:	01 00 00 00 	nop 
    1250:	01 00 00 00 	nop 
    1254:	01 00 00 00 	nop 
    1258:	01 00 00 00 	nop 
    125c:	01 00 00 00 	nop 
    1260:	01 00 00 00 	nop 
    1264:	01 00 00 00 	nop 
    1268:	01 00 00 00 	nop 
    126c:	01 00 00 00 	nop 
    1270:	01 00 00 00 	nop 
    1274:	01 00 00 00 	nop 
    1278:	01 00 00 00 	nop 
    127c:	01 00 00 00 	nop 
    1280:	01 00 00 00 	nop 
    1284:	01 00 00 00 	nop 
    1288:	01 00 00 00 	nop 
    128c:	01 00 00 00 	nop 
    1290:	01 00 00 00 	nop 
    1294:	01 00 00 00 	nop 
    1298:	01 00 00 00 	nop 
    129c:	01 00 00 00 	nop 
    12a0:	01 00 00 00 	nop 
    12a4:	01 00 00 00 	nop 
    12a8:	01 00 00 00 	nop 
    12ac:	01 00 00 00 	nop 
    12b0:	01 00 00 00 	nop 
    12b4:	01 00 00 00 	nop 
    12b8:	01 00 00 00 	nop 
    12bc:	01 00 00 00 	nop 
    12c0:	01 00 00 00 	nop 
    12c4:	01 00 00 00 	nop 
    12c8:	01 00 00 00 	nop 
    12cc:	01 00 00 00 	nop 
    12d0:	01 00 00 00 	nop 
    12d4:	01 00 00 00 	nop 
    12d8:	01 00 00 00 	nop 
    12dc:	01 00 00 00 	nop 
    12e0:	01 00 00 00 	nop 
    12e4:	01 00 00 00 	nop 
    12e8:	01 00 00 00 	nop 
    12ec:	01 00 00 00 	nop 
    12f0:	01 00 00 00 	nop 
    12f4:	01 00 00 00 	nop 
    12f8:	01 00 00 00 	nop 
    12fc:	01 00 00 00 	nop 
    1300:	01 00 00 00 	nop 
    1304:	01 00 00 00 	nop 
    1308:	01 00 00 00 	nop 
    130c:	01 00 00 00 	nop 
    1310:	01 00 00 00 	nop 
    1314:	01 00 00 00 	nop 
    1318:	01 00 00 00 	nop 
    131c:	01 00 00 00 	nop 
    1320:	01 00 00 00 	nop 
    1324:	01 00 00 00 	nop 
    1328:	01 00 00 00 	nop 
    132c:	01 00 00 00 	nop 
    1330:	01 00 00 00 	nop 
    1334:	01 00 00 00 	nop 
    1338:	01 00 00 00 	nop 
    133c:	01 00 00 00 	nop 
    1340:	01 00 00 00 	nop 
    1344:	01 00 00 00 	nop 
    1348:	01 00 00 00 	nop 
    134c:	01 00 00 00 	nop 
    1350:	01 00 00 00 	nop 
    1354:	01 00 00 00 	nop 
    1358:	01 00 00 00 	nop 
    135c:	01 00 00 00 	nop 
    1360:	01 00 00 00 	nop 
    1364:	01 00 00 00 	nop 
    1368:	01 00 00 00 	nop 
    136c:	01 00 00 00 	nop 
    1370:	01 00 00 00 	nop 
    1374:	01 00 00 00 	nop 
    1378:	01 00 00 00 	nop 
    137c:	01 00 00 00 	nop 
    1380:	01 00 00 00 	nop 
    1384:	01 00 00 00 	nop 
    1388:	01 00 00 00 	nop 
    138c:	01 00 00 00 	nop 
    1390:	01 00 00 00 	nop 
    1394:	01 00 00 00 	nop 
    1398:	01 00 00 00 	nop 
    139c:	01 00 00 00 	nop 
    13a0:	01 00 00 00 	nop 
    13a4:	01 00 00 00 	nop 
    13a8:	01 00 00 00 	nop 
    13ac:	01 00 00 00 	nop 
    13b0:	01 00 00 00 	nop 
    13b4:	01 00 00 00 	nop 
    13b8:	01 00 00 00 	nop 
    13bc:	01 00 00 00 	nop 
    13c0:	01 00 00 00 	nop 
    13c4:	01 00 00 00 	nop 
    13c8:	01 00 00 00 	nop 
    13cc:	01 00 00 00 	nop 
    13d0:	01 00 00 00 	nop 
    13d4:	01 00 00 00 	nop 
    13d8:	01 00 00 00 	nop 
    13dc:	01 00 00 00 	nop 
    13e0:	01 00 00 00 	nop 
    13e4:	01 00 00 00 	nop 
    13e8:	01 00 00 00 	nop 
    13ec:	01 00 00 00 	nop 
    13f0:	01 00 00 00 	nop 
    13f4:	01 00 00 00 	nop 
    13f8:	01 00 00 00 	nop 
    13fc:	01 00 00 00 	nop 
    1400:	01 00 00 00 	nop 
    1404:	01 00 00 00 	nop 
    1408:	01 00 00 00 	nop 
    140c:	01 00 00 00 	nop 
    1410:	01 00 00 00 	nop 
    1414:	01 00 00 00 	nop 
    1418:	01 00 00 00 	nop 
    141c:	01 00 00 00 	nop 
    1420:	01 00 00 00 	nop 
    1424:	01 00 00 00 	nop 
    1428:	01 00 00 00 	nop 
    142c:	01 00 00 00 	nop 
    1430:	01 00 00 00 	nop 
    1434:	01 00 00 00 	nop 
    1438:	01 00 00 00 	nop 
    143c:	01 00 00 00 	nop 
    1440:	01 00 00 00 	nop 
    1444:	01 00 00 00 	nop 
    1448:	01 00 00 00 	nop 
    144c:	01 00 00 00 	nop 
    1450:	01 00 00 00 	nop 
    1454:	01 00 00 00 	nop 
    1458:	01 00 00 00 	nop 
    145c:	01 00 00 00 	nop 
    1460:	01 00 00 00 	nop 
    1464:	01 00 00 00 	nop 
    1468:	01 00 00 00 	nop 
    146c:	01 00 00 00 	nop 
    1470:	01 00 00 00 	nop 
    1474:	01 00 00 00 	nop 
    1478:	01 00 00 00 	nop 
    147c:	01 00 00 00 	nop 
    1480:	01 00 00 00 	nop 
    1484:	01 00 00 00 	nop 
    1488:	01 00 00 00 	nop 
    148c:	01 00 00 00 	nop 
    1490:	01 00 00 00 	nop 
    1494:	01 00 00 00 	nop 
    1498:	01 00 00 00 	nop 
    149c:	01 00 00 00 	nop 
    14a0:	01 00 00 00 	nop 
    14a4:	01 00 00 00 	nop 
    14a8:	01 00 00 00 	nop 
    14ac:	01 00 00 00 	nop 
    14b0:	01 00 00 00 	nop 
    14b4:	01 00 00 00 	nop 
    14b8:	01 00 00 00 	nop 
    14bc:	01 00 00 00 	nop 
    14c0:	01 00 00 00 	nop 
    14c4:	01 00 00 00 	nop 
    14c8:	01 00 00 00 	nop 
    14cc:	01 00 00 00 	nop 
    14d0:	01 00 00 00 	nop 
    14d4:	01 00 00 00 	nop 
    14d8:	01 00 00 00 	nop 
    14dc:	01 00 00 00 	nop 
    14e0:	01 00 00 00 	nop 
    14e4:	01 00 00 00 	nop 
    14e8:	01 00 00 00 	nop 
    14ec:	01 00 00 00 	nop 
    14f0:	01 00 00 00 	nop 
    14f4:	01 00 00 00 	nop 
    14f8:	01 00 00 00 	nop 
    14fc:	01 00 00 00 	nop 
    1500:	01 00 00 00 	nop 
    1504:	01 00 00 00 	nop 
    1508:	01 00 00 00 	nop 
    150c:	01 00 00 00 	nop 
    1510:	01 00 00 00 	nop 
    1514:	01 00 00 00 	nop 
    1518:	01 00 00 00 	nop 
    151c:	01 00 00 00 	nop 
    1520:	01 00 00 00 	nop 
    1524:	01 00 00 00 	nop 
    1528:	01 00 00 00 	nop 
    152c:	01 00 00 00 	nop 
    1530:	01 00 00 00 	nop 
    1534:	01 00 00 00 	nop 
    1538:	01 00 00 00 	nop 
    153c:	01 00 00 00 	nop 
    1540:	01 00 00 00 	nop 
    1544:	01 00 00 00 	nop 
    1548:	01 00 00 00 	nop 
    154c:	01 00 00 00 	nop 
    1550:	01 00 00 00 	nop 
    1554:	01 00 00 00 	nop 
    1558:	01 00 00 00 	nop 
    155c:	01 00 00 00 	nop 
    1560:	01 00 00 00 	nop 
    1564:	01 00 00 00 	nop 
    1568:	01 00 00 00 	nop 
    156c:	01 00 00 00 	nop 
    1570:	01 00 00 00 	nop 
    1574:	01 00 00 00 	nop 
    1578:	01 00 00 00 	nop 
    157c:	01 00 00 00 	nop 
    1580:	01 00 00 00 	nop 
    1584:	01 00 00 00 	nop 
    1588:	01 00 00 00 	nop 
    158c:	01 00 00 00 	nop 
    1590:	01 00 00 00 	nop 
    1594:	01 00 00 00 	nop 
    1598:	01 00 00 00 	nop 
    159c:	01 00 00 00 	nop 
    15a0:	01 00 00 00 	nop 
    15a4:	01 00 00 00 	nop 
    15a8:	01 00 00 00 	nop 
    15ac:	01 00 00 00 	nop 
    15b0:	01 00 00 00 	nop 
    15b4:	01 00 00 00 	nop 
    15b8:	01 00 00 00 	nop 
    15bc:	01 00 00 00 	nop 
    15c0:	01 00 00 00 	nop 
    15c4:	01 00 00 00 	nop 
    15c8:	01 00 00 00 	nop 
    15cc:	01 00 00 00 	nop 
    15d0:	01 00 00 00 	nop 
    15d4:	01 00 00 00 	nop 
    15d8:	01 00 00 00 	nop 
    15dc:	01 00 00 00 	nop 
    15e0:	01 00 00 00 	nop 
    15e4:	01 00 00 00 	nop 
    15e8:	01 00 00 00 	nop 
    15ec:	01 00 00 00 	nop 
    15f0:	01 00 00 00 	nop 
    15f4:	01 00 00 00 	nop 
    15f8:	01 00 00 00 	nop 
    15fc:	01 00 00 00 	nop 
    1600:	01 00 00 00 	nop 
    1604:	01 00 00 00 	nop 
    1608:	01 00 00 00 	nop 
    160c:	01 00 00 00 	nop 
    1610:	01 00 00 00 	nop 
    1614:	01 00 00 00 	nop 
    1618:	01 00 00 00 	nop 
    161c:	01 00 00 00 	nop 
    1620:	01 00 00 00 	nop 
    1624:	01 00 00 00 	nop 
    1628:	01 00 00 00 	nop 
    162c:	01 00 00 00 	nop 
    1630:	01 00 00 00 	nop 
    1634:	01 00 00 00 	nop 
    1638:	01 00 00 00 	nop 
    163c:	01 00 00 00 	nop 
    1640:	01 00 00 00 	nop 
    1644:	01 00 00 00 	nop 
    1648:	01 00 00 00 	nop 
    164c:	01 00 00 00 	nop 
    1650:	01 00 00 00 	nop 
    1654:	01 00 00 00 	nop 
    1658:	01 00 00 00 	nop 
    165c:	01 00 00 00 	nop 
    1660:	01 00 00 00 	nop 
    1664:	01 00 00 00 	nop 
    1668:	01 00 00 00 	nop 
    166c:	01 00 00 00 	nop 
    1670:	01 00 00 00 	nop 
    1674:	01 00 00 00 	nop 
    1678:	01 00 00 00 	nop 
    167c:	01 00 00 00 	nop 
    1680:	01 00 00 00 	nop 
    1684:	01 00 00 00 	nop 
    1688:	01 00 00 00 	nop 
    168c:	01 00 00 00 	nop 
    1690:	01 00 00 00 	nop 
    1694:	01 00 00 00 	nop 
    1698:	01 00 00 00 	nop 
    169c:	01 00 00 00 	nop 
    16a0:	01 00 00 00 	nop 
    16a4:	01 00 00 00 	nop 
    16a8:	01 00 00 00 	nop 
    16ac:	01 00 00 00 	nop 
    16b0:	01 00 00 00 	nop 
    16b4:	01 00 00 00 	nop 
    16b8:	01 00 00 00 	nop 
    16bc:	01 00 00 00 	nop 
    16c0:	01 00 00 00 	nop 
    16c4:	01 00 00 00 	nop 
    16c8:	01 00 00 00 	nop 
    16cc:	01 00 00 00 	nop 
    16d0:	01 00 00 00 	nop 
    16d4:	01 00 00 00 	nop 
    16d8:	01 00 00 00 	nop 
    16dc:	01 00 00 00 	nop 
    16e0:	01 00 00 00 	nop 
    16e4:	01 00 00 00 	nop 
    16e8:	01 00 00 00 	nop 
    16ec:	01 00 00 00 	nop 
    16f0:	01 00 00 00 	nop 
    16f4:	01 00 00 00 	nop 
    16f8:	01 00 00 00 	nop 
    16fc:	01 00 00 00 	nop 
    1700:	01 00 00 00 	nop 
    1704:	01 00 00 00 	nop 
    1708:	01 00 00 00 	nop 
    170c:	01 00 00 00 	nop 
    1710:	01 00 00 00 	nop 
    1714:	01 00 00 00 	nop 
    1718:	01 00 00 00 	nop 
    171c:	01 00 00 00 	nop 
    1720:	01 00 00 00 	nop 
    1724:	01 00 00 00 	nop 
    1728:	01 00 00 00 	nop 
    172c:	01 00 00 00 	nop 
    1730:	01 00 00 00 	nop 
    1734:	01 00 00 00 	nop 
    1738:	01 00 00 00 	nop 
    173c:	01 00 00 00 	nop 
    1740:	01 00 00 00 	nop 
    1744:	01 00 00 00 	nop 
    1748:	01 00 00 00 	nop 
    174c:	01 00 00 00 	nop 
    1750:	01 00 00 00 	nop 
    1754:	01 00 00 00 	nop 
    1758:	01 00 00 00 	nop 
    175c:	01 00 00 00 	nop 
    1760:	01 00 00 00 	nop 
    1764:	01 00 00 00 	nop 
    1768:	01 00 00 00 	nop 
    176c:	01 00 00 00 	nop 
    1770:	01 00 00 00 	nop 
    1774:	01 00 00 00 	nop 
    1778:	01 00 00 00 	nop 
    177c:	01 00 00 00 	nop 
    1780:	01 00 00 00 	nop 
    1784:	01 00 00 00 	nop 
    1788:	01 00 00 00 	nop 
    178c:	01 00 00 00 	nop 
    1790:	01 00 00 00 	nop 
    1794:	01 00 00 00 	nop 
    1798:	01 00 00 00 	nop 
    179c:	01 00 00 00 	nop 
    17a0:	01 00 00 00 	nop 
    17a4:	01 00 00 00 	nop 
    17a8:	01 00 00 00 	nop 
    17ac:	01 00 00 00 	nop 
    17b0:	01 00 00 00 	nop 
    17b4:	01 00 00 00 	nop 
    17b8:	01 00 00 00 	nop 
    17bc:	01 00 00 00 	nop 
    17c0:	01 00 00 00 	nop 
    17c4:	01 00 00 00 	nop 
    17c8:	01 00 00 00 	nop 
    17cc:	01 00 00 00 	nop 
    17d0:	01 00 00 00 	nop 
    17d4:	01 00 00 00 	nop 
    17d8:	01 00 00 00 	nop 
    17dc:	01 00 00 00 	nop 
    17e0:	01 00 00 00 	nop 
    17e4:	01 00 00 00 	nop 
    17e8:	01 00 00 00 	nop 
    17ec:	01 00 00 00 	nop 
    17f0:	01 00 00 00 	nop 
    17f4:	01 00 00 00 	nop 
    17f8:	01 00 00 00 	nop 
    17fc:	01 00 00 00 	nop 
    1800:	01 00 00 00 	nop 
    1804:	01 00 00 00 	nop 
    1808:	01 00 00 00 	nop 
    180c:	01 00 00 00 	nop 
    1810:	01 00 00 00 	nop 
    1814:	01 00 00 00 	nop 
    1818:	01 00 00 00 	nop 
    181c:	01 00 00 00 	nop 
    1820:	01 00 00 00 	nop 
    1824:	01 00 00 00 	nop 
    1828:	01 00 00 00 	nop 
    182c:	01 00 00 00 	nop 
    1830:	01 00 00 00 	nop 
    1834:	01 00 00 00 	nop 
    1838:	01 00 00 00 	nop 
    183c:	01 00 00 00 	nop 
    1840:	01 00 00 00 	nop 
    1844:	01 00 00 00 	nop 
    1848:	01 00 00 00 	nop 
    184c:	01 00 00 00 	nop 
    1850:	01 00 00 00 	nop 
    1854:	01 00 00 00 	nop 
    1858:	01 00 00 00 	nop 
    185c:	01 00 00 00 	nop 
    1860:	01 00 00 00 	nop 
    1864:	01 00 00 00 	nop 
    1868:	01 00 00 00 	nop 
    186c:	01 00 00 00 	nop 
    1870:	01 00 00 00 	nop 
    1874:	01 00 00 00 	nop 
    1878:	01 00 00 00 	nop 
    187c:	01 00 00 00 	nop 
    1880:	01 00 00 00 	nop 
    1884:	01 00 00 00 	nop 
    1888:	01 00 00 00 	nop 
    188c:	01 00 00 00 	nop 
    1890:	01 00 00 00 	nop 
    1894:	01 00 00 00 	nop 
    1898:	01 00 00 00 	nop 
    189c:	01 00 00 00 	nop 
    18a0:	01 00 00 00 	nop 
    18a4:	01 00 00 00 	nop 
    18a8:	01 00 00 00 	nop 
    18ac:	01 00 00 00 	nop 
    18b0:	01 00 00 00 	nop 
    18b4:	01 00 00 00 	nop 
    18b8:	01 00 00 00 	nop 
    18bc:	01 00 00 00 	nop 
    18c0:	01 00 00 00 	nop 
    18c4:	01 00 00 00 	nop 
    18c8:	01 00 00 00 	nop 
    18cc:	01 00 00 00 	nop 
    18d0:	01 00 00 00 	nop 
    18d4:	01 00 00 00 	nop 
    18d8:	01 00 00 00 	nop 
    18dc:	01 00 00 00 	nop 
    18e0:	01 00 00 00 	nop 
    18e4:	01 00 00 00 	nop 
    18e8:	01 00 00 00 	nop 
    18ec:	01 00 00 00 	nop 
    18f0:	01 00 00 00 	nop 
    18f4:	01 00 00 00 	nop 
    18f8:	01 00 00 00 	nop 
    18fc:	01 00 00 00 	nop 
    1900:	01 00 00 00 	nop 
    1904:	01 00 00 00 	nop 
    1908:	01 00 00 00 	nop 
    190c:	01 00 00 00 	nop 
    1910:	01 00 00 00 	nop 
    1914:	01 00 00 00 	nop 
    1918:	01 00 00 00 	nop 
    191c:	01 00 00 00 	nop 
    1920:	01 00 00 00 	nop 
    1924:	01 00 00 00 	nop 
    1928:	01 00 00 00 	nop 
    192c:	01 00 00 00 	nop 
    1930:	01 00 00 00 	nop 
    1934:	01 00 00 00 	nop 
    1938:	01 00 00 00 	nop 
    193c:	01 00 00 00 	nop 
    1940:	01 00 00 00 	nop 
    1944:	01 00 00 00 	nop 
    1948:	01 00 00 00 	nop 
    194c:	01 00 00 00 	nop 
    1950:	01 00 00 00 	nop 
    1954:	01 00 00 00 	nop 
    1958:	01 00 00 00 	nop 
    195c:	01 00 00 00 	nop 
    1960:	01 00 00 00 	nop 
    1964:	01 00 00 00 	nop 
    1968:	01 00 00 00 	nop 
    196c:	01 00 00 00 	nop 
    1970:	01 00 00 00 	nop 
    1974:	01 00 00 00 	nop 
    1978:	01 00 00 00 	nop 
    197c:	01 00 00 00 	nop 
    1980:	01 00 00 00 	nop 
    1984:	01 00 00 00 	nop 
    1988:	01 00 00 00 	nop 
    198c:	01 00 00 00 	nop 
    1990:	01 00 00 00 	nop 
    1994:	01 00 00 00 	nop 
    1998:	01 00 00 00 	nop 
    199c:	01 00 00 00 	nop 
    19a0:	01 00 00 00 	nop 
    19a4:	01 00 00 00 	nop 
    19a8:	01 00 00 00 	nop 
    19ac:	01 00 00 00 	nop 
    19b0:	01 00 00 00 	nop 
    19b4:	01 00 00 00 	nop 
    19b8:	01 00 00 00 	nop 
    19bc:	01 00 00 00 	nop 
    19c0:	01 00 00 00 	nop 
    19c4:	01 00 00 00 	nop 
    19c8:	01 00 00 00 	nop 
    19cc:	01 00 00 00 	nop 
    19d0:	01 00 00 00 	nop 
    19d4:	01 00 00 00 	nop 
    19d8:	01 00 00 00 	nop 
    19dc:	01 00 00 00 	nop 
    19e0:	01 00 00 00 	nop 
    19e4:	01 00 00 00 	nop 
    19e8:	01 00 00 00 	nop 
    19ec:	01 00 00 00 	nop 
    19f0:	01 00 00 00 	nop 
    19f4:	01 00 00 00 	nop 
    19f8:	01 00 00 00 	nop 
    19fc:	01 00 00 00 	nop 
    1a00:	01 00 00 00 	nop 
    1a04:	01 00 00 00 	nop 
    1a08:	01 00 00 00 	nop 
    1a0c:	01 00 00 00 	nop 
    1a10:	01 00 00 00 	nop 
    1a14:	01 00 00 00 	nop 
    1a18:	01 00 00 00 	nop 
    1a1c:	01 00 00 00 	nop 
    1a20:	01 00 00 00 	nop 
    1a24:	01 00 00 00 	nop 
    1a28:	01 00 00 00 	nop 
    1a2c:	01 00 00 00 	nop 
    1a30:	01 00 00 00 	nop 
    1a34:	01 00 00 00 	nop 
    1a38:	01 00 00 00 	nop 
    1a3c:	01 00 00 00 	nop 
    1a40:	01 00 00 00 	nop 
    1a44:	01 00 00 00 	nop 
    1a48:	01 00 00 00 	nop 
    1a4c:	01 00 00 00 	nop 
    1a50:	01 00 00 00 	nop 
    1a54:	01 00 00 00 	nop 
    1a58:	01 00 00 00 	nop 
    1a5c:	01 00 00 00 	nop 
    1a60:	01 00 00 00 	nop 
    1a64:	01 00 00 00 	nop 
    1a68:	01 00 00 00 	nop 
    1a6c:	01 00 00 00 	nop 
    1a70:	01 00 00 00 	nop 
    1a74:	01 00 00 00 	nop 
    1a78:	01 00 00 00 	nop 
    1a7c:	01 00 00 00 	nop 
    1a80:	01 00 00 00 	nop 
    1a84:	01 00 00 00 	nop 
    1a88:	01 00 00 00 	nop 
    1a8c:	01 00 00 00 	nop 
    1a90:	01 00 00 00 	nop 
    1a94:	01 00 00 00 	nop 
    1a98:	01 00 00 00 	nop 
    1a9c:	01 00 00 00 	nop 
    1aa0:	01 00 00 00 	nop 
    1aa4:	01 00 00 00 	nop 
    1aa8:	01 00 00 00 	nop 
    1aac:	01 00 00 00 	nop 
    1ab0:	01 00 00 00 	nop 
    1ab4:	01 00 00 00 	nop 
    1ab8:	01 00 00 00 	nop 
    1abc:	01 00 00 00 	nop 
    1ac0:	01 00 00 00 	nop 
    1ac4:	01 00 00 00 	nop 
    1ac8:	01 00 00 00 	nop 
    1acc:	01 00 00 00 	nop 
    1ad0:	01 00 00 00 	nop 
    1ad4:	01 00 00 00 	nop 
    1ad8:	01 00 00 00 	nop 
    1adc:	01 00 00 00 	nop 
    1ae0:	01 00 00 00 	nop 
    1ae4:	01 00 00 00 	nop 
    1ae8:	01 00 00 00 	nop 
    1aec:	01 00 00 00 	nop 
    1af0:	01 00 00 00 	nop 
    1af4:	01 00 00 00 	nop 
    1af8:	01 00 00 00 	nop 
    1afc:	01 00 00 00 	nop 
    1b00:	01 00 00 00 	nop 
    1b04:	01 00 00 00 	nop 
    1b08:	01 00 00 00 	nop 
    1b0c:	01 00 00 00 	nop 
    1b10:	01 00 00 00 	nop 
    1b14:	01 00 00 00 	nop 
    1b18:	01 00 00 00 	nop 
    1b1c:	01 00 00 00 	nop 
    1b20:	01 00 00 00 	nop 
    1b24:	01 00 00 00 	nop 
    1b28:	01 00 00 00 	nop 
    1b2c:	01 00 00 00 	nop 
    1b30:	01 00 00 00 	nop 
    1b34:	01 00 00 00 	nop 
    1b38:	01 00 00 00 	nop 
    1b3c:	01 00 00 00 	nop 
    1b40:	01 00 00 00 	nop 
    1b44:	01 00 00 00 	nop 
    1b48:	01 00 00 00 	nop 
    1b4c:	01 00 00 00 	nop 
    1b50:	01 00 00 00 	nop 
    1b54:	01 00 00 00 	nop 
    1b58:	01 00 00 00 	nop 
    1b5c:	01 00 00 00 	nop 
    1b60:	01 00 00 00 	nop 
    1b64:	01 00 00 00 	nop 
    1b68:	01 00 00 00 	nop 
    1b6c:	01 00 00 00 	nop 
    1b70:	01 00 00 00 	nop 
    1b74:	01 00 00 00 	nop 
    1b78:	01 00 00 00 	nop 
    1b7c:	01 00 00 00 	nop 
    1b80:	01 00 00 00 	nop 
    1b84:	01 00 00 00 	nop 
    1b88:	01 00 00 00 	nop 
    1b8c:	01 00 00 00 	nop 
    1b90:	01 00 00 00 	nop 
    1b94:	01 00 00 00 	nop 
    1b98:	01 00 00 00 	nop 
    1b9c:	01 00 00 00 	nop 
    1ba0:	01 00 00 00 	nop 
    1ba4:	01 00 00 00 	nop 
    1ba8:	01 00 00 00 	nop 
    1bac:	01 00 00 00 	nop 
    1bb0:	01 00 00 00 	nop 
    1bb4:	01 00 00 00 	nop 
    1bb8:	01 00 00 00 	nop 
    1bbc:	01 00 00 00 	nop 
    1bc0:	01 00 00 00 	nop 
    1bc4:	01 00 00 00 	nop 
    1bc8:	01 00 00 00 	nop 
    1bcc:	01 00 00 00 	nop 
    1bd0:	01 00 00 00 	nop 
    1bd4:	01 00 00 00 	nop 
    1bd8:	01 00 00 00 	nop 
    1bdc:	01 00 00 00 	nop 
    1be0:	01 00 00 00 	nop 
    1be4:	01 00 00 00 	nop 
    1be8:	01 00 00 00 	nop 
    1bec:	01 00 00 00 	nop 
    1bf0:	01 00 00 00 	nop 
    1bf4:	01 00 00 00 	nop 
    1bf8:	01 00 00 00 	nop 
    1bfc:	01 00 00 00 	nop 
    1c00:	01 00 00 00 	nop 
    1c04:	01 00 00 00 	nop 
    1c08:	01 00 00 00 	nop 
    1c0c:	01 00 00 00 	nop 
    1c10:	01 00 00 00 	nop 
    1c14:	01 00 00 00 	nop 
    1c18:	01 00 00 00 	nop 
    1c1c:	01 00 00 00 	nop 
    1c20:	01 00 00 00 	nop 
    1c24:	01 00 00 00 	nop 
    1c28:	01 00 00 00 	nop 
    1c2c:	01 00 00 00 	nop 
    1c30:	01 00 00 00 	nop 
    1c34:	01 00 00 00 	nop 
    1c38:	01 00 00 00 	nop 
    1c3c:	01 00 00 00 	nop 
    1c40:	01 00 00 00 	nop 
    1c44:	01 00 00 00 	nop 
    1c48:	01 00 00 00 	nop 
    1c4c:	01 00 00 00 	nop 
    1c50:	01 00 00 00 	nop 
    1c54:	01 00 00 00 	nop 
    1c58:	01 00 00 00 	nop 
    1c5c:	01 00 00 00 	nop 
    1c60:	01 00 00 00 	nop 
    1c64:	01 00 00 00 	nop 
    1c68:	01 00 00 00 	nop 
    1c6c:	01 00 00 00 	nop 
    1c70:	01 00 00 00 	nop 
    1c74:	01 00 00 00 	nop 
    1c78:	01 00 00 00 	nop 
    1c7c:	01 00 00 00 	nop 
    1c80:	01 00 00 00 	nop 
    1c84:	01 00 00 00 	nop 
    1c88:	01 00 00 00 	nop 
    1c8c:	01 00 00 00 	nop 
    1c90:	01 00 00 00 	nop 
    1c94:	01 00 00 00 	nop 
    1c98:	01 00 00 00 	nop 
    1c9c:	01 00 00 00 	nop 
    1ca0:	01 00 00 00 	nop 
    1ca4:	01 00 00 00 	nop 
    1ca8:	01 00 00 00 	nop 
    1cac:	01 00 00 00 	nop 
    1cb0:	01 00 00 00 	nop 
    1cb4:	01 00 00 00 	nop 
    1cb8:	01 00 00 00 	nop 
    1cbc:	01 00 00 00 	nop 
    1cc0:	01 00 00 00 	nop 
    1cc4:	01 00 00 00 	nop 
    1cc8:	01 00 00 00 	nop 
    1ccc:	01 00 00 00 	nop 
    1cd0:	01 00 00 00 	nop 
    1cd4:	01 00 00 00 	nop 
    1cd8:	01 00 00 00 	nop 
    1cdc:	01 00 00 00 	nop 
    1ce0:	01 00 00 00 	nop 
    1ce4:	01 00 00 00 	nop 
    1ce8:	01 00 00 00 	nop 
    1cec:	01 00 00 00 	nop 
    1cf0:	01 00 00 00 	nop 
    1cf4:	01 00 00 00 	nop 
    1cf8:	01 00 00 00 	nop 
    1cfc:	01 00 00 00 	nop 
    1d00:	01 00 00 00 	nop 
    1d04:	01 00 00 00 	nop 
    1d08:	01 00 00 00 	nop 
    1d0c:	01 00 00 00 	nop 
    1d10:	01 00 00 00 	nop 
    1d14:	01 00 00 00 	nop 
    1d18:	01 00 00 00 	nop 
    1d1c:	01 00 00 00 	nop 
    1d20:	01 00 00 00 	nop 
    1d24:	01 00 00 00 	nop 
    1d28:	01 00 00 00 	nop 
    1d2c:	01 00 00 00 	nop 
    1d30:	01 00 00 00 	nop 
    1d34:	01 00 00 00 	nop 
    1d38:	01 00 00 00 	nop 
    1d3c:	01 00 00 00 	nop 
    1d40:	01 00 00 00 	nop 
    1d44:	01 00 00 00 	nop 
    1d48:	01 00 00 00 	nop 
    1d4c:	01 00 00 00 	nop 
    1d50:	01 00 00 00 	nop 
    1d54:	01 00 00 00 	nop 
    1d58:	01 00 00 00 	nop 
    1d5c:	01 00 00 00 	nop 
    1d60:	01 00 00 00 	nop 
    1d64:	01 00 00 00 	nop 
    1d68:	01 00 00 00 	nop 
    1d6c:	01 00 00 00 	nop 
    1d70:	01 00 00 00 	nop 
    1d74:	01 00 00 00 	nop 
    1d78:	01 00 00 00 	nop 
    1d7c:	01 00 00 00 	nop 
    1d80:	01 00 00 00 	nop 
    1d84:	01 00 00 00 	nop 
    1d88:	01 00 00 00 	nop 
    1d8c:	01 00 00 00 	nop 
    1d90:	01 00 00 00 	nop 
    1d94:	01 00 00 00 	nop 
    1d98:	01 00 00 00 	nop 
    1d9c:	01 00 00 00 	nop 
    1da0:	01 00 00 00 	nop 
    1da4:	01 00 00 00 	nop 
    1da8:	01 00 00 00 	nop 
    1dac:	01 00 00 00 	nop 
    1db0:	01 00 00 00 	nop 
    1db4:	01 00 00 00 	nop 
    1db8:	01 00 00 00 	nop 
    1dbc:	01 00 00 00 	nop 
    1dc0:	01 00 00 00 	nop 
    1dc4:	01 00 00 00 	nop 
    1dc8:	01 00 00 00 	nop 
    1dcc:	01 00 00 00 	nop 
    1dd0:	01 00 00 00 	nop 
    1dd4:	01 00 00 00 	nop 
    1dd8:	01 00 00 00 	nop 
    1ddc:	01 00 00 00 	nop 
    1de0:	01 00 00 00 	nop 
    1de4:	01 00 00 00 	nop 
    1de8:	01 00 00 00 	nop 
    1dec:	01 00 00 00 	nop 
    1df0:	01 00 00 00 	nop 
    1df4:	01 00 00 00 	nop 
    1df8:	01 00 00 00 	nop 
    1dfc:	01 00 00 00 	nop 
    1e00:	01 00 00 00 	nop 
    1e04:	01 00 00 00 	nop 
    1e08:	01 00 00 00 	nop 
    1e0c:	01 00 00 00 	nop 
    1e10:	01 00 00 00 	nop 
    1e14:	01 00 00 00 	nop 
    1e18:	01 00 00 00 	nop 
    1e1c:	01 00 00 00 	nop 
    1e20:	01 00 00 00 	nop 
    1e24:	01 00 00 00 	nop 
    1e28:	01 00 00 00 	nop 
    1e2c:	01 00 00 00 	nop 
    1e30:	01 00 00 00 	nop 
    1e34:	01 00 00 00 	nop 
    1e38:	01 00 00 00 	nop 
    1e3c:	01 00 00 00 	nop 
    1e40:	01 00 00 00 	nop 
    1e44:	01 00 00 00 	nop 
    1e48:	01 00 00 00 	nop 
    1e4c:	01 00 00 00 	nop 
    1e50:	01 00 00 00 	nop 
    1e54:	01 00 00 00 	nop 
    1e58:	01 00 00 00 	nop 
    1e5c:	01 00 00 00 	nop 
    1e60:	01 00 00 00 	nop 
    1e64:	01 00 00 00 	nop 
    1e68:	01 00 00 00 	nop 
    1e6c:	01 00 00 00 	nop 
    1e70:	01 00 00 00 	nop 
    1e74:	01 00 00 00 	nop 
    1e78:	01 00 00 00 	nop 
    1e7c:	01 00 00 00 	nop 
    1e80:	01 00 00 00 	nop 
    1e84:	01 00 00 00 	nop 
    1e88:	01 00 00 00 	nop 
    1e8c:	01 00 00 00 	nop 
    1e90:	01 00 00 00 	nop 
    1e94:	01 00 00 00 	nop 
    1e98:	01 00 00 00 	nop 
    1e9c:	01 00 00 00 	nop 
    1ea0:	01 00 00 00 	nop 
    1ea4:	01 00 00 00 	nop 
    1ea8:	01 00 00 00 	nop 
    1eac:	01 00 00 00 	nop 
    1eb0:	01 00 00 00 	nop 
    1eb4:	01 00 00 00 	nop 
    1eb8:	01 00 00 00 	nop 
    1ebc:	01 00 00 00 	nop 
    1ec0:	01 00 00 00 	nop 
    1ec4:	01 00 00 00 	nop 
    1ec8:	01 00 00 00 	nop 
    1ecc:	01 00 00 00 	nop 
    1ed0:	01 00 00 00 	nop 
    1ed4:	01 00 00 00 	nop 
    1ed8:	01 00 00 00 	nop 
    1edc:	01 00 00 00 	nop 
    1ee0:	01 00 00 00 	nop 
    1ee4:	01 00 00 00 	nop 
    1ee8:	01 00 00 00 	nop 
    1eec:	01 00 00 00 	nop 
    1ef0:	01 00 00 00 	nop 
    1ef4:	01 00 00 00 	nop 
    1ef8:	01 00 00 00 	nop 
    1efc:	01 00 00 00 	nop 
    1f00:	01 00 00 00 	nop 
    1f04:	01 00 00 00 	nop 
    1f08:	01 00 00 00 	nop 
    1f0c:	01 00 00 00 	nop 
    1f10:	01 00 00 00 	nop 
    1f14:	01 00 00 00 	nop 
    1f18:	01 00 00 00 	nop 
    1f1c:	01 00 00 00 	nop 
    1f20:	01 00 00 00 	nop 
    1f24:	01 00 00 00 	nop 
    1f28:	01 00 00 00 	nop 
    1f2c:	01 00 00 00 	nop 
    1f30:	01 00 00 00 	nop 
    1f34:	01 00 00 00 	nop 
    1f38:	01 00 00 00 	nop 
    1f3c:	01 00 00 00 	nop 
    1f40:	01 00 00 00 	nop 
    1f44:	01 00 00 00 	nop 
    1f48:	01 00 00 00 	nop 
    1f4c:	01 00 00 00 	nop 
    1f50:	01 00 00 00 	nop 
    1f54:	01 00 00 00 	nop 
    1f58:	01 00 00 00 	nop 
    1f5c:	01 00 00 00 	nop 
    1f60:	01 00 00 00 	nop 
    1f64:	01 00 00 00 	nop 
    1f68:	01 00 00 00 	nop 
    1f6c:	01 00 00 00 	nop 
    1f70:	01 00 00 00 	nop 
    1f74:	01 00 00 00 	nop 
    1f78:	01 00 00 00 	nop 
    1f7c:	01 00 00 00 	nop 
    1f80:	01 00 00 00 	nop 
    1f84:	01 00 00 00 	nop 
    1f88:	01 00 00 00 	nop 
    1f8c:	01 00 00 00 	nop 
    1f90:	01 00 00 00 	nop 
    1f94:	01 00 00 00 	nop 
    1f98:	01 00 00 00 	nop 
    1f9c:	01 00 00 00 	nop 
    1fa0:	01 00 00 00 	nop 
    1fa4:	01 00 00 00 	nop 
    1fa8:	01 00 00 00 	nop 
    1fac:	01 00 00 00 	nop 
    1fb0:	01 00 00 00 	nop 
    1fb4:	01 00 00 00 	nop 
    1fb8:	01 00 00 00 	nop 
    1fbc:	01 00 00 00 	nop 
    1fc0:	01 00 00 00 	nop 
    1fc4:	01 00 00 00 	nop 
    1fc8:	01 00 00 00 	nop 
    1fcc:	01 00 00 00 	nop 
    1fd0:	01 00 00 00 	nop 
    1fd4:	01 00 00 00 	nop 
    1fd8:	01 00 00 00 	nop 
    1fdc:	01 00 00 00 	nop 
    1fe0:	01 00 00 00 	nop 
    1fe4:	01 00 00 00 	nop 
    1fe8:	01 00 00 00 	nop 
    1fec:	01 00 00 00 	nop 
    1ff0:	01 00 00 00 	nop 
    1ff4:	01 00 00 00 	nop 
    1ff8:	01 00 00 00 	nop 
    1ffc:	01 00 00 00 	nop 

00002000 <trap_table_base>:
    2000:	91 d0 20 00 	ta  0
    2004:	01 00 00 00 	nop 
    2008:	01 00 00 00 	nop 
    200c:	01 00 00 00 	nop 

00002010 <HW_trap_0x01>:
    2010:	91 d0 20 00 	ta  0
    2014:	01 00 00 00 	nop 
    2018:	01 00 00 00 	nop 
    201c:	01 00 00 00 	nop 

00002020 <HW_trap_0x02>:
    2020:	91 d0 20 00 	ta  0
    2024:	01 00 00 00 	nop 
    2028:	01 00 00 00 	nop 
    202c:	01 00 00 00 	nop 

00002030 <HW_trap_0x03>:
    2030:	91 d0 20 00 	ta  0
    2034:	01 00 00 00 	nop 
    2038:	01 00 00 00 	nop 
    203c:	01 00 00 00 	nop 

00002040 <HW_trap_0x04>:
    2040:	91 d0 20 00 	ta  0
    2044:	01 00 00 00 	nop 
    2048:	01 00 00 00 	nop 
    204c:	01 00 00 00 	nop 

00002050 <HW_trap_0x05>:
    2050:	10 bf fb ec 	b  1000 <window_overflow_trap_handler>
    2054:	01 00 00 00 	nop 
    2058:	01 00 00 00 	nop 
    205c:	01 00 00 00 	nop 

00002060 <HW_trap_0x06>:
    2060:	10 bf fc 01 	b  1064 <window_underflow_trap_handler>
    2064:	01 00 00 00 	nop 
    2068:	01 00 00 00 	nop 
    206c:	01 00 00 00 	nop 

00002070 <HW_trap_0x07>:
    2070:	91 d0 20 00 	ta  0
    2074:	01 00 00 00 	nop 
    2078:	01 00 00 00 	nop 
    207c:	01 00 00 00 	nop 

00002080 <HW_trap_0x08>:
    2080:	91 d0 20 00 	ta  0
    2084:	01 00 00 00 	nop 
    2088:	01 00 00 00 	nop 
    208c:	01 00 00 00 	nop 

00002090 <HW_trap_0x09>:
    2090:	91 d0 20 00 	ta  0
    2094:	01 00 00 00 	nop 
    2098:	01 00 00 00 	nop 
    209c:	01 00 00 00 	nop 

000020a0 <HW_trap_0x0a>:
    20a0:	91 d0 20 00 	ta  0
    20a4:	01 00 00 00 	nop 
    20a8:	01 00 00 00 	nop 
    20ac:	01 00 00 00 	nop 

000020b0 <HW_trap_0x0b>:
    20b0:	91 d0 20 00 	ta  0
    20b4:	01 00 00 00 	nop 
    20b8:	01 00 00 00 	nop 
    20bc:	01 00 00 00 	nop 

000020c0 <HW_trap_0x0c>:
    20c0:	91 d0 20 00 	ta  0
    20c4:	01 00 00 00 	nop 
    20c8:	01 00 00 00 	nop 
    20cc:	01 00 00 00 	nop 

000020d0 <HW_trap_0x0d>:
    20d0:	91 d0 20 00 	ta  0
    20d4:	01 00 00 00 	nop 
    20d8:	01 00 00 00 	nop 
    20dc:	01 00 00 00 	nop 

000020e0 <HW_trap_0x0e>:
    20e0:	91 d0 20 00 	ta  0
    20e4:	01 00 00 00 	nop 
    20e8:	01 00 00 00 	nop 
    20ec:	01 00 00 00 	nop 

000020f0 <HW_trap_0x0f>:
    20f0:	91 d0 20 00 	ta  0
    20f4:	01 00 00 00 	nop 
    20f8:	01 00 00 00 	nop 
    20fc:	01 00 00 00 	nop 

00002100 <HW_trap_0x10>:
    2100:	91 d0 20 00 	ta  0
    2104:	01 00 00 00 	nop 
    2108:	01 00 00 00 	nop 
    210c:	01 00 00 00 	nop 

00002110 <HW_trap_0x11>:
    2110:	91 d0 20 00 	ta  0
    2114:	01 00 00 00 	nop 
    2118:	01 00 00 00 	nop 
    211c:	01 00 00 00 	nop 

00002120 <HW_trap_0x12>:
    2120:	91 d0 20 00 	ta  0
    2124:	01 00 00 00 	nop 
    2128:	01 00 00 00 	nop 
    212c:	01 00 00 00 	nop 

00002130 <HW_trap_0x13>:
    2130:	91 d0 20 00 	ta  0
    2134:	01 00 00 00 	nop 
    2138:	01 00 00 00 	nop 
    213c:	01 00 00 00 	nop 

00002140 <HW_trap_0x14>:
    2140:	91 d0 20 00 	ta  0
    2144:	01 00 00 00 	nop 
    2148:	01 00 00 00 	nop 
    214c:	01 00 00 00 	nop 

00002150 <HW_trap_0x15>:
    2150:	91 d0 20 00 	ta  0
    2154:	01 00 00 00 	nop 
    2158:	01 00 00 00 	nop 
    215c:	01 00 00 00 	nop 

00002160 <HW_trap_0x16>:
    2160:	91 d0 20 00 	ta  0
    2164:	01 00 00 00 	nop 
    2168:	01 00 00 00 	nop 
    216c:	01 00 00 00 	nop 

00002170 <HW_trap_0x17>:
    2170:	91 d0 20 00 	ta  0
    2174:	01 00 00 00 	nop 
    2178:	01 00 00 00 	nop 
    217c:	01 00 00 00 	nop 

00002180 <HW_trap_0x18>:
    2180:	91 d0 20 00 	ta  0
    2184:	01 00 00 00 	nop 
    2188:	01 00 00 00 	nop 
    218c:	01 00 00 00 	nop 

00002190 <HW_trap_0x19>:
    2190:	91 d0 20 00 	ta  0
    2194:	01 00 00 00 	nop 
    2198:	01 00 00 00 	nop 
    219c:	01 00 00 00 	nop 

000021a0 <HW_trap_0x1a>:
    21a0:	91 d0 20 00 	ta  0
    21a4:	01 00 00 00 	nop 
    21a8:	01 00 00 00 	nop 
    21ac:	01 00 00 00 	nop 

000021b0 <HW_trap_0x1b>:
    21b0:	91 d0 20 00 	ta  0
    21b4:	01 00 00 00 	nop 
    21b8:	01 00 00 00 	nop 
    21bc:	01 00 00 00 	nop 

000021c0 <HW_trap_0x1c>:
    21c0:	91 d0 20 00 	ta  0
    21c4:	01 00 00 00 	nop 
    21c8:	01 00 00 00 	nop 
    21cc:	01 00 00 00 	nop 

000021d0 <HW_trap_0x1d>:
    21d0:	91 d0 20 00 	ta  0
    21d4:	01 00 00 00 	nop 
    21d8:	01 00 00 00 	nop 
    21dc:	01 00 00 00 	nop 

000021e0 <HW_trap_0x1e>:
    21e0:	91 d0 20 00 	ta  0
    21e4:	01 00 00 00 	nop 
    21e8:	01 00 00 00 	nop 
    21ec:	01 00 00 00 	nop 

000021f0 <HW_trap_0x1f>:
    21f0:	91 d0 20 00 	ta  0
    21f4:	01 00 00 00 	nop 
    21f8:	01 00 00 00 	nop 
    21fc:	01 00 00 00 	nop 

00002200 <HW_trap_0x20>:
    2200:	91 d0 20 00 	ta  0
    2204:	01 00 00 00 	nop 
    2208:	01 00 00 00 	nop 
    220c:	01 00 00 00 	nop 

00002210 <HW_trap_0x21>:
    2210:	91 d0 20 00 	ta  0
    2214:	01 00 00 00 	nop 
    2218:	01 00 00 00 	nop 
    221c:	01 00 00 00 	nop 

00002220 <HW_trap_0x22>:
    2220:	91 d0 20 00 	ta  0
    2224:	01 00 00 00 	nop 
    2228:	01 00 00 00 	nop 
    222c:	01 00 00 00 	nop 

00002230 <HW_trap_0x23>:
    2230:	91 d0 20 00 	ta  0
    2234:	01 00 00 00 	nop 
    2238:	01 00 00 00 	nop 
    223c:	01 00 00 00 	nop 

00002240 <HW_trap_0x24>:
    2240:	91 d0 20 00 	ta  0
    2244:	01 00 00 00 	nop 
    2248:	01 00 00 00 	nop 
    224c:	01 00 00 00 	nop 

00002250 <HW_trap_0x25>:
    2250:	91 d0 20 00 	ta  0
    2254:	01 00 00 00 	nop 
    2258:	01 00 00 00 	nop 
    225c:	01 00 00 00 	nop 

00002260 <HW_trap_0x26>:
    2260:	91 d0 20 00 	ta  0
    2264:	01 00 00 00 	nop 
    2268:	01 00 00 00 	nop 
    226c:	01 00 00 00 	nop 

00002270 <HW_trap_0x27>:
    2270:	91 d0 20 00 	ta  0
    2274:	01 00 00 00 	nop 
    2278:	01 00 00 00 	nop 
    227c:	01 00 00 00 	nop 

00002280 <HW_trap_0x28>:
    2280:	91 d0 20 00 	ta  0
    2284:	01 00 00 00 	nop 
    2288:	01 00 00 00 	nop 
    228c:	01 00 00 00 	nop 

00002290 <HW_trap_0x29>:
    2290:	91 d0 20 00 	ta  0
    2294:	01 00 00 00 	nop 
    2298:	01 00 00 00 	nop 
    229c:	01 00 00 00 	nop 

000022a0 <HW_trap_0x2a>:
    22a0:	91 d0 20 00 	ta  0
    22a4:	01 00 00 00 	nop 
    22a8:	01 00 00 00 	nop 
    22ac:	01 00 00 00 	nop 

000022b0 <HW_trap_0x2b>:
    22b0:	91 d0 20 00 	ta  0
    22b4:	01 00 00 00 	nop 
    22b8:	01 00 00 00 	nop 
    22bc:	01 00 00 00 	nop 

000022c0 <HW_trap_0x2c>:
    22c0:	91 d0 20 00 	ta  0
    22c4:	01 00 00 00 	nop 
    22c8:	01 00 00 00 	nop 
    22cc:	01 00 00 00 	nop 

000022d0 <HW_trap_0x2d>:
    22d0:	91 d0 20 00 	ta  0
    22d4:	01 00 00 00 	nop 
    22d8:	01 00 00 00 	nop 
    22dc:	01 00 00 00 	nop 

000022e0 <HW_trap_0x2e>:
    22e0:	91 d0 20 00 	ta  0
    22e4:	01 00 00 00 	nop 
    22e8:	01 00 00 00 	nop 
    22ec:	01 00 00 00 	nop 

000022f0 <HW_trap_0x2f>:
    22f0:	91 d0 20 00 	ta  0
    22f4:	01 00 00 00 	nop 
    22f8:	01 00 00 00 	nop 
    22fc:	01 00 00 00 	nop 

00002300 <HW_trap_0x30>:
    2300:	91 d0 20 00 	ta  0
    2304:	01 00 00 00 	nop 
    2308:	01 00 00 00 	nop 
    230c:	01 00 00 00 	nop 

00002310 <HW_trap_0x31>:
    2310:	91 d0 20 00 	ta  0
    2314:	01 00 00 00 	nop 
    2318:	01 00 00 00 	nop 
    231c:	01 00 00 00 	nop 

00002320 <HW_trap_0x32>:
    2320:	91 d0 20 00 	ta  0
    2324:	01 00 00 00 	nop 
    2328:	01 00 00 00 	nop 
    232c:	01 00 00 00 	nop 

00002330 <HW_trap_0x33>:
    2330:	91 d0 20 00 	ta  0
    2334:	01 00 00 00 	nop 
    2338:	01 00 00 00 	nop 
    233c:	01 00 00 00 	nop 

00002340 <HW_trap_0x34>:
    2340:	91 d0 20 00 	ta  0
    2344:	01 00 00 00 	nop 
    2348:	01 00 00 00 	nop 
    234c:	01 00 00 00 	nop 

00002350 <HW_trap_0x35>:
    2350:	91 d0 20 00 	ta  0
    2354:	01 00 00 00 	nop 
    2358:	01 00 00 00 	nop 
    235c:	01 00 00 00 	nop 

00002360 <HW_trap_0x36>:
    2360:	91 d0 20 00 	ta  0
    2364:	01 00 00 00 	nop 
    2368:	01 00 00 00 	nop 
    236c:	01 00 00 00 	nop 

00002370 <HW_trap_0x37>:
    2370:	91 d0 20 00 	ta  0
    2374:	01 00 00 00 	nop 
    2378:	01 00 00 00 	nop 
    237c:	01 00 00 00 	nop 

00002380 <HW_trap_0x38>:
    2380:	91 d0 20 00 	ta  0
    2384:	01 00 00 00 	nop 
    2388:	01 00 00 00 	nop 
    238c:	01 00 00 00 	nop 

00002390 <HW_trap_0x39>:
    2390:	91 d0 20 00 	ta  0
    2394:	01 00 00 00 	nop 
    2398:	01 00 00 00 	nop 
    239c:	01 00 00 00 	nop 

000023a0 <HW_trap_0x3a>:
    23a0:	91 d0 20 00 	ta  0
    23a4:	01 00 00 00 	nop 
    23a8:	01 00 00 00 	nop 
    23ac:	01 00 00 00 	nop 

000023b0 <HW_trap_0x3b>:
    23b0:	91 d0 20 00 	ta  0
    23b4:	01 00 00 00 	nop 
    23b8:	01 00 00 00 	nop 
    23bc:	01 00 00 00 	nop 

000023c0 <HW_trap_0x3c>:
    23c0:	91 d0 20 00 	ta  0
    23c4:	01 00 00 00 	nop 
    23c8:	01 00 00 00 	nop 
    23cc:	01 00 00 00 	nop 

000023d0 <HW_trap_0x3d>:
    23d0:	91 d0 20 00 	ta  0
    23d4:	01 00 00 00 	nop 
    23d8:	01 00 00 00 	nop 
    23dc:	01 00 00 00 	nop 

000023e0 <HW_trap_0x3e>:
    23e0:	91 d0 20 00 	ta  0
    23e4:	01 00 00 00 	nop 
    23e8:	01 00 00 00 	nop 
    23ec:	01 00 00 00 	nop 

000023f0 <HW_trap_0x3f>:
    23f0:	91 d0 20 00 	ta  0
    23f4:	01 00 00 00 	nop 
    23f8:	01 00 00 00 	nop 
    23fc:	01 00 00 00 	nop 

00002400 <HW_trap_0x40>:
    2400:	91 d0 20 00 	ta  0
    2404:	01 00 00 00 	nop 
    2408:	01 00 00 00 	nop 
    240c:	01 00 00 00 	nop 

00002410 <HW_trap_0x41>:
    2410:	91 d0 20 00 	ta  0
    2414:	01 00 00 00 	nop 
    2418:	01 00 00 00 	nop 
    241c:	01 00 00 00 	nop 

00002420 <HW_trap_0x42>:
    2420:	91 d0 20 00 	ta  0
    2424:	01 00 00 00 	nop 
    2428:	01 00 00 00 	nop 
    242c:	01 00 00 00 	nop 

00002430 <HW_trap_0x43>:
    2430:	91 d0 20 00 	ta  0
    2434:	01 00 00 00 	nop 
    2438:	01 00 00 00 	nop 
    243c:	01 00 00 00 	nop 

00002440 <HW_trap_0x44>:
    2440:	91 d0 20 00 	ta  0
    2444:	01 00 00 00 	nop 
    2448:	01 00 00 00 	nop 
    244c:	01 00 00 00 	nop 

00002450 <HW_trap_0x45>:
    2450:	91 d0 20 00 	ta  0
    2454:	01 00 00 00 	nop 
    2458:	01 00 00 00 	nop 
    245c:	01 00 00 00 	nop 

00002460 <HW_trap_0x46>:
    2460:	91 d0 20 00 	ta  0
    2464:	01 00 00 00 	nop 
    2468:	01 00 00 00 	nop 
    246c:	01 00 00 00 	nop 

00002470 <HW_trap_0x47>:
    2470:	91 d0 20 00 	ta  0
    2474:	01 00 00 00 	nop 
    2478:	01 00 00 00 	nop 
    247c:	01 00 00 00 	nop 

00002480 <HW_trap_0x48>:
    2480:	91 d0 20 00 	ta  0
    2484:	01 00 00 00 	nop 
    2488:	01 00 00 00 	nop 
    248c:	01 00 00 00 	nop 

00002490 <HW_trap_0x49>:
    2490:	91 d0 20 00 	ta  0
    2494:	01 00 00 00 	nop 
    2498:	01 00 00 00 	nop 
    249c:	01 00 00 00 	nop 

000024a0 <HW_trap_0x4a>:
    24a0:	91 d0 20 00 	ta  0
    24a4:	01 00 00 00 	nop 
    24a8:	01 00 00 00 	nop 
    24ac:	01 00 00 00 	nop 

000024b0 <HW_trap_0x4b>:
    24b0:	91 d0 20 00 	ta  0
    24b4:	01 00 00 00 	nop 
    24b8:	01 00 00 00 	nop 
    24bc:	01 00 00 00 	nop 

000024c0 <HW_trap_0x4c>:
    24c0:	91 d0 20 00 	ta  0
    24c4:	01 00 00 00 	nop 
    24c8:	01 00 00 00 	nop 
    24cc:	01 00 00 00 	nop 

000024d0 <HW_trap_0x4d>:
    24d0:	91 d0 20 00 	ta  0
    24d4:	01 00 00 00 	nop 
    24d8:	01 00 00 00 	nop 
    24dc:	01 00 00 00 	nop 

000024e0 <HW_trap_0x4e>:
    24e0:	91 d0 20 00 	ta  0
    24e4:	01 00 00 00 	nop 
    24e8:	01 00 00 00 	nop 
    24ec:	01 00 00 00 	nop 

000024f0 <HW_trap_0x4f>:
    24f0:	91 d0 20 00 	ta  0
    24f4:	01 00 00 00 	nop 
    24f8:	01 00 00 00 	nop 
    24fc:	01 00 00 00 	nop 

00002500 <HW_trap_0x50>:
    2500:	91 d0 20 00 	ta  0
    2504:	01 00 00 00 	nop 
    2508:	01 00 00 00 	nop 
    250c:	01 00 00 00 	nop 

00002510 <HW_trap_0x51>:
    2510:	91 d0 20 00 	ta  0
    2514:	01 00 00 00 	nop 
    2518:	01 00 00 00 	nop 
    251c:	01 00 00 00 	nop 

00002520 <HW_trap_0x52>:
    2520:	91 d0 20 00 	ta  0
    2524:	01 00 00 00 	nop 
    2528:	01 00 00 00 	nop 
    252c:	01 00 00 00 	nop 

00002530 <HW_trap_0x53>:
    2530:	91 d0 20 00 	ta  0
    2534:	01 00 00 00 	nop 
    2538:	01 00 00 00 	nop 
    253c:	01 00 00 00 	nop 

00002540 <HW_trap_0x54>:
    2540:	91 d0 20 00 	ta  0
    2544:	01 00 00 00 	nop 
    2548:	01 00 00 00 	nop 
    254c:	01 00 00 00 	nop 

00002550 <HW_trap_0x55>:
    2550:	91 d0 20 00 	ta  0
    2554:	01 00 00 00 	nop 
    2558:	01 00 00 00 	nop 
    255c:	01 00 00 00 	nop 

00002560 <HW_trap_0x56>:
    2560:	91 d0 20 00 	ta  0
    2564:	01 00 00 00 	nop 
    2568:	01 00 00 00 	nop 
    256c:	01 00 00 00 	nop 

00002570 <HW_trap_0x57>:
    2570:	91 d0 20 00 	ta  0
    2574:	01 00 00 00 	nop 
    2578:	01 00 00 00 	nop 
    257c:	01 00 00 00 	nop 

00002580 <HW_trap_0x58>:
    2580:	91 d0 20 00 	ta  0
    2584:	01 00 00 00 	nop 
    2588:	01 00 00 00 	nop 
    258c:	01 00 00 00 	nop 

00002590 <HW_trap_0x59>:
    2590:	91 d0 20 00 	ta  0
    2594:	01 00 00 00 	nop 
    2598:	01 00 00 00 	nop 
    259c:	01 00 00 00 	nop 

000025a0 <HW_trap_0x5a>:
    25a0:	91 d0 20 00 	ta  0
    25a4:	01 00 00 00 	nop 
    25a8:	01 00 00 00 	nop 
    25ac:	01 00 00 00 	nop 

000025b0 <HW_trap_0x5b>:
    25b0:	91 d0 20 00 	ta  0
    25b4:	01 00 00 00 	nop 
    25b8:	01 00 00 00 	nop 
    25bc:	01 00 00 00 	nop 

000025c0 <HW_trap_0x5c>:
    25c0:	91 d0 20 00 	ta  0
    25c4:	01 00 00 00 	nop 
    25c8:	01 00 00 00 	nop 
    25cc:	01 00 00 00 	nop 

000025d0 <HW_trap_0x5d>:
    25d0:	91 d0 20 00 	ta  0
    25d4:	01 00 00 00 	nop 
    25d8:	01 00 00 00 	nop 
    25dc:	01 00 00 00 	nop 

000025e0 <HW_trap_0x5e>:
    25e0:	91 d0 20 00 	ta  0
    25e4:	01 00 00 00 	nop 
    25e8:	01 00 00 00 	nop 
    25ec:	01 00 00 00 	nop 

000025f0 <HW_trap_0x5f>:
    25f0:	91 d0 20 00 	ta  0
    25f4:	01 00 00 00 	nop 
    25f8:	01 00 00 00 	nop 
    25fc:	01 00 00 00 	nop 

00002600 <HW_trap_0x60>:
    2600:	91 d0 20 00 	ta  0
    2604:	01 00 00 00 	nop 
    2608:	01 00 00 00 	nop 
    260c:	01 00 00 00 	nop 

00002610 <HW_trap_0x61>:
    2610:	91 d0 20 00 	ta  0
    2614:	01 00 00 00 	nop 
    2618:	01 00 00 00 	nop 
    261c:	01 00 00 00 	nop 

00002620 <HW_trap_0x62>:
    2620:	91 d0 20 00 	ta  0
    2624:	01 00 00 00 	nop 
    2628:	01 00 00 00 	nop 
    262c:	01 00 00 00 	nop 

00002630 <HW_trap_0x63>:
    2630:	91 d0 20 00 	ta  0
    2634:	01 00 00 00 	nop 
    2638:	01 00 00 00 	nop 
    263c:	01 00 00 00 	nop 

00002640 <HW_trap_0x64>:
    2640:	91 d0 20 00 	ta  0
    2644:	01 00 00 00 	nop 
    2648:	01 00 00 00 	nop 
    264c:	01 00 00 00 	nop 

00002650 <HW_trap_0x65>:
    2650:	91 d0 20 00 	ta  0
    2654:	01 00 00 00 	nop 
    2658:	01 00 00 00 	nop 
    265c:	01 00 00 00 	nop 

00002660 <HW_trap_0x66>:
    2660:	91 d0 20 00 	ta  0
    2664:	01 00 00 00 	nop 
    2668:	01 00 00 00 	nop 
    266c:	01 00 00 00 	nop 

00002670 <HW_trap_0x67>:
    2670:	91 d0 20 00 	ta  0
    2674:	01 00 00 00 	nop 
    2678:	01 00 00 00 	nop 
    267c:	01 00 00 00 	nop 

00002680 <HW_trap_0x68>:
    2680:	91 d0 20 00 	ta  0
    2684:	01 00 00 00 	nop 
    2688:	01 00 00 00 	nop 
    268c:	01 00 00 00 	nop 

00002690 <HW_trap_0x69>:
    2690:	91 d0 20 00 	ta  0
    2694:	01 00 00 00 	nop 
    2698:	01 00 00 00 	nop 
    269c:	01 00 00 00 	nop 

000026a0 <HW_trap_0x6a>:
    26a0:	91 d0 20 00 	ta  0
    26a4:	01 00 00 00 	nop 
    26a8:	01 00 00 00 	nop 
    26ac:	01 00 00 00 	nop 

000026b0 <HW_trap_0x6b>:
    26b0:	91 d0 20 00 	ta  0
    26b4:	01 00 00 00 	nop 
    26b8:	01 00 00 00 	nop 
    26bc:	01 00 00 00 	nop 

000026c0 <HW_trap_0x6c>:
    26c0:	91 d0 20 00 	ta  0
    26c4:	01 00 00 00 	nop 
    26c8:	01 00 00 00 	nop 
    26cc:	01 00 00 00 	nop 

000026d0 <HW_trap_0x6d>:
    26d0:	91 d0 20 00 	ta  0
    26d4:	01 00 00 00 	nop 
    26d8:	01 00 00 00 	nop 
    26dc:	01 00 00 00 	nop 

000026e0 <HW_trap_0x6e>:
    26e0:	91 d0 20 00 	ta  0
    26e4:	01 00 00 00 	nop 
    26e8:	01 00 00 00 	nop 
    26ec:	01 00 00 00 	nop 

000026f0 <HW_trap_0x6f>:
    26f0:	91 d0 20 00 	ta  0
    26f4:	01 00 00 00 	nop 
    26f8:	01 00 00 00 	nop 
    26fc:	01 00 00 00 	nop 

00002700 <HW_trap_0x70>:
    2700:	91 d0 20 00 	ta  0
    2704:	01 00 00 00 	nop 
    2708:	01 00 00 00 	nop 
    270c:	01 00 00 00 	nop 

00002710 <HW_trap_0x71>:
    2710:	91 d0 20 00 	ta  0
    2714:	01 00 00 00 	nop 
    2718:	01 00 00 00 	nop 
    271c:	01 00 00 00 	nop 

00002720 <HW_trap_0x72>:
    2720:	91 d0 20 00 	ta  0
    2724:	01 00 00 00 	nop 
    2728:	01 00 00 00 	nop 
    272c:	01 00 00 00 	nop 

00002730 <HW_trap_0x73>:
    2730:	91 d0 20 00 	ta  0
    2734:	01 00 00 00 	nop 
    2738:	01 00 00 00 	nop 
    273c:	01 00 00 00 	nop 

00002740 <HW_trap_0x74>:
    2740:	91 d0 20 00 	ta  0
    2744:	01 00 00 00 	nop 
    2748:	01 00 00 00 	nop 
    274c:	01 00 00 00 	nop 

00002750 <HW_trap_0x75>:
    2750:	91 d0 20 00 	ta  0
    2754:	01 00 00 00 	nop 
    2758:	01 00 00 00 	nop 
    275c:	01 00 00 00 	nop 

00002760 <HW_trap_0x76>:
    2760:	91 d0 20 00 	ta  0
    2764:	01 00 00 00 	nop 
    2768:	01 00 00 00 	nop 
    276c:	01 00 00 00 	nop 

00002770 <HW_trap_0x77>:
    2770:	91 d0 20 00 	ta  0
    2774:	01 00 00 00 	nop 
    2778:	01 00 00 00 	nop 
    277c:	01 00 00 00 	nop 

00002780 <HW_trap_0x78>:
    2780:	91 d0 20 00 	ta  0
    2784:	01 00 00 00 	nop 
    2788:	01 00 00 00 	nop 
    278c:	01 00 00 00 	nop 

00002790 <HW_trap_0x79>:
    2790:	91 d0 20 00 	ta  0
    2794:	01 00 00 00 	nop 
    2798:	01 00 00 00 	nop 
    279c:	01 00 00 00 	nop 

000027a0 <HW_trap_0x7a>:
    27a0:	91 d0 20 00 	ta  0
    27a4:	01 00 00 00 	nop 
    27a8:	01 00 00 00 	nop 
    27ac:	01 00 00 00 	nop 

000027b0 <HW_trap_0x7b>:
    27b0:	91 d0 20 00 	ta  0
    27b4:	01 00 00 00 	nop 
    27b8:	01 00 00 00 	nop 
    27bc:	01 00 00 00 	nop 

000027c0 <HW_trap_0x7c>:
    27c0:	91 d0 20 00 	ta  0
    27c4:	01 00 00 00 	nop 
    27c8:	01 00 00 00 	nop 
    27cc:	01 00 00 00 	nop 

000027d0 <HW_trap_0x7d>:
    27d0:	91 d0 20 00 	ta  0
    27d4:	01 00 00 00 	nop 
    27d8:	01 00 00 00 	nop 
    27dc:	01 00 00 00 	nop 

000027e0 <HW_trap_0x7e>:
    27e0:	91 d0 20 00 	ta  0
    27e4:	01 00 00 00 	nop 
    27e8:	01 00 00 00 	nop 
    27ec:	01 00 00 00 	nop 

000027f0 <HW_trap_0x7f>:
    27f0:	91 d0 20 00 	ta  0
    27f4:	01 00 00 00 	nop 
    27f8:	01 00 00 00 	nop 
    27fc:	01 00 00 00 	nop 

00002800 <SW_trap_0x80>:
    2800:	91 d0 20 00 	ta  0
    2804:	01 00 00 00 	nop 
    2808:	01 00 00 00 	nop 
    280c:	01 00 00 00 	nop 

00002810 <SW_trap_0x81>:
    2810:	91 d0 20 00 	ta  0
    2814:	01 00 00 00 	nop 
    2818:	01 00 00 00 	nop 
    281c:	01 00 00 00 	nop 

00002820 <SW_trap_0x82>:
    2820:	91 d0 20 00 	ta  0
    2824:	01 00 00 00 	nop 
    2828:	01 00 00 00 	nop 
    282c:	01 00 00 00 	nop 

00002830 <SW_trap_0x83>:
    2830:	91 d0 20 00 	ta  0
    2834:	01 00 00 00 	nop 
    2838:	01 00 00 00 	nop 
    283c:	01 00 00 00 	nop 

00002840 <SW_trap_0x84>:
    2840:	91 d0 20 00 	ta  0
    2844:	01 00 00 00 	nop 
    2848:	01 00 00 00 	nop 
    284c:	01 00 00 00 	nop 

00002850 <SW_trap_0x85>:
    2850:	91 d0 20 00 	ta  0
    2854:	01 00 00 00 	nop 
    2858:	01 00 00 00 	nop 
    285c:	01 00 00 00 	nop 

00002860 <SW_trap_0x86>:
    2860:	91 d0 20 00 	ta  0
    2864:	01 00 00 00 	nop 
    2868:	01 00 00 00 	nop 
    286c:	01 00 00 00 	nop 

00002870 <SW_trap_0x87>:
    2870:	91 d0 20 00 	ta  0
    2874:	01 00 00 00 	nop 
    2878:	01 00 00 00 	nop 
    287c:	01 00 00 00 	nop 

00002880 <SW_trap_0x88>:
    2880:	91 d0 20 00 	ta  0
    2884:	01 00 00 00 	nop 
    2888:	01 00 00 00 	nop 
    288c:	01 00 00 00 	nop 

00002890 <SW_trap_0x89>:
    2890:	91 d0 20 00 	ta  0
    2894:	01 00 00 00 	nop 
    2898:	01 00 00 00 	nop 
    289c:	01 00 00 00 	nop 

000028a0 <SW_trap_0x8a>:
    28a0:	91 d0 20 00 	ta  0
    28a4:	01 00 00 00 	nop 
    28a8:	01 00 00 00 	nop 
    28ac:	01 00 00 00 	nop 

000028b0 <SW_trap_0x8b>:
    28b0:	91 d0 20 00 	ta  0
    28b4:	01 00 00 00 	nop 
    28b8:	01 00 00 00 	nop 
    28bc:	01 00 00 00 	nop 

000028c0 <SW_trap_0x8c>:
    28c0:	91 d0 20 00 	ta  0
    28c4:	01 00 00 00 	nop 
    28c8:	01 00 00 00 	nop 
    28cc:	01 00 00 00 	nop 

000028d0 <SW_trap_0x8d>:
    28d0:	91 d0 20 00 	ta  0
    28d4:	01 00 00 00 	nop 
    28d8:	01 00 00 00 	nop 
    28dc:	01 00 00 00 	nop 

000028e0 <SW_trap_0x8e>:
    28e0:	91 d0 20 00 	ta  0
    28e4:	01 00 00 00 	nop 
    28e8:	01 00 00 00 	nop 
    28ec:	01 00 00 00 	nop 

000028f0 <SW_trap_0x8f>:
    28f0:	91 d0 20 00 	ta  0
    28f4:	01 00 00 00 	nop 
    28f8:	01 00 00 00 	nop 
    28fc:	01 00 00 00 	nop 

00002900 <SW_trap_0x90>:
    2900:	91 d0 20 00 	ta  0
    2904:	01 00 00 00 	nop 
    2908:	01 00 00 00 	nop 
    290c:	01 00 00 00 	nop 

00002910 <SW_trap_0x91>:
    2910:	91 d0 20 00 	ta  0
    2914:	01 00 00 00 	nop 
    2918:	01 00 00 00 	nop 
    291c:	01 00 00 00 	nop 

00002920 <SW_trap_0x92>:
    2920:	91 d0 20 00 	ta  0
    2924:	01 00 00 00 	nop 
    2928:	01 00 00 00 	nop 
    292c:	01 00 00 00 	nop 

00002930 <SW_trap_0x93>:
    2930:	91 d0 20 00 	ta  0
    2934:	01 00 00 00 	nop 
    2938:	01 00 00 00 	nop 
    293c:	01 00 00 00 	nop 

00002940 <SW_trap_0x94>:
    2940:	91 d0 20 00 	ta  0
    2944:	01 00 00 00 	nop 
    2948:	01 00 00 00 	nop 
    294c:	01 00 00 00 	nop 

00002950 <SW_trap_0x95>:
    2950:	91 d0 20 00 	ta  0
    2954:	01 00 00 00 	nop 
    2958:	01 00 00 00 	nop 
    295c:	01 00 00 00 	nop 

00002960 <SW_trap_0x96>:
    2960:	91 d0 20 00 	ta  0
    2964:	01 00 00 00 	nop 
    2968:	01 00 00 00 	nop 
    296c:	01 00 00 00 	nop 

00002970 <SW_trap_0x97>:
    2970:	91 d0 20 00 	ta  0
    2974:	01 00 00 00 	nop 
    2978:	01 00 00 00 	nop 
    297c:	01 00 00 00 	nop 

00002980 <SW_trap_0x98>:
    2980:	91 d0 20 00 	ta  0
    2984:	01 00 00 00 	nop 
    2988:	01 00 00 00 	nop 
    298c:	01 00 00 00 	nop 

00002990 <SW_trap_0x99>:
    2990:	91 d0 20 00 	ta  0
    2994:	01 00 00 00 	nop 
    2998:	01 00 00 00 	nop 
    299c:	01 00 00 00 	nop 

000029a0 <SW_trap_0x9a>:
    29a0:	91 d0 20 00 	ta  0
    29a4:	01 00 00 00 	nop 
    29a8:	01 00 00 00 	nop 
    29ac:	01 00 00 00 	nop 

000029b0 <SW_trap_0x9b>:
    29b0:	91 d0 20 00 	ta  0
    29b4:	01 00 00 00 	nop 
    29b8:	01 00 00 00 	nop 
    29bc:	01 00 00 00 	nop 

000029c0 <SW_trap_0x9c>:
    29c0:	91 d0 20 00 	ta  0
    29c4:	01 00 00 00 	nop 
    29c8:	01 00 00 00 	nop 
    29cc:	01 00 00 00 	nop 

000029d0 <SW_trap_0x9d>:
    29d0:	91 d0 20 00 	ta  0
    29d4:	01 00 00 00 	nop 
    29d8:	01 00 00 00 	nop 
    29dc:	01 00 00 00 	nop 

000029e0 <SW_trap_0x9e>:
    29e0:	91 d0 20 00 	ta  0
    29e4:	01 00 00 00 	nop 
    29e8:	01 00 00 00 	nop 
    29ec:	01 00 00 00 	nop 

000029f0 <SW_trap_0x9f>:
    29f0:	91 d0 20 00 	ta  0
    29f4:	01 00 00 00 	nop 
    29f8:	01 00 00 00 	nop 
    29fc:	01 00 00 00 	nop 

00002a00 <SW_trap_0xa0>:
    2a00:	91 d0 20 00 	ta  0
    2a04:	01 00 00 00 	nop 
    2a08:	01 00 00 00 	nop 
    2a0c:	01 00 00 00 	nop 

00002a10 <SW_trap_0xa1>:
    2a10:	91 d0 20 00 	ta  0
    2a14:	01 00 00 00 	nop 
    2a18:	01 00 00 00 	nop 
    2a1c:	01 00 00 00 	nop 

00002a20 <SW_trap_0xa2>:
    2a20:	91 d0 20 00 	ta  0
    2a24:	01 00 00 00 	nop 
    2a28:	01 00 00 00 	nop 
    2a2c:	01 00 00 00 	nop 

00002a30 <SW_trap_0xa3>:
    2a30:	91 d0 20 00 	ta  0
    2a34:	01 00 00 00 	nop 
    2a38:	01 00 00 00 	nop 
    2a3c:	01 00 00 00 	nop 

00002a40 <SW_trap_0xa4>:
    2a40:	91 d0 20 00 	ta  0
    2a44:	01 00 00 00 	nop 
    2a48:	01 00 00 00 	nop 
    2a4c:	01 00 00 00 	nop 

00002a50 <SW_trap_0xa5>:
    2a50:	91 d0 20 00 	ta  0
    2a54:	01 00 00 00 	nop 
    2a58:	01 00 00 00 	nop 
    2a5c:	01 00 00 00 	nop 

00002a60 <SW_trap_0xa6>:
    2a60:	91 d0 20 00 	ta  0
    2a64:	01 00 00 00 	nop 
    2a68:	01 00 00 00 	nop 
    2a6c:	01 00 00 00 	nop 

00002a70 <SW_trap_0xa7>:
    2a70:	91 d0 20 00 	ta  0
    2a74:	01 00 00 00 	nop 
    2a78:	01 00 00 00 	nop 
    2a7c:	01 00 00 00 	nop 

00002a80 <SW_trap_0xa8>:
    2a80:	91 d0 20 00 	ta  0
    2a84:	01 00 00 00 	nop 
    2a88:	01 00 00 00 	nop 
    2a8c:	01 00 00 00 	nop 

00002a90 <SW_trap_0xa9>:
    2a90:	91 d0 20 00 	ta  0
    2a94:	01 00 00 00 	nop 
    2a98:	01 00 00 00 	nop 
    2a9c:	01 00 00 00 	nop 

00002aa0 <SW_trap_0xaa>:
    2aa0:	91 d0 20 00 	ta  0
    2aa4:	01 00 00 00 	nop 
    2aa8:	01 00 00 00 	nop 
    2aac:	01 00 00 00 	nop 

00002ab0 <SW_trap_0xab>:
    2ab0:	91 d0 20 00 	ta  0
    2ab4:	01 00 00 00 	nop 
    2ab8:	01 00 00 00 	nop 
    2abc:	01 00 00 00 	nop 

00002ac0 <SW_trap_0xac>:
    2ac0:	91 d0 20 00 	ta  0
    2ac4:	01 00 00 00 	nop 
    2ac8:	01 00 00 00 	nop 
    2acc:	01 00 00 00 	nop 

00002ad0 <SW_trap_0xad>:
    2ad0:	91 d0 20 00 	ta  0
    2ad4:	01 00 00 00 	nop 
    2ad8:	01 00 00 00 	nop 
    2adc:	01 00 00 00 	nop 

00002ae0 <SW_trap_0xae>:
    2ae0:	91 d0 20 00 	ta  0
    2ae4:	01 00 00 00 	nop 
    2ae8:	01 00 00 00 	nop 
    2aec:	01 00 00 00 	nop 

00002af0 <SW_trap_0xaf>:
    2af0:	91 d0 20 00 	ta  0
    2af4:	01 00 00 00 	nop 
    2af8:	01 00 00 00 	nop 
    2afc:	01 00 00 00 	nop 

00002b00 <SW_trap_0xb0>:
    2b00:	91 d0 20 00 	ta  0
    2b04:	01 00 00 00 	nop 
    2b08:	01 00 00 00 	nop 
    2b0c:	01 00 00 00 	nop 

00002b10 <SW_trap_0xb1>:
    2b10:	91 d0 20 00 	ta  0
    2b14:	01 00 00 00 	nop 
    2b18:	01 00 00 00 	nop 
    2b1c:	01 00 00 00 	nop 

00002b20 <SW_trap_0xb2>:
    2b20:	91 d0 20 00 	ta  0
    2b24:	01 00 00 00 	nop 
    2b28:	01 00 00 00 	nop 
    2b2c:	01 00 00 00 	nop 

00002b30 <SW_trap_0xb3>:
    2b30:	91 d0 20 00 	ta  0
    2b34:	01 00 00 00 	nop 
    2b38:	01 00 00 00 	nop 
    2b3c:	01 00 00 00 	nop 

00002b40 <SW_trap_0xb4>:
    2b40:	91 d0 20 00 	ta  0
    2b44:	01 00 00 00 	nop 
    2b48:	01 00 00 00 	nop 
    2b4c:	01 00 00 00 	nop 

00002b50 <SW_trap_0xb5>:
    2b50:	91 d0 20 00 	ta  0
    2b54:	01 00 00 00 	nop 
    2b58:	01 00 00 00 	nop 
    2b5c:	01 00 00 00 	nop 

00002b60 <SW_trap_0xb6>:
    2b60:	91 d0 20 00 	ta  0
    2b64:	01 00 00 00 	nop 
    2b68:	01 00 00 00 	nop 
    2b6c:	01 00 00 00 	nop 

00002b70 <SW_trap_0xb7>:
    2b70:	91 d0 20 00 	ta  0
    2b74:	01 00 00 00 	nop 
    2b78:	01 00 00 00 	nop 
    2b7c:	01 00 00 00 	nop 

00002b80 <SW_trap_0xb8>:
    2b80:	91 d0 20 00 	ta  0
    2b84:	01 00 00 00 	nop 
    2b88:	01 00 00 00 	nop 
    2b8c:	01 00 00 00 	nop 

00002b90 <SW_trap_0xb9>:
    2b90:	91 d0 20 00 	ta  0
    2b94:	01 00 00 00 	nop 
    2b98:	01 00 00 00 	nop 
    2b9c:	01 00 00 00 	nop 

00002ba0 <SW_trap_0xba>:
    2ba0:	91 d0 20 00 	ta  0
    2ba4:	01 00 00 00 	nop 
    2ba8:	01 00 00 00 	nop 
    2bac:	01 00 00 00 	nop 

00002bb0 <SW_trap_0xbb>:
    2bb0:	91 d0 20 00 	ta  0
    2bb4:	01 00 00 00 	nop 
    2bb8:	01 00 00 00 	nop 
    2bbc:	01 00 00 00 	nop 

00002bc0 <SW_trap_0xbc>:
    2bc0:	91 d0 20 00 	ta  0
    2bc4:	01 00 00 00 	nop 
    2bc8:	01 00 00 00 	nop 
    2bcc:	01 00 00 00 	nop 

00002bd0 <SW_trap_0xbd>:
    2bd0:	91 d0 20 00 	ta  0
    2bd4:	01 00 00 00 	nop 
    2bd8:	01 00 00 00 	nop 
    2bdc:	01 00 00 00 	nop 

00002be0 <SW_trap_0xbe>:
    2be0:	91 d0 20 00 	ta  0
    2be4:	01 00 00 00 	nop 
    2be8:	01 00 00 00 	nop 
    2bec:	01 00 00 00 	nop 

00002bf0 <SW_trap_0xbf>:
    2bf0:	91 d0 20 00 	ta  0
    2bf4:	01 00 00 00 	nop 
    2bf8:	01 00 00 00 	nop 
    2bfc:	01 00 00 00 	nop 

00002c00 <SW_trap_0xc0>:
    2c00:	91 d0 20 00 	ta  0
    2c04:	01 00 00 00 	nop 
    2c08:	01 00 00 00 	nop 
    2c0c:	01 00 00 00 	nop 

00002c10 <SW_trap_0xc1>:
    2c10:	91 d0 20 00 	ta  0
    2c14:	01 00 00 00 	nop 
    2c18:	01 00 00 00 	nop 
    2c1c:	01 00 00 00 	nop 

00002c20 <SW_trap_0xc2>:
    2c20:	91 d0 20 00 	ta  0
    2c24:	01 00 00 00 	nop 
    2c28:	01 00 00 00 	nop 
    2c2c:	01 00 00 00 	nop 

00002c30 <SW_trap_0xc3>:
    2c30:	91 d0 20 00 	ta  0
    2c34:	01 00 00 00 	nop 
    2c38:	01 00 00 00 	nop 
    2c3c:	01 00 00 00 	nop 

00002c40 <SW_trap_0xc4>:
    2c40:	91 d0 20 00 	ta  0
    2c44:	01 00 00 00 	nop 
    2c48:	01 00 00 00 	nop 
    2c4c:	01 00 00 00 	nop 

00002c50 <SW_trap_0xc5>:
    2c50:	91 d0 20 00 	ta  0
    2c54:	01 00 00 00 	nop 
    2c58:	01 00 00 00 	nop 
    2c5c:	01 00 00 00 	nop 

00002c60 <SW_trap_0xc6>:
    2c60:	91 d0 20 00 	ta  0
    2c64:	01 00 00 00 	nop 
    2c68:	01 00 00 00 	nop 
    2c6c:	01 00 00 00 	nop 

00002c70 <SW_trap_0xc7>:
    2c70:	91 d0 20 00 	ta  0
    2c74:	01 00 00 00 	nop 
    2c78:	01 00 00 00 	nop 
    2c7c:	01 00 00 00 	nop 

00002c80 <SW_trap_0xc8>:
    2c80:	91 d0 20 00 	ta  0
    2c84:	01 00 00 00 	nop 
    2c88:	01 00 00 00 	nop 
    2c8c:	01 00 00 00 	nop 

00002c90 <SW_trap_0xc9>:
    2c90:	91 d0 20 00 	ta  0
    2c94:	01 00 00 00 	nop 
    2c98:	01 00 00 00 	nop 
    2c9c:	01 00 00 00 	nop 

00002ca0 <SW_trap_0xca>:
    2ca0:	91 d0 20 00 	ta  0
    2ca4:	01 00 00 00 	nop 
    2ca8:	01 00 00 00 	nop 
    2cac:	01 00 00 00 	nop 

00002cb0 <SW_trap_0xcb>:
    2cb0:	91 d0 20 00 	ta  0
    2cb4:	01 00 00 00 	nop 
    2cb8:	01 00 00 00 	nop 
    2cbc:	01 00 00 00 	nop 

00002cc0 <SW_trap_0xcc>:
    2cc0:	91 d0 20 00 	ta  0
    2cc4:	01 00 00 00 	nop 
    2cc8:	01 00 00 00 	nop 
    2ccc:	01 00 00 00 	nop 

00002cd0 <SW_trap_0xcd>:
    2cd0:	91 d0 20 00 	ta  0
    2cd4:	01 00 00 00 	nop 
    2cd8:	01 00 00 00 	nop 
    2cdc:	01 00 00 00 	nop 

00002ce0 <SW_trap_0xce>:
    2ce0:	91 d0 20 00 	ta  0
    2ce4:	01 00 00 00 	nop 
    2ce8:	01 00 00 00 	nop 
    2cec:	01 00 00 00 	nop 

00002cf0 <SW_trap_0xcf>:
    2cf0:	91 d0 20 00 	ta  0
    2cf4:	01 00 00 00 	nop 
    2cf8:	01 00 00 00 	nop 
    2cfc:	01 00 00 00 	nop 

00002d00 <SW_trap_0xd0>:
    2d00:	91 d0 20 00 	ta  0
    2d04:	01 00 00 00 	nop 
    2d08:	01 00 00 00 	nop 
    2d0c:	01 00 00 00 	nop 

00002d10 <SW_trap_0xd1>:
    2d10:	91 d0 20 00 	ta  0
    2d14:	01 00 00 00 	nop 
    2d18:	01 00 00 00 	nop 
    2d1c:	01 00 00 00 	nop 

00002d20 <SW_trap_0xd2>:
    2d20:	91 d0 20 00 	ta  0
    2d24:	01 00 00 00 	nop 
    2d28:	01 00 00 00 	nop 
    2d2c:	01 00 00 00 	nop 

00002d30 <SW_trap_0xd3>:
    2d30:	91 d0 20 00 	ta  0
    2d34:	01 00 00 00 	nop 
    2d38:	01 00 00 00 	nop 
    2d3c:	01 00 00 00 	nop 

00002d40 <SW_trap_0xd4>:
    2d40:	91 d0 20 00 	ta  0
    2d44:	01 00 00 00 	nop 
    2d48:	01 00 00 00 	nop 
    2d4c:	01 00 00 00 	nop 

00002d50 <SW_trap_0xd5>:
    2d50:	91 d0 20 00 	ta  0
    2d54:	01 00 00 00 	nop 
    2d58:	01 00 00 00 	nop 
    2d5c:	01 00 00 00 	nop 

00002d60 <SW_trap_0xd6>:
    2d60:	91 d0 20 00 	ta  0
    2d64:	01 00 00 00 	nop 
    2d68:	01 00 00 00 	nop 
    2d6c:	01 00 00 00 	nop 

00002d70 <SW_trap_0xd7>:
    2d70:	91 d0 20 00 	ta  0
    2d74:	01 00 00 00 	nop 
    2d78:	01 00 00 00 	nop 
    2d7c:	01 00 00 00 	nop 

00002d80 <SW_trap_0xd8>:
    2d80:	91 d0 20 00 	ta  0
    2d84:	01 00 00 00 	nop 
    2d88:	01 00 00 00 	nop 
    2d8c:	01 00 00 00 	nop 

00002d90 <SW_trap_0xd9>:
    2d90:	91 d0 20 00 	ta  0
    2d94:	01 00 00 00 	nop 
    2d98:	01 00 00 00 	nop 
    2d9c:	01 00 00 00 	nop 

00002da0 <SW_trap_0xda>:
    2da0:	91 d0 20 00 	ta  0
    2da4:	01 00 00 00 	nop 
    2da8:	01 00 00 00 	nop 
    2dac:	01 00 00 00 	nop 

00002db0 <SW_trap_0xdb>:
    2db0:	91 d0 20 00 	ta  0
    2db4:	01 00 00 00 	nop 
    2db8:	01 00 00 00 	nop 
    2dbc:	01 00 00 00 	nop 

00002dc0 <SW_trap_0xdc>:
    2dc0:	91 d0 20 00 	ta  0
    2dc4:	01 00 00 00 	nop 
    2dc8:	01 00 00 00 	nop 
    2dcc:	01 00 00 00 	nop 

00002dd0 <SW_trap_0xdd>:
    2dd0:	91 d0 20 00 	ta  0
    2dd4:	01 00 00 00 	nop 
    2dd8:	01 00 00 00 	nop 
    2ddc:	01 00 00 00 	nop 

00002de0 <SW_trap_0xde>:
    2de0:	91 d0 20 00 	ta  0
    2de4:	01 00 00 00 	nop 
    2de8:	01 00 00 00 	nop 
    2dec:	01 00 00 00 	nop 

00002df0 <SW_trap_0xdf>:
    2df0:	91 d0 20 00 	ta  0
    2df4:	01 00 00 00 	nop 
    2df8:	01 00 00 00 	nop 
    2dfc:	01 00 00 00 	nop 

00002e00 <SW_trap_0xe0>:
    2e00:	91 d0 20 00 	ta  0
    2e04:	01 00 00 00 	nop 
    2e08:	01 00 00 00 	nop 
    2e0c:	01 00 00 00 	nop 

00002e10 <SW_trap_0xe1>:
    2e10:	91 d0 20 00 	ta  0
    2e14:	01 00 00 00 	nop 
    2e18:	01 00 00 00 	nop 
    2e1c:	01 00 00 00 	nop 

00002e20 <SW_trap_0xe2>:
    2e20:	91 d0 20 00 	ta  0
    2e24:	01 00 00 00 	nop 
    2e28:	01 00 00 00 	nop 
    2e2c:	01 00 00 00 	nop 

00002e30 <SW_trap_0xe3>:
    2e30:	91 d0 20 00 	ta  0
    2e34:	01 00 00 00 	nop 
    2e38:	01 00 00 00 	nop 
    2e3c:	01 00 00 00 	nop 

00002e40 <SW_trap_0xe4>:
    2e40:	91 d0 20 00 	ta  0
    2e44:	01 00 00 00 	nop 
    2e48:	01 00 00 00 	nop 
    2e4c:	01 00 00 00 	nop 

00002e50 <SW_trap_0xe5>:
    2e50:	91 d0 20 00 	ta  0
    2e54:	01 00 00 00 	nop 
    2e58:	01 00 00 00 	nop 
    2e5c:	01 00 00 00 	nop 

00002e60 <SW_trap_0xe6>:
    2e60:	91 d0 20 00 	ta  0
    2e64:	01 00 00 00 	nop 
    2e68:	01 00 00 00 	nop 
    2e6c:	01 00 00 00 	nop 

00002e70 <SW_trap_0xe7>:
    2e70:	91 d0 20 00 	ta  0
    2e74:	01 00 00 00 	nop 
    2e78:	01 00 00 00 	nop 
    2e7c:	01 00 00 00 	nop 

00002e80 <SW_trap_0xe8>:
    2e80:	91 d0 20 00 	ta  0
    2e84:	01 00 00 00 	nop 
    2e88:	01 00 00 00 	nop 
    2e8c:	01 00 00 00 	nop 

00002e90 <SW_trap_0xe9>:
    2e90:	91 d0 20 00 	ta  0
    2e94:	01 00 00 00 	nop 
    2e98:	01 00 00 00 	nop 
    2e9c:	01 00 00 00 	nop 

00002ea0 <SW_trap_0xea>:
    2ea0:	91 d0 20 00 	ta  0
    2ea4:	01 00 00 00 	nop 
    2ea8:	01 00 00 00 	nop 
    2eac:	01 00 00 00 	nop 

00002eb0 <SW_trap_0xeb>:
    2eb0:	91 d0 20 00 	ta  0
    2eb4:	01 00 00 00 	nop 
    2eb8:	01 00 00 00 	nop 
    2ebc:	01 00 00 00 	nop 

00002ec0 <SW_trap_0xec>:
    2ec0:	91 d0 20 00 	ta  0
    2ec4:	01 00 00 00 	nop 
    2ec8:	01 00 00 00 	nop 
    2ecc:	01 00 00 00 	nop 

00002ed0 <SW_trap_0xed>:
    2ed0:	91 d0 20 00 	ta  0
    2ed4:	01 00 00 00 	nop 
    2ed8:	01 00 00 00 	nop 
    2edc:	01 00 00 00 	nop 

00002ee0 <SW_trap_0xee>:
    2ee0:	91 d0 20 00 	ta  0
    2ee4:	01 00 00 00 	nop 
    2ee8:	01 00 00 00 	nop 
    2eec:	01 00 00 00 	nop 

00002ef0 <SW_trap_0xef>:
    2ef0:	91 d0 20 00 	ta  0
    2ef4:	01 00 00 00 	nop 
    2ef8:	01 00 00 00 	nop 
    2efc:	01 00 00 00 	nop 

00002f00 <SW_trap_0xf0>:
    2f00:	91 d0 20 00 	ta  0
    2f04:	01 00 00 00 	nop 
    2f08:	01 00 00 00 	nop 
    2f0c:	01 00 00 00 	nop 

00002f10 <SW_trap_0xf1>:
    2f10:	91 d0 20 00 	ta  0
    2f14:	01 00 00 00 	nop 
    2f18:	01 00 00 00 	nop 
    2f1c:	01 00 00 00 	nop 

00002f20 <SW_trap_0xf2>:
    2f20:	91 d0 20 00 	ta  0
    2f24:	01 00 00 00 	nop 
    2f28:	01 00 00 00 	nop 
    2f2c:	01 00 00 00 	nop 

00002f30 <SW_trap_0xf3>:
    2f30:	91 d0 20 00 	ta  0
    2f34:	01 00 00 00 	nop 
    2f38:	01 00 00 00 	nop 
    2f3c:	01 00 00 00 	nop 

00002f40 <SW_trap_0xf4>:
    2f40:	91 d0 20 00 	ta  0
    2f44:	01 00 00 00 	nop 
    2f48:	01 00 00 00 	nop 
    2f4c:	01 00 00 00 	nop 

00002f50 <SW_trap_0xf5>:
    2f50:	91 d0 20 00 	ta  0
    2f54:	01 00 00 00 	nop 
    2f58:	01 00 00 00 	nop 
    2f5c:	01 00 00 00 	nop 

00002f60 <SW_trap_0xf6>:
    2f60:	91 d0 20 00 	ta  0
    2f64:	01 00 00 00 	nop 
    2f68:	01 00 00 00 	nop 
    2f6c:	01 00 00 00 	nop 

00002f70 <SW_trap_0xf7>:
    2f70:	91 d0 20 00 	ta  0
    2f74:	01 00 00 00 	nop 
    2f78:	01 00 00 00 	nop 
    2f7c:	01 00 00 00 	nop 

00002f80 <SW_trap_0xf8>:
    2f80:	91 d0 20 00 	ta  0
    2f84:	01 00 00 00 	nop 
    2f88:	01 00 00 00 	nop 
    2f8c:	01 00 00 00 	nop 

00002f90 <SW_trap_0xf9>:
    2f90:	91 d0 20 00 	ta  0
    2f94:	01 00 00 00 	nop 
    2f98:	01 00 00 00 	nop 
    2f9c:	01 00 00 00 	nop 

00002fa0 <SW_trap_0xfa>:
    2fa0:	91 d0 20 00 	ta  0
    2fa4:	01 00 00 00 	nop 
    2fa8:	01 00 00 00 	nop 
    2fac:	01 00 00 00 	nop 

00002fb0 <SW_trap_0xfb>:
    2fb0:	91 d0 20 00 	ta  0
    2fb4:	01 00 00 00 	nop 
    2fb8:	01 00 00 00 	nop 
    2fbc:	01 00 00 00 	nop 

00002fc0 <SW_trap_0xfc>:
    2fc0:	91 d0 20 00 	ta  0
    2fc4:	01 00 00 00 	nop 
    2fc8:	01 00 00 00 	nop 
    2fcc:	01 00 00 00 	nop 

00002fd0 <SW_trap_0xfd>:
    2fd0:	91 d0 20 00 	ta  0
    2fd4:	01 00 00 00 	nop 
    2fd8:	01 00 00 00 	nop 
    2fdc:	01 00 00 00 	nop 

00002fe0 <SW_trap_0xfe>:
    2fe0:	91 d0 20 00 	ta  0
    2fe4:	01 00 00 00 	nop 
    2fe8:	01 00 00 00 	nop 
    2fec:	01 00 00 00 	nop 
    2ff0:	01 00 00 00 	nop 
    2ff4:	01 00 00 00 	nop 
    2ff8:	01 00 00 00 	nop 
    2ffc:	01 00 00 00 	nop 
    3000:	00 00 39 a8 	unimp  0x39a8
    3004:	00 00 38 1c 	unimp  0x381c
    3008:	00 00 38 1c 	unimp  0x381c
    300c:	00 00 38 1c 	unimp  0x381c
    3010:	00 00 38 1c 	unimp  0x381c
    3014:	00 00 38 1c 	unimp  0x381c
    3018:	00 00 38 1c 	unimp  0x381c
    301c:	00 00 38 1c 	unimp  0x381c
    3020:	00 00 38 1c 	unimp  0x381c
    3024:	00 00 38 1c 	unimp  0x381c
    3028:	00 00 38 1c 	unimp  0x381c
    302c:	00 00 38 1c 	unimp  0x381c
    3030:	00 00 38 1c 	unimp  0x381c
    3034:	00 00 38 1c 	unimp  0x381c
    3038:	00 00 38 1c 	unimp  0x381c
    303c:	00 00 38 1c 	unimp  0x381c
    3040:	00 00 38 1c 	unimp  0x381c
    3044:	00 00 38 1c 	unimp  0x381c
    3048:	00 00 38 1c 	unimp  0x381c
    304c:	00 00 38 1c 	unimp  0x381c
    3050:	00 00 38 1c 	unimp  0x381c
    3054:	00 00 38 1c 	unimp  0x381c
    3058:	00 00 38 1c 	unimp  0x381c
    305c:	00 00 42 24 	unimp  0x4224
    3060:	00 00 38 1c 	unimp  0x381c
    3064:	00 00 38 1c 	unimp  0x381c
    3068:	00 00 38 1c 	unimp  0x381c
    306c:	00 00 38 1c 	unimp  0x381c
    3070:	00 00 38 1c 	unimp  0x381c
    3074:	00 00 38 1c 	unimp  0x381c
    3078:	00 00 38 1c 	unimp  0x381c
    307c:	00 00 38 1c 	unimp  0x381c
    3080:	00 00 39 ac 	unimp  0x39ac
    3084:	00 00 38 1c 	unimp  0x381c
    3088:	00 00 41 44 	unimp  0x4144
    308c:	00 00 41 38 	unimp  0x4138
    3090:	00 00 38 1c 	unimp  0x381c
    3094:	00 00 38 1c 	unimp  0x381c
    3098:	00 00 38 1c 	unimp  0x381c
    309c:	00 00 38 1c 	unimp  0x381c
    30a0:	00 00 41 38 	unimp  0x4138
    30a4:	00 00 38 1c 	unimp  0x381c
    30a8:	00 00 38 1c 	unimp  0x381c
    30ac:	00 00 38 1c 	unimp  0x381c
    30b0:	00 00 38 1c 	unimp  0x381c
    30b4:	00 00 38 1c 	unimp  0x381c
    30b8:	00 00 41 30 	unimp  0x4130
    30bc:	00 00 41 0c 	unimp  0x410c
    30c0:	00 00 38 1c 	unimp  0x381c
    30c4:	00 00 38 1c 	unimp  0x381c
    30c8:	00 00 3e 64 	unimp  0x3e64
    30cc:	00 00 38 1c 	unimp  0x381c
    30d0:	00 00 3e 5c 	unimp  0x3e5c
    30d4:	00 00 38 1c 	unimp  0x381c
    30d8:	00 00 38 1c 	unimp  0x381c
    30dc:	00 00 3e 44 	unimp  0x3e44
    30e0:	00 00 39 10 	unimp  0x3910
    30e4:	00 00 37 7c 	unimp  0x377c
    30e8:	00 00 37 7c 	unimp  0x377c
    30ec:	00 00 39 04 	unimp  0x3904
    30f0:	00 00 37 7c 	unimp  0x377c
    30f4:	00 00 37 7c 	unimp  0x377c
    30f8:	00 00 37 7c 	unimp  0x377c
    30fc:	00 00 37 7c 	unimp  0x377c
    3100:	00 00 37 7c 	unimp  0x377c
    3104:	00 00 37 7c 	unimp  0x377c
    3108:	00 00 37 7c 	unimp  0x377c
    310c:	00 00 38 f8 	unimp  0x38f8
    3110:	00 00 37 7c 	unimp  0x377c
    3114:	00 00 38 ec 	unimp  0x38ec
    3118:	00 00 37 7c 	unimp  0x377c
    311c:	00 00 37 7c 	unimp  0x377c
    3120:	00 00 38 e0 	unimp  0x38e0

00003124 <number>:
    3124:	9d e3 bf 58 	save  %sp, -168, %sp
    3128:	80 8f 60 40 	btst  0x40, %i5
    312c:	02 80 01 28 	be  35cc <number+0x4a8>
    3130:	1f 00 00 40 	sethi  %hi(0x10000), %o7
    3134:	1f 00 00 40 	sethi  %hi(0x10000), %o7
    3138:	9e 13 e0 28 	or  %o7, 0x28, %o7	! 10028 <main+0x9f0c>
    313c:	80 8f 60 10 	btst  0x10, %i5
    3140:	32 80 00 02 	bne,a   3148 <number+0x24>
    3144:	ba 0f 7f fe 	and  %i5, -2, %i5
    3148:	82 06 bf fe 	add  %i2, -2, %g1
    314c:	80 a0 60 22 	cmp  %g1, 0x22
    3150:	18 80 01 32 	bgu  3618 <number+0x4f4>
    3154:	82 0f 60 01 	and  %i5, 1, %g1
    3158:	80 a0 00 01 	cmp  %g0, %g1
    315c:	94 10 20 00 	clr  %o2
    3160:	9a 40 3f ff 	addx  %g0, -1, %o5
    3164:	80 8f 60 02 	btst  2, %i5
    3168:	9a 0b 60 f0 	and  %o5, 0xf0, %o5
    316c:	02 80 00 0c 	be  319c <number+0x78>
    3170:	9a 03 60 30 	add  %o5, 0x30, %o5
    3174:	80 a6 60 00 	cmp  %i1, 0
    3178:	06 80 01 39 	bl  365c <number+0x538>
    317c:	80 8f 60 04 	btst  4, %i5
    3180:	32 80 01 29 	bne,a   3624 <number+0x500>
    3184:	b6 06 ff ff 	add  %i3, -1, %i3
    3188:	80 8f 60 08 	btst  8, %i5
    318c:	02 80 00 05 	be  31a0 <number+0x7c>
    3190:	92 8f 60 20 	andcc  %i5, 0x20, %o1
    3194:	b6 06 ff ff 	add  %i3, -1, %i3
    3198:	94 10 20 20 	mov  0x20, %o2
    319c:	92 8f 60 20 	andcc  %i5, 0x20, %o1
    31a0:	02 80 00 08 	be  31c0 <number+0x9c>
    31a4:	80 a6 60 00 	cmp  %i1, 0
    31a8:	80 a6 a0 10 	cmp  %i2, 0x10
    31ac:	02 80 01 27 	be  3648 <number+0x524>
    31b0:	82 1e a0 08 	xor  %i2, 8, %g1
    31b4:	80 a0 00 01 	cmp  %g0, %g1
    31b8:	b6 46 ff ff 	addx  %i3, -1, %i3
    31bc:	80 a6 60 00 	cmp  %i1, 0
    31c0:	12 80 01 06 	bne  35d8 <number+0x4b4>
    31c4:	82 10 20 00 	clr  %g1
    31c8:	82 10 20 30 	mov  0x30, %g1
    31cc:	88 07 bf b8 	add  %fp, -72, %g4
    31d0:	c2 2f bf b8 	stb  %g1, [ %fp + -72 ]
    31d4:	82 10 20 01 	mov  1, %g1
    31d8:	80 a0 40 1c 	cmp  %g1, %i4
    31dc:	16 80 00 03 	bge  31e8 <number+0xc4>
    31e0:	98 10 00 01 	mov  %g1, %o4
    31e4:	98 10 00 1c 	mov  %i4, %o4
    31e8:	80 8f 60 11 	btst  0x11, %i5
    31ec:	12 80 00 39 	bne  32d0 <number+0x1ac>
    31f0:	b6 26 c0 0c 	sub  %i3, %o4, %i3
    31f4:	80 a6 e0 00 	cmp  %i3, 0
    31f8:	04 80 01 25 	ble  368c <number+0x568>
    31fc:	9e 06 ff ff 	add  %i3, -1, %o7
    3200:	84 20 00 18 	neg  %i0, %g2
    3204:	a2 10 00 1b 	mov  %i3, %l1
    3208:	84 08 a0 03 	and  %g2, 3, %g2
    320c:	80 a6 c0 02 	cmp  %i3, %g2
    3210:	08 80 00 03 	bleu  321c <number+0xf8>
    3214:	b8 10 00 1b 	mov  %i3, %i4
    3218:	b8 10 00 02 	mov  %g2, %i4
    321c:	80 a6 e0 03 	cmp  %i3, 3
    3220:	28 80 00 02 	bleu,a   3228 <number+0x104>
    3224:	b8 10 00 1b 	mov  %i3, %i4
    3228:	80 a7 20 00 	cmp  %i4, 0
    322c:	02 80 00 0c 	be  325c <number+0x138>
    3230:	84 10 00 18 	mov  %i0, %g2
    3234:	96 10 20 20 	mov  0x20, %o3
    3238:	d6 28 80 00 	stb  %o3, [ %g2 ]
    323c:	84 00 a0 01 	inc  %g2
    3240:	86 20 80 18 	sub  %g2, %i0, %g3
    3244:	80 a7 00 03 	cmp  %i4, %g3
    3248:	18 bf ff fc 	bgu  3238 <number+0x114>
    324c:	9e 03 ff ff 	add  %o7, -1, %o7
    3250:	80 a6 c0 1c 	cmp  %i3, %i4
    3254:	22 80 00 1e 	be,a   32cc <number+0x1a8>
    3258:	b6 10 3f ff 	mov  -1, %i3
    325c:	b6 26 c0 1c 	sub  %i3, %i4, %i3
    3260:	97 36 e0 02 	srl  %i3, 2, %o3
    3264:	a1 2a e0 02 	sll  %o3, 2, %l0
    3268:	80 a4 20 00 	cmp  %l0, 0
    326c:	02 80 00 0e 	be  32a4 <number+0x180>
    3270:	b8 06 00 1c 	add  %i0, %i4, %i4
    3274:	11 08 08 08 	sethi  %hi(0x20202000), %o0
    3278:	86 10 20 00 	clr  %g3
    327c:	90 12 20 20 	or  %o0, 0x20, %o0
    3280:	d0 27 00 00 	st  %o0, [ %i4 ]
    3284:	86 00 e0 01 	inc  %g3
    3288:	80 a0 c0 0b 	cmp  %g3, %o3
    328c:	0a bf ff fd 	bcs  3280 <number+0x15c>
    3290:	b8 07 20 04 	add  %i4, 4, %i4
    3294:	84 00 80 10 	add  %g2, %l0, %g2
    3298:	80 a6 c0 10 	cmp  %i3, %l0
    329c:	02 80 00 0b 	be  32c8 <number+0x1a4>
    32a0:	9e 23 c0 10 	sub  %o7, %l0, %o7
    32a4:	86 10 20 00 	clr  %g3
    32a8:	9e 03 e0 01 	inc  %o7
    32ac:	b6 10 20 20 	mov  0x20, %i3
    32b0:	f6 28 80 03 	stb  %i3, [ %g2 + %g3 ]
    32b4:	86 00 e0 01 	inc  %g3
    32b8:	b8 23 c0 03 	sub  %o7, %g3, %i4
    32bc:	80 a7 20 00 	cmp  %i4, 0
    32c0:	34 bf ff fd 	bg,a   32b4 <number+0x190>
    32c4:	f6 28 80 03 	stb  %i3, [ %g2 + %g3 ]
    32c8:	b6 10 3f ff 	mov  -1, %i3
    32cc:	b0 06 00 11 	add  %i0, %l1, %i0
    32d0:	80 8a a0 ff 	btst  0xff, %o2
    32d4:	02 80 00 04 	be  32e4 <number+0x1c0>
    32d8:	80 a2 60 00 	cmp  %o1, 0
    32dc:	d4 2e 00 00 	stb  %o2, [ %i0 ]
    32e0:	b0 06 20 01 	inc  %i0
    32e4:	02 80 00 08 	be  3304 <number+0x1e0>
    32e8:	80 8f 60 10 	btst  0x10, %i5
    32ec:	80 a6 a0 08 	cmp  %i2, 8
    32f0:	02 80 00 d2 	be  3638 <number+0x514>
    32f4:	80 a6 a0 10 	cmp  %i2, 0x10
    32f8:	22 80 00 e0 	be,a   3678 <number+0x554>
    32fc:	84 10 20 30 	mov  0x30, %g2
    3300:	80 8f 60 10 	btst  0x10, %i5
    3304:	12 80 00 3b 	bne  33f0 <number+0x2cc>
    3308:	80 a3 00 01 	cmp  %o4, %g1
    330c:	80 a6 e0 00 	cmp  %i3, 0
    3310:	04 80 00 e1 	ble  3694 <number+0x570>
    3314:	b8 06 ff ff 	add  %i3, -1, %i4
    3318:	ba 20 00 18 	neg  %i0, %i5
    331c:	ba 0f 60 03 	and  %i5, 3, %i5
    3320:	80 a7 40 1b 	cmp  %i5, %i3
    3324:	38 80 00 02 	bgu,a   332c <number+0x208>
    3328:	ba 10 00 1b 	mov  %i3, %i5
    332c:	80 a6 e0 03 	cmp  %i3, 3
    3330:	28 80 00 02 	bleu,a   3338 <number+0x214>
    3334:	ba 10 00 1b 	mov  %i3, %i5
    3338:	80 a7 60 00 	cmp  %i5, 0
    333c:	02 80 00 0b 	be  3368 <number+0x244>
    3340:	84 10 00 18 	mov  %i0, %g2
    3344:	da 28 80 00 	stb  %o5, [ %g2 ]
    3348:	84 00 a0 01 	inc  %g2
    334c:	86 20 80 18 	sub  %g2, %i0, %g3
    3350:	80 a7 40 03 	cmp  %i5, %g3
    3354:	18 bf ff fc 	bgu  3344 <number+0x220>
    3358:	b8 07 3f ff 	add  %i4, -1, %i4
    335c:	80 a6 c0 1d 	cmp  %i3, %i5
    3360:	22 80 00 22 	be,a   33e8 <number+0x2c4>
    3364:	b0 06 00 1b 	add  %i0, %i3, %i0
    3368:	94 26 c0 1d 	sub  %i3, %i5, %o2
    336c:	b5 32 a0 02 	srl  %o2, 2, %i2
    3370:	97 2e a0 02 	sll  %i2, 2, %o3
    3374:	80 a2 e0 00 	cmp  %o3, 0
    3378:	02 80 00 13 	be  33c4 <number+0x2a0>
    337c:	ba 06 00 1d 	add  %i0, %i5, %i5
    3380:	9e 0b 60 ff 	and  %o5, 0xff, %o7
    3384:	87 2b e0 10 	sll  %o7, 0x10, %g3
    3388:	91 2b e0 18 	sll  %o7, 0x18, %o0
    338c:	93 2b e0 08 	sll  %o7, 8, %o1
    3390:	90 12 00 03 	or  %o0, %g3, %o0
    3394:	92 12 00 09 	or  %o0, %o1, %o1
    3398:	86 10 20 00 	clr  %g3
    339c:	9e 12 40 0f 	or  %o1, %o7, %o7
    33a0:	de 27 40 00 	st  %o7, [ %i5 ]
    33a4:	86 00 e0 01 	inc  %g3
    33a8:	80 a0 c0 1a 	cmp  %g3, %i2
    33ac:	0a bf ff fd 	bcs  33a0 <number+0x27c>
    33b0:	ba 07 60 04 	add  %i5, 4, %i5
    33b4:	84 00 80 0b 	add  %g2, %o3, %g2
    33b8:	80 a2 80 0b 	cmp  %o2, %o3
    33bc:	02 80 00 0a 	be  33e4 <number+0x2c0>
    33c0:	b8 27 00 0b 	sub  %i4, %o3, %i4
    33c4:	86 10 20 00 	clr  %g3
    33c8:	b8 07 20 01 	inc  %i4
    33cc:	da 28 80 03 	stb  %o5, [ %g2 + %g3 ]
    33d0:	86 00 e0 01 	inc  %g3
    33d4:	ba 27 00 03 	sub  %i4, %g3, %i5
    33d8:	80 a7 60 00 	cmp  %i5, 0
    33dc:	34 bf ff fd 	bg,a   33d0 <number+0x2ac>
    33e0:	da 28 80 03 	stb  %o5, [ %g2 + %g3 ]
    33e4:	b0 06 00 1b 	add  %i0, %i3, %i0
    33e8:	b6 10 3f ff 	mov  -1, %i3
    33ec:	80 a3 00 01 	cmp  %o4, %g1
    33f0:	04 80 00 34 	ble  34c0 <number+0x39c>
    33f4:	b8 03 3f ff 	add  %o4, -1, %i4
    33f8:	9a 23 00 01 	sub  %o4, %g1, %o5
    33fc:	ba 20 00 18 	neg  %i0, %i5
    3400:	ba 0f 60 03 	and  %i5, 3, %i5
    3404:	80 a7 40 0d 	cmp  %i5, %o5
    3408:	38 80 00 02 	bgu,a   3410 <number+0x2ec>
    340c:	ba 10 00 0d 	mov  %o5, %i5
    3410:	80 a3 60 03 	cmp  %o5, 3
    3414:	28 80 00 02 	bleu,a   341c <number+0x2f8>
    3418:	ba 10 00 0d 	mov  %o5, %i5
    341c:	80 a7 60 00 	cmp  %i5, 0
    3420:	02 80 00 0c 	be  3450 <number+0x32c>
    3424:	84 10 00 18 	mov  %i0, %g2
    3428:	b4 10 20 30 	mov  0x30, %i2
    342c:	f4 28 80 00 	stb  %i2, [ %g2 ]
    3430:	84 00 a0 01 	inc  %g2
    3434:	86 20 80 18 	sub  %g2, %i0, %g3
    3438:	80 a7 40 03 	cmp  %i5, %g3
    343c:	18 bf ff fc 	bgu  342c <number+0x308>
    3440:	b8 07 3f ff 	add  %i4, -1, %i4
    3444:	80 a3 40 1d 	cmp  %o5, %i5
    3448:	22 80 00 1e 	be,a   34c0 <number+0x39c>
    344c:	b0 06 00 0d 	add  %i0, %o5, %i0
    3450:	96 23 40 1d 	sub  %o5, %i5, %o3
    3454:	b5 32 e0 02 	srl  %o3, 2, %i2
    3458:	99 2e a0 02 	sll  %i2, 2, %o4
    345c:	80 a3 20 00 	cmp  %o4, 0
    3460:	02 80 00 0e 	be  3498 <number+0x374>
    3464:	ba 06 00 1d 	add  %i0, %i5, %i5
    3468:	1f 0c 0c 0c 	sethi  %hi(0x30303000), %o7
    346c:	86 10 20 00 	clr  %g3
    3470:	9e 13 e0 30 	or  %o7, 0x30, %o7
    3474:	de 27 40 00 	st  %o7, [ %i5 ]
    3478:	86 00 e0 01 	inc  %g3
    347c:	80 a6 80 03 	cmp  %i2, %g3
    3480:	18 bf ff fd 	bgu  3474 <number+0x350>
    3484:	ba 07 60 04 	add  %i5, 4, %i5
    3488:	84 00 80 0c 	add  %g2, %o4, %g2
    348c:	80 a2 c0 0c 	cmp  %o3, %o4
    3490:	02 80 00 0b 	be  34bc <number+0x398>
    3494:	b8 27 00 0c 	sub  %i4, %o4, %i4
    3498:	86 10 20 00 	clr  %g3
    349c:	b8 07 20 01 	inc  %i4
    34a0:	b4 10 20 30 	mov  0x30, %i2
    34a4:	f4 28 80 03 	stb  %i2, [ %g2 + %g3 ]
    34a8:	86 00 e0 01 	inc  %g3
    34ac:	ba 27 00 03 	sub  %i4, %g3, %i5
    34b0:	80 a0 40 1d 	cmp  %g1, %i5
    34b4:	26 bf ff fd 	bl,a   34a8 <number+0x384>
    34b8:	f4 28 80 03 	stb  %i2, [ %g2 + %g3 ]
    34bc:	b0 06 00 0d 	add  %i0, %o5, %i0
    34c0:	82 10 00 19 	mov  %i1, %g1
    34c4:	84 10 00 18 	mov  %i0, %g2
    34c8:	c6 09 00 01 	ldub  [ %g4 + %g1 ], %g3
    34cc:	c6 28 80 00 	stb  %g3, [ %g2 ]
    34d0:	82 00 7f ff 	add  %g1, -1, %g1
    34d4:	86 00 60 01 	add  %g1, 1, %g3
    34d8:	80 a0 e0 00 	cmp  %g3, 0
    34dc:	14 bf ff fb 	bg  34c8 <number+0x3a4>
    34e0:	84 00 a0 01 	inc  %g2
    34e4:	82 38 00 19 	xnor  %g0, %i1, %g1
    34e8:	88 06 ff ff 	add  %i3, -1, %g4
    34ec:	83 38 60 1f 	sra  %g1, 0x1f, %g1
    34f0:	80 a6 e0 00 	cmp  %i3, 0
    34f4:	82 0e 40 01 	and  %i1, %g1, %g1
    34f8:	82 00 60 01 	inc  %g1
    34fc:	04 80 00 48 	ble  361c <number+0x4f8>
    3500:	b0 06 00 01 	add  %i0, %g1, %i0
    3504:	86 20 00 18 	neg  %i0, %g3
    3508:	86 08 e0 03 	and  %g3, 3, %g3
    350c:	80 a0 c0 1b 	cmp  %g3, %i3
    3510:	38 80 00 02 	bgu,a   3518 <number+0x3f4>
    3514:	86 10 00 1b 	mov  %i3, %g3
    3518:	80 a6 e0 03 	cmp  %i3, 3
    351c:	28 80 00 02 	bleu,a   3524 <number+0x400>
    3520:	86 10 00 1b 	mov  %i3, %g3
    3524:	80 a0 e0 00 	cmp  %g3, 0
    3528:	02 80 00 0c 	be  3558 <number+0x434>
    352c:	82 10 00 18 	mov  %i0, %g1
    3530:	ba 10 20 20 	mov  0x20, %i5
    3534:	fa 28 40 00 	stb  %i5, [ %g1 ]
    3538:	82 00 60 01 	inc  %g1
    353c:	84 20 40 18 	sub  %g1, %i0, %g2
    3540:	80 a0 c0 02 	cmp  %g3, %g2
    3544:	18 bf ff fc 	bgu  3534 <number+0x410>
    3548:	88 01 3f ff 	add  %g4, -1, %g4
    354c:	80 a6 c0 03 	cmp  %i3, %g3
    3550:	02 80 00 1d 	be  35c4 <number+0x4a0>
    3554:	01 00 00 00 	nop 
    3558:	b2 26 c0 03 	sub  %i3, %g3, %i1
    355c:	bb 36 60 02 	srl  %i1, 2, %i5
    3560:	b5 2f 60 02 	sll  %i5, 2, %i2
    3564:	80 a6 a0 00 	cmp  %i2, 0
    3568:	02 80 00 0e 	be  35a0 <number+0x47c>
    356c:	86 06 00 03 	add  %i0, %g3, %g3
    3570:	39 08 08 08 	sethi  %hi(0x20202000), %i4
    3574:	84 10 20 00 	clr  %g2
    3578:	b8 17 20 20 	or  %i4, 0x20, %i4
    357c:	f8 20 c0 00 	st  %i4, [ %g3 ]
    3580:	84 00 a0 01 	inc  %g2
    3584:	80 a0 80 1d 	cmp  %g2, %i5
    3588:	0a bf ff fd 	bcs  357c <number+0x458>
    358c:	86 00 e0 04 	add  %g3, 4, %g3
    3590:	82 00 40 1a 	add  %g1, %i2, %g1
    3594:	80 a6 40 1a 	cmp  %i1, %i2
    3598:	02 80 00 0b 	be  35c4 <number+0x4a0>
    359c:	88 21 00 1a 	sub  %g4, %i2, %g4
    35a0:	84 10 20 00 	clr  %g2
    35a4:	88 01 20 01 	inc  %g4
    35a8:	ba 10 20 20 	mov  0x20, %i5
    35ac:	fa 28 40 02 	stb  %i5, [ %g1 + %g2 ]
    35b0:	84 00 a0 01 	inc  %g2
    35b4:	86 21 00 02 	sub  %g4, %g2, %g3
    35b8:	80 a0 e0 00 	cmp  %g3, 0
    35bc:	34 bf ff fd 	bg,a   35b0 <number+0x48c>
    35c0:	fa 28 40 02 	stb  %i5, [ %g1 + %g2 ]
    35c4:	81 c7 e0 08 	ret 
    35c8:	91 ee 00 1b 	restore  %i0, %i3, %o0
    35cc:	10 bf fe dc 	b  313c <number+0x18>
    35d0:	9e 13 e0 00 	mov  %o7, %o7
    35d4:	82 10 20 00 	clr  %g1
    35d8:	88 07 bf b8 	add  %fp, -72, %g4
    35dc:	81 80 20 00 	mov  %g0, %y
    35e0:	01 00 00 00 	nop 
    35e4:	01 00 00 00 	nop 
    35e8:	01 00 00 00 	nop 
    35ec:	84 76 40 1a 	udiv  %i1, %i2, %g2
    35f0:	86 58 80 1a 	smul  %g2, %i2, %g3
    35f4:	b2 26 40 03 	sub  %i1, %g3, %i1
    35f8:	c6 0b c0 19 	ldub  [ %o7 + %i1 ], %g3
    35fc:	c6 29 00 01 	stb  %g3, [ %g4 + %g1 ]
    3600:	b2 10 00 02 	mov  %g2, %i1
    3604:	80 a0 a0 00 	cmp  %g2, 0
    3608:	12 bf ff f5 	bne  35dc <number+0x4b8>
    360c:	82 00 60 01 	inc  %g1
    3610:	10 bf fe f2 	b  31d8 <number+0xb4>
    3614:	b2 00 7f ff 	add  %g1, -1, %i1
    3618:	b0 10 20 00 	clr  %i0
    361c:	81 c7 e0 08 	ret 
    3620:	81 e8 00 00 	restore 
    3624:	92 8f 60 20 	andcc  %i5, 0x20, %o1
    3628:	02 bf fe e5 	be  31bc <number+0x98>
    362c:	94 10 20 2b 	mov  0x2b, %o2
    3630:	10 bf fe df 	b  31ac <number+0x88>
    3634:	80 a6 a0 10 	cmp  %i2, 0x10
    3638:	84 10 20 30 	mov  0x30, %g2
    363c:	c4 2e 00 00 	stb  %g2, [ %i0 ]
    3640:	10 bf ff 30 	b  3300 <number+0x1dc>
    3644:	b0 06 20 01 	inc  %i0
    3648:	80 a6 60 00 	cmp  %i1, 0
    364c:	12 bf ff e2 	bne  35d4 <number+0x4b0>
    3650:	b6 06 ff fe 	add  %i3, -2, %i3
    3654:	10 bf fe de 	b  31cc <number+0xa8>
    3658:	82 10 20 30 	mov  0x30, %g1
    365c:	b2 20 00 19 	neg  %i1
    3660:	b6 06 ff ff 	add  %i3, -1, %i3
    3664:	92 8f 60 20 	andcc  %i5, 0x20, %o1
    3668:	02 bf fe d5 	be  31bc <number+0x98>
    366c:	94 10 20 2d 	mov  0x2d, %o2
    3670:	10 bf fe cf 	b  31ac <number+0x88>
    3674:	80 a6 a0 10 	cmp  %i2, 0x10
    3678:	c4 2e 00 00 	stb  %g2, [ %i0 ]
    367c:	84 10 20 78 	mov  0x78, %g2
    3680:	c4 2e 20 01 	stb  %g2, [ %i0 + 1 ]
    3684:	10 bf ff 1f 	b  3300 <number+0x1dc>
    3688:	b0 06 20 02 	add  %i0, 2, %i0
    368c:	10 bf ff 11 	b  32d0 <number+0x1ac>
    3690:	b6 10 00 0f 	mov  %o7, %i3
    3694:	10 bf ff 56 	b  33ec <number+0x2c8>
    3698:	b6 10 00 1c 	mov  %i4, %i3

0000369c <uart_send_char>:
    369c:	9d e3 bf a0 	save  %sp, -96, %sp
    36a0:	40 00 07 03 	call  52ac <__ajit_serial_putchar_via_bypass__>
    36a4:	90 10 00 18 	mov  %i0, %o0
    36a8:	80 a2 20 00 	cmp  %o0, 0
    36ac:	02 bf ff fd 	be  36a0 <uart_send_char+0x4>
    36b0:	05 3f ff cc 	sethi  %hi(0xffff3000), %g2
    36b4:	84 10 a2 00 	or  %g2, 0x200, %g2	! ffff3200 <main+0xfffed0e4>
    36b8:	c2 80 84 00 	lda  [ %g2 ] #ASI_SCRATCHPAD, %g1
    36bc:	82 08 60 09 	and  %g1, 9, %g1
    36c0:	80 a0 60 09 	cmp  %g1, 9
    36c4:	02 bf ff fd 	be  36b8 <uart_send_char+0x1c>
    36c8:	01 00 00 00 	nop 
    36cc:	81 c7 e0 08 	ret 
    36d0:	81 e8 00 00 	restore 

000036d4 <ee_printf>:
    36d4:	9d e3 bb 80 	save  %sp, -1152, %sp
    36d8:	f6 27 a0 50 	st  %i3, [ %fp + 0x50 ]
    36dc:	a8 07 a0 48 	add  %fp, 0x48, %l4
    36e0:	f2 27 a0 48 	st  %i1, [ %fp + 0x48 ]
    36e4:	f4 27 a0 4c 	st  %i2, [ %fp + 0x4c ]
    36e8:	f8 27 a0 54 	st  %i4, [ %fp + 0x54 ]
    36ec:	fa 27 a0 58 	st  %i5, [ %fp + 0x58 ]
    36f0:	e8 27 bb e4 	st  %l4, [ %fp + -1052 ]
    36f4:	c4 0e 00 00 	ldub  [ %i0 ], %g2
    36f8:	b6 07 bc 00 	add  %fp, -1024, %i3
    36fc:	83 28 a0 18 	sll  %g2, 0x18, %g1
    3700:	80 a0 60 00 	cmp  %g1, 0
    3704:	02 80 00 58 	be  3864 <ee_printf+0x190>
    3708:	90 10 00 1b 	mov  %i3, %o0
    370c:	27 08 08 08 	sethi  %hi(0x20202000), %l3
    3710:	2b 00 00 0c 	sethi  %hi(0x3000), %l5
    3714:	b2 10 20 25 	mov  0x25, %i1
    3718:	3b 00 00 0c 	sethi  %hi(0x3000), %i5
    371c:	b8 10 20 2e 	mov  0x2e, %i4
    3720:	a4 10 20 20 	mov  0x20, %l2
    3724:	a6 14 e0 20 	or  %l3, 0x20, %l3
    3728:	35 00 00 40 	sethi  %hi(0x10000), %i2
    372c:	23 00 00 40 	sethi  %hi(0x10000), %l1
    3730:	10 80 00 08 	b  3750 <ee_printf+0x7c>
    3734:	21 00 00 40 	sethi  %hi(0x10000), %l0
    3738:	90 02 20 01 	inc  %o0
    373c:	c4 0e 20 01 	ldub  [ %i0 + 1 ], %g2
    3740:	83 28 a0 18 	sll  %g2, 0x18, %g1
    3744:	80 a0 60 00 	cmp  %g1, 0
    3748:	02 80 00 47 	be  3864 <ee_printf+0x190>
    374c:	b0 06 20 01 	inc  %i0
    3750:	83 38 60 18 	sra  %g1, 0x18, %g1
    3754:	80 a0 60 25 	cmp  %g1, 0x25
    3758:	32 bf ff f8 	bne,a   3738 <ee_printf+0x64>
    375c:	c4 2a 00 00 	stb  %g2, [ %o0 ]
    3760:	9a 10 20 00 	clr  %o5
    3764:	c2 0e 20 01 	ldub  [ %i0 + 1 ], %g1
    3768:	86 00 7f e0 	add  %g1, -32, %g3
    376c:	86 08 e0 ff 	and  %g3, 0xff, %g3
    3770:	80 a0 e0 10 	cmp  %g3, 0x10
    3774:	08 80 00 56 	bleu  38cc <ee_printf+0x1f8>
    3778:	84 06 20 01 	add  %i0, 1, %g2
    377c:	86 00 7f d0 	add  %g1, -48, %g3
    3780:	86 08 e0 ff 	and  %g3, 0xff, %g3
    3784:	80 a0 e0 09 	cmp  %g3, 9
    3788:	18 80 00 65 	bgu  391c <ee_printf+0x248>
    378c:	87 28 60 18 	sll  %g1, 0x18, %g3
    3790:	96 10 20 00 	clr  %o3
    3794:	86 02 c0 0b 	add  %o3, %o3, %g3
    3798:	83 28 60 18 	sll  %g1, 0x18, %g1
    379c:	83 38 60 18 	sra  %g1, 0x18, %g1
    37a0:	97 2a e0 03 	sll  %o3, 3, %o3
    37a4:	84 00 a0 01 	inc  %g2
    37a8:	96 00 c0 0b 	add  %g3, %o3, %o3
    37ac:	96 02 c0 01 	add  %o3, %g1, %o3
    37b0:	c2 08 80 00 	ldub  [ %g2 ], %g1
    37b4:	86 00 7f d0 	add  %g1, -48, %g3
    37b8:	86 08 e0 ff 	and  %g3, 0xff, %g3
    37bc:	80 a0 e0 09 	cmp  %g3, 9
    37c0:	08 bf ff f5 	bleu  3794 <ee_printf+0xc0>
    37c4:	96 02 ff d0 	add  %o3, -48, %o3
    37c8:	87 28 60 18 	sll  %g1, 0x18, %g3
    37cc:	b0 10 00 02 	mov  %g2, %i0
    37d0:	87 38 e0 18 	sra  %g3, 0x18, %g3
    37d4:	80 a0 e0 2e 	cmp  %g3, 0x2e
    37d8:	02 80 00 5a 	be  3940 <ee_printf+0x26c>
    37dc:	98 10 3f ff 	mov  -1, %o4
    37e0:	84 08 7f df 	and  %g1, -33, %g2
    37e4:	85 28 a0 18 	sll  %g2, 0x18, %g2
    37e8:	85 38 a0 18 	sra  %g2, 0x18, %g2
    37ec:	80 a0 a0 4c 	cmp  %g2, 0x4c
    37f0:	12 80 00 06 	bne  3808 <ee_printf+0x134>
    37f4:	86 10 3f ff 	mov  -1, %g3
    37f8:	87 28 60 18 	sll  %g1, 0x18, %g3
    37fc:	c2 0e 20 01 	ldub  [ %i0 + 1 ], %g1
    3800:	87 38 e0 18 	sra  %g3, 0x18, %g3
    3804:	b0 06 20 01 	inc  %i0
    3808:	84 00 7f bf 	add  %g1, -65, %g2
    380c:	84 08 a0 ff 	and  %g2, 0xff, %g2
    3810:	80 a0 a0 37 	cmp  %g2, 0x37
    3814:	08 80 00 61 	bleu  3998 <ee_printf+0x2c4>
    3818:	88 17 60 00 	mov  %i5, %g4
    381c:	85 28 60 18 	sll  %g1, 0x18, %g2
    3820:	85 38 a0 18 	sra  %g2, 0x18, %g2
    3824:	80 a0 a0 25 	cmp  %g2, 0x25
    3828:	22 80 00 09 	be,a   384c <ee_printf+0x178>
    382c:	c2 2a 00 00 	stb  %g1, [ %o0 ]
    3830:	f2 2a 00 00 	stb  %i1, [ %o0 ]
    3834:	90 02 20 01 	inc  %o0
    3838:	c4 4e 00 00 	ldsb  [ %i0 ], %g2
    383c:	80 a0 a0 00 	cmp  %g2, 0
    3840:	02 80 00 09 	be  3864 <ee_printf+0x190>
    3844:	c2 0e 00 00 	ldub  [ %i0 ], %g1
    3848:	c2 2a 00 00 	stb  %g1, [ %o0 ]
    384c:	90 02 20 01 	inc  %o0
    3850:	c4 0e 20 01 	ldub  [ %i0 + 1 ], %g2
    3854:	83 28 a0 18 	sll  %g2, 0x18, %g1
    3858:	80 a0 60 00 	cmp  %g1, 0
    385c:	12 bf ff bd 	bne  3750 <ee_printf+0x7c>
    3860:	b0 06 20 01 	inc  %i0
    3864:	c0 2a 00 00 	clrb  [ %o0 ]
    3868:	fa 0f bc 00 	ldub  [ %fp + -1024 ], %i5
    386c:	bb 2f 60 18 	sll  %i5, 0x18, %i5
    3870:	80 a7 60 00 	cmp  %i5, 0
    3874:	02 80 00 14 	be  38c4 <ee_printf+0x1f0>
    3878:	b0 10 20 00 	clr  %i0
    387c:	39 3f ff cc 	sethi  %hi(0xffff3000), %i4
    3880:	b8 17 22 00 	or  %i4, 0x200, %i4	! ffff3200 <main+0xfffed0e4>
    3884:	40 00 06 8a 	call  52ac <__ajit_serial_putchar_via_bypass__>
    3888:	91 3f 60 18 	sra  %i5, 0x18, %o0
    388c:	80 a2 20 00 	cmp  %o0, 0
    3890:	02 bf ff fd 	be  3884 <ee_printf+0x1b0>
    3894:	01 00 00 00 	nop 
    3898:	c2 87 04 00 	lda  [ %i4 ] #ASI_SCRATCHPAD, %g1
    389c:	82 08 60 09 	and  %g1, 9, %g1
    38a0:	80 a0 60 09 	cmp  %g1, 9
    38a4:	02 bf ff fd 	be  3898 <ee_printf+0x1c4>
    38a8:	01 00 00 00 	nop 
    38ac:	b0 06 20 01 	inc  %i0
    38b0:	fa 0e c0 18 	ldub  [ %i3 + %i0 ], %i5
    38b4:	bb 2f 60 18 	sll  %i5, 0x18, %i5
    38b8:	80 a7 60 00 	cmp  %i5, 0
    38bc:	12 bf ff f2 	bne  3884 <ee_printf+0x1b0>
    38c0:	01 00 00 00 	nop 
    38c4:	81 c7 e0 08 	ret 
    38c8:	81 e8 00 00 	restore 
    38cc:	88 15 60 e0 	or  %l5, 0xe0, %g4
    38d0:	87 28 e0 02 	sll  %g3, 2, %g3
    38d4:	c6 01 00 03 	ld  [ %g4 + %g3 ], %g3
    38d8:	81 c0 c0 00 	jmp  %g3
    38dc:	01 00 00 00 	nop 
    38e0:	9a 13 60 01 	or  %o5, 1, %o5
    38e4:	10 bf ff a0 	b  3764 <ee_printf+0x90>
    38e8:	b0 10 00 02 	mov  %g2, %i0
    38ec:	9a 13 60 10 	or  %o5, 0x10, %o5
    38f0:	10 bf ff 9d 	b  3764 <ee_printf+0x90>
    38f4:	b0 10 00 02 	mov  %g2, %i0
    38f8:	9a 13 60 04 	or  %o5, 4, %o5
    38fc:	10 bf ff 9a 	b  3764 <ee_printf+0x90>
    3900:	b0 10 00 02 	mov  %g2, %i0
    3904:	9a 13 60 20 	or  %o5, 0x20, %o5
    3908:	10 bf ff 97 	b  3764 <ee_printf+0x90>
    390c:	b0 10 00 02 	mov  %g2, %i0
    3910:	9a 13 60 08 	or  %o5, 8, %o5
    3914:	10 bf ff 94 	b  3764 <ee_printf+0x90>
    3918:	b0 10 00 02 	mov  %g2, %i0
    391c:	89 38 e0 18 	sra  %g3, 0x18, %g4
    3920:	80 a1 20 2a 	cmp  %g4, 0x2a
    3924:	02 80 02 43 	be  4230 <ee_printf+0xb5c>
    3928:	87 38 e0 18 	sra  %g3, 0x18, %g3
    392c:	b0 10 00 02 	mov  %g2, %i0
    3930:	96 10 3f ff 	mov  -1, %o3
    3934:	80 a0 e0 2e 	cmp  %g3, 0x2e
    3938:	12 bf ff aa 	bne  37e0 <ee_printf+0x10c>
    393c:	98 10 3f ff 	mov  -1, %o4
    3940:	c2 0e 20 01 	ldub  [ %i0 + 1 ], %g1
    3944:	86 00 7f d0 	add  %g1, -48, %g3
    3948:	86 08 e0 ff 	and  %g3, 0xff, %g3
    394c:	80 a0 e0 09 	cmp  %g3, 9
    3950:	18 80 01 36 	bgu  3e28 <ee_printf+0x754>
    3954:	84 06 20 01 	add  %i0, 1, %g2
    3958:	98 10 20 00 	clr  %o4
    395c:	86 03 00 0c 	add  %o4, %o4, %g3
    3960:	83 28 60 18 	sll  %g1, 0x18, %g1
    3964:	83 38 60 18 	sra  %g1, 0x18, %g1
    3968:	99 2b 20 03 	sll  %o4, 3, %o4
    396c:	84 00 a0 01 	inc  %g2
    3970:	98 00 c0 0c 	add  %g3, %o4, %o4
    3974:	98 03 00 01 	add  %o4, %g1, %o4
    3978:	c2 08 80 00 	ldub  [ %g2 ], %g1
    397c:	86 00 7f d0 	add  %g1, -48, %g3
    3980:	86 08 e0 ff 	and  %g3, 0xff, %g3
    3984:	80 a0 e0 09 	cmp  %g3, 9
    3988:	08 bf ff f5 	bleu  395c <ee_printf+0x288>
    398c:	98 03 3f d0 	add  %o4, -48, %o4
    3990:	10 bf ff 94 	b  37e0 <ee_printf+0x10c>
    3994:	b0 10 00 02 	mov  %g2, %i0
    3998:	85 28 a0 02 	sll  %g2, 2, %g2
    399c:	c4 01 00 02 	ld  [ %g4 + %g2 ], %g2
    39a0:	81 c0 80 00 	jmp  %g2
    39a4:	01 00 00 00 	nop 
    39a8:	9a 13 60 40 	or  %o5, 0x40, %o5
    39ac:	80 a0 e0 6c 	cmp  %g3, 0x6c
    39b0:	02 80 02 4b 	be  42dc <ee_printf+0xc08>
    39b4:	c4 05 00 00 	ld  [ %l4 ], %g2
    39b8:	c6 08 80 00 	ldub  [ %g2 ], %g3
    39bc:	80 a0 e0 00 	cmp  %g3, 0
    39c0:	02 80 02 25 	be  4254 <ee_printf+0xb80>
    39c4:	a8 05 20 04 	add  %l4, 4, %l4
    39c8:	80 a0 e0 63 	cmp  %g3, 0x63
    39cc:	04 80 03 56 	ble  4724 <ee_printf+0x1050>
    39d0:	80 a0 e0 09 	cmp  %g3, 9
    39d4:	95 38 e0 1f 	sra  %g3, 0x1f, %o2
    39d8:	81 82 a0 00 	mov  %o2, %y
    39dc:	01 00 00 00 	nop 
    39e0:	01 00 00 00 	nop 
    39e4:	01 00 00 00 	nop 
    39e8:	88 78 e0 64 	sdiv  %g3, 0x64, %g4
    39ec:	82 16 a0 00 	mov  %i2, %g1
    39f0:	9e 59 20 64 	smul  %g4, 0x64, %o7
    39f4:	c8 08 40 04 	ldub  [ %g1 + %g4 ], %g4
    39f8:	86 20 c0 0f 	sub  %g3, %o7, %g3
    39fc:	c8 2f bb e8 	stb  %g4, [ %fp + -1048 ]
    3a00:	89 38 e0 1f 	sra  %g3, 0x1f, %g4
    3a04:	81 81 20 00 	mov  %g4, %y
    3a08:	01 00 00 00 	nop 
    3a0c:	01 00 00 00 	nop 
    3a10:	01 00 00 00 	nop 
    3a14:	9e 78 e0 0a 	sdiv  %g3, 0xa, %o7
    3a18:	d4 08 40 0f 	ldub  [ %g1 + %o7 ], %o2
    3a1c:	98 03 c0 0f 	add  %o7, %o7, %o4
    3a20:	9f 2b e0 03 	sll  %o7, 3, %o7
    3a24:	98 03 00 0f 	add  %o4, %o7, %o4
    3a28:	88 10 20 04 	mov  4, %g4
    3a2c:	86 20 c0 0c 	sub  %g3, %o4, %g3
    3a30:	d4 2f bb e9 	stb  %o2, [ %fp + -1047 ]
    3a34:	9e 10 20 03 	mov  3, %o7
    3a38:	98 10 20 02 	mov  2, %o4
    3a3c:	98 07 80 0c 	add  %fp, %o4, %o4
    3a40:	c2 08 40 03 	ldub  [ %g1 + %g3 ], %g1
    3a44:	c2 2b 3b e8 	stb  %g1, [ %o4 + -1048 ]
    3a48:	98 07 80 0f 	add  %fp, %o7, %o4
    3a4c:	f8 2b 3b e8 	stb  %i4, [ %o4 + -1048 ]
    3a50:	c6 08 a0 01 	ldub  [ %g2 + 1 ], %g3
    3a54:	80 a0 e0 00 	cmp  %g3, 0
    3a58:	02 80 02 09 	be  427c <ee_printf+0xba8>
    3a5c:	82 07 80 04 	add  %fp, %g4, %g1
    3a60:	80 a0 e0 63 	cmp  %g3, 0x63
    3a64:	04 80 03 43 	ble  4770 <ee_printf+0x109c>
    3a68:	80 a0 e0 09 	cmp  %g3, 9
    3a6c:	83 38 e0 1f 	sra  %g3, 0x1f, %g1
    3a70:	81 80 60 00 	mov  %g1, %y
    3a74:	01 00 00 00 	nop 
    3a78:	01 00 00 00 	nop 
    3a7c:	01 00 00 00 	nop 
    3a80:	94 78 e0 64 	sdiv  %g3, 0x64, %o2
    3a84:	88 07 80 04 	add  %fp, %g4, %g4
    3a88:	82 16 a0 00 	mov  %i2, %g1
    3a8c:	d2 08 40 0a 	ldub  [ %g1 + %o2 ], %o1
    3a90:	94 5a a0 64 	smul  %o2, 0x64, %o2
    3a94:	d2 29 3b e8 	stb  %o1, [ %g4 + -1048 ]
    3a98:	86 20 c0 0a 	sub  %g3, %o2, %g3
    3a9c:	88 03 e0 03 	add  %o7, 3, %g4
    3aa0:	95 38 e0 1f 	sra  %g3, 0x1f, %o2
    3aa4:	81 82 a0 00 	mov  %o2, %y
    3aa8:	01 00 00 00 	nop 
    3aac:	01 00 00 00 	nop 
    3ab0:	01 00 00 00 	nop 
    3ab4:	9e 78 e0 0a 	sdiv  %g3, 0xa, %o7
    3ab8:	d2 08 40 0f 	ldub  [ %g1 + %o7 ], %o1
    3abc:	94 03 c0 0f 	add  %o7, %o7, %o2
    3ac0:	d2 2b 3b ea 	stb  %o1, [ %o4 + -1046 ]
    3ac4:	9f 2b e0 03 	sll  %o7, 3, %o7
    3ac8:	9e 02 80 0f 	add  %o2, %o7, %o7
    3acc:	86 20 c0 0f 	sub  %g3, %o7, %g3
    3ad0:	9e 07 80 04 	add  %fp, %g4, %o7
    3ad4:	c2 08 40 03 	ldub  [ %g1 + %g3 ], %g1
    3ad8:	c2 2b fb e8 	stb  %g1, [ %o7 + -1048 ]
    3adc:	88 01 20 01 	inc  %g4
    3ae0:	98 07 80 04 	add  %fp, %g4, %o4
    3ae4:	f8 2b 3b e8 	stb  %i4, [ %o4 + -1048 ]
    3ae8:	c6 08 a0 02 	ldub  [ %g2 + 2 ], %g3
    3aec:	80 a0 e0 00 	cmp  %g3, 0
    3af0:	02 80 01 ec 	be  42a0 <ee_printf+0xbcc>
    3af4:	9e 01 20 01 	add  %g4, 1, %o7
    3af8:	80 a0 e0 63 	cmp  %g3, 0x63
    3afc:	04 80 03 06 	ble  4714 <ee_printf+0x1040>
    3b00:	80 a0 e0 09 	cmp  %g3, 9
    3b04:	83 38 e0 1f 	sra  %g3, 0x1f, %g1
    3b08:	81 80 60 00 	mov  %g1, %y
    3b0c:	01 00 00 00 	nop 
    3b10:	01 00 00 00 	nop 
    3b14:	01 00 00 00 	nop 
    3b18:	94 78 e0 64 	sdiv  %g3, 0x64, %o2
    3b1c:	9e 07 80 0f 	add  %fp, %o7, %o7
    3b20:	82 16 a0 00 	mov  %i2, %g1
    3b24:	d2 08 40 0a 	ldub  [ %g1 + %o2 ], %o1
    3b28:	94 5a a0 64 	smul  %o2, 0x64, %o2
    3b2c:	d2 2b fb e8 	stb  %o1, [ %o7 + -1048 ]
    3b30:	86 20 c0 0a 	sub  %g3, %o2, %g3
    3b34:	9e 01 20 03 	add  %g4, 3, %o7
    3b38:	95 38 e0 1f 	sra  %g3, 0x1f, %o2
    3b3c:	81 82 a0 00 	mov  %o2, %y
    3b40:	01 00 00 00 	nop 
    3b44:	01 00 00 00 	nop 
    3b48:	01 00 00 00 	nop 
    3b4c:	88 78 e0 0a 	sdiv  %g3, 0xa, %g4
    3b50:	d2 08 40 04 	ldub  [ %g1 + %g4 ], %o1
    3b54:	94 01 00 04 	add  %g4, %g4, %o2
    3b58:	d2 2b 3b ea 	stb  %o1, [ %o4 + -1046 ]
    3b5c:	89 29 20 03 	sll  %g4, 3, %g4
    3b60:	88 02 80 04 	add  %o2, %g4, %g4
    3b64:	86 20 c0 04 	sub  %g3, %g4, %g3
    3b68:	88 07 80 0f 	add  %fp, %o7, %g4
    3b6c:	c2 08 40 03 	ldub  [ %g1 + %g3 ], %g1
    3b70:	c2 29 3b e8 	stb  %g1, [ %g4 + -1048 ]
    3b74:	86 03 e0 01 	add  %o7, 1, %g3
    3b78:	88 07 80 03 	add  %fp, %g3, %g4
    3b7c:	f8 29 3b e8 	stb  %i4, [ %g4 + -1048 ]
    3b80:	c4 08 a0 03 	ldub  [ %g2 + 3 ], %g2
    3b84:	80 a0 a0 00 	cmp  %g2, 0
    3b88:	02 80 01 d0 	be  42c8 <ee_printf+0xbf4>
    3b8c:	98 00 e0 01 	add  %g3, 1, %o4
    3b90:	80 a0 a0 63 	cmp  %g2, 0x63
    3b94:	04 80 02 cf 	ble  46d0 <ee_printf+0xffc>
    3b98:	80 a0 a0 09 	cmp  %g2, 9
    3b9c:	83 38 a0 1f 	sra  %g2, 0x1f, %g1
    3ba0:	81 80 60 00 	mov  %g1, %y
    3ba4:	01 00 00 00 	nop 
    3ba8:	01 00 00 00 	nop 
    3bac:	01 00 00 00 	nop 
    3bb0:	9e 78 a0 64 	sdiv  %g2, 0x64, %o7
    3bb4:	98 07 80 0c 	add  %fp, %o4, %o4
    3bb8:	82 16 a0 00 	mov  %i2, %g1
    3bbc:	d4 08 40 0f 	ldub  [ %g1 + %o7 ], %o2
    3bc0:	9e 5b e0 64 	smul  %o7, 0x64, %o7
    3bc4:	d4 2b 3b e8 	stb  %o2, [ %o4 + -1048 ]
    3bc8:	84 20 80 0f 	sub  %g2, %o7, %g2
    3bcc:	98 00 e0 03 	add  %g3, 3, %o4
    3bd0:	95 38 a0 1f 	sra  %g2, 0x1f, %o2
    3bd4:	81 82 a0 00 	mov  %o2, %y
    3bd8:	01 00 00 00 	nop 
    3bdc:	01 00 00 00 	nop 
    3be0:	01 00 00 00 	nop 
    3be4:	86 78 a0 0a 	sdiv  %g2, 0xa, %g3
    3be8:	d4 08 40 03 	ldub  [ %g1 + %g3 ], %o2
    3bec:	9e 00 c0 03 	add  %g3, %g3, %o7
    3bf0:	d4 29 3b ea 	stb  %o2, [ %g4 + -1046 ]
    3bf4:	87 28 e0 03 	sll  %g3, 3, %g3
    3bf8:	86 03 c0 03 	add  %o7, %g3, %g3
    3bfc:	84 20 80 03 	sub  %g2, %g3, %g2
    3c00:	86 07 80 0c 	add  %fp, %o4, %g3
    3c04:	c2 08 40 02 	ldub  [ %g1 + %g2 ], %g1
    3c08:	98 03 20 01 	inc  %o4
    3c0c:	c2 28 fb e8 	stb  %g1, [ %g3 + -1048 ]
    3c10:	80 8b 60 10 	btst  0x10, %o5
    3c14:	12 80 00 36 	bne  3cec <ee_printf+0x618>
    3c18:	94 93 20 00 	orcc  %o4, 0, %o2
    3c1c:	80 a2 c0 0c 	cmp  %o3, %o4
    3c20:	04 80 03 02 	ble  4828 <ee_printf+0x1154>
    3c24:	88 02 ff ff 	add  %o3, -1, %g4
    3c28:	96 22 c0 0c 	sub  %o3, %o4, %o3
    3c2c:	82 20 00 08 	neg  %o0, %g1
    3c30:	82 08 60 03 	and  %g1, 3, %g1
    3c34:	80 a2 c0 01 	cmp  %o3, %g1
    3c38:	08 80 00 03 	bleu  3c44 <ee_printf+0x570>
    3c3c:	86 10 00 0b 	mov  %o3, %g3
    3c40:	86 10 00 01 	mov  %g1, %g3
    3c44:	80 a2 e0 03 	cmp  %o3, 3
    3c48:	28 80 00 02 	bleu,a   3c50 <ee_printf+0x57c>
    3c4c:	86 10 00 0b 	mov  %o3, %g3
    3c50:	80 a0 e0 00 	cmp  %g3, 0
    3c54:	02 80 00 0b 	be  3c80 <ee_printf+0x5ac>
    3c58:	82 10 00 08 	mov  %o0, %g1
    3c5c:	e4 28 40 00 	stb  %l2, [ %g1 ]
    3c60:	82 00 60 01 	inc  %g1
    3c64:	84 20 40 08 	sub  %g1, %o0, %g2
    3c68:	80 a0 c0 02 	cmp  %g3, %g2
    3c6c:	18 bf ff fc 	bgu  3c5c <ee_printf+0x588>
    3c70:	88 01 3f ff 	add  %g4, -1, %g4
    3c74:	80 a2 c0 03 	cmp  %o3, %g3
    3c78:	22 80 00 1b 	be,a   3ce4 <ee_printf+0x610>
    3c7c:	90 02 00 0b 	add  %o0, %o3, %o0
    3c80:	94 22 c0 03 	sub  %o3, %g3, %o2
    3c84:	9f 32 a0 02 	srl  %o2, 2, %o7
    3c88:	9b 2b e0 02 	sll  %o7, 2, %o5
    3c8c:	80 a3 60 00 	cmp  %o5, 0
    3c90:	02 80 00 0c 	be  3cc0 <ee_printf+0x5ec>
    3c94:	86 02 00 03 	add  %o0, %g3, %g3
    3c98:	84 10 20 00 	clr  %g2
    3c9c:	e6 20 c0 00 	st  %l3, [ %g3 ]
    3ca0:	84 00 a0 01 	inc  %g2
    3ca4:	80 a0 80 0f 	cmp  %g2, %o7
    3ca8:	0a bf ff fd 	bcs  3c9c <ee_printf+0x5c8>
    3cac:	86 00 e0 04 	add  %g3, 4, %g3
    3cb0:	82 00 40 0d 	add  %g1, %o5, %g1
    3cb4:	80 a2 80 0d 	cmp  %o2, %o5
    3cb8:	02 80 00 0a 	be  3ce0 <ee_printf+0x60c>
    3cbc:	88 21 00 0d 	sub  %g4, %o5, %g4
    3cc0:	84 10 20 00 	clr  %g2
    3cc4:	88 01 20 01 	inc  %g4
    3cc8:	e4 28 40 02 	stb  %l2, [ %g1 + %g2 ]
    3ccc:	84 00 a0 01 	inc  %g2
    3cd0:	86 21 00 02 	sub  %g4, %g2, %g3
    3cd4:	80 a3 00 03 	cmp  %o4, %g3
    3cd8:	26 bf ff fd 	bl,a   3ccc <ee_printf+0x5f8>
    3cdc:	e4 28 40 02 	stb  %l2, [ %g1 + %g2 ]
    3ce0:	90 02 00 0b 	add  %o0, %o3, %o0
    3ce4:	96 03 3f ff 	add  %o4, -1, %o3
    3ce8:	94 93 20 00 	orcc  %o4, 0, %o2
    3cec:	24 80 00 02 	ble,a   3cf4 <ee_printf+0x620>
    3cf0:	94 10 20 01 	mov  1, %o2
    3cf4:	9b 32 a0 02 	srl  %o2, 2, %o5
    3cf8:	80 8a 20 03 	btst  3, %o0
    3cfc:	12 80 02 de 	bne  4874 <ee_printf+0x11a0>
    3d00:	83 2b 60 02 	sll  %o5, 2, %g1
    3d04:	80 a0 60 00 	cmp  %g1, 0
    3d08:	02 80 02 db 	be  4874 <ee_printf+0x11a0>
    3d0c:	84 10 20 00 	clr  %g2
    3d10:	86 10 20 00 	clr  %g3
    3d14:	88 07 bb e8 	add  %fp, -1048, %g4
    3d18:	de 01 00 02 	ld  [ %g4 + %g2 ], %o7
    3d1c:	de 22 00 02 	st  %o7, [ %o0 + %g2 ]
    3d20:	86 00 e0 01 	inc  %g3
    3d24:	80 a3 40 03 	cmp  %o5, %g3
    3d28:	18 bf ff fc 	bgu  3d18 <ee_printf+0x644>
    3d2c:	84 00 a0 04 	add  %g2, 4, %g2
    3d30:	80 a2 80 01 	cmp  %o2, %g1
    3d34:	02 80 00 09 	be  3d58 <ee_printf+0x684>
    3d38:	86 02 00 01 	add  %o0, %g1, %g3
    3d3c:	86 20 c0 01 	sub  %g3, %g1, %g3
    3d40:	c4 09 00 01 	ldub  [ %g4 + %g1 ], %g2
    3d44:	c4 28 c0 01 	stb  %g2, [ %g3 + %g1 ]
    3d48:	82 00 60 01 	inc  %g1
    3d4c:	80 a3 00 01 	cmp  %o4, %g1
    3d50:	34 bf ff fd 	bg,a   3d44 <ee_printf+0x670>
    3d54:	c4 09 00 01 	ldub  [ %g4 + %g1 ], %g2
    3d58:	90 02 00 0a 	add  %o0, %o2, %o0
    3d5c:	80 a2 c0 0c 	cmp  %o3, %o4
    3d60:	04 80 00 30 	ble  3e20 <ee_printf+0x74c>
    3d64:	88 02 ff ff 	add  %o3, -1, %g4
    3d68:	96 22 c0 0c 	sub  %o3, %o4, %o3
    3d6c:	86 20 00 08 	neg  %o0, %g3
    3d70:	86 08 e0 03 	and  %g3, 3, %g3
    3d74:	80 a0 c0 0b 	cmp  %g3, %o3
    3d78:	38 80 00 02 	bgu,a   3d80 <ee_printf+0x6ac>
    3d7c:	86 10 00 0b 	mov  %o3, %g3
    3d80:	80 a2 e0 03 	cmp  %o3, 3
    3d84:	28 80 00 02 	bleu,a   3d8c <ee_printf+0x6b8>
    3d88:	86 10 00 0b 	mov  %o3, %g3
    3d8c:	80 a0 e0 00 	cmp  %g3, 0
    3d90:	02 80 00 0b 	be  3dbc <ee_printf+0x6e8>
    3d94:	82 10 00 08 	mov  %o0, %g1
    3d98:	e4 28 40 00 	stb  %l2, [ %g1 ]
    3d9c:	82 00 60 01 	inc  %g1
    3da0:	84 20 40 08 	sub  %g1, %o0, %g2
    3da4:	80 a0 c0 02 	cmp  %g3, %g2
    3da8:	18 bf ff fc 	bgu  3d98 <ee_printf+0x6c4>
    3dac:	88 01 3f ff 	add  %g4, -1, %g4
    3db0:	80 a2 c0 03 	cmp  %o3, %g3
    3db4:	22 80 00 1b 	be,a   3e20 <ee_printf+0x74c>
    3db8:	90 02 00 0b 	add  %o0, %o3, %o0
    3dbc:	94 22 c0 03 	sub  %o3, %g3, %o2
    3dc0:	9f 32 a0 02 	srl  %o2, 2, %o7
    3dc4:	9b 2b e0 02 	sll  %o7, 2, %o5
    3dc8:	80 a3 60 00 	cmp  %o5, 0
    3dcc:	02 80 00 0c 	be  3dfc <ee_printf+0x728>
    3dd0:	86 02 00 03 	add  %o0, %g3, %g3
    3dd4:	84 10 20 00 	clr  %g2
    3dd8:	e6 20 c0 00 	st  %l3, [ %g3 ]
    3ddc:	84 00 a0 01 	inc  %g2
    3de0:	80 a0 80 0f 	cmp  %g2, %o7
    3de4:	0a bf ff fd 	bcs  3dd8 <ee_printf+0x704>
    3de8:	86 00 e0 04 	add  %g3, 4, %g3
    3dec:	82 00 40 0d 	add  %g1, %o5, %g1
    3df0:	80 a2 80 0d 	cmp  %o2, %o5
    3df4:	02 80 00 0a 	be  3e1c <ee_printf+0x748>
    3df8:	88 21 00 0d 	sub  %g4, %o5, %g4
    3dfc:	84 10 20 00 	clr  %g2
    3e00:	88 01 20 01 	inc  %g4
    3e04:	e4 28 40 02 	stb  %l2, [ %g1 + %g2 ]
    3e08:	84 00 a0 01 	inc  %g2
    3e0c:	86 21 00 02 	sub  %g4, %g2, %g3
    3e10:	80 a0 c0 0c 	cmp  %g3, %o4
    3e14:	34 bf ff fd 	bg,a   3e08 <ee_printf+0x734>
    3e18:	e4 28 40 02 	stb  %l2, [ %g1 + %g2 ]
    3e1c:	90 02 00 0b 	add  %o0, %o3, %o0
    3e20:	10 bf fe 48 	b  3740 <ee_printf+0x6c>
    3e24:	c4 0e 20 01 	ldub  [ %i0 + 1 ], %g2
    3e28:	87 28 60 18 	sll  %g1, 0x18, %g3
    3e2c:	87 38 e0 18 	sra  %g3, 0x18, %g3
    3e30:	80 a0 e0 2a 	cmp  %g3, 0x2a
    3e34:	02 80 02 1e 	be  46ac <ee_printf+0xfd8>
    3e38:	98 10 20 00 	clr  %o4
    3e3c:	10 bf fe 69 	b  37e0 <ee_printf+0x10c>
    3e40:	b0 10 00 02 	mov  %g2, %i0
    3e44:	94 10 20 10 	mov  0x10, %o2
    3e48:	7f ff fc b7 	call  3124 <number>
    3e4c:	d2 05 00 00 	ld  [ %l4 ], %o1
    3e50:	a8 05 20 04 	add  %l4, 4, %l4
    3e54:	10 bf fe 3b 	b  3740 <ee_printf+0x6c>
    3e58:	c4 0e 20 01 	ldub  [ %i0 + 1 ], %g2
    3e5c:	10 bf ff fb 	b  3e48 <ee_printf+0x774>
    3e60:	94 10 20 0a 	mov  0xa, %o2
    3e64:	c8 05 00 00 	ld  [ %l4 ], %g4
    3e68:	80 a1 20 00 	cmp  %g4, 0
    3e6c:	02 80 02 6b 	be  4818 <ee_printf+0x1144>
    3e70:	a8 05 20 04 	add  %l4, 4, %l4
    3e74:	c2 49 00 00 	ldsb  [ %g4 ], %g1
    3e78:	80 a0 60 00 	cmp  %g1, 0
    3e7c:	02 80 02 69 	be  4820 <ee_printf+0x114c>
    3e80:	80 a3 20 00 	cmp  %o4, 0
    3e84:	22 80 00 0c 	be,a   3eb4 <ee_printf+0x7e0>
    3e88:	86 10 20 00 	clr  %g3
    3e8c:	10 80 00 04 	b  3e9c <ee_printf+0x7c8>
    3e90:	86 10 00 04 	mov  %g4, %g3
    3e94:	22 80 00 08 	be,a   3eb4 <ee_printf+0x7e0>
    3e98:	86 20 c0 04 	sub  %g3, %g4, %g3
    3e9c:	86 00 e0 01 	inc  %g3
    3ea0:	c2 48 c0 00 	ldsb  [ %g3 ], %g1
    3ea4:	80 a0 60 00 	cmp  %g1, 0
    3ea8:	32 bf ff fb 	bne,a   3e94 <ee_printf+0x7c0>
    3eac:	98 83 3f ff 	addcc  %o4, -1, %o4
    3eb0:	86 20 c0 04 	sub  %g3, %g4, %g3
    3eb4:	80 8b 60 10 	btst  0x10, %o5
    3eb8:	12 80 00 36 	bne  3f90 <ee_printf+0x8bc>
    3ebc:	80 a0 e0 00 	cmp  %g3, 0
    3ec0:	80 a2 c0 03 	cmp  %o3, %g3
    3ec4:	04 80 02 5e 	ble  483c <ee_printf+0x1168>
    3ec8:	9a 02 ff ff 	add  %o3, -1, %o5
    3ecc:	96 22 c0 03 	sub  %o3, %g3, %o3
    3ed0:	82 20 00 08 	neg  %o0, %g1
    3ed4:	82 08 60 03 	and  %g1, 3, %g1
    3ed8:	80 a2 c0 01 	cmp  %o3, %g1
    3edc:	08 80 00 03 	bleu  3ee8 <ee_printf+0x814>
    3ee0:	9e 10 00 0b 	mov  %o3, %o7
    3ee4:	9e 10 00 01 	mov  %g1, %o7
    3ee8:	80 a2 e0 03 	cmp  %o3, 3
    3eec:	28 80 00 02 	bleu,a   3ef4 <ee_printf+0x820>
    3ef0:	9e 10 00 0b 	mov  %o3, %o7
    3ef4:	80 a3 e0 00 	cmp  %o7, 0
    3ef8:	02 80 00 0b 	be  3f24 <ee_printf+0x850>
    3efc:	82 10 00 08 	mov  %o0, %g1
    3f00:	e4 28 40 00 	stb  %l2, [ %g1 ]
    3f04:	82 00 60 01 	inc  %g1
    3f08:	84 20 40 08 	sub  %g1, %o0, %g2
    3f0c:	80 a3 c0 02 	cmp  %o7, %g2
    3f10:	18 bf ff fc 	bgu  3f00 <ee_printf+0x82c>
    3f14:	9a 03 7f ff 	add  %o5, -1, %o5
    3f18:	80 a2 c0 0f 	cmp  %o3, %o7
    3f1c:	22 80 00 1b 	be,a   3f88 <ee_printf+0x8b4>
    3f20:	90 02 00 0b 	add  %o0, %o3, %o0
    3f24:	92 22 c0 0f 	sub  %o3, %o7, %o1
    3f28:	99 32 60 02 	srl  %o1, 2, %o4
    3f2c:	95 2b 20 02 	sll  %o4, 2, %o2
    3f30:	80 a2 a0 00 	cmp  %o2, 0
    3f34:	02 80 00 0c 	be  3f64 <ee_printf+0x890>
    3f38:	9e 02 00 0f 	add  %o0, %o7, %o7
    3f3c:	84 10 20 00 	clr  %g2
    3f40:	e6 23 c0 00 	st  %l3, [ %o7 ]
    3f44:	84 00 a0 01 	inc  %g2
    3f48:	80 a0 80 0c 	cmp  %g2, %o4
    3f4c:	0a bf ff fd 	bcs  3f40 <ee_printf+0x86c>
    3f50:	9e 03 e0 04 	add  %o7, 4, %o7
    3f54:	82 00 40 0a 	add  %g1, %o2, %g1
    3f58:	80 a2 40 0a 	cmp  %o1, %o2
    3f5c:	02 80 00 0a 	be  3f84 <ee_printf+0x8b0>
    3f60:	9a 23 40 0a 	sub  %o5, %o2, %o5
    3f64:	84 10 20 00 	clr  %g2
    3f68:	9a 03 60 01 	inc  %o5
    3f6c:	e4 28 40 02 	stb  %l2, [ %g1 + %g2 ]
    3f70:	84 00 a0 01 	inc  %g2
    3f74:	9e 23 40 02 	sub  %o5, %g2, %o7
    3f78:	80 a0 c0 0f 	cmp  %g3, %o7
    3f7c:	26 bf ff fd 	bl,a   3f70 <ee_printf+0x89c>
    3f80:	e4 28 40 02 	stb  %l2, [ %g1 + %g2 ]
    3f84:	90 02 00 0b 	add  %o0, %o3, %o0
    3f88:	96 00 ff ff 	add  %g3, -1, %o3
    3f8c:	80 a0 e0 00 	cmp  %g3, 0
    3f90:	04 80 00 2d 	ble  4044 <ee_printf+0x970>
    3f94:	9b 30 e0 02 	srl  %g3, 2, %o5
    3f98:	82 02 20 04 	add  %o0, 4, %g1
    3f9c:	80 a1 00 01 	cmp  %g4, %g1
    3fa0:	82 01 20 04 	add  %g4, 4, %g1
    3fa4:	84 60 3f ff 	subx  %g0, -1, %g2
    3fa8:	80 a2 00 01 	cmp  %o0, %g1
    3fac:	82 60 3f ff 	subx  %g0, -1, %g1
    3fb0:	84 10 80 01 	or  %g2, %g1, %g2
    3fb4:	99 2b 60 02 	sll  %o5, 2, %o4
    3fb8:	80 a0 e0 03 	cmp  %g3, 3
    3fbc:	08 80 01 b8 	bleu  469c <ee_printf+0xfc8>
    3fc0:	82 10 20 01 	mov  1, %g1
    3fc4:	9e 12 00 04 	or  %o0, %g4, %o7
    3fc8:	9e 0b e0 03 	and  %o7, 3, %o7
    3fcc:	80 a0 00 0f 	cmp  %g0, %o7
    3fd0:	82 08 80 01 	and  %g2, %g1, %g1
    3fd4:	84 60 3f ff 	subx  %g0, -1, %g2
    3fd8:	80 88 40 02 	btst  %g1, %g2
    3fdc:	02 80 02 23 	be  4868 <ee_printf+0x1194>
    3fe0:	80 a3 20 00 	cmp  %o4, 0
    3fe4:	02 80 02 21 	be  4868 <ee_printf+0x1194>
    3fe8:	84 10 20 00 	clr  %g2
    3fec:	82 10 20 00 	clr  %g1
    3ff0:	de 01 00 01 	ld  [ %g4 + %g1 ], %o7
    3ff4:	de 22 00 01 	st  %o7, [ %o0 + %g1 ]
    3ff8:	84 00 a0 01 	inc  %g2
    3ffc:	80 a3 40 02 	cmp  %o5, %g2
    4000:	18 bf ff fc 	bgu  3ff0 <ee_printf+0x91c>
    4004:	82 00 60 04 	add  %g1, 4, %g1
    4008:	82 10 00 0c 	mov  %o4, %g1
    400c:	88 01 00 0c 	add  %g4, %o4, %g4
    4010:	80 a0 c0 01 	cmp  %g3, %g1
    4014:	02 80 00 0b 	be  4040 <ee_printf+0x96c>
    4018:	98 02 00 0c 	add  %o0, %o4, %o4
    401c:	84 20 00 01 	neg  %g1, %g2
    4020:	9a 01 00 02 	add  %g4, %g2, %o5
    4024:	9e 03 00 02 	add  %o4, %g2, %o7
    4028:	da 0b 40 01 	ldub  [ %o5 + %g1 ], %o5
    402c:	da 2b c0 01 	stb  %o5, [ %o7 + %g1 ]
    4030:	82 00 60 01 	inc  %g1
    4034:	80 a0 c0 01 	cmp  %g3, %g1
    4038:	14 bf ff fc 	bg  4028 <ee_printf+0x954>
    403c:	9a 01 00 02 	add  %g4, %g2, %o5
    4040:	90 02 00 03 	add  %o0, %g3, %o0
    4044:	80 a2 c0 03 	cmp  %o3, %g3
    4048:	04 bf ff 76 	ble  3e20 <ee_printf+0x74c>
    404c:	9e 02 ff ff 	add  %o3, -1, %o7
    4050:	96 22 c0 03 	sub  %o3, %g3, %o3
    4054:	88 20 00 08 	neg  %o0, %g4
    4058:	88 09 20 03 	and  %g4, 3, %g4
    405c:	80 a1 00 0b 	cmp  %g4, %o3
    4060:	38 80 00 02 	bgu,a   4068 <ee_printf+0x994>
    4064:	88 10 00 0b 	mov  %o3, %g4
    4068:	80 a2 e0 03 	cmp  %o3, 3
    406c:	28 80 00 02 	bleu,a   4074 <ee_printf+0x9a0>
    4070:	88 10 00 0b 	mov  %o3, %g4
    4074:	80 a1 20 00 	cmp  %g4, 0
    4078:	02 80 00 0b 	be  40a4 <ee_printf+0x9d0>
    407c:	82 10 00 08 	mov  %o0, %g1
    4080:	e4 28 40 00 	stb  %l2, [ %g1 ]
    4084:	82 00 60 01 	inc  %g1
    4088:	84 20 40 08 	sub  %g1, %o0, %g2
    408c:	80 a1 00 02 	cmp  %g4, %g2
    4090:	18 bf ff fc 	bgu  4080 <ee_printf+0x9ac>
    4094:	9e 03 ff ff 	add  %o7, -1, %o7
    4098:	80 a2 c0 04 	cmp  %o3, %g4
    409c:	22 bf ff 61 	be,a   3e20 <ee_printf+0x74c>
    40a0:	90 02 00 0b 	add  %o0, %o3, %o0
    40a4:	94 22 c0 04 	sub  %o3, %g4, %o2
    40a8:	9b 32 a0 02 	srl  %o2, 2, %o5
    40ac:	99 2b 60 02 	sll  %o5, 2, %o4
    40b0:	80 a3 20 00 	cmp  %o4, 0
    40b4:	02 80 00 0c 	be  40e4 <ee_printf+0xa10>
    40b8:	88 02 00 04 	add  %o0, %g4, %g4
    40bc:	84 10 20 00 	clr  %g2
    40c0:	e6 21 00 00 	st  %l3, [ %g4 ]
    40c4:	84 00 a0 01 	inc  %g2
    40c8:	80 a0 80 0d 	cmp  %g2, %o5
    40cc:	0a bf ff fd 	bcs  40c0 <ee_printf+0x9ec>
    40d0:	88 01 20 04 	add  %g4, 4, %g4
    40d4:	82 00 40 0c 	add  %g1, %o4, %g1
    40d8:	80 a2 80 0c 	cmp  %o2, %o4
    40dc:	02 bf ff 50 	be  3e1c <ee_printf+0x748>
    40e0:	9e 23 c0 0c 	sub  %o7, %o4, %o7
    40e4:	84 10 20 00 	clr  %g2
    40e8:	9e 03 e0 01 	inc  %o7
    40ec:	e4 28 40 02 	stb  %l2, [ %g1 + %g2 ]
    40f0:	84 00 a0 01 	inc  %g2
    40f4:	88 23 c0 02 	sub  %o7, %g2, %g4
    40f8:	80 a0 c0 04 	cmp  %g3, %g4
    40fc:	26 bf ff fd 	bl,a   40f0 <ee_printf+0xa1c>
    4100:	e4 28 40 02 	stb  %l2, [ %g1 + %g2 ]
    4104:	10 bf ff 47 	b  3e20 <ee_printf+0x74c>
    4108:	90 02 00 0b 	add  %o0, %o3, %o0
    410c:	80 a2 ff ff 	cmp  %o3, -1
    4110:	22 80 01 65 	be,a   46a4 <ee_printf+0xfd0>
    4114:	9a 13 60 01 	or  %o5, 1, %o5
    4118:	d2 05 00 00 	ld  [ %l4 ], %o1
    411c:	7f ff fc 02 	call  3124 <number>
    4120:	94 10 20 10 	mov  0x10, %o2
    4124:	a8 05 20 04 	add  %l4, 4, %l4
    4128:	10 bf fd 86 	b  3740 <ee_printf+0x6c>
    412c:	c4 0e 20 01 	ldub  [ %i0 + 1 ], %g2
    4130:	10 bf ff 46 	b  3e48 <ee_printf+0x774>
    4134:	94 10 20 08 	mov  8, %o2
    4138:	9a 13 60 02 	or  %o5, 2, %o5
    413c:	10 bf ff 43 	b  3e48 <ee_printf+0x774>
    4140:	94 10 20 0a 	mov  0xa, %o2
    4144:	80 8b 60 10 	btst  0x10, %o5
    4148:	22 80 01 21 	be,a   45cc <ee_printf+0xef8>
    414c:	96 02 ff ff 	add  %o3, -1, %o3
    4150:	c2 05 00 00 	ld  [ %l4 ], %g1
    4154:	c2 2a 00 00 	stb  %g1, [ %o0 ]
    4158:	96 02 ff ff 	add  %o3, -1, %o3
    415c:	98 02 20 01 	add  %o0, 1, %o4
    4160:	84 92 e0 00 	orcc  %o3, 0, %g2
    4164:	04 80 01 be 	ble  485c <ee_printf+0x1188>
    4168:	a8 05 20 04 	add  %l4, 4, %l4
    416c:	88 20 00 0c 	neg  %o4, %g4
    4170:	88 09 20 03 	and  %g4, 3, %g4
    4174:	80 a1 00 0b 	cmp  %g4, %o3
    4178:	38 80 00 02 	bgu,a   4180 <ee_printf+0xaac>
    417c:	88 10 00 0b 	mov  %o3, %g4
    4180:	80 a2 e0 03 	cmp  %o3, 3
    4184:	28 80 00 02 	bleu,a   418c <ee_printf+0xab8>
    4188:	88 10 00 0b 	mov  %o3, %g4
    418c:	80 a1 20 00 	cmp  %g4, 0
    4190:	02 80 00 0c 	be  41c0 <ee_printf+0xaec>
    4194:	82 10 00 0c 	mov  %o4, %g1
    4198:	9e 38 00 08 	xnor  %g0, %o0, %o7
    419c:	e4 28 40 00 	stb  %l2, [ %g1 ]
    41a0:	82 00 60 01 	inc  %g1
    41a4:	86 00 40 0f 	add  %g1, %o7, %g3
    41a8:	80 a0 c0 04 	cmp  %g3, %g4
    41ac:	0a bf ff fc 	bcs  419c <ee_printf+0xac8>
    41b0:	84 00 bf ff 	add  %g2, -1, %g2
    41b4:	80 a2 c0 04 	cmp  %o3, %g4
    41b8:	22 80 00 19 	be,a   421c <ee_printf+0xb48>
    41bc:	90 03 00 0b 	add  %o4, %o3, %o0
    41c0:	94 22 c0 04 	sub  %o3, %g4, %o2
    41c4:	9f 32 a0 02 	srl  %o2, 2, %o7
    41c8:	9b 2b e0 02 	sll  %o7, 2, %o5
    41cc:	80 a3 60 00 	cmp  %o5, 0
    41d0:	02 80 00 0d 	be  4204 <ee_printf+0xb30>
    41d4:	88 01 20 01 	inc  %g4
    41d8:	86 10 20 00 	clr  %g3
    41dc:	90 02 00 04 	add  %o0, %g4, %o0
    41e0:	e6 22 00 00 	st  %l3, [ %o0 ]
    41e4:	86 00 e0 01 	inc  %g3
    41e8:	80 a0 c0 0f 	cmp  %g3, %o7
    41ec:	0a bf ff fd 	bcs  41e0 <ee_printf+0xb0c>
    41f0:	90 02 20 04 	add  %o0, 4, %o0
    41f4:	82 00 40 0d 	add  %g1, %o5, %g1
    41f8:	80 a2 80 0d 	cmp  %o2, %o5
    41fc:	02 80 00 07 	be  4218 <ee_printf+0xb44>
    4200:	84 20 80 0d 	sub  %g2, %o5, %g2
    4204:	e4 28 40 00 	stb  %l2, [ %g1 ]
    4208:	84 00 bf ff 	add  %g2, -1, %g2
    420c:	80 a0 a0 00 	cmp  %g2, 0
    4210:	14 bf ff fd 	bg  4204 <ee_printf+0xb30>
    4214:	82 00 60 01 	inc  %g1
    4218:	90 03 00 0b 	add  %o4, %o3, %o0
    421c:	10 bf fd 49 	b  3740 <ee_printf+0x6c>
    4220:	c4 0e 20 01 	ldub  [ %i0 + 1 ], %g2
    4224:	9a 13 60 40 	or  %o5, 0x40, %o5
    4228:	10 bf ff 08 	b  3e48 <ee_printf+0x774>
    422c:	94 10 20 10 	mov  0x10, %o2
    4230:	d6 05 00 00 	ld  [ %l4 ], %o3
    4234:	84 06 20 02 	add  %i0, 2, %g2
    4238:	a8 05 20 04 	add  %l4, 4, %l4
    423c:	80 a2 e0 00 	cmp  %o3, 0
    4240:	16 bf fd 62 	bge  37c8 <ee_printf+0xf4>
    4244:	c2 0e 20 02 	ldub  [ %i0 + 2 ], %g1
    4248:	96 20 00 0b 	neg  %o3
    424c:	10 bf fd 5f 	b  37c8 <ee_printf+0xf4>
    4250:	9a 13 60 10 	or  %o5, 0x10, %o5
    4254:	82 10 20 30 	mov  0x30, %g1
    4258:	c2 2f bb e8 	stb  %g1, [ %fp + -1048 ]
    425c:	9e 10 20 01 	mov  1, %o7
    4260:	98 07 80 0f 	add  %fp, %o7, %o4
    4264:	f8 2b 3b e8 	stb  %i4, [ %o4 + -1048 ]
    4268:	c6 08 a0 01 	ldub  [ %g2 + 1 ], %g3
    426c:	80 a0 e0 00 	cmp  %g3, 0
    4270:	12 bf fd fc 	bne  3a60 <ee_printf+0x38c>
    4274:	88 10 20 02 	mov  2, %g4
    4278:	82 07 80 04 	add  %fp, %g4, %g1
    427c:	86 10 20 30 	mov  0x30, %g3
    4280:	c6 28 7b e8 	stb  %g3, [ %g1 + -1048 ]
    4284:	88 03 e0 02 	add  %o7, 2, %g4
    4288:	98 07 80 04 	add  %fp, %g4, %o4
    428c:	f8 2b 3b e8 	stb  %i4, [ %o4 + -1048 ]
    4290:	c6 08 a0 02 	ldub  [ %g2 + 2 ], %g3
    4294:	80 a0 e0 00 	cmp  %g3, 0
    4298:	12 bf fe 18 	bne  3af8 <ee_printf+0x424>
    429c:	9e 01 20 01 	add  %g4, 1, %o7
    42a0:	9e 07 80 0f 	add  %fp, %o7, %o7
    42a4:	82 10 20 30 	mov  0x30, %g1
    42a8:	c2 2b fb e8 	stb  %g1, [ %o7 + -1048 ]
    42ac:	86 01 20 02 	add  %g4, 2, %g3
    42b0:	88 07 80 03 	add  %fp, %g3, %g4
    42b4:	f8 29 3b e8 	stb  %i4, [ %g4 + -1048 ]
    42b8:	c4 08 a0 03 	ldub  [ %g2 + 3 ], %g2
    42bc:	80 a0 a0 00 	cmp  %g2, 0
    42c0:	12 bf fe 34 	bne  3b90 <ee_printf+0x4bc>
    42c4:	98 00 e0 01 	add  %g3, 1, %o4
    42c8:	82 07 80 0c 	add  %fp, %o4, %g1
    42cc:	84 10 20 30 	mov  0x30, %g2
    42d0:	98 00 e0 02 	add  %g3, 2, %o4
    42d4:	10 bf fe 4f 	b  3c10 <ee_printf+0x53c>
    42d8:	c4 28 7b e8 	stb  %g2, [ %g1 + -1048 ]
    42dc:	80 8b 60 40 	btst  0x40, %o5
    42e0:	02 80 01 28 	be  4780 <ee_printf+0x10ac>
    42e4:	a8 05 20 04 	add  %l4, 4, %l4
    42e8:	82 14 60 28 	or  %l1, 0x28, %g1
    42ec:	d2 08 80 00 	ldub  [ %g2 ], %o1
    42f0:	ae 0a 60 ff 	and  %o1, 0xff, %l7
    42f4:	92 0a 60 0f 	and  %o1, 0xf, %o1
    42f8:	af 35 e0 04 	srl  %l7, 4, %l7
    42fc:	ec 08 40 09 	ldub  [ %g1 + %o1 ], %l6
    4300:	d2 08 40 17 	ldub  [ %g1 + %l7 ], %o1
    4304:	d4 08 a0 01 	ldub  [ %g2 + 1 ], %o2
    4308:	ec 2f bb e9 	stb  %l6, [ %fp + -1047 ]
    430c:	d2 2f bb e8 	stb  %o1, [ %fp + -1048 ]
    4310:	ac 0a a0 ff 	and  %o2, 0xff, %l6
    4314:	94 0a a0 0f 	and  %o2, 0xf, %o2
    4318:	d2 08 40 0a 	ldub  [ %g1 + %o2 ], %o1
    431c:	d8 08 a0 02 	ldub  [ %g2 + 2 ], %o4
    4320:	d2 2f bb ec 	stb  %o1, [ %fp + -1044 ]
    4324:	ad 35 a0 04 	srl  %l6, 4, %l6
    4328:	92 0b 20 ff 	and  %o4, 0xff, %o1
    432c:	d4 08 40 16 	ldub  [ %g1 + %l6 ], %o2
    4330:	98 0b 20 0f 	and  %o4, 0xf, %o4
    4334:	d4 2f bb eb 	stb  %o2, [ %fp + -1045 ]
    4338:	93 32 60 04 	srl  %o1, 4, %o1
    433c:	d4 08 40 0c 	ldub  [ %g1 + %o4 ], %o2
    4340:	d8 08 40 09 	ldub  [ %g1 + %o1 ], %o4
    4344:	de 08 a0 03 	ldub  [ %g2 + 3 ], %o7
    4348:	d4 2f bb ef 	stb  %o2, [ %fp + -1041 ]
    434c:	d8 2f bb ee 	stb  %o4, [ %fp + -1042 ]
    4350:	94 0b e0 ff 	and  %o7, 0xff, %o2
    4354:	9e 0b e0 0f 	and  %o7, 0xf, %o7
    4358:	d8 08 40 0f 	ldub  [ %g1 + %o7 ], %o4
    435c:	86 10 20 3a 	mov  0x3a, %g3
    4360:	c8 08 a0 04 	ldub  [ %g2 + 4 ], %g4
    4364:	d8 2f bb f2 	stb  %o4, [ %fp + -1038 ]
    4368:	95 32 a0 04 	srl  %o2, 4, %o2
    436c:	98 09 20 ff 	and  %g4, 0xff, %o4
    4370:	de 08 40 0a 	ldub  [ %g1 + %o2 ], %o7
    4374:	88 09 20 0f 	and  %g4, 0xf, %g4
    4378:	c4 08 a0 05 	ldub  [ %g2 + 5 ], %g2
    437c:	c6 2f bb ea 	stb  %g3, [ %fp + -1046 ]
    4380:	c6 2f bb ed 	stb  %g3, [ %fp + -1043 ]
    4384:	c6 2f bb f0 	stb  %g3, [ %fp + -1040 ]
    4388:	de 2f bb f1 	stb  %o7, [ %fp + -1039 ]
    438c:	c6 2f bb f3 	stb  %g3, [ %fp + -1037 ]
    4390:	de 08 40 04 	ldub  [ %g1 + %g4 ], %o7
    4394:	c6 2f bb f6 	stb  %g3, [ %fp + -1034 ]
    4398:	99 33 20 04 	srl  %o4, 4, %o4
    439c:	86 08 a0 ff 	and  %g2, 0xff, %g3
    43a0:	c8 08 40 0c 	ldub  [ %g1 + %o4 ], %g4
    43a4:	de 2f bb f5 	stb  %o7, [ %fp + -1035 ]
    43a8:	c8 2f bb f4 	stb  %g4, [ %fp + -1036 ]
    43ac:	87 30 e0 04 	srl  %g3, 4, %g3
    43b0:	c6 08 40 03 	ldub  [ %g1 + %g3 ], %g3
    43b4:	c6 2f bb f7 	stb  %g3, [ %fp + -1033 ]
    43b8:	84 08 a0 0f 	and  %g2, 0xf, %g2
    43bc:	80 8b 60 10 	btst  0x10, %o5
    43c0:	c2 08 40 02 	ldub  [ %g1 + %g2 ], %g1
    43c4:	12 80 00 34 	bne  4494 <ee_printf+0xdc0>
    43c8:	c2 2f bb f8 	stb  %g1, [ %fp + -1032 ]
    43cc:	80 a2 e0 11 	cmp  %o3, 0x11
    43d0:	04 80 01 1d 	ble  4844 <ee_printf+0x1170>
    43d4:	88 02 ff ff 	add  %o3, -1, %g4
    43d8:	96 02 ff ef 	add  %o3, -17, %o3
    43dc:	82 20 00 08 	neg  %o0, %g1
    43e0:	82 08 60 03 	and  %g1, 3, %g1
    43e4:	80 a2 c0 01 	cmp  %o3, %g1
    43e8:	18 80 01 0a 	bgu  4810 <ee_printf+0x113c>
    43ec:	86 10 00 0b 	mov  %o3, %g3
    43f0:	80 a2 e0 03 	cmp  %o3, 3
    43f4:	28 80 00 02 	bleu,a   43fc <ee_printf+0xd28>
    43f8:	86 10 00 0b 	mov  %o3, %g3
    43fc:	80 a0 e0 00 	cmp  %g3, 0
    4400:	02 80 00 0b 	be  442c <ee_printf+0xd58>
    4404:	82 10 00 08 	mov  %o0, %g1
    4408:	e4 28 40 00 	stb  %l2, [ %g1 ]
    440c:	82 00 60 01 	inc  %g1
    4410:	84 20 40 08 	sub  %g1, %o0, %g2
    4414:	80 a0 c0 02 	cmp  %g3, %g2
    4418:	18 bf ff fc 	bgu  4408 <ee_printf+0xd34>
    441c:	88 01 3f ff 	add  %g4, -1, %g4
    4420:	80 a2 c0 03 	cmp  %o3, %g3
    4424:	22 80 00 1b 	be,a   4490 <ee_printf+0xdbc>
    4428:	90 02 00 0b 	add  %o0, %o3, %o0
    442c:	98 22 c0 03 	sub  %o3, %g3, %o4
    4430:	9f 33 20 02 	srl  %o4, 2, %o7
    4434:	9b 2b e0 02 	sll  %o7, 2, %o5
    4438:	80 a3 60 00 	cmp  %o5, 0
    443c:	02 80 00 0c 	be  446c <ee_printf+0xd98>
    4440:	86 02 00 03 	add  %o0, %g3, %g3
    4444:	84 10 20 00 	clr  %g2
    4448:	e6 20 c0 00 	st  %l3, [ %g3 ]
    444c:	84 00 a0 01 	inc  %g2
    4450:	80 a0 80 0f 	cmp  %g2, %o7
    4454:	0a bf ff fd 	bcs  4448 <ee_printf+0xd74>
    4458:	86 00 e0 04 	add  %g3, 4, %g3
    445c:	82 00 40 0d 	add  %g1, %o5, %g1
    4460:	80 a3 00 0d 	cmp  %o4, %o5
    4464:	02 80 00 0a 	be  448c <ee_printf+0xdb8>
    4468:	88 21 00 0d 	sub  %g4, %o5, %g4
    446c:	84 10 20 00 	clr  %g2
    4470:	88 01 20 01 	inc  %g4
    4474:	e4 28 40 02 	stb  %l2, [ %g1 + %g2 ]
    4478:	84 00 a0 01 	inc  %g2
    447c:	86 21 00 02 	sub  %g4, %g2, %g3
    4480:	80 a0 e0 11 	cmp  %g3, 0x11
    4484:	34 bf ff fd 	bg,a   4478 <ee_printf+0xda4>
    4488:	e4 28 40 02 	stb  %l2, [ %g1 + %g2 ]
    448c:	90 02 00 0b 	add  %o0, %o3, %o0
    4490:	96 10 20 10 	mov  0x10, %o3
    4494:	80 8a 20 03 	btst  3, %o0
    4498:	12 80 00 ed 	bne  484c <ee_printf+0x1178>
    449c:	c2 07 bb e8 	ld  [ %fp + -1048 ], %g1
    44a0:	c2 22 00 00 	st  %g1, [ %o0 ]
    44a4:	c2 07 bb ec 	ld  [ %fp + -1044 ], %g1
    44a8:	c2 22 20 04 	st  %g1, [ %o0 + 4 ]
    44ac:	c2 07 bb f0 	ld  [ %fp + -1040 ], %g1
    44b0:	86 02 20 10 	add  %o0, 0x10, %g3
    44b4:	c2 22 20 08 	st  %g1, [ %o0 + 8 ]
    44b8:	9e 10 20 01 	mov  1, %o7
    44bc:	c2 07 bb f4 	ld  [ %fp + -1036 ], %g1
    44c0:	84 10 20 10 	mov  0x10, %g2
    44c4:	c2 22 20 0c 	st  %g1, [ %o0 + 0xc ]
    44c8:	82 10 00 02 	mov  %g2, %g1
    44cc:	9e 00 80 0f 	add  %g2, %o7, %o7
    44d0:	86 20 c0 02 	sub  %g3, %g2, %g3
    44d4:	88 07 bb e8 	add  %fp, -1048, %g4
    44d8:	c4 09 00 01 	ldub  [ %g4 + %g1 ], %g2
    44dc:	c4 28 c0 01 	stb  %g2, [ %g3 + %g1 ]
    44e0:	82 00 60 01 	inc  %g1
    44e4:	80 a0 40 0f 	cmp  %g1, %o7
    44e8:	32 bf ff fd 	bne,a   44dc <ee_printf+0xe08>
    44ec:	c4 09 00 01 	ldub  [ %g4 + %g1 ], %g2
    44f0:	9a 02 20 11 	add  %o0, 0x11, %o5
    44f4:	80 a2 e0 11 	cmp  %o3, 0x11
    44f8:	04 80 00 ce 	ble  4830 <ee_printf+0x115c>
    44fc:	86 02 ff ff 	add  %o3, -1, %g3
    4500:	96 02 ff ef 	add  %o3, -17, %o3
    4504:	88 20 00 0d 	neg  %o5, %g4
    4508:	88 09 20 03 	and  %g4, 3, %g4
    450c:	80 a1 00 0b 	cmp  %g4, %o3
    4510:	38 80 00 02 	bgu,a   4518 <ee_printf+0xe44>
    4514:	88 10 00 0b 	mov  %o3, %g4
    4518:	80 a2 e0 03 	cmp  %o3, 3
    451c:	28 80 00 02 	bleu,a   4524 <ee_printf+0xe50>
    4520:	88 10 00 0b 	mov  %o3, %g4
    4524:	80 a1 20 00 	cmp  %g4, 0
    4528:	02 80 00 0d 	be  455c <ee_printf+0xe88>
    452c:	82 10 00 0d 	mov  %o5, %g1
    4530:	9e 10 3f ef 	mov  -17, %o7
    4534:	9e 23 c0 08 	sub  %o7, %o0, %o7
    4538:	e4 28 40 00 	stb  %l2, [ %g1 ]
    453c:	82 00 60 01 	inc  %g1
    4540:	84 00 40 0f 	add  %g1, %o7, %g2
    4544:	80 a1 00 02 	cmp  %g4, %g2
    4548:	18 bf ff fc 	bgu  4538 <ee_printf+0xe64>
    454c:	86 00 ff ff 	add  %g3, -1, %g3
    4550:	80 a2 c0 04 	cmp  %o3, %g4
    4554:	22 80 00 1c 	be,a   45c4 <ee_printf+0xef0>
    4558:	90 03 40 0b 	add  %o5, %o3, %o0
    455c:	94 22 c0 04 	sub  %o3, %g4, %o2
    4560:	9f 32 a0 02 	srl  %o2, 2, %o7
    4564:	99 2b e0 02 	sll  %o7, 2, %o4
    4568:	80 a3 20 00 	cmp  %o4, 0
    456c:	02 80 00 0d 	be  45a0 <ee_printf+0xecc>
    4570:	88 01 20 11 	add  %g4, 0x11, %g4
    4574:	84 10 20 00 	clr  %g2
    4578:	90 02 00 04 	add  %o0, %g4, %o0
    457c:	e6 22 00 00 	st  %l3, [ %o0 ]
    4580:	84 00 a0 01 	inc  %g2
    4584:	80 a0 80 0f 	cmp  %g2, %o7
    4588:	0a bf ff fd 	bcs  457c <ee_printf+0xea8>
    458c:	90 02 20 04 	add  %o0, 4, %o0
    4590:	82 00 40 0c 	add  %g1, %o4, %g1
    4594:	80 a2 80 0c 	cmp  %o2, %o4
    4598:	02 80 00 0a 	be  45c0 <ee_printf+0xeec>
    459c:	86 20 c0 0c 	sub  %g3, %o4, %g3
    45a0:	84 10 20 00 	clr  %g2
    45a4:	86 00 e0 01 	inc  %g3
    45a8:	e4 28 40 02 	stb  %l2, [ %g1 + %g2 ]
    45ac:	84 00 a0 01 	inc  %g2
    45b0:	88 20 c0 02 	sub  %g3, %g2, %g4
    45b4:	80 a1 20 11 	cmp  %g4, 0x11
    45b8:	34 bf ff fd 	bg,a   45ac <ee_printf+0xed8>
    45bc:	e4 28 40 02 	stb  %l2, [ %g1 + %g2 ]
    45c0:	90 03 40 0b 	add  %o5, %o3, %o0
    45c4:	10 bf fc 5f 	b  3740 <ee_printf+0x6c>
    45c8:	c4 0e 20 01 	ldub  [ %i0 + 1 ], %g2
    45cc:	84 92 e0 00 	orcc  %o3, 0, %g2
    45d0:	04 bf fe e0 	ble  4150 <ee_printf+0xa7c>
    45d4:	82 20 00 08 	neg  %o0, %g1
    45d8:	82 08 60 03 	and  %g1, 3, %g1
    45dc:	80 a2 c0 01 	cmp  %o3, %g1
    45e0:	08 80 00 03 	bleu  45ec <ee_printf+0xf18>
    45e4:	88 10 00 0b 	mov  %o3, %g4
    45e8:	88 10 00 01 	mov  %g1, %g4
    45ec:	80 a2 e0 03 	cmp  %o3, 3
    45f0:	28 80 00 02 	bleu,a   45f8 <ee_printf+0xf24>
    45f4:	88 10 00 0b 	mov  %o3, %g4
    45f8:	80 a1 20 00 	cmp  %g4, 0
    45fc:	02 80 00 0b 	be  4628 <ee_printf+0xf54>
    4600:	82 10 00 08 	mov  %o0, %g1
    4604:	e4 28 40 00 	stb  %l2, [ %g1 ]
    4608:	82 00 60 01 	inc  %g1
    460c:	86 20 40 08 	sub  %g1, %o0, %g3
    4610:	80 a1 00 03 	cmp  %g4, %g3
    4614:	18 bf ff fc 	bgu  4604 <ee_printf+0xf30>
    4618:	84 00 bf ff 	add  %g2, -1, %g2
    461c:	80 a2 c0 04 	cmp  %o3, %g4
    4620:	22 80 00 19 	be,a   4684 <ee_printf+0xfb0>
    4624:	c4 05 00 00 	ld  [ %l4 ], %g2
    4628:	98 22 c0 04 	sub  %o3, %g4, %o4
    462c:	9f 33 20 02 	srl  %o4, 2, %o7
    4630:	9b 2b e0 02 	sll  %o7, 2, %o5
    4634:	80 a3 60 00 	cmp  %o5, 0
    4638:	22 80 00 0e 	be,a   4670 <ee_printf+0xf9c>
    463c:	e4 28 40 00 	stb  %l2, [ %g1 ]
    4640:	88 02 00 04 	add  %o0, %g4, %g4
    4644:	86 10 20 00 	clr  %g3
    4648:	e6 21 00 00 	st  %l3, [ %g4 ]
    464c:	86 00 e0 01 	inc  %g3
    4650:	80 a0 c0 0f 	cmp  %g3, %o7
    4654:	0a bf ff fd 	bcs  4648 <ee_printf+0xf74>
    4658:	88 01 20 04 	add  %g4, 4, %g4
    465c:	82 00 40 0d 	add  %g1, %o5, %g1
    4660:	80 a3 00 0d 	cmp  %o4, %o5
    4664:	02 80 00 07 	be  4680 <ee_printf+0xfac>
    4668:	84 20 80 0d 	sub  %g2, %o5, %g2
    466c:	e4 28 40 00 	stb  %l2, [ %g1 ]
    4670:	84 00 bf ff 	add  %g2, -1, %g2
    4674:	80 a0 a0 00 	cmp  %g2, 0
    4678:	14 bf ff fd 	bg  466c <ee_printf+0xf98>
    467c:	82 00 60 01 	inc  %g1
    4680:	c4 05 00 00 	ld  [ %l4 ], %g2
    4684:	82 02 00 0b 	add  %o0, %o3, %g1
    4688:	c4 2a 00 0b 	stb  %g2, [ %o0 + %o3 ]
    468c:	a8 05 20 04 	add  %l4, 4, %l4
    4690:	90 00 60 01 	add  %g1, 1, %o0
    4694:	10 bf fc 2b 	b  3740 <ee_printf+0x6c>
    4698:	c4 0e 20 01 	ldub  [ %i0 + 1 ], %g2
    469c:	10 bf fe 4a 	b  3fc4 <ee_printf+0x8f0>
    46a0:	82 10 20 00 	clr  %g1
    46a4:	10 bf fe 9d 	b  4118 <ee_printf+0xa44>
    46a8:	96 10 20 08 	mov  8, %o3
    46ac:	d8 05 00 00 	ld  [ %l4 ], %o4
    46b0:	84 06 20 02 	add  %i0, 2, %g2
    46b4:	a8 05 20 04 	add  %l4, 4, %l4
    46b8:	80 a3 20 00 	cmp  %o4, 0
    46bc:	16 bf fc b5 	bge  3990 <ee_printf+0x2bc>
    46c0:	c2 0e 20 02 	ldub  [ %i0 + 2 ], %g1
    46c4:	98 10 20 00 	clr  %o4
    46c8:	10 bf fc 46 	b  37e0 <ee_printf+0x10c>
    46cc:	b0 10 00 02 	mov  %g2, %i0
    46d0:	04 bf fd 4c 	ble  3c00 <ee_printf+0x52c>
    46d4:	82 16 a0 00 	mov  %i2, %g1
    46d8:	98 07 80 0c 	add  %fp, %o4, %o4
    46dc:	9f 38 a0 1f 	sra  %g2, 0x1f, %o7
    46e0:	81 83 e0 00 	mov  %o7, %y
    46e4:	01 00 00 00 	nop 
    46e8:	01 00 00 00 	nop 
    46ec:	01 00 00 00 	nop 
    46f0:	88 78 a0 0a 	sdiv  %g2, 0xa, %g4
    46f4:	9e 01 00 04 	add  %g4, %g4, %o7
    46f8:	d4 08 40 04 	ldub  [ %g1 + %g4 ], %o2
    46fc:	89 29 20 03 	sll  %g4, 3, %g4
    4700:	d4 2b 3b e8 	stb  %o2, [ %o4 + -1048 ]
    4704:	88 03 c0 04 	add  %o7, %g4, %g4
    4708:	98 00 e0 02 	add  %g3, 2, %o4
    470c:	10 bf fd 3d 	b  3c00 <ee_printf+0x52c>
    4710:	84 20 80 04 	sub  %g2, %g4, %g2
    4714:	34 80 00 1d 	bg,a   4788 <ee_printf+0x10b4>
    4718:	9e 07 80 0f 	add  %fp, %o7, %o7
    471c:	10 bf fd 13 	b  3b68 <ee_printf+0x494>
    4720:	82 16 a0 00 	mov  %i2, %g1
    4724:	24 80 00 28 	ble,a   47c4 <ee_printf+0x10f0>
    4728:	88 10 20 02 	mov  2, %g4
    472c:	83 38 e0 1f 	sra  %g3, 0x1f, %g1
    4730:	81 80 60 00 	mov  %g1, %y
    4734:	01 00 00 00 	nop 
    4738:	01 00 00 00 	nop 
    473c:	01 00 00 00 	nop 
    4740:	88 78 e0 0a 	sdiv  %g3, 0xa, %g4
    4744:	82 16 a0 00 	mov  %i2, %g1
    4748:	9e 01 00 04 	add  %g4, %g4, %o7
    474c:	d8 08 40 04 	ldub  [ %g1 + %g4 ], %o4
    4750:	89 29 20 03 	sll  %g4, 3, %g4
    4754:	9e 03 c0 04 	add  %o7, %g4, %o7
    4758:	d8 2f bb e8 	stb  %o4, [ %fp + -1048 ]
    475c:	86 20 c0 0f 	sub  %g3, %o7, %g3
    4760:	88 10 20 03 	mov  3, %g4
    4764:	9e 10 20 02 	mov  2, %o7
    4768:	10 bf fc b5 	b  3a3c <ee_printf+0x368>
    476c:	98 10 20 01 	mov  1, %o4
    4770:	34 80 00 19 	bg,a   47d4 <ee_printf+0x1100>
    4774:	88 07 80 04 	add  %fp, %g4, %g4
    4778:	10 bf fc d6 	b  3ad0 <ee_printf+0x3fc>
    477c:	82 16 a0 00 	mov  %i2, %g1
    4780:	10 bf fe db 	b  42ec <ee_printf+0xc18>
    4784:	82 16 a0 00 	mov  %i2, %g1
    4788:	83 38 e0 1f 	sra  %g3, 0x1f, %g1
    478c:	81 80 60 00 	mov  %g1, %y
    4790:	01 00 00 00 	nop 
    4794:	01 00 00 00 	nop 
    4798:	01 00 00 00 	nop 
    479c:	98 78 e0 0a 	sdiv  %g3, 0xa, %o4
    47a0:	94 03 00 0c 	add  %o4, %o4, %o2
    47a4:	82 16 a0 00 	mov  %i2, %g1
    47a8:	d2 08 40 0c 	ldub  [ %g1 + %o4 ], %o1
    47ac:	99 2b 20 03 	sll  %o4, 3, %o4
    47b0:	d2 2b fb e8 	stb  %o1, [ %o7 + -1048 ]
    47b4:	98 02 80 0c 	add  %o2, %o4, %o4
    47b8:	9e 01 20 02 	add  %g4, 2, %o7
    47bc:	10 bf fc eb 	b  3b68 <ee_printf+0x494>
    47c0:	86 20 c0 0c 	sub  %g3, %o4, %g3
    47c4:	9e 10 20 01 	mov  1, %o7
    47c8:	98 10 20 00 	clr  %o4
    47cc:	10 bf fc 9c 	b  3a3c <ee_printf+0x368>
    47d0:	82 16 a0 00 	mov  %i2, %g1
    47d4:	95 38 e0 1f 	sra  %g3, 0x1f, %o2
    47d8:	81 82 a0 00 	mov  %o2, %y
    47dc:	01 00 00 00 	nop 
    47e0:	01 00 00 00 	nop 
    47e4:	01 00 00 00 	nop 
    47e8:	98 78 e0 0a 	sdiv  %g3, 0xa, %o4
    47ec:	82 16 a0 00 	mov  %i2, %g1
    47f0:	94 03 00 0c 	add  %o4, %o4, %o2
    47f4:	d2 08 40 0c 	ldub  [ %g1 + %o4 ], %o1
    47f8:	99 2b 20 03 	sll  %o4, 3, %o4
    47fc:	d2 29 3b e8 	stb  %o1, [ %g4 + -1048 ]
    4800:	98 02 80 0c 	add  %o2, %o4, %o4
    4804:	88 03 e0 02 	add  %o7, 2, %g4
    4808:	10 bf fc b2 	b  3ad0 <ee_printf+0x3fc>
    480c:	86 20 c0 0c 	sub  %g3, %o4, %g3
    4810:	10 bf fe f8 	b  43f0 <ee_printf+0xd1c>
    4814:	86 10 00 01 	mov  %g1, %g3
    4818:	10 bf fd 97 	b  3e74 <ee_printf+0x7a0>
    481c:	88 14 20 50 	or  %l0, 0x50, %g4
    4820:	10 bf fd a5 	b  3eb4 <ee_printf+0x7e0>
    4824:	86 10 20 00 	clr  %g3
    4828:	10 bf fd 30 	b  3ce8 <ee_printf+0x614>
    482c:	96 10 00 04 	mov  %g4, %o3
    4830:	90 10 00 0d 	mov  %o5, %o0
    4834:	10 bf fb c3 	b  3740 <ee_printf+0x6c>
    4838:	c4 0e 20 01 	ldub  [ %i0 + 1 ], %g2
    483c:	10 bf fd d4 	b  3f8c <ee_printf+0x8b8>
    4840:	96 10 00 0d 	mov  %o5, %o3
    4844:	10 bf ff 14 	b  4494 <ee_printf+0xdc0>
    4848:	96 10 00 04 	mov  %g4, %o3
    484c:	86 10 00 08 	mov  %o0, %g3
    4850:	9e 10 20 11 	mov  0x11, %o7
    4854:	10 bf ff 1d 	b  44c8 <ee_printf+0xdf4>
    4858:	84 10 20 00 	clr  %g2
    485c:	90 10 00 0c 	mov  %o4, %o0
    4860:	10 bf fb b8 	b  3740 <ee_printf+0x6c>
    4864:	c4 0e 20 01 	ldub  [ %i0 + 1 ], %g2
    4868:	98 10 00 08 	mov  %o0, %o4
    486c:	10 bf fd ec 	b  401c <ee_printf+0x948>
    4870:	82 10 20 00 	clr  %g1
    4874:	86 10 00 08 	mov  %o0, %g3
    4878:	82 10 20 00 	clr  %g1
    487c:	10 bf fd 30 	b  3d3c <ee_printf+0x668>
    4880:	88 07 bb e8 	add  %fp, -1048, %g4
    4884:	00 00 4e 8c 	unimp  0x4e8c
    4888:	00 00 4e c4 	unimp  0x4ec4
    488c:	00 00 4e d0 	unimp  0x4ed0
    4890:	00 00 4e dc 	unimp  0x4edc
    4894:	00 00 4e e8 	unimp  0x4ee8
    4898:	00 00 4e f4 	unimp  0x4ef4
    489c:	00 00 4f 00 	unimp  0x4f00
    48a0:	00 00 4f 0c 	unimp  0x4f0c
    48a4:	00 00 4f 18 	unimp  0x4f18
    48a8:	00 00 4f 24 	unimp  0x4f24
    48ac:	00 00 4f 30 	unimp  0x4f30
    48b0:	00 00 4f 3c 	unimp  0x4f3c
    48b4:	00 00 4f 48 	unimp  0x4f48
    48b8:	00 00 4f 54 	unimp  0x4f54
    48bc:	00 00 4e ac 	unimp  0x4eac
    48c0:	00 00 4e b8 	unimp  0x4eb8
    48c4:	00 00 4f 70 	unimp  0x4f70
    48c8:	00 00 4f a8 	unimp  0x4fa8
    48cc:	00 00 4f b4 	unimp  0x4fb4
    48d0:	00 00 4f c0 	unimp  0x4fc0
    48d4:	00 00 4f cc 	unimp  0x4fcc
    48d8:	00 00 4f d8 	unimp  0x4fd8
    48dc:	00 00 4f e4 	unimp  0x4fe4
    48e0:	00 00 4f f0 	unimp  0x4ff0
    48e4:	00 00 4f fc 	unimp  0x4ffc
    48e8:	00 00 50 08 	unimp  0x5008
    48ec:	00 00 50 14 	unimp  0x5014
    48f0:	00 00 50 20 	unimp  0x5020
    48f4:	00 00 50 2c 	unimp  0x502c
    48f8:	00 00 50 38 	unimp  0x5038
    48fc:	00 00 4f 90 	unimp  0x4f90
    4900:	00 00 4f 9c 	unimp  0x4f9c

00004904 <__ajit_clear_all_gp_registers__>:
    4904:	82 10 00 00 	mov  %g0, %g1
    4908:	84 10 00 00 	mov  %g0, %g2
    490c:	86 10 00 00 	mov  %g0, %g3
    4910:	88 10 00 00 	mov  %g0, %g4
    4914:	8a 10 00 00 	mov  %g0, %g5
    4918:	8c 10 00 00 	mov  %g0, %g6
    491c:	8e 10 00 00 	mov  %g0, %g7
    4920:	b0 10 00 00 	mov  %g0, %i0
    4924:	b2 10 00 00 	mov  %g0, %i1
    4928:	b4 10 00 00 	mov  %g0, %i2
    492c:	b6 10 00 00 	mov  %g0, %i3
    4930:	b8 10 00 00 	mov  %g0, %i4
    4934:	ba 10 00 00 	mov  %g0, %i5
    4938:	bc 10 00 00 	mov  %g0, %fp
    493c:	be 10 00 00 	mov  %g0, %i7
    4940:	a0 10 00 00 	mov  %g0, %l0
    4944:	a2 10 00 00 	mov  %g0, %l1
    4948:	a4 10 00 00 	mov  %g0, %l2
    494c:	a6 10 00 00 	mov  %g0, %l3
    4950:	a8 10 00 00 	mov  %g0, %l4
    4954:	aa 10 00 00 	mov  %g0, %l5
    4958:	ac 10 00 00 	mov  %g0, %l6
    495c:	ae 10 00 00 	mov  %g0, %l7
    4960:	90 10 00 00 	mov  %g0, %o0
    4964:	92 10 00 00 	mov  %g0, %o1
    4968:	94 10 00 00 	mov  %g0, %o2
    496c:	96 10 00 00 	mov  %g0, %o3
    4970:	98 10 00 00 	mov  %g0, %o4
    4974:	9a 10 00 00 	mov  %g0, %o5
    4978:	9c 10 00 00 	mov  %g0, %sp
    497c:	9e 10 00 00 	mov  %g0, %o7
    4980:	81 e0 00 00 	save 
    4984:	a0 10 00 00 	mov  %g0, %l0
    4988:	a2 10 00 00 	mov  %g0, %l1
    498c:	a4 10 00 00 	mov  %g0, %l2
    4990:	a6 10 00 00 	mov  %g0, %l3
    4994:	a8 10 00 00 	mov  %g0, %l4
    4998:	aa 10 00 00 	mov  %g0, %l5
    499c:	ac 10 00 00 	mov  %g0, %l6
    49a0:	ae 10 00 00 	mov  %g0, %l7
    49a4:	90 10 00 00 	mov  %g0, %o0
    49a8:	92 10 00 00 	mov  %g0, %o1
    49ac:	94 10 00 00 	mov  %g0, %o2
    49b0:	96 10 00 00 	mov  %g0, %o3
    49b4:	98 10 00 00 	mov  %g0, %o4
    49b8:	9a 10 00 00 	mov  %g0, %o5
    49bc:	9c 10 00 00 	mov  %g0, %sp
    49c0:	9e 10 00 00 	mov  %g0, %o7
    49c4:	81 e0 00 00 	save 
    49c8:	a0 10 00 00 	mov  %g0, %l0
    49cc:	a2 10 00 00 	mov  %g0, %l1
    49d0:	a4 10 00 00 	mov  %g0, %l2
    49d4:	a6 10 00 00 	mov  %g0, %l3
    49d8:	a8 10 00 00 	mov  %g0, %l4
    49dc:	aa 10 00 00 	mov  %g0, %l5
    49e0:	ac 10 00 00 	mov  %g0, %l6
    49e4:	ae 10 00 00 	mov  %g0, %l7
    49e8:	90 10 00 00 	mov  %g0, %o0
    49ec:	92 10 00 00 	mov  %g0, %o1
    49f0:	94 10 00 00 	mov  %g0, %o2
    49f4:	96 10 00 00 	mov  %g0, %o3
    49f8:	98 10 00 00 	mov  %g0, %o4
    49fc:	9a 10 00 00 	mov  %g0, %o5
    4a00:	9c 10 00 00 	mov  %g0, %sp
    4a04:	9e 10 00 00 	mov  %g0, %o7
    4a08:	81 e0 00 00 	save 
    4a0c:	a0 10 00 00 	mov  %g0, %l0
    4a10:	a2 10 00 00 	mov  %g0, %l1
    4a14:	a4 10 00 00 	mov  %g0, %l2
    4a18:	a6 10 00 00 	mov  %g0, %l3
    4a1c:	a8 10 00 00 	mov  %g0, %l4
    4a20:	aa 10 00 00 	mov  %g0, %l5
    4a24:	ac 10 00 00 	mov  %g0, %l6
    4a28:	ae 10 00 00 	mov  %g0, %l7
    4a2c:	90 10 00 00 	mov  %g0, %o0
    4a30:	92 10 00 00 	mov  %g0, %o1
    4a34:	94 10 00 00 	mov  %g0, %o2
    4a38:	96 10 00 00 	mov  %g0, %o3
    4a3c:	98 10 00 00 	mov  %g0, %o4
    4a40:	9a 10 00 00 	mov  %g0, %o5
    4a44:	9c 10 00 00 	mov  %g0, %sp
    4a48:	9e 10 00 00 	mov  %g0, %o7
    4a4c:	81 e0 00 00 	save 
    4a50:	a0 10 00 00 	mov  %g0, %l0
    4a54:	a2 10 00 00 	mov  %g0, %l1
    4a58:	a4 10 00 00 	mov  %g0, %l2
    4a5c:	a6 10 00 00 	mov  %g0, %l3
    4a60:	a8 10 00 00 	mov  %g0, %l4
    4a64:	aa 10 00 00 	mov  %g0, %l5
    4a68:	ac 10 00 00 	mov  %g0, %l6
    4a6c:	ae 10 00 00 	mov  %g0, %l7
    4a70:	90 10 00 00 	mov  %g0, %o0
    4a74:	92 10 00 00 	mov  %g0, %o1
    4a78:	94 10 00 00 	mov  %g0, %o2
    4a7c:	96 10 00 00 	mov  %g0, %o3
    4a80:	98 10 00 00 	mov  %g0, %o4
    4a84:	9a 10 00 00 	mov  %g0, %o5
    4a88:	9c 10 00 00 	mov  %g0, %sp
    4a8c:	9e 10 00 00 	mov  %g0, %o7
    4a90:	81 e0 00 00 	save 
    4a94:	a0 10 00 00 	mov  %g0, %l0
    4a98:	a2 10 00 00 	mov  %g0, %l1
    4a9c:	a4 10 00 00 	mov  %g0, %l2
    4aa0:	a6 10 00 00 	mov  %g0, %l3
    4aa4:	a8 10 00 00 	mov  %g0, %l4
    4aa8:	aa 10 00 00 	mov  %g0, %l5
    4aac:	ac 10 00 00 	mov  %g0, %l6
    4ab0:	ae 10 00 00 	mov  %g0, %l7
    4ab4:	90 10 00 00 	mov  %g0, %o0
    4ab8:	92 10 00 00 	mov  %g0, %o1
    4abc:	94 10 00 00 	mov  %g0, %o2
    4ac0:	96 10 00 00 	mov  %g0, %o3
    4ac4:	98 10 00 00 	mov  %g0, %o4
    4ac8:	9a 10 00 00 	mov  %g0, %o5
    4acc:	9c 10 00 00 	mov  %g0, %sp
    4ad0:	9e 10 00 00 	mov  %g0, %o7
    4ad4:	81 e0 00 00 	save 
    4ad8:	a0 10 00 00 	mov  %g0, %l0
    4adc:	a2 10 00 00 	mov  %g0, %l1
    4ae0:	a4 10 00 00 	mov  %g0, %l2
    4ae4:	a6 10 00 00 	mov  %g0, %l3
    4ae8:	a8 10 00 00 	mov  %g0, %l4
    4aec:	aa 10 00 00 	mov  %g0, %l5
    4af0:	ac 10 00 00 	mov  %g0, %l6
    4af4:	ae 10 00 00 	mov  %g0, %l7
    4af8:	90 10 00 00 	mov  %g0, %o0
    4afc:	92 10 00 00 	mov  %g0, %o1
    4b00:	94 10 00 00 	mov  %g0, %o2
    4b04:	96 10 00 00 	mov  %g0, %o3
    4b08:	98 10 00 00 	mov  %g0, %o4
    4b0c:	9a 10 00 00 	mov  %g0, %o5
    4b10:	9c 10 00 00 	mov  %g0, %sp
    4b14:	9e 10 00 00 	mov  %g0, %o7
    4b18:	81 e0 00 00 	save 
    4b1c:	a0 10 00 00 	mov  %g0, %l0
    4b20:	a2 10 00 00 	mov  %g0, %l1
    4b24:	a4 10 00 00 	mov  %g0, %l2
    4b28:	a6 10 00 00 	mov  %g0, %l3
    4b2c:	a8 10 00 00 	mov  %g0, %l4
    4b30:	aa 10 00 00 	mov  %g0, %l5
    4b34:	ac 10 00 00 	mov  %g0, %l6
    4b38:	ae 10 00 00 	mov  %g0, %l7
    4b3c:	90 10 00 00 	mov  %g0, %o0
    4b40:	92 10 00 00 	mov  %g0, %o1
    4b44:	94 10 00 00 	mov  %g0, %o2
    4b48:	96 10 00 00 	mov  %g0, %o3
    4b4c:	98 10 00 00 	mov  %g0, %o4
    4b50:	9a 10 00 00 	mov  %g0, %o5
    4b54:	9c 10 00 00 	mov  %g0, %sp
    4b58:	9e 10 00 00 	mov  %g0, %o7
    4b5c:	81 e8 00 00 	restore 
    4b60:	81 e8 00 00 	restore 
    4b64:	81 e8 00 00 	restore 
    4b68:	81 e8 00 00 	restore 
    4b6c:	81 e8 00 00 	restore 
    4b70:	81 e8 00 00 	restore 
    4b74:	81 e8 00 00 	restore 
    4b78:	81 c3 e0 08 	retl 
    4b7c:	01 00 00 00 	nop 

00004b80 <ajit_read_from_scratch_pad>:
    4b80:	80 a2 20 1f 	cmp  %o0, 0x1f
    4b84:	18 80 00 05 	bgu  4b98 <ajit_read_from_scratch_pad+0x18>
    4b88:	82 10 20 00 	clr  %g1
    4b8c:	91 2a 20 02 	sll  %o0, 2, %o0
    4b90:	03 3f ff cb 	sethi  %hi(0xffff2c00), %g1
    4b94:	c2 02 00 01 	ld  [ %o0 + %g1 ], %g1
    4b98:	81 c3 e0 08 	retl 
    4b9c:	90 10 00 01 	mov  %g1, %o0

00004ba0 <ajit_write_to_scratch_pad>:
    4ba0:	80 a2 20 1f 	cmp  %o0, 0x1f
    4ba4:	18 80 00 04 	bgu  4bb4 <ajit_write_to_scratch_pad+0x14>
    4ba8:	91 2a 20 02 	sll  %o0, 2, %o0
    4bac:	03 3f ff cb 	sethi  %hi(0xffff2c00), %g1
    4bb0:	d2 22 00 01 	st  %o1, [ %o0 + %g1 ]
    4bb4:	81 c3 e0 08 	retl 
    4bb8:	01 00 00 00 	nop 

00004bbc <ajit_configure_i2c_master>:
    4bbc:	81 80 20 00 	mov  %g0, %y
    4bc0:	01 00 00 00 	nop 
    4bc4:	01 00 00 00 	nop 
    4bc8:	01 00 00 00 	nop 
    4bcc:	92 72 00 09 	udiv  %o0, %o1, %o1
    4bd0:	03 3f ff cd 	sethi  %hi(0xffff3400), %g1
    4bd4:	93 32 60 02 	srl  %o1, 2, %o1
    4bd8:	82 10 62 00 	or  %g1, 0x200, %g1
    4bdc:	90 10 20 00 	clr  %o0
    4be0:	81 c3 e0 08 	retl 
    4be4:	d2 20 40 00 	st  %o1, [ %g1 ]

00004be8 <ajit_i2c_master_is_ready>:
    4be8:	03 3f ff cd 	sethi  %hi(0xffff3400), %g1
    4bec:	82 10 62 08 	or  %g1, 0x208, %g1	! ffff3608 <main+0xfffed4ec>
    4bf0:	d0 00 40 00 	ld  [ %g1 ], %o0
    4bf4:	91 32 20 0a 	srl  %o0, 0xa, %o0
    4bf8:	81 c3 e0 08 	retl 
    4bfc:	90 0a 20 01 	and  %o0, 1, %o0

00004c00 <ajit_i2c_master_write_command>:
    4c00:	03 3f ff cd 	sethi  %hi(0xffff3400), %g1
    4c04:	82 10 62 04 	or  %g1, 0x204, %g1	! ffff3604 <main+0xfffed4e8>
    4c08:	81 c3 e0 08 	retl 
    4c0c:	d0 20 40 00 	st  %o0, [ %g1 ]

00004c10 <ajit_i2c_master_read_status>:
    4c10:	03 3f ff cd 	sethi  %hi(0xffff3400), %g1
    4c14:	82 10 62 08 	or  %g1, 0x208, %g1	! ffff3608 <main+0xfffed4ec>
    4c18:	81 c3 e0 08 	retl 
    4c1c:	d0 00 40 00 	ld  [ %g1 ], %o0

00004c20 <ajit_i2c_master_access_slave_memory_device>:
    4c20:	03 3f ff cd 	sethi  %hi(0xffff3400), %g1
    4c24:	84 10 62 08 	or  %g1, 0x208, %g2	! ffff3608 <main+0xfffed4ec>
    4c28:	c4 00 80 00 	ld  [ %g2 ], %g2
    4c2c:	80 88 a4 00 	btst  0x400, %g2
    4c30:	32 80 00 03 	bne,a   4c3c <ajit_i2c_master_access_slave_memory_device+0x1c>
    4c34:	82 10 62 04 	or  %g1, 0x204, %g1
    4c38:	30 80 00 00 	b,a   4c38 <ajit_i2c_master_access_slave_memory_device+0x18>
    4c3c:	91 2a 20 10 	sll  %o0, 0x10, %o0
    4c40:	87 2a 60 1f 	sll  %o1, 0x1f, %g3
    4c44:	09 18 00 00 	sethi  %hi(0x60000000), %g4
    4c48:	95 2a a0 08 	sll  %o2, 8, %o2
    4c4c:	90 12 00 04 	or  %o0, %g4, %o0
    4c50:	90 12 00 03 	or  %o0, %g3, %o0
    4c54:	94 12 00 0a 	or  %o0, %o2, %o2
    4c58:	96 12 80 0b 	or  %o2, %o3, %o3
    4c5c:	d6 20 40 00 	st  %o3, [ %g1 ]
    4c60:	80 a2 60 00 	cmp  %o1, 0
    4c64:	02 80 00 03 	be  4c70 <ajit_i2c_master_access_slave_memory_device+0x50>
    4c68:	90 10 20 00 	clr  %o0
    4c6c:	90 10 00 02 	mov  %g2, %o0
    4c70:	81 c3 e0 08 	retl 
    4c74:	90 0a 20 ff 	and  %o0, 0xff, %o0

00004c78 <__ajit_read_core_thread_id_word__>:
    4c78:	91 47 40 00 	rd  %asr29, %o0
    4c7c:	81 c3 e0 08 	retl 
    4c80:	01 00 00 00 	nop 

00004c84 <ajit_read_thread_descriptor>:
    4c84:	9d e3 bf a0 	save  %sp, -96, %sp
    4c88:	83 47 00 00 	rd  %asr28, %g1
    4c8c:	87 30 60 1e 	srl  %g1, 0x1e, %g3
    4c90:	80 a0 e0 03 	cmp  %g3, 3
    4c94:	02 80 00 0a 	be  4cbc <ajit_read_thread_descriptor+0x38>
    4c98:	84 10 20 20 	mov  0x20, %g2
    4c9c:	80 a0 e0 02 	cmp  %g3, 2
    4ca0:	02 80 00 07 	be  4cbc <ajit_read_thread_descriptor+0x38>
    4ca4:	84 10 20 10 	mov  0x10, %g2
    4ca8:	86 18 e0 01 	xor  %g3, 1, %g3
    4cac:	80 a0 00 03 	cmp  %g0, %g3
    4cb0:	84 60 20 00 	subx  %g0, 0, %g2
    4cb4:	84 08 a0 fc 	and  %g2, 0xfc, %g2
    4cb8:	84 00 a0 08 	add  %g2, 8, %g2
    4cbc:	87 30 60 1c 	srl  %g1, 0x1c, %g3
    4cc0:	86 08 e0 03 	and  %g3, 3, %g3
    4cc4:	80 a0 e0 03 	cmp  %g3, 3
    4cc8:	02 80 00 2d 	be  4d7c <ajit_read_thread_descriptor+0xf8>
    4ccc:	c4 2e 00 00 	stb  %g2, [ %i0 ]
    4cd0:	80 a0 e0 02 	cmp  %g3, 2
    4cd4:	02 80 00 07 	be  4cf0 <ajit_read_thread_descriptor+0x6c>
    4cd8:	84 10 20 10 	mov  0x10, %g2
    4cdc:	86 18 e0 01 	xor  %g3, 1, %g3
    4ce0:	80 a0 00 03 	cmp  %g0, %g3
    4ce4:	84 60 20 00 	subx  %g0, 0, %g2
    4ce8:	84 08 a0 fc 	and  %g2, 0xfc, %g2
    4cec:	84 00 a0 08 	add  %g2, 8, %g2
    4cf0:	99 30 60 1a 	srl  %g1, 0x1a, %o4
    4cf4:	9b 30 60 18 	srl  %g1, 0x18, %o5
    4cf8:	9f 30 60 14 	srl  %g1, 0x14, %o7
    4cfc:	b3 30 60 10 	srl  %g1, 0x10, %i1
    4d00:	b5 30 60 0c 	srl  %g1, 0xc, %i2
    4d04:	b7 30 60 09 	srl  %g1, 9, %i3
    4d08:	b9 30 60 07 	srl  %g1, 7, %i4
    4d0c:	bb 30 60 05 	srl  %g1, 5, %i5
    4d10:	89 30 60 02 	srl  %g1, 2, %g4
    4d14:	87 30 60 01 	srl  %g1, 1, %g3
    4d18:	98 0b 20 03 	and  %o4, 3, %o4
    4d1c:	9a 0b 60 03 	and  %o5, 3, %o5
    4d20:	9e 0b e0 0f 	and  %o7, 0xf, %o7
    4d24:	b2 0e 60 0f 	and  %i1, 0xf, %i1
    4d28:	b4 0e a0 0f 	and  %i2, 0xf, %i2
    4d2c:	b6 0e e0 07 	and  %i3, 7, %i3
    4d30:	b8 0f 20 03 	and  %i4, 3, %i4
    4d34:	ba 0f 60 03 	and  %i5, 3, %i5
    4d38:	88 09 20 01 	and  %g4, 1, %g4
    4d3c:	86 08 e0 01 	and  %g3, 1, %g3
    4d40:	82 08 60 01 	and  %g1, 1, %g1
    4d44:	c4 2e 20 01 	stb  %g2, [ %i0 + 1 ]
    4d48:	d8 2e 20 02 	stb  %o4, [ %i0 + 2 ]
    4d4c:	da 2e 20 03 	stb  %o5, [ %i0 + 3 ]
    4d50:	de 2e 20 04 	stb  %o7, [ %i0 + 4 ]
    4d54:	f2 2e 20 05 	stb  %i1, [ %i0 + 5 ]
    4d58:	f4 2e 20 06 	stb  %i2, [ %i0 + 6 ]
    4d5c:	f6 2e 20 07 	stb  %i3, [ %i0 + 7 ]
    4d60:	f8 2e 20 08 	stb  %i4, [ %i0 + 8 ]
    4d64:	fa 2e 20 09 	stb  %i5, [ %i0 + 9 ]
    4d68:	c8 2e 20 0a 	stb  %g4, [ %i0 + 0xa ]
    4d6c:	c6 2e 20 0b 	stb  %g3, [ %i0 + 0xb ]
    4d70:	c2 2e 20 0c 	stb  %g1, [ %i0 + 0xc ]
    4d74:	81 c7 e0 08 	ret 
    4d78:	81 e8 00 00 	restore 
    4d7c:	10 bf ff dd 	b  4cf0 <ajit_read_thread_descriptor+0x6c>
    4d80:	84 10 20 20 	mov  0x20, %g2

00004d84 <ajit_get_core_and_thread_id>:
    4d84:	83 47 40 00 	rd  %asr29, %g1
    4d88:	85 30 60 08 	srl  %g1, 8, %g2
    4d8c:	c4 2a 00 00 	stb  %g2, [ %o0 ]
    4d90:	81 c3 e0 08 	retl 
    4d94:	c2 2a 40 00 	stb  %g1, [ %o1 ]

00004d98 <__ajit_read_cycle_count_register_high__>:
    4d98:	91 47 80 00 	rd  %asr30, %o0
    4d9c:	81 c3 e0 08 	retl 
    4da0:	01 00 00 00 	nop 

00004da4 <__ajit_read_cycle_count_register_low__>:
    4da4:	91 47 c0 00 	rd  %asr31, %o0
    4da8:	81 c3 e0 08 	retl 
    4dac:	01 00 00 00 	nop 

00004db0 <__ajit_get_clock_time>:
    4db0:	99 47 c0 00 	rd  %asr31, %o4
    4db4:	83 47 80 00 	rd  %asr30, %g1
    4db8:	86 10 20 00 	clr  %g3
    4dbc:	9a 10 00 0c 	mov  %o4, %o5
    4dc0:	98 10 20 00 	clr  %o4
    4dc4:	86 10 c0 0d 	or  %g3, %o5, %g3
    4dc8:	84 10 40 0c 	or  %g1, %o4, %g2
    4dcc:	92 10 00 03 	mov  %g3, %o1
    4dd0:	81 c3 e0 08 	retl 
    4dd4:	90 10 00 02 	mov  %g2, %o0

00004dd8 <__ajit_sleep__>:
    4dd8:	95 47 c0 00 	rd  %asr31, %o2
    4ddc:	83 47 80 00 	rd  %asr30, %g1
    4de0:	9a 10 20 00 	clr  %o5
    4de4:	96 10 00 0a 	mov  %o2, %o3
    4de8:	9a 13 40 0b 	or  %o5, %o3, %o5
    4dec:	92 83 40 08 	addcc  %o5, %o0, %o1
    4df0:	94 10 20 00 	clr  %o2
    4df4:	98 10 40 0a 	or  %g1, %o2, %o4
    4df8:	90 43 20 00 	addx  %o4, 0, %o0
    4dfc:	80 a2 00 0c 	cmp  %o0, %o4
    4e00:	08 80 00 0c 	bleu  4e30 <__ajit_sleep__+0x58>
    4e04:	01 00 00 00 	nop 
    4e08:	99 47 c0 00 	rd  %asr31, %o4
    4e0c:	83 47 80 00 	rd  %asr30, %g1
    4e10:	86 10 20 00 	clr  %g3
    4e14:	9a 10 00 0c 	mov  %o4, %o5
    4e18:	98 10 20 00 	clr  %o4
    4e1c:	98 10 40 0c 	or  %g1, %o4, %o4
    4e20:	80 a2 00 0c 	cmp  %o0, %o4
    4e24:	18 bf ff f9 	bgu  4e08 <__ajit_sleep__+0x30>
    4e28:	9a 10 c0 0d 	or  %g3, %o5, %o5
    4e2c:	80 a2 00 0c 	cmp  %o0, %o4
    4e30:	12 80 00 04 	bne  4e40 <__ajit_sleep__+0x68>
    4e34:	80 a2 40 0d 	cmp  %o1, %o5
    4e38:	18 bf ff f4 	bgu  4e08 <__ajit_sleep__+0x30>
    4e3c:	01 00 00 00 	nop 
    4e40:	81 c3 e0 08 	retl 
    4e44:	01 00 00 00 	nop 

00004e48 <__ajit_set_mmu_default_cacheable_bit__>:
    4e48:	80 a0 00 08 	cmp  %g0, %o0
    4e4c:	84 10 20 00 	clr  %g2
    4e50:	82 40 20 00 	addx  %g0, 0, %g1
    4e54:	83 28 60 08 	sll  %g1, 8, %g1
    4e58:	c2 a0 80 80 	sta  %g1, [ %g2 ] #ASI_N
    4e5c:	81 c3 e0 08 	retl 
    4e60:	01 00 00 00 	nop 

00004e64 <__ajit_store_word_mmu_reg__>:
    4e64:	d0 a2 40 80 	sta  %o0, [ %o1 ] #ASI_N
    4e68:	81 c3 e0 08 	retl 
    4e6c:	01 00 00 00 	nop 

00004e70 <__ajit_store_word_mmu_bypass__>:
    4e70:	d0 a2 44 00 	sta  %o0, [ %o1 ] #ASI_SCRATCHPAD
    4e74:	81 c3 e0 08 	retl 
    4e78:	01 00 00 00 	nop 

00004e7c <__ajit_store_word_to_physical_address__>:
    4e7c:	86 0a 60 0f 	and  %o1, 0xf, %g3
    4e80:	80 a0 e0 0f 	cmp  %g3, 0xf
    4e84:	08 80 00 05 	bleu  4e98 <__ajit_store_word_to_physical_address__+0x1c>
    4e88:	83 28 e0 02 	sll  %g3, 2, %g1
    4e8c:	d0 a2 84 00 	sta  %o0, [ %o2 ] #ASI_SCRATCHPAD
    4e90:	81 c3 e0 08 	retl 
    4e94:	01 00 00 00 	nop 
    4e98:	05 00 00 12 	sethi  %hi(0x4800), %g2
    4e9c:	84 10 a0 84 	or  %g2, 0x84, %g2	! 4884 <ee_printf+0x11b0>
    4ea0:	c2 00 80 01 	ld  [ %g2 + %g1 ], %g1
    4ea4:	81 c0 40 00 	jmp  %g1
    4ea8:	01 00 00 00 	nop 
    4eac:	d0 a2 85 c0 	sta  %o0, [ %o2 ] (46)
    4eb0:	81 c3 e0 08 	retl 
    4eb4:	01 00 00 00 	nop 
    4eb8:	d0 a2 85 e0 	sta  %o0, [ %o2 ] (47)
    4ebc:	81 c3 e0 08 	retl 
    4ec0:	01 00 00 00 	nop 
    4ec4:	d0 a2 84 20 	sta  %o0, [ %o2 ] #ASI_MMU
    4ec8:	81 c3 e0 08 	retl 
    4ecc:	01 00 00 00 	nop 
    4ed0:	d0 a2 84 40 	sta  %o0, [ %o2 ] (34)
    4ed4:	81 c3 e0 08 	retl 
    4ed8:	01 00 00 00 	nop 
    4edc:	d0 a2 84 60 	sta  %o0, [ %o2 ] #ASI_BLK_INIT_QUAD_LDD_AIUS
    4ee0:	81 c3 e0 08 	retl 
    4ee4:	01 00 00 00 	nop 
    4ee8:	d0 a2 84 80 	sta  %o0, [ %o2 ] #ASI_NUCLEUS_QUAD_LDD
    4eec:	81 c3 e0 08 	retl 
    4ef0:	01 00 00 00 	nop 
    4ef4:	d0 a2 84 a0 	sta  %o0, [ %o2 ] #ASI_QUEUE
    4ef8:	81 c3 e0 08 	retl 
    4efc:	01 00 00 00 	nop 
    4f00:	d0 a2 84 c0 	sta  %o0, [ %o2 ] #ASI_QUAD_LDD_PHYS_4V
    4f04:	81 c3 e0 08 	retl 
    4f08:	01 00 00 00 	nop 
    4f0c:	d0 a2 84 e0 	sta  %o0, [ %o2 ] (39)
    4f10:	81 c3 e0 08 	retl 
    4f14:	01 00 00 00 	nop 
    4f18:	d0 a2 85 00 	sta  %o0, [ %o2 ] (40)
    4f1c:	81 c3 e0 08 	retl 
    4f20:	01 00 00 00 	nop 
    4f24:	d0 a2 85 20 	sta  %o0, [ %o2 ] (41)
    4f28:	81 c3 e0 08 	retl 
    4f2c:	01 00 00 00 	nop 
    4f30:	d0 a2 85 40 	sta  %o0, [ %o2 ] (42)
    4f34:	81 c3 e0 08 	retl 
    4f38:	01 00 00 00 	nop 
    4f3c:	d0 a2 85 60 	sta  %o0, [ %o2 ] (43)
    4f40:	81 c3 e0 08 	retl 
    4f44:	01 00 00 00 	nop 
    4f48:	d0 a2 85 80 	sta  %o0, [ %o2 ] #ASI_NUCLEUS_QUAD_LDD_L
    4f4c:	81 c3 e0 08 	retl 
    4f50:	01 00 00 00 	nop 
    4f54:	d0 a2 85 a0 	sta  %o0, [ %o2 ] (45)
    4f58:	81 c3 e0 08 	retl 
    4f5c:	01 00 00 00 	nop 

00004f60 <__ajit_load_word_from_physical_address__>:
    4f60:	86 0a 20 0f 	and  %o0, 0xf, %g3
    4f64:	80 a0 e0 0f 	cmp  %g3, 0xf
    4f68:	08 80 00 05 	bleu  4f7c <__ajit_load_word_from_physical_address__+0x1c>
    4f6c:	83 28 e0 02 	sll  %g3, 2, %g1
    4f70:	d0 82 44 00 	lda  [ %o1 ] #ASI_SCRATCHPAD, %o0
    4f74:	81 c3 e0 08 	retl 
    4f78:	01 00 00 00 	nop 
    4f7c:	05 00 00 12 	sethi  %hi(0x4800), %g2
    4f80:	84 10 a0 c4 	or  %g2, 0xc4, %g2	! 48c4 <ee_printf+0x11f0>
    4f84:	c2 00 80 01 	ld  [ %g2 + %g1 ], %g1
    4f88:	81 c0 40 00 	jmp  %g1
    4f8c:	01 00 00 00 	nop 
    4f90:	d0 82 45 c0 	lda  [ %o1 ] (46), %o0
    4f94:	81 c3 e0 08 	retl 
    4f98:	01 00 00 00 	nop 
    4f9c:	d0 82 45 e0 	lda  [ %o1 ] (47), %o0
    4fa0:	81 c3 e0 08 	retl 
    4fa4:	01 00 00 00 	nop 
    4fa8:	d0 82 44 20 	lda  [ %o1 ] #ASI_MMU, %o0
    4fac:	81 c3 e0 08 	retl 
    4fb0:	01 00 00 00 	nop 
    4fb4:	d0 82 44 40 	lda  [ %o1 ] (34), %o0
    4fb8:	81 c3 e0 08 	retl 
    4fbc:	01 00 00 00 	nop 
    4fc0:	d0 82 44 60 	lda  [ %o1 ] #ASI_BLK_INIT_QUAD_LDD_AIUS, %o0
    4fc4:	81 c3 e0 08 	retl 
    4fc8:	01 00 00 00 	nop 
    4fcc:	d0 82 44 80 	lda  [ %o1 ] #ASI_NUCLEUS_QUAD_LDD, %o0
    4fd0:	81 c3 e0 08 	retl 
    4fd4:	01 00 00 00 	nop 
    4fd8:	d0 82 44 a0 	lda  [ %o1 ] #ASI_QUEUE, %o0
    4fdc:	81 c3 e0 08 	retl 
    4fe0:	01 00 00 00 	nop 
    4fe4:	d0 82 44 c0 	lda  [ %o1 ] #ASI_QUAD_LDD_PHYS_4V, %o0
    4fe8:	81 c3 e0 08 	retl 
    4fec:	01 00 00 00 	nop 
    4ff0:	d0 82 44 e0 	lda  [ %o1 ] (39), %o0
    4ff4:	81 c3 e0 08 	retl 
    4ff8:	01 00 00 00 	nop 
    4ffc:	d0 82 45 00 	lda  [ %o1 ] (40), %o0
    5000:	81 c3 e0 08 	retl 
    5004:	01 00 00 00 	nop 
    5008:	d0 82 45 20 	lda  [ %o1 ] (41), %o0
    500c:	81 c3 e0 08 	retl 
    5010:	01 00 00 00 	nop 
    5014:	d0 82 45 40 	lda  [ %o1 ] (42), %o0
    5018:	81 c3 e0 08 	retl 
    501c:	01 00 00 00 	nop 
    5020:	d0 82 45 60 	lda  [ %o1 ] (43), %o0
    5024:	81 c3 e0 08 	retl 
    5028:	01 00 00 00 	nop 
    502c:	d0 82 45 80 	lda  [ %o1 ] #ASI_NUCLEUS_QUAD_LDD_L, %o0
    5030:	81 c3 e0 08 	retl 
    5034:	01 00 00 00 	nop 
    5038:	d0 82 45 a0 	lda  [ %o1 ] (45), %o0
    503c:	81 c3 e0 08 	retl 
    5040:	01 00 00 00 	nop 

00005044 <__ajit_load_word_mmu_reg__>:
    5044:	d0 82 00 80 	lda  [ %o0 ] #ASI_N, %o0
    5048:	81 c3 e0 08 	retl 
    504c:	01 00 00 00 	nop 

00005050 <__ajit_load_word_mmu_bypass__>:
    5050:	d0 82 04 00 	lda  [ %o0 ] #ASI_SCRATCHPAD, %o0
    5054:	81 c3 e0 08 	retl 
    5058:	01 00 00 00 	nop 

0000505c <__ajit_flush_icache__>:
    505c:	81 d8 20 00 	flush  %g0
    5060:	81 c3 e0 08 	retl 
    5064:	01 00 00 00 	nop 

00005068 <__ajit_flush_dcache__>:
    5068:	c0 a0 02 60 	sta  %g0, [ %g0 ] (19)
    506c:	81 c3 e0 08 	retl 
    5070:	01 00 00 00 	nop 

00005074 <__ajit_write_timer_control_register_via_bypass__>:
    5074:	03 3f ff cc 	sethi  %hi(0xffff3000), %g1
    5078:	82 10 61 00 	or  %g1, 0x100, %g1	! ffff3100 <main+0xfffecfe4>
    507c:	d0 a0 44 00 	sta  %o0, [ %g1 ] #ASI_SCRATCHPAD
    5080:	81 c3 e0 08 	retl 
    5084:	01 00 00 00 	nop 

00005088 <__ajit_read_timer_control_register_via_bypass__>:
    5088:	11 3f ff cc 	sethi  %hi(0xffff3000), %o0
    508c:	90 12 21 00 	or  %o0, 0x100, %o0	! ffff3100 <main+0xfffecfe4>
    5090:	d0 82 04 00 	lda  [ %o0 ] #ASI_SCRATCHPAD, %o0
    5094:	81 c3 e0 08 	retl 
    5098:	01 00 00 00 	nop 

0000509c <__ajit_write_timer_control_register_via_vmap__>:
    509c:	03 3f ff cc 	sethi  %hi(0xffff3000), %g1
    50a0:	82 10 61 00 	or  %g1, 0x100, %g1	! ffff3100 <main+0xfffecfe4>
    50a4:	81 c3 e0 08 	retl 
    50a8:	d0 20 40 00 	st  %o0, [ %g1 ]

000050ac <__ajit_read_timer_control_register_via_vmap__>:
    50ac:	03 3f ff cc 	sethi  %hi(0xffff3000), %g1
    50b0:	82 10 61 00 	or  %g1, 0x100, %g1	! ffff3100 <main+0xfffecfe4>
    50b4:	81 c3 e0 08 	retl 
    50b8:	d0 00 40 00 	ld  [ %g1 ], %o0

000050bc <__ajit_write_serial_control_register_via_bypass__>:
    50bc:	03 3f ff cc 	sethi  %hi(0xffff3000), %g1
    50c0:	82 10 62 00 	or  %g1, 0x200, %g1	! ffff3200 <main+0xfffed0e4>
    50c4:	d0 a0 44 00 	sta  %o0, [ %g1 ] #ASI_SCRATCHPAD
    50c8:	81 c3 e0 08 	retl 
    50cc:	01 00 00 00 	nop 

000050d0 <__ajit_read_serial_control_register_via_bypass__>:
    50d0:	11 3f ff cc 	sethi  %hi(0xffff3000), %o0
    50d4:	90 12 22 00 	or  %o0, 0x200, %o0	! ffff3200 <main+0xfffed0e4>
    50d8:	d0 82 04 00 	lda  [ %o0 ] #ASI_SCRATCHPAD, %o0
    50dc:	81 c3 e0 08 	retl 
    50e0:	01 00 00 00 	nop 

000050e4 <__ajit_write_serial_tx_register_via_bypass__>:
    50e4:	03 3f ff cc 	sethi  %hi(0xffff3000), %g1
    50e8:	82 10 62 04 	or  %g1, 0x204, %g1	! ffff3204 <main+0xfffed0e8>
    50ec:	d0 a8 44 00 	stba  %o0, [ %g1 ] #ASI_SCRATCHPAD
    50f0:	81 c3 e0 08 	retl 
    50f4:	01 00 00 00 	nop 

000050f8 <__ajit_read_serial_tx_register_via_bypass__>:
    50f8:	11 3f ff cc 	sethi  %hi(0xffff3000), %o0
    50fc:	90 12 22 04 	or  %o0, 0x204, %o0	! ffff3204 <main+0xfffed0e8>
    5100:	d0 8a 04 00 	lduba  [ %o0 ] #ASI_SCRATCHPAD, %o0
    5104:	81 c3 e0 08 	retl 
    5108:	90 0a 20 ff 	and  %o0, 0xff, %o0

0000510c <__ajit_read_serial_rx_register_via_bypass__>:
    510c:	11 3f ff cc 	sethi  %hi(0xffff3000), %o0
    5110:	90 12 22 08 	or  %o0, 0x208, %o0	! ffff3208 <main+0xfffed0ec>
    5114:	d0 8a 04 00 	lduba  [ %o0 ] #ASI_SCRATCHPAD, %o0
    5118:	81 c3 e0 08 	retl 
    511c:	90 0a 20 ff 	and  %o0, 0xff, %o0

00005120 <__ajit_write_serial_baud_limit_register_via_bypass__>:
    5120:	03 3f ff cc 	sethi  %hi(0xffff3000), %g1
    5124:	82 10 62 0c 	or  %g1, 0x20c, %g1	! ffff320c <main+0xfffed0f0>
    5128:	d0 a0 44 00 	sta  %o0, [ %g1 ] #ASI_SCRATCHPAD
    512c:	81 c3 e0 08 	retl 
    5130:	01 00 00 00 	nop 

00005134 <__ajit_read_serial_baud_limit_register_via_bypass__>:
    5134:	11 3f ff cc 	sethi  %hi(0xffff3000), %o0
    5138:	90 12 22 0c 	or  %o0, 0x20c, %o0	! ffff320c <main+0xfffed0f0>
    513c:	d0 82 04 00 	lda  [ %o0 ] #ASI_SCRATCHPAD, %o0
    5140:	81 c3 e0 08 	retl 
    5144:	01 00 00 00 	nop 

00005148 <__ajit_write_serial_baud_frequency_register_via_bypass__>:
    5148:	03 3f ff cc 	sethi  %hi(0xffff3000), %g1
    514c:	82 10 62 10 	or  %g1, 0x210, %g1	! ffff3210 <main+0xfffed0f4>
    5150:	d0 a0 44 00 	sta  %o0, [ %g1 ] #ASI_SCRATCHPAD
    5154:	81 c3 e0 08 	retl 
    5158:	01 00 00 00 	nop 

0000515c <__ajit_read_serial_baud_frequency_register_via_bypass__>:
    515c:	11 3f ff cc 	sethi  %hi(0xffff3000), %o0
    5160:	90 12 22 10 	or  %o0, 0x210, %o0	! ffff3210 <main+0xfffed0f4>
    5164:	d0 82 04 00 	lda  [ %o0 ] #ASI_SCRATCHPAD, %o0
    5168:	81 c3 e0 08 	retl 
    516c:	01 00 00 00 	nop 

00005170 <__ajit_serial_configure_via_bypass__>:
    5170:	03 3f ff cc 	sethi  %hi(0xffff3000), %g1
    5174:	82 10 62 00 	or  %g1, 0x200, %g1	! ffff3200 <main+0xfffed0e4>
    5178:	c2 80 44 00 	lda  [ %g1 ] #ASI_SCRATCHPAD, %g1
    517c:	80 a2 20 00 	cmp  %o0, 0
    5180:	02 80 00 03 	be  518c <__ajit_serial_configure_via_bypass__+0x1c>
    5184:	84 08 7f fe 	and  %g1, -2, %g2
    5188:	84 10 60 01 	or  %g1, 1, %g2
    518c:	80 a2 60 00 	cmp  %o1, 0
    5190:	02 80 00 03 	be  519c <__ajit_serial_configure_via_bypass__+0x2c>
    5194:	82 08 bf fd 	and  %g2, -3, %g1
    5198:	82 10 a0 02 	or  %g2, 2, %g1
    519c:	80 a2 a0 00 	cmp  %o2, 0
    51a0:	02 80 00 03 	be  51ac <__ajit_serial_configure_via_bypass__+0x3c>
    51a4:	84 08 7f fb 	and  %g1, -5, %g2
    51a8:	84 10 60 04 	or  %g1, 4, %g2
    51ac:	03 3f ff cc 	sethi  %hi(0xffff3000), %g1
    51b0:	82 10 62 00 	or  %g1, 0x200, %g1	! ffff3200 <main+0xfffed0e4>
    51b4:	c4 a0 44 00 	sta  %g2, [ %g1 ] #ASI_SCRATCHPAD
    51b8:	81 c3 e0 08 	retl 
    51bc:	01 00 00 00 	nop 

000051c0 <__ajit_serial_set_baudrate_via_bypass__>:
    51c0:	91 2a 20 04 	sll  %o0, 4, %o0
    51c4:	80 a2 00 09 	cmp  %o0, %o1
    51c8:	1a 80 00 25 	bcc  525c <__ajit_serial_set_baudrate_via_bypass__+0x9c>
    51cc:	03 3f ff cc 	sethi  %hi(0xffff3000), %g1
    51d0:	80 a2 20 00 	cmp  %o0, 0
    51d4:	22 80 00 23 	be,a   5260 <__ajit_serial_set_baudrate_via_bypass__+0xa0>
    51d8:	84 10 20 00 	clr  %g2
    51dc:	84 10 00 09 	mov  %o1, %g2
    51e0:	10 80 00 03 	b  51ec <__ajit_serial_set_baudrate_via_bypass__+0x2c>
    51e4:	82 10 00 08 	mov  %o0, %g1
    51e8:	82 10 00 03 	mov  %g3, %g1
    51ec:	81 80 20 00 	mov  %g0, %y
    51f0:	01 00 00 00 	nop 
    51f4:	01 00 00 00 	nop 
    51f8:	01 00 00 00 	nop 
    51fc:	86 70 80 01 	udiv  %g2, %g1, %g3
    5200:	86 58 c0 01 	smul  %g3, %g1, %g3
    5204:	86 20 80 03 	sub  %g2, %g3, %g3
    5208:	80 a0 e0 00 	cmp  %g3, 0
    520c:	12 bf ff f7 	bne  51e8 <__ajit_serial_set_baudrate_via_bypass__+0x28>
    5210:	84 10 00 01 	mov  %g1, %g2
    5214:	81 80 20 00 	mov  %g0, %y
    5218:	01 00 00 00 	nop 
    521c:	01 00 00 00 	nop 
    5220:	01 00 00 00 	nop 
    5224:	84 72 00 01 	udiv  %o0, %g1, %g2
    5228:	81 80 20 00 	mov  %g0, %y
    522c:	01 00 00 00 	nop 
    5230:	01 00 00 00 	nop 
    5234:	01 00 00 00 	nop 
    5238:	86 72 40 01 	udiv  %o1, %g1, %g3
    523c:	03 3f ff cc 	sethi  %hi(0xffff3000), %g1
    5240:	86 20 c0 02 	sub  %g3, %g2, %g3
    5244:	88 10 62 0c 	or  %g1, 0x20c, %g4
    5248:	c6 a1 04 00 	sta  %g3, [ %g4 ] #ASI_SCRATCHPAD
    524c:	82 10 62 10 	or  %g1, 0x210, %g1
    5250:	c4 a0 44 00 	sta  %g2, [ %g1 ] #ASI_SCRATCHPAD
    5254:	81 c3 e0 08 	retl 
    5258:	01 00 00 00 	nop 
    525c:	84 10 20 00 	clr  %g2	! 0 <_start>
    5260:	86 10 20 00 	clr  %g3
    5264:	88 10 62 0c 	or  %g1, 0x20c, %g4
    5268:	c6 a1 04 00 	sta  %g3, [ %g4 ] #ASI_SCRATCHPAD
    526c:	82 10 62 10 	or  %g1, 0x210, %g1
    5270:	c4 a0 44 00 	sta  %g2, [ %g1 ] #ASI_SCRATCHPAD
    5274:	81 c3 e0 08 	retl 
    5278:	01 00 00 00 	nop 

0000527c <__ajit_serial_set_uart_reset_via_bypass__>:
    527c:	05 3f ff cc 	sethi  %hi(0xffff3000), %g2
    5280:	84 10 a2 00 	or  %g2, 0x200, %g2	! ffff3200 <main+0xfffed0e4>
    5284:	c4 80 84 00 	lda  [ %g2 ] #ASI_SCRATCHPAD, %g2
    5288:	80 a2 20 00 	cmp  %o0, 0
    528c:	12 80 00 03 	bne  5298 <__ajit_serial_set_uart_reset_via_bypass__+0x1c>
    5290:	82 10 a0 20 	or  %g2, 0x20, %g1
    5294:	82 08 bf df 	and  %g2, -33, %g1
    5298:	05 3f ff cc 	sethi  %hi(0xffff3000), %g2
    529c:	84 10 a2 00 	or  %g2, 0x200, %g2	! ffff3200 <main+0xfffed0e4>
    52a0:	c2 a0 84 00 	sta  %g1, [ %g2 ] #ASI_SCRATCHPAD
    52a4:	81 c3 e0 08 	retl 
    52a8:	01 00 00 00 	nop 

000052ac <__ajit_serial_putchar_via_bypass__>:
    52ac:	05 3f ff cc 	sethi  %hi(0xffff3000), %g2
    52b0:	82 10 a2 00 	or  %g2, 0x200, %g1	! ffff3200 <main+0xfffed0e4>
    52b4:	c2 80 44 00 	lda  [ %g1 ] #ASI_SCRATCHPAD, %g1
    52b8:	80 88 60 01 	btst  1, %g1
    52bc:	02 80 00 07 	be  52d8 <__ajit_serial_putchar_via_bypass__+0x2c>
    52c0:	86 10 20 00 	clr  %g3
    52c4:	80 88 60 08 	btst  8, %g1
    52c8:	12 80 00 04 	bne  52d8 <__ajit_serial_putchar_via_bypass__+0x2c>
    52cc:	84 10 a2 04 	or  %g2, 0x204, %g2
    52d0:	d0 a8 84 00 	stba  %o0, [ %g2 ] #ASI_SCRATCHPAD
    52d4:	86 10 20 01 	mov  1, %g3
    52d8:	81 c3 e0 08 	retl 
    52dc:	90 10 00 03 	mov  %g3, %o0

000052e0 <__ajit_serial_getchar_via_bypass__>:
    52e0:	05 3f ff cc 	sethi  %hi(0xffff3000), %g2
    52e4:	84 10 a2 00 	or  %g2, 0x200, %g2	! ffff3200 <main+0xfffed0e4>
    52e8:	c2 80 84 00 	lda  [ %g2 ] #ASI_SCRATCHPAD, %g1
    52ec:	82 08 60 12 	and  %g1, 0x12, %g1
    52f0:	80 a0 60 12 	cmp  %g1, 0x12
    52f4:	12 bf ff fd 	bne  52e8 <__ajit_serial_getchar_via_bypass__+0x8>
    52f8:	11 3f ff cc 	sethi  %hi(0xffff3000), %o0
    52fc:	90 12 22 08 	or  %o0, 0x208, %o0	! ffff3208 <main+0xfffed0ec>
    5300:	d0 8a 04 00 	lduba  [ %o0 ] #ASI_SCRATCHPAD, %o0
    5304:	91 2a 20 18 	sll  %o0, 0x18, %o0
    5308:	81 c3 e0 08 	retl 
    530c:	91 3a 20 18 	sra  %o0, 0x18, %o0

00005310 <__ajit_serial_puts_via_bypass__>:
    5310:	80 a2 60 00 	cmp  %o1, 0
    5314:	02 80 00 19 	be  5378 <__ajit_serial_puts_via_bypass__+0x68>
    5318:	01 00 00 00 	nop 
    531c:	c2 4a 00 00 	ldsb  [ %o0 ], %g1
    5320:	80 a0 60 00 	cmp  %g1, 0
    5324:	02 80 00 15 	be  5378 <__ajit_serial_puts_via_bypass__+0x68>
    5328:	c8 0a 00 00 	ldub  [ %o0 ], %g4
    532c:	1b 3f ff cc 	sethi  %hi(0xffff3000), %o5
    5330:	86 02 20 01 	add  %o0, 1, %g3
    5334:	84 13 62 00 	or  %o5, 0x200, %g2
    5338:	98 02 00 09 	add  %o0, %o1, %o4
    533c:	9a 13 62 04 	or  %o5, 0x204, %o5
    5340:	c2 80 84 00 	lda  [ %g2 ] #ASI_SCRATCHPAD, %g1
    5344:	80 88 60 01 	btst  1, %g1
    5348:	02 bf ff fe 	be  5340 <__ajit_serial_puts_via_bypass__+0x30>
    534c:	80 88 60 08 	btst  8, %g1
    5350:	12 bf ff fc 	bne  5340 <__ajit_serial_puts_via_bypass__+0x30>
    5354:	01 00 00 00 	nop 
    5358:	c8 ab 44 00 	stba  %g4, [ %o5 ] #ASI_SCRATCHPAD
    535c:	80 a0 c0 0c 	cmp  %g3, %o4
    5360:	02 80 00 06 	be  5378 <__ajit_serial_puts_via_bypass__+0x68>
    5364:	86 00 e0 01 	inc  %g3
    5368:	c2 48 ff ff 	ldsb  [ %g3 + -1 ], %g1
    536c:	80 a0 60 00 	cmp  %g1, 0
    5370:	12 bf ff f4 	bne  5340 <__ajit_serial_puts_via_bypass__+0x30>
    5374:	c8 08 ff ff 	ldub  [ %g3 + -1 ], %g4
    5378:	81 c3 e0 08 	retl 
    537c:	01 00 00 00 	nop 

00005380 <__ajit_serial_gets_via_bypass__>:
    5380:	1b 3f ff cc 	sethi  %hi(0xffff3000), %o5
    5384:	98 02 7f ff 	add  %o1, -1, %o4
    5388:	84 13 62 00 	or  %o5, 0x200, %g2
    538c:	88 10 20 00 	clr  %g4
    5390:	86 10 20 00 	clr  %g3
    5394:	80 a2 60 01 	cmp  %o1, 1
    5398:	02 80 00 11 	be  53dc <__ajit_serial_gets_via_bypass__+0x5c>
    539c:	9a 13 62 08 	or  %o5, 0x208, %o5
    53a0:	c2 80 84 00 	lda  [ %g2 ] #ASI_SCRATCHPAD, %g1
    53a4:	82 08 60 12 	and  %g1, 0x12, %g1
    53a8:	80 a0 60 12 	cmp  %g1, 0x12
    53ac:	12 bf ff fd 	bne  53a0 <__ajit_serial_gets_via_bypass__+0x20>
    53b0:	01 00 00 00 	nop 
    53b4:	c2 8b 44 00 	lduba  [ %o5 ] #ASI_SCRATCHPAD, %g1
    53b8:	c2 2a 00 03 	stb  %g1, [ %o0 + %g3 ]
    53bc:	83 28 60 18 	sll  %g1, 0x18, %g1
    53c0:	80 a0 60 00 	cmp  %g1, 0
    53c4:	22 80 00 07 	be,a   53e0 <__ajit_serial_gets_via_bypass__+0x60>
    53c8:	92 02 00 09 	add  %o0, %o1, %o1
    53cc:	88 01 20 01 	inc  %g4
    53d0:	80 a1 00 0c 	cmp  %g4, %o4
    53d4:	12 bf ff f3 	bne  53a0 <__ajit_serial_gets_via_bypass__+0x20>
    53d8:	86 10 00 04 	mov  %g4, %g3
    53dc:	92 02 00 09 	add  %o0, %o1, %o1
    53e0:	81 c3 e0 08 	retl 
    53e4:	c0 2a 7f ff 	clrb  [ %o1 + -1 ]

000053e8 <__ajit_write_serial_control_register_via_vmap__>:
    53e8:	03 3f ff cc 	sethi  %hi(0xffff3000), %g1
    53ec:	82 10 62 00 	or  %g1, 0x200, %g1	! ffff3200 <main+0xfffed0e4>
    53f0:	81 c3 e0 08 	retl 
    53f4:	d0 20 40 00 	st  %o0, [ %g1 ]

000053f8 <__ajit_read_serial_control_register_via_vmap__>:
    53f8:	03 3f ff cc 	sethi  %hi(0xffff3000), %g1
    53fc:	82 10 62 00 	or  %g1, 0x200, %g1	! ffff3200 <main+0xfffed0e4>
    5400:	81 c3 e0 08 	retl 
    5404:	d0 08 40 00 	ldub  [ %g1 ], %o0

00005408 <__ajit_write_serial_tx_register_via_vmap__>:
    5408:	03 3f ff cc 	sethi  %hi(0xffff3000), %g1
    540c:	82 10 62 04 	or  %g1, 0x204, %g1	! ffff3204 <main+0xfffed0e8>
    5410:	81 c3 e0 08 	retl 
    5414:	d0 28 40 00 	stb  %o0, [ %g1 ]

00005418 <__ajit_read_serial_tx_register_via_vmap__>:
    5418:	03 3f ff cc 	sethi  %hi(0xffff3000), %g1
    541c:	82 10 62 04 	or  %g1, 0x204, %g1	! ffff3204 <main+0xfffed0e8>
    5420:	81 c3 e0 08 	retl 
    5424:	d0 08 40 00 	ldub  [ %g1 ], %o0

00005428 <__ajit_read_serial_rx_register_via_vmap__>:
    5428:	03 3f ff cc 	sethi  %hi(0xffff3000), %g1
    542c:	82 10 62 08 	or  %g1, 0x208, %g1	! ffff3208 <main+0xfffed0ec>
    5430:	81 c3 e0 08 	retl 
    5434:	d0 08 40 00 	ldub  [ %g1 ], %o0

00005438 <__ajit_serial_putchar_via_vmap__>:
    5438:	05 3f ff cc 	sethi  %hi(0xffff3000), %g2
    543c:	82 10 a2 00 	or  %g2, 0x200, %g1	! ffff3200 <main+0xfffed0e4>
    5440:	c2 00 40 00 	ld  [ %g1 ], %g1
    5444:	80 88 60 01 	btst  1, %g1
    5448:	02 80 00 07 	be  5464 <__ajit_serial_putchar_via_vmap__+0x2c>
    544c:	86 10 20 00 	clr  %g3
    5450:	80 88 60 08 	btst  8, %g1
    5454:	12 80 00 04 	bne  5464 <__ajit_serial_putchar_via_vmap__+0x2c>
    5458:	84 10 a2 04 	or  %g2, 0x204, %g2
    545c:	86 10 20 01 	mov  1, %g3
    5460:	d0 28 80 00 	stb  %o0, [ %g2 ]
    5464:	81 c3 e0 08 	retl 
    5468:	90 10 00 03 	mov  %g3, %o0

0000546c <__ajit_serial_getchar_via_vmap__>:
    546c:	03 3f ff cc 	sethi  %hi(0xffff3000), %g1
    5470:	84 10 62 00 	or  %g1, 0x200, %g2	! ffff3200 <main+0xfffed0e4>
    5474:	c4 00 80 00 	ld  [ %g2 ], %g2
    5478:	84 08 a0 12 	and  %g2, 0x12, %g2
    547c:	80 a0 a0 12 	cmp  %g2, 0x12
    5480:	12 80 00 04 	bne  5490 <__ajit_serial_getchar_via_vmap__+0x24>
    5484:	82 10 62 08 	or  %g1, 0x208, %g1
    5488:	81 c3 e0 08 	retl 
    548c:	d0 48 40 00 	ldsb  [ %g1 ], %o0
    5490:	30 80 00 00 	b,a   5490 <__ajit_serial_getchar_via_vmap__+0x24>

00005494 <__ajit_serial_puts_via_vmap__>:
    5494:	80 a2 60 00 	cmp  %o1, 0
    5498:	02 80 00 1d 	be  550c <__ajit_serial_puts_via_vmap__+0x78>
    549c:	01 00 00 00 	nop 
    54a0:	c2 4a 00 00 	ldsb  [ %o0 ], %g1
    54a4:	80 a0 60 00 	cmp  %g1, 0
    54a8:	02 80 00 19 	be  550c <__ajit_serial_puts_via_vmap__+0x78>
    54ac:	c4 0a 00 00 	ldub  [ %o0 ], %g2
    54b0:	07 3f ff cc 	sethi  %hi(0xffff3000), %g3
    54b4:	82 02 20 01 	add  %o0, 1, %g1
    54b8:	9a 10 e2 00 	or  %g3, 0x200, %o5
    54bc:	88 02 00 09 	add  %o0, %o1, %g4
    54c0:	d6 03 40 00 	ld  [ %o5 ], %o3
    54c4:	86 10 e2 04 	or  %g3, 0x204, %g3
    54c8:	98 0a e0 01 	and  %o3, 1, %o4
    54cc:	10 80 00 0b 	b  54f8 <__ajit_serial_puts_via_vmap__+0x64>
    54d0:	96 0a e0 08 	and  %o3, 8, %o3
    54d4:	12 80 00 0d 	bne  5508 <__ajit_serial_puts_via_vmap__+0x74>
    54d8:	80 a0 40 04 	cmp  %g1, %g4
    54dc:	02 80 00 0c 	be  550c <__ajit_serial_puts_via_vmap__+0x78>
    54e0:	c4 28 c0 00 	stb  %g2, [ %g3 ]
    54e4:	82 00 60 01 	inc  %g1
    54e8:	da 48 7f ff 	ldsb  [ %g1 + -1 ], %o5
    54ec:	80 a3 60 00 	cmp  %o5, 0
    54f0:	02 80 00 07 	be  550c <__ajit_serial_puts_via_vmap__+0x78>
    54f4:	c4 08 7f ff 	ldub  [ %g1 + -1 ], %g2
    54f8:	80 a3 20 00 	cmp  %o4, 0
    54fc:	12 bf ff f6 	bne  54d4 <__ajit_serial_puts_via_vmap__+0x40>
    5500:	80 a2 e0 00 	cmp  %o3, 0
    5504:	30 80 00 00 	b,a   5504 <__ajit_serial_puts_via_vmap__+0x70>
    5508:	30 80 00 00 	b,a   5508 <__ajit_serial_puts_via_vmap__+0x74>
    550c:	81 c3 e0 08 	retl 
    5510:	01 00 00 00 	nop 

00005514 <__ajit_serial_gets_via_vmap__>:
    5514:	09 3f ff cc 	sethi  %hi(0xffff3000), %g4
    5518:	98 02 7f ff 	add  %o1, -1, %o4
    551c:	9a 11 22 00 	or  %g4, 0x200, %o5
    5520:	86 10 20 00 	clr  %g3
    5524:	84 10 20 00 	clr  %g2
    5528:	80 a2 60 01 	cmp  %o1, 1
    552c:	12 80 00 0c 	bne  555c <__ajit_serial_gets_via_vmap__+0x48>
    5530:	88 11 22 08 	or  %g4, 0x208, %g4
    5534:	10 80 00 11 	b  5578 <__ajit_serial_gets_via_vmap__+0x64>
    5538:	92 02 00 09 	add  %o0, %o1, %o1
    553c:	c2 2a 00 02 	stb  %g1, [ %o0 + %g2 ]
    5540:	83 28 60 18 	sll  %g1, 0x18, %g1
    5544:	80 a0 60 00 	cmp  %g1, 0
    5548:	02 80 00 0b 	be  5574 <__ajit_serial_gets_via_vmap__+0x60>
    554c:	86 00 e0 01 	inc  %g3
    5550:	80 a0 c0 0c 	cmp  %g3, %o4
    5554:	02 80 00 08 	be  5574 <__ajit_serial_gets_via_vmap__+0x60>
    5558:	84 10 00 03 	mov  %g3, %g2
    555c:	c2 03 40 00 	ld  [ %o5 ], %g1
    5560:	82 08 60 12 	and  %g1, 0x12, %g1
    5564:	80 a0 60 12 	cmp  %g1, 0x12
    5568:	22 bf ff f5 	be,a   553c <__ajit_serial_gets_via_vmap__+0x28>
    556c:	c2 09 00 00 	ldub  [ %g4 ], %g1
    5570:	30 80 00 00 	b,a   5570 <__ajit_serial_gets_via_vmap__+0x5c>
    5574:	92 02 00 09 	add  %o0, %o1, %o1
    5578:	81 c3 e0 08 	retl 
    557c:	c0 2a 7f ff 	clrb  [ %o1 + -1 ]

00005580 <__ajit_serial_configure_via_vmap__>:
    5580:	03 3f ff cc 	sethi  %hi(0xffff3000), %g1
    5584:	80 a2 20 00 	cmp  %o0, 0
    5588:	82 10 62 00 	or  %g1, 0x200, %g1
    558c:	c2 00 40 00 	ld  [ %g1 ], %g1
    5590:	02 80 00 03 	be  559c <__ajit_serial_configure_via_vmap__+0x1c>
    5594:	84 08 7f fe 	and  %g1, -2, %g2
    5598:	84 10 60 01 	or  %g1, 1, %g2
    559c:	80 a2 60 00 	cmp  %o1, 0
    55a0:	02 80 00 03 	be  55ac <__ajit_serial_configure_via_vmap__+0x2c>
    55a4:	82 08 bf fd 	and  %g2, -3, %g1
    55a8:	82 10 a0 02 	or  %g2, 2, %g1
    55ac:	80 a2 a0 00 	cmp  %o2, 0
    55b0:	02 80 00 03 	be  55bc <__ajit_serial_configure_via_vmap__+0x3c>
    55b4:	84 08 7f fb 	and  %g1, -5, %g2
    55b8:	84 10 60 04 	or  %g1, 4, %g2
    55bc:	03 3f ff cc 	sethi  %hi(0xffff3000), %g1
    55c0:	82 10 62 00 	or  %g1, 0x200, %g1	! ffff3200 <main+0xfffed0e4>
    55c4:	81 c3 e0 08 	retl 
    55c8:	c4 20 40 00 	st  %g2, [ %g1 ]

000055cc <__ajit_serial_set_uart_reset_via_vmap__>:
    55cc:	03 3f ff cc 	sethi  %hi(0xffff3000), %g1
    55d0:	82 10 62 00 	or  %g1, 0x200, %g1	! ffff3200 <main+0xfffed0e4>
    55d4:	80 a2 20 00 	cmp  %o0, 0
    55d8:	c4 00 40 00 	ld  [ %g1 ], %g2
    55dc:	12 80 00 03 	bne  55e8 <__ajit_serial_set_uart_reset_via_vmap__+0x1c>
    55e0:	82 10 a0 20 	or  %g2, 0x20, %g1
    55e4:	82 08 bf df 	and  %g2, -33, %g1
    55e8:	05 3f ff cc 	sethi  %hi(0xffff3000), %g2
    55ec:	84 10 a2 00 	or  %g2, 0x200, %g2	! ffff3200 <main+0xfffed0e4>
    55f0:	81 c3 e0 08 	retl 
    55f4:	c2 20 80 00 	st  %g1, [ %g2 ]

000055f8 <__ajit_serial_set_baudrate_via_vmap__>:
    55f8:	91 2a 20 04 	sll  %o0, 4, %o0
    55fc:	80 a2 00 09 	cmp  %o0, %o1
    5600:	1a 80 00 24 	bcc  5690 <__ajit_serial_set_baudrate_via_vmap__+0x98>
    5604:	03 3f ff cc 	sethi  %hi(0xffff3000), %g1
    5608:	80 a2 20 00 	cmp  %o0, 0
    560c:	02 80 00 22 	be  5694 <__ajit_serial_set_baudrate_via_vmap__+0x9c>
    5610:	88 10 20 00 	clr  %g4
    5614:	84 10 00 09 	mov  %o1, %g2
    5618:	10 80 00 03 	b  5624 <__ajit_serial_set_baudrate_via_vmap__+0x2c>
    561c:	82 10 00 08 	mov  %o0, %g1
    5620:	82 10 00 03 	mov  %g3, %g1
    5624:	81 80 20 00 	mov  %g0, %y
    5628:	01 00 00 00 	nop 
    562c:	01 00 00 00 	nop 
    5630:	01 00 00 00 	nop 
    5634:	86 70 80 01 	udiv  %g2, %g1, %g3
    5638:	86 58 c0 01 	smul  %g3, %g1, %g3
    563c:	86 20 80 03 	sub  %g2, %g3, %g3
    5640:	80 a0 e0 00 	cmp  %g3, 0
    5644:	12 bf ff f7 	bne  5620 <__ajit_serial_set_baudrate_via_vmap__+0x28>
    5648:	84 10 00 01 	mov  %g1, %g2
    564c:	81 80 20 00 	mov  %g0, %y
    5650:	01 00 00 00 	nop 
    5654:	01 00 00 00 	nop 
    5658:	01 00 00 00 	nop 
    565c:	84 72 00 01 	udiv  %o0, %g1, %g2
    5660:	81 80 20 00 	mov  %g0, %y
    5664:	01 00 00 00 	nop 
    5668:	01 00 00 00 	nop 
    566c:	01 00 00 00 	nop 
    5670:	88 72 40 01 	udiv  %o1, %g1, %g4
    5674:	03 3f ff cc 	sethi  %hi(0xffff3000), %g1
    5678:	88 21 00 02 	sub  %g4, %g2, %g4
    567c:	86 10 62 0c 	or  %g1, 0x20c, %g3
    5680:	c8 20 c0 00 	st  %g4, [ %g3 ]
    5684:	82 10 62 10 	or  %g1, 0x210, %g1
    5688:	81 c3 e0 08 	retl 
    568c:	c4 20 40 00 	st  %g2, [ %g1 ]
    5690:	88 10 20 00 	clr  %g4
    5694:	86 10 62 0c 	or  %g1, 0x20c, %g3
    5698:	c8 20 c0 00 	st  %g4, [ %g3 ]
    569c:	84 10 20 00 	clr  %g2
    56a0:	82 10 62 10 	or  %g1, 0x210, %g1
    56a4:	81 c3 e0 08 	retl 
    56a8:	c4 20 40 00 	st  %g2, [ %g1 ]

000056ac <__ajit_read_serial_baud_limit_register_via_vmap__>:
    56ac:	03 3f ff cc 	sethi  %hi(0xffff3000), %g1
    56b0:	82 10 62 0c 	or  %g1, 0x20c, %g1	! ffff320c <main+0xfffed0f0>
    56b4:	81 c3 e0 08 	retl 
    56b8:	d0 00 40 00 	ld  [ %g1 ], %o0

000056bc <__ajit_write_serial_baud_limit_register_via_vmap__>:
    56bc:	03 3f ff cc 	sethi  %hi(0xffff3000), %g1
    56c0:	82 10 62 0c 	or  %g1, 0x20c, %g1	! ffff320c <main+0xfffed0f0>
    56c4:	81 c3 e0 08 	retl 
    56c8:	d0 20 40 00 	st  %o0, [ %g1 ]

000056cc <__ajit_read_serial_baud_frequency_register_via_vmap__>:
    56cc:	03 3f ff cc 	sethi  %hi(0xffff3000), %g1
    56d0:	82 10 62 10 	or  %g1, 0x210, %g1	! ffff3210 <main+0xfffed0f4>
    56d4:	81 c3 e0 08 	retl 
    56d8:	d0 00 40 00 	ld  [ %g1 ], %o0

000056dc <__ajit_write_serial_baud_frequency_register_via_vmap__>:
    56dc:	03 3f ff cc 	sethi  %hi(0xffff3000), %g1
    56e0:	82 10 62 10 	or  %g1, 0x210, %g1	! ffff3210 <main+0xfffed0f4>
    56e4:	81 c3 e0 08 	retl 
    56e8:	d0 20 40 00 	st  %o0, [ %g1 ]

000056ec <calculate_baud_control_values_for_uart>:
    56ec:	91 2a 20 04 	sll  %o0, 4, %o0
    56f0:	80 a2 00 09 	cmp  %o0, %o1
    56f4:	1a 80 00 05 	bcc  5708 <calculate_baud_control_values_for_uart+0x1c>
    56f8:	c0 22 80 00 	clr  [ %o2 ]
    56fc:	82 92 20 00 	orcc  %o0, 0, %g1
    5700:	12 80 00 05 	bne  5714 <calculate_baud_control_values_for_uart+0x28>
    5704:	84 10 00 09 	mov  %o1, %g2
    5708:	81 c3 e0 08 	retl 
    570c:	c0 22 c0 00 	clr  [ %o3 ]
    5710:	82 10 00 03 	mov  %g3, %g1
    5714:	81 80 20 00 	mov  %g0, %y
    5718:	01 00 00 00 	nop 
    571c:	01 00 00 00 	nop 
    5720:	01 00 00 00 	nop 
    5724:	86 70 80 01 	udiv  %g2, %g1, %g3
    5728:	86 58 c0 01 	smul  %g3, %g1, %g3
    572c:	86 20 80 03 	sub  %g2, %g3, %g3
    5730:	80 a0 e0 00 	cmp  %g3, 0
    5734:	12 bf ff f7 	bne  5710 <calculate_baud_control_values_for_uart+0x24>
    5738:	84 10 00 01 	mov  %g1, %g2
    573c:	81 80 20 00 	mov  %g0, %y
    5740:	01 00 00 00 	nop 
    5744:	01 00 00 00 	nop 
    5748:	01 00 00 00 	nop 
    574c:	84 72 00 01 	udiv  %o0, %g1, %g2
    5750:	c4 22 c0 00 	st  %g2, [ %o3 ]
    5754:	81 80 20 00 	mov  %g0, %y
    5758:	01 00 00 00 	nop 
    575c:	01 00 00 00 	nop 
    5760:	01 00 00 00 	nop 
    5764:	86 72 40 01 	udiv  %o1, %g1, %g3
    5768:	84 20 c0 02 	sub  %g3, %g2, %g2
    576c:	81 c3 e0 08 	retl 
    5770:	c4 22 80 00 	st  %g2, [ %o2 ]

00005774 <__ajit_serial_configure_inner__>:
    5774:	05 3f ff cc 	sethi  %hi(0xffff3000), %g2
    5778:	80 a2 60 00 	cmp  %o1, 0
    577c:	12 80 00 03 	bne  5788 <__ajit_serial_configure_inner__+0x14>
    5780:	82 10 a2 40 	or  %g2, 0x240, %g1
    5784:	82 10 a2 00 	or  %g2, 0x200, %g1
    5788:	80 a2 20 00 	cmp  %o0, 0
    578c:	02 80 00 15 	be  57e0 <__ajit_serial_configure_inner__+0x6c>
    5790:	01 00 00 00 	nop 
    5794:	c4 00 40 00 	ld  [ %g1 ], %g2
    5798:	80 a2 a0 00 	cmp  %o2, 0
    579c:	02 80 00 03 	be  57a8 <__ajit_serial_configure_inner__+0x34>
    57a0:	86 08 bf fe 	and  %g2, -2, %g3
    57a4:	86 10 a0 01 	or  %g2, 1, %g3
    57a8:	80 a2 e0 00 	cmp  %o3, 0
    57ac:	02 80 00 03 	be  57b8 <__ajit_serial_configure_inner__+0x44>
    57b0:	84 08 ff fd 	and  %g3, -3, %g2
    57b4:	84 10 e0 02 	or  %g3, 2, %g2
    57b8:	80 a3 20 00 	cmp  %o4, 0
    57bc:	02 80 00 03 	be  57c8 <__ajit_serial_configure_inner__+0x54>
    57c0:	86 08 bf fb 	and  %g2, -5, %g3
    57c4:	86 10 a0 04 	or  %g2, 4, %g3
    57c8:	80 a2 20 00 	cmp  %o0, 0
    57cc:	12 80 00 08 	bne  57ec <__ajit_serial_configure_inner__+0x78>
    57d0:	01 00 00 00 	nop 
    57d4:	c6 a0 44 00 	sta  %g3, [ %g1 ] #ASI_SCRATCHPAD
    57d8:	81 c3 e0 08 	retl 
    57dc:	01 00 00 00 	nop 
    57e0:	c4 80 44 00 	lda  [ %g1 ] #ASI_SCRATCHPAD, %g2
    57e4:	10 bf ff ee 	b  579c <__ajit_serial_configure_inner__+0x28>
    57e8:	80 a2 a0 00 	cmp  %o2, 0
    57ec:	81 c3 e0 08 	retl 
    57f0:	c6 20 40 00 	st  %g3, [ %g1 ]

000057f4 <__ajit_serial_set_baudrate_inner__>:
    57f4:	95 2a a0 04 	sll  %o2, 4, %o2
    57f8:	80 a2 80 0b 	cmp  %o2, %o3
    57fc:	1a 80 00 06 	bcc  5814 <__ajit_serial_set_baudrate_inner__+0x20>
    5800:	84 10 20 00 	clr  %g2
    5804:	80 a2 a0 00 	cmp  %o2, 0
    5808:	12 80 00 0f 	bne  5844 <__ajit_serial_set_baudrate_inner__+0x50>
    580c:	84 10 00 0b 	mov  %o3, %g2
    5810:	84 10 20 00 	clr  %g2
    5814:	86 10 20 00 	clr  %g3
    5818:	80 a2 60 00 	cmp  %o1, 0
    581c:	02 80 00 25 	be  58b0 <__ajit_serial_set_baudrate_inner__+0xbc>
    5820:	09 3f ff cc 	sethi  %hi(0xffff3000), %g4
    5824:	82 11 22 50 	or  %g4, 0x250, %g1	! ffff3250 <main+0xfffed134>
    5828:	80 a2 20 00 	cmp  %o0, 0
    582c:	12 80 00 25 	bne  58c0 <__ajit_serial_set_baudrate_inner__+0xcc>
    5830:	88 11 22 4c 	or  %g4, 0x24c, %g4
    5834:	c6 a1 04 00 	sta  %g3, [ %g4 ] #ASI_SCRATCHPAD
    5838:	c4 a0 44 00 	sta  %g2, [ %g1 ] #ASI_SCRATCHPAD
    583c:	81 c3 e0 08 	retl 
    5840:	01 00 00 00 	nop 
    5844:	10 80 00 03 	b  5850 <__ajit_serial_set_baudrate_inner__+0x5c>
    5848:	82 10 00 0a 	mov  %o2, %g1
    584c:	82 10 00 03 	mov  %g3, %g1
    5850:	81 80 20 00 	mov  %g0, %y
    5854:	01 00 00 00 	nop 
    5858:	01 00 00 00 	nop 
    585c:	01 00 00 00 	nop 
    5860:	86 70 80 01 	udiv  %g2, %g1, %g3
    5864:	86 58 c0 01 	smul  %g3, %g1, %g3
    5868:	86 20 80 03 	sub  %g2, %g3, %g3
    586c:	80 a0 e0 00 	cmp  %g3, 0
    5870:	12 bf ff f7 	bne  584c <__ajit_serial_set_baudrate_inner__+0x58>
    5874:	84 10 00 01 	mov  %g1, %g2
    5878:	81 80 20 00 	mov  %g0, %y
    587c:	01 00 00 00 	nop 
    5880:	01 00 00 00 	nop 
    5884:	01 00 00 00 	nop 
    5888:	84 72 80 01 	udiv  %o2, %g1, %g2
    588c:	81 80 20 00 	mov  %g0, %y
    5890:	01 00 00 00 	nop 
    5894:	01 00 00 00 	nop 
    5898:	01 00 00 00 	nop 
    589c:	86 72 c0 01 	udiv  %o3, %g1, %g3
    58a0:	09 3f ff cc 	sethi  %hi(0xffff3000), %g4
    58a4:	80 a2 60 00 	cmp  %o1, 0
    58a8:	12 bf ff df 	bne  5824 <__ajit_serial_set_baudrate_inner__+0x30>
    58ac:	86 20 c0 02 	sub  %g3, %g2, %g3
    58b0:	82 11 22 10 	or  %g4, 0x210, %g1
    58b4:	80 a2 20 00 	cmp  %o0, 0
    58b8:	02 bf ff df 	be  5834 <__ajit_serial_set_baudrate_inner__+0x40>
    58bc:	88 11 22 0c 	or  %g4, 0x20c, %g4
    58c0:	c6 21 00 00 	st  %g3, [ %g4 ]
    58c4:	81 c3 e0 08 	retl 
    58c8:	c4 20 40 00 	st  %g2, [ %g1 ]

000058cc <__ajit_serial_putchar_inner__>:
    58cc:	84 10 00 08 	mov  %o0, %g2
    58d0:	80 a2 60 00 	cmp  %o1, 0
    58d4:	02 80 00 17 	be  5930 <__ajit_serial_putchar_inner__+0x64>
    58d8:	03 3f ff cc 	sethi  %hi(0xffff3000), %g1
    58dc:	86 10 62 44 	or  %g1, 0x244, %g3	! ffff3244 <main+0xfffed128>
    58e0:	82 10 62 40 	or  %g1, 0x240, %g1
    58e4:	80 a0 a0 00 	cmp  %g2, 0
    58e8:	02 80 00 0f 	be  5924 <__ajit_serial_putchar_inner__+0x58>
    58ec:	01 00 00 00 	nop 
    58f0:	c2 00 40 00 	ld  [ %g1 ], %g1
    58f4:	80 88 60 01 	btst  1, %g1
    58f8:	02 80 00 09 	be  591c <__ajit_serial_putchar_inner__+0x50>
    58fc:	90 10 20 00 	clr  %o0
    5900:	80 88 60 08 	btst  8, %g1
    5904:	12 80 00 06 	bne  591c <__ajit_serial_putchar_inner__+0x50>
    5908:	80 a0 a0 00 	cmp  %g2, 0
    590c:	32 80 00 0c 	bne,a   593c <__ajit_serial_putchar_inner__+0x70>
    5910:	d4 28 c0 00 	stb  %o2, [ %g3 ]
    5914:	d4 a8 c4 00 	stba  %o2, [ %g3 ] #ASI_SCRATCHPAD
    5918:	90 10 20 01 	mov  1, %o0
    591c:	81 c3 e0 08 	retl 
    5920:	01 00 00 00 	nop 
    5924:	c2 80 44 00 	lda  [ %g1 ] #ASI_SCRATCHPAD, %g1
    5928:	10 bf ff f4 	b  58f8 <__ajit_serial_putchar_inner__+0x2c>
    592c:	80 88 60 01 	btst  1, %g1
    5930:	86 10 62 04 	or  %g1, 0x204, %g3
    5934:	10 bf ff ec 	b  58e4 <__ajit_serial_putchar_inner__+0x18>
    5938:	82 10 62 00 	or  %g1, 0x200, %g1
    593c:	81 c3 e0 08 	retl 
    5940:	90 10 20 01 	mov  1, %o0

00005944 <__ajit_serial_getchar_inner__>:
    5944:	80 a2 60 00 	cmp  %o1, 0
    5948:	02 80 00 0f 	be  5984 <__ajit_serial_getchar_inner__+0x40>
    594c:	03 3f ff cc 	sethi  %hi(0xffff3000), %g1
    5950:	84 10 62 48 	or  %g1, 0x248, %g2	! ffff3248 <main+0xfffed12c>
    5954:	80 a2 20 00 	cmp  %o0, 0
    5958:	02 80 00 0f 	be  5994 <__ajit_serial_getchar_inner__+0x50>
    595c:	82 10 62 40 	or  %g1, 0x240, %g1
    5960:	c2 00 40 00 	ld  [ %g1 ], %g1
    5964:	82 08 60 12 	and  %g1, 0x12, %g1
    5968:	80 a0 60 12 	cmp  %g1, 0x12
    596c:	12 80 00 13 	bne  59b8 <__ajit_serial_getchar_inner__+0x74>
    5970:	01 00 00 00 	nop 
    5974:	c2 08 80 00 	ldub  [ %g2 ], %g1
    5978:	90 10 20 01 	mov  1, %o0
    597c:	81 c3 e0 08 	retl 
    5980:	c2 2a 80 00 	stb  %g1, [ %o2 ]
    5984:	84 10 62 08 	or  %g1, 0x208, %g2
    5988:	80 a2 20 00 	cmp  %o0, 0
    598c:	12 bf ff f5 	bne  5960 <__ajit_serial_getchar_inner__+0x1c>
    5990:	82 10 62 00 	or  %g1, 0x200, %g1
    5994:	c2 80 44 00 	lda  [ %g1 ] #ASI_SCRATCHPAD, %g1
    5998:	82 08 60 12 	and  %g1, 0x12, %g1
    599c:	80 a0 60 12 	cmp  %g1, 0x12
    59a0:	12 80 00 06 	bne  59b8 <__ajit_serial_getchar_inner__+0x74>
    59a4:	01 00 00 00 	nop 
    59a8:	c4 88 84 00 	lduba  [ %g2 ] #ASI_SCRATCHPAD, %g2
    59ac:	90 10 20 01 	mov  1, %o0
    59b0:	81 c3 e0 08 	retl 
    59b4:	c4 2a 80 00 	stb  %g2, [ %o2 ]
    59b8:	81 c3 e0 08 	retl 
    59bc:	90 10 20 00 	clr  %o0

000059c0 <__ajit_serial_puts_inner__>:
    59c0:	9d e3 bf a0 	save  %sp, -96, %sp
    59c4:	80 a6 e0 00 	cmp  %i3, 0
    59c8:	02 80 00 31 	be  5a8c <__ajit_serial_puts_inner__+0xcc>
    59cc:	01 00 00 00 	nop 
    59d0:	c2 4e 80 00 	ldsb  [ %i2 ], %g1
    59d4:	80 a0 60 00 	cmp  %g1, 0
    59d8:	02 80 00 1d 	be  5a4c <__ajit_serial_puts_inner__+0x8c>
    59dc:	c6 0e 80 00 	ldub  [ %i2 ], %g3
    59e0:	3b 3f ff cc 	sethi  %hi(0xffff3000), %i5
    59e4:	82 06 a0 01 	add  %i2, 1, %g1
    59e8:	9a 17 62 44 	or  %i5, 0x244, %o5
    59ec:	9e 17 62 04 	or  %i5, 0x204, %o7
    59f0:	88 06 80 1b 	add  %i2, %i3, %g4
    59f4:	b8 17 62 40 	or  %i5, 0x240, %i4
    59f8:	98 10 00 0d 	mov  %o5, %o4
    59fc:	ba 17 62 00 	or  %i5, 0x200, %i5
    5a00:	b4 10 00 0f 	mov  %o7, %i2
    5a04:	80 a6 60 00 	cmp  %i1, 0
    5a08:	12 80 00 24 	bne  5a98 <__ajit_serial_puts_inner__+0xd8>
    5a0c:	80 a6 20 00 	cmp  %i0, 0
    5a10:	02 80 00 11 	be  5a54 <__ajit_serial_puts_inner__+0x94>
    5a14:	01 00 00 00 	nop 
    5a18:	c4 07 40 00 	ld  [ %i5 ], %g2
    5a1c:	b6 08 a0 01 	and  %g2, 1, %i3
    5a20:	84 08 a0 08 	and  %g2, 8, %g2
    5a24:	80 a6 e0 00 	cmp  %i3, 0
    5a28:	02 80 00 1b 	be  5a94 <__ajit_serial_puts_inner__+0xd4>
    5a2c:	80 a0 a0 00 	cmp  %g2, 0
    5a30:	12 bf ff fe 	bne  5a28 <__ajit_serial_puts_inner__+0x68>
    5a34:	80 a6 e0 00 	cmp  %i3, 0
    5a38:	84 10 00 1a 	mov  %i2, %g2
    5a3c:	c6 2e 80 00 	stb  %g3, [ %i2 ]
    5a40:	80 a0 40 04 	cmp  %g1, %g4
    5a44:	12 80 00 0e 	bne  5a7c <__ajit_serial_puts_inner__+0xbc>
    5a48:	82 00 60 01 	inc  %g1
    5a4c:	81 c7 e0 08 	ret 
    5a50:	81 e8 00 00 	restore 
    5a54:	c4 87 44 00 	lda  [ %i5 ] #ASI_SCRATCHPAD, %g2
    5a58:	80 88 a0 01 	btst  1, %g2
    5a5c:	02 bf ff fe 	be  5a54 <__ajit_serial_puts_inner__+0x94>
    5a60:	80 88 a0 08 	btst  8, %g2
    5a64:	12 bf ff fc 	bne  5a54 <__ajit_serial_puts_inner__+0x94>
    5a68:	84 10 00 0f 	mov  %o7, %g2
    5a6c:	c6 a8 84 00 	stba  %g3, [ %g2 ] #ASI_SCRATCHPAD
    5a70:	80 a0 40 04 	cmp  %g1, %g4
    5a74:	02 bf ff f6 	be  5a4c <__ajit_serial_puts_inner__+0x8c>
    5a78:	82 00 60 01 	inc  %g1
    5a7c:	c4 48 7f ff 	ldsb  [ %g1 + -1 ], %g2
    5a80:	80 a0 a0 00 	cmp  %g2, 0
    5a84:	12 bf ff e0 	bne  5a04 <__ajit_serial_puts_inner__+0x44>
    5a88:	c6 08 7f ff 	ldub  [ %g1 + -1 ], %g3
    5a8c:	81 c7 e0 08 	ret 
    5a90:	81 e8 00 00 	restore 
    5a94:	30 80 00 00 	b,a   5a94 <__ajit_serial_puts_inner__+0xd4>
    5a98:	02 80 00 0d 	be  5acc <__ajit_serial_puts_inner__+0x10c>
    5a9c:	01 00 00 00 	nop 
    5aa0:	c4 07 00 00 	ld  [ %i4 ], %g2
    5aa4:	b6 08 a0 01 	and  %g2, 1, %i3
    5aa8:	84 08 a0 08 	and  %g2, 8, %g2
    5aac:	80 a6 e0 00 	cmp  %i3, 0
    5ab0:	02 80 00 0e 	be  5ae8 <__ajit_serial_puts_inner__+0x128>
    5ab4:	80 a0 a0 00 	cmp  %g2, 0
    5ab8:	12 bf ff fe 	bne  5ab0 <__ajit_serial_puts_inner__+0xf0>
    5abc:	80 a6 e0 00 	cmp  %i3, 0
    5ac0:	84 10 00 0c 	mov  %o4, %g2
    5ac4:	10 bf ff df 	b  5a40 <__ajit_serial_puts_inner__+0x80>
    5ac8:	c6 28 80 00 	stb  %g3, [ %g2 ]
    5acc:	c4 87 04 00 	lda  [ %i4 ] #ASI_SCRATCHPAD, %g2
    5ad0:	80 88 a0 01 	btst  1, %g2
    5ad4:	02 bf ff fe 	be  5acc <__ajit_serial_puts_inner__+0x10c>
    5ad8:	80 88 a0 08 	btst  8, %g2
    5adc:	12 bf ff fc 	bne  5acc <__ajit_serial_puts_inner__+0x10c>
    5ae0:	84 10 00 0d 	mov  %o5, %g2
    5ae4:	30 bf ff e2 	b,a   5a6c <__ajit_serial_puts_inner__+0xac>
    5ae8:	30 80 00 00 	b,a   5ae8 <__ajit_serial_puts_inner__+0x128>

00005aec <__ajit_serial_gets_inner__>:
    5aec:	9d e3 bf a0 	save  %sp, -96, %sp
    5af0:	84 10 20 00 	clr  %g2
    5af4:	9a 06 ff ff 	add  %i3, -1, %o5
    5af8:	80 a6 e0 01 	cmp  %i3, 1
    5afc:	02 80 00 19 	be  5b60 <__ajit_serial_gets_inner__+0x74>
    5b00:	86 10 20 00 	clr  %g3
    5b04:	09 3f ff cc 	sethi  %hi(0xffff3000), %g4
    5b08:	80 a6 60 00 	cmp  %i1, 0
    5b0c:	9e 11 22 08 	or  %g4, 0x208, %o7
    5b10:	b8 11 22 48 	or  %g4, 0x248, %i4
    5b14:	ba 11 22 00 	or  %g4, 0x200, %i5
    5b18:	96 10 00 0f 	mov  %o7, %o3
    5b1c:	88 11 22 40 	or  %g4, 0x240, %g4
    5b20:	12 80 00 26 	bne  5bb8 <__ajit_serial_gets_inner__+0xcc>
    5b24:	98 10 00 1c 	mov  %i4, %o4
    5b28:	80 a6 20 00 	cmp  %i0, 0
    5b2c:	02 80 00 11 	be  5b70 <__ajit_serial_gets_inner__+0x84>
    5b30:	01 00 00 00 	nop 
    5b34:	c2 07 40 00 	ld  [ %i5 ], %g1
    5b38:	82 08 60 12 	and  %g1, 0x12, %g1
    5b3c:	80 a0 60 12 	cmp  %g1, 0x12
    5b40:	12 80 00 2e 	bne  5bf8 <__ajit_serial_gets_inner__+0x10c>
    5b44:	82 10 00 0b 	mov  %o3, %g1
    5b48:	c2 08 40 00 	ldub  [ %g1 ], %g1
    5b4c:	c2 2e 80 02 	stb  %g1, [ %i2 + %g2 ]
    5b50:	83 28 60 18 	sll  %g1, 0x18, %g1
    5b54:	80 a0 60 00 	cmp  %g1, 0
    5b58:	32 80 00 12 	bne,a   5ba0 <__ajit_serial_gets_inner__+0xb4>
    5b5c:	86 00 e0 01 	inc  %g3
    5b60:	b6 06 80 1b 	add  %i2, %i3, %i3
    5b64:	c0 2e ff ff 	clrb  [ %i3 + -1 ]
    5b68:	81 c7 e0 08 	ret 
    5b6c:	81 e8 00 00 	restore 
    5b70:	c2 87 44 00 	lda  [ %i5 ] #ASI_SCRATCHPAD, %g1
    5b74:	82 08 60 12 	and  %g1, 0x12, %g1
    5b78:	80 a0 60 12 	cmp  %g1, 0x12
    5b7c:	12 bf ff fd 	bne  5b70 <__ajit_serial_gets_inner__+0x84>
    5b80:	82 10 00 0f 	mov  %o7, %g1
    5b84:	c2 88 44 00 	lduba  [ %g1 ] #ASI_SCRATCHPAD, %g1
    5b88:	c2 2e 80 02 	stb  %g1, [ %i2 + %g2 ]
    5b8c:	83 28 60 18 	sll  %g1, 0x18, %g1
    5b90:	80 a0 60 00 	cmp  %g1, 0
    5b94:	22 bf ff f4 	be,a   5b64 <__ajit_serial_gets_inner__+0x78>
    5b98:	b6 06 80 1b 	add  %i2, %i3, %i3
    5b9c:	86 00 e0 01 	inc  %g3
    5ba0:	80 a0 c0 0d 	cmp  %g3, %o5
    5ba4:	02 bf ff ef 	be  5b60 <__ajit_serial_gets_inner__+0x74>
    5ba8:	84 10 00 03 	mov  %g3, %g2
    5bac:	80 a6 60 00 	cmp  %i1, 0
    5bb0:	02 bf ff df 	be  5b2c <__ajit_serial_gets_inner__+0x40>
    5bb4:	80 a6 20 00 	cmp  %i0, 0
    5bb8:	80 a6 20 00 	cmp  %i0, 0
    5bbc:	02 80 00 09 	be  5be0 <__ajit_serial_gets_inner__+0xf4>
    5bc0:	01 00 00 00 	nop 
    5bc4:	c2 01 00 00 	ld  [ %g4 ], %g1
    5bc8:	82 08 60 12 	and  %g1, 0x12, %g1
    5bcc:	80 a0 60 12 	cmp  %g1, 0x12
    5bd0:	12 80 00 0b 	bne  5bfc <__ajit_serial_gets_inner__+0x110>
    5bd4:	82 10 00 0c 	mov  %o4, %g1
    5bd8:	10 bf ff dd 	b  5b4c <__ajit_serial_gets_inner__+0x60>
    5bdc:	c2 08 40 00 	ldub  [ %g1 ], %g1
    5be0:	c2 81 04 00 	lda  [ %g4 ] #ASI_SCRATCHPAD, %g1
    5be4:	82 08 60 12 	and  %g1, 0x12, %g1
    5be8:	80 a0 60 12 	cmp  %g1, 0x12
    5bec:	12 bf ff fd 	bne  5be0 <__ajit_serial_gets_inner__+0xf4>
    5bf0:	82 10 00 1c 	mov  %i4, %g1
    5bf4:	30 bf ff e4 	b,a   5b84 <__ajit_serial_gets_inner__+0x98>
    5bf8:	30 80 00 00 	b,a   5bf8 <__ajit_serial_gets_inner__+0x10c>
    5bfc:	30 80 00 00 	b,a   5bfc <__ajit_serial_gets_inner__+0x110>

00005c00 <__ajit_serial_set_uart_reset_inner__>:
    5c00:	05 3f ff cc 	sethi  %hi(0xffff3000), %g2
    5c04:	80 a2 60 00 	cmp  %o1, 0
    5c08:	12 80 00 03 	bne  5c14 <__ajit_serial_set_uart_reset_inner__+0x14>
    5c0c:	82 10 a2 40 	or  %g2, 0x240, %g1
    5c10:	82 10 a2 00 	or  %g2, 0x200, %g1
    5c14:	80 a2 20 00 	cmp  %o0, 0
    5c18:	02 80 00 0d 	be  5c4c <__ajit_serial_set_uart_reset_inner__+0x4c>
    5c1c:	01 00 00 00 	nop 
    5c20:	c6 00 40 00 	ld  [ %g1 ], %g3
    5c24:	80 a2 a0 00 	cmp  %o2, 0
    5c28:	12 80 00 03 	bne  5c34 <__ajit_serial_set_uart_reset_inner__+0x34>
    5c2c:	84 10 e0 20 	or  %g3, 0x20, %g2
    5c30:	84 08 ff df 	and  %g3, -33, %g2
    5c34:	80 a2 20 00 	cmp  %o0, 0
    5c38:	12 80 00 08 	bne  5c58 <__ajit_serial_set_uart_reset_inner__+0x58>
    5c3c:	01 00 00 00 	nop 
    5c40:	c4 a0 44 00 	sta  %g2, [ %g1 ] #ASI_SCRATCHPAD
    5c44:	81 c3 e0 08 	retl 
    5c48:	01 00 00 00 	nop 
    5c4c:	c6 80 44 00 	lda  [ %g1 ] #ASI_SCRATCHPAD, %g3
    5c50:	10 bf ff f6 	b  5c28 <__ajit_serial_set_uart_reset_inner__+0x28>
    5c54:	80 a2 a0 00 	cmp  %o2, 0
    5c58:	81 c3 e0 08 	retl 
    5c5c:	c4 20 40 00 	st  %g2, [ %g1 ]

00005c60 <__ajit_write_irc_control_register_via_bypass__>:
    5c60:	03 3f ff cc 	sethi  %hi(0xffff3000), %g1
    5c64:	d0 a0 44 00 	sta  %o0, [ %g1 ] #ASI_SCRATCHPAD
    5c68:	81 c3 e0 08 	retl 
    5c6c:	01 00 00 00 	nop 

00005c70 <__ajit_read_irc_control_register_via_bypass__>:
    5c70:	11 3f ff cc 	sethi  %hi(0xffff3000), %o0
    5c74:	d0 82 04 00 	lda  [ %o0 ] #ASI_SCRATCHPAD, %o0
    5c78:	81 c3 e0 08 	retl 
    5c7c:	01 00 00 00 	nop 

00005c80 <__ajit_write_irc_control_register_via_vmap__>:
    5c80:	03 3f ff cc 	sethi  %hi(0xffff3000), %g1
    5c84:	81 c3 e0 08 	retl 
    5c88:	d0 20 40 00 	st  %o0, [ %g1 ]

00005c8c <__ajit_read_irc_control_register_via_vmap__>:
    5c8c:	03 3f ff cc 	sethi  %hi(0xffff3000), %g1
    5c90:	81 c3 e0 08 	retl 
    5c94:	d0 00 40 00 	ld  [ %g1 ], %o0

00005c98 <__ajit_write_spi_master_register_via_bypass__>:
    5c98:	91 2a 20 02 	sll  %o0, 2, %o0
    5c9c:	03 3f ff cc 	sethi  %hi(0xffff3000), %g1
    5ca0:	82 10 63 00 	or  %g1, 0x300, %g1	! ffff3300 <main+0xfffed1e4>
    5ca4:	90 02 00 01 	add  %o0, %g1, %o0
    5ca8:	d2 a2 04 00 	sta  %o1, [ %o0 ] #ASI_SCRATCHPAD
    5cac:	81 c3 e0 08 	retl 
    5cb0:	01 00 00 00 	nop 

00005cb4 <__ajit_write_spi_master_register_via_vmap__>:
    5cb4:	91 2a 20 02 	sll  %o0, 2, %o0
    5cb8:	03 3f ff cc 	sethi  %hi(0xffff3000), %g1
    5cbc:	82 10 63 00 	or  %g1, 0x300, %g1	! ffff3300 <main+0xfffed1e4>
    5cc0:	81 c3 e0 08 	retl 
    5cc4:	d2 2a 00 01 	stb  %o1, [ %o0 + %g1 ]

00005cc8 <__ajit_read_spi_master_register_via_bypass__>:
    5cc8:	91 2a 20 02 	sll  %o0, 2, %o0
    5ccc:	03 3f ff cc 	sethi  %hi(0xffff3000), %g1
    5cd0:	82 10 63 00 	or  %g1, 0x300, %g1	! ffff3300 <main+0xfffed1e4>
    5cd4:	90 02 00 01 	add  %o0, %g1, %o0
    5cd8:	d0 82 04 00 	lda  [ %o0 ] #ASI_SCRATCHPAD, %o0
    5cdc:	81 c3 e0 08 	retl 
    5ce0:	90 0a 20 ff 	and  %o0, 0xff, %o0

00005ce4 <__ajit_read_spi_master_register_via_vmap__>:
    5ce4:	91 2a 20 02 	sll  %o0, 2, %o0
    5ce8:	03 3f ff cc 	sethi  %hi(0xffff3000), %g1
    5cec:	82 10 63 00 	or  %g1, 0x300, %g1	! ffff3300 <main+0xfffed1e4>
    5cf0:	81 c3 e0 08 	retl 
    5cf4:	d0 0a 00 01 	ldub  [ %o0 + %g1 ], %o0

00005cf8 <__ajit_do_spi_transfer_via_bypass__>:
    5cf8:	07 3f ff cc 	sethi  %hi(0xffff3000), %g3
    5cfc:	82 10 e3 00 	or  %g3, 0x300, %g1	! ffff3300 <main+0xfffed1e4>
    5d00:	d2 a0 44 00 	sta  %o1, [ %g1 ] #ASI_SCRATCHPAD
    5d04:	82 0a 20 07 	and  %o0, 7, %g1
    5d08:	94 0a a0 01 	and  %o2, 1, %o2
    5d0c:	83 28 60 03 	sll  %g1, 3, %g1
    5d10:	94 02 80 0a 	add  %o2, %o2, %o2
    5d14:	82 10 60 01 	or  %g1, 1, %g1
    5d18:	86 10 e3 08 	or  %g3, 0x308, %g3
    5d1c:	94 12 80 01 	or  %o2, %g1, %o2
    5d20:	d4 a0 c4 00 	sta  %o2, [ %g3 ] #ASI_SCRATCHPAD
    5d24:	10 80 00 04 	b  5d34 <__ajit_do_spi_transfer_via_bypass__+0x3c>
    5d28:	03 00 00 08 	sethi  %hi(0x2000), %g1
    5d2c:	02 80 00 07 	be  5d48 <__ajit_do_spi_transfer_via_bypass__+0x50>
    5d30:	11 3f ff cc 	sethi  %hi(0xffff3000), %o0
    5d34:	c4 80 c4 00 	lda  [ %g3 ] #ASI_SCRATCHPAD, %g2
    5d38:	80 88 a0 01 	btst  1, %g2
    5d3c:	32 bf ff fc 	bne,a   5d2c <__ajit_do_spi_transfer_via_bypass__+0x34>
    5d40:	82 80 7f ff 	addcc  %g1, -1, %g1
    5d44:	11 3f ff cc 	sethi  %hi(0xffff3000), %o0
    5d48:	90 12 23 00 	or  %o0, 0x300, %o0	! ffff3300 <main+0xfffed1e4>
    5d4c:	d0 82 04 00 	lda  [ %o0 ] #ASI_SCRATCHPAD, %o0
    5d50:	81 c3 e0 08 	retl 
    5d54:	90 0a 20 ff 	and  %o0, 0xff, %o0

00005d58 <__ajit_do_spi_transfer_via_vmap__>:
    5d58:	03 3f ff cc 	sethi  %hi(0xffff3000), %g1
    5d5c:	90 0a 20 07 	and  %o0, 7, %o0
    5d60:	84 10 63 00 	or  %g1, 0x300, %g2
    5d64:	91 2a 20 03 	sll  %o0, 3, %o0
    5d68:	d2 20 80 00 	st  %o1, [ %g2 ]
    5d6c:	90 12 20 01 	or  %o0, 1, %o0
    5d70:	82 10 63 08 	or  %g1, 0x308, %g1
    5d74:	94 0a a0 01 	and  %o2, 1, %o2
    5d78:	94 02 80 0a 	add  %o2, %o2, %o2
    5d7c:	94 12 80 08 	or  %o2, %o0, %o2
    5d80:	90 10 00 09 	mov  %o1, %o0
    5d84:	81 c3 e0 08 	retl 
    5d88:	d4 20 40 00 	st  %o2, [ %g1 ]

00005d8c <__ajit_configure_spi_master_via_bypass___>:
    5d8c:	90 0a 20 0f 	and  %o0, 0xf, %o0
    5d90:	03 3f ff cc 	sethi  %hi(0xffff3000), %g1
    5d94:	90 12 20 10 	or  %o0, 0x10, %o0
    5d98:	82 10 63 0c 	or  %g1, 0x30c, %g1
    5d9c:	d0 a0 44 00 	sta  %o0, [ %g1 ] #ASI_SCRATCHPAD
    5da0:	81 c3 e0 08 	retl 
    5da4:	90 10 20 00 	clr  %o0

00005da8 <__ajit_configure_spi_master_via_vmap___>:
    5da8:	90 0a 20 0f 	and  %o0, 0xf, %o0
    5dac:	03 3f ff cc 	sethi  %hi(0xffff3000), %g1
    5db0:	84 12 20 10 	or  %o0, 0x10, %g2
    5db4:	82 10 63 0c 	or  %g1, 0x30c, %g1
    5db8:	90 10 20 00 	clr  %o0
    5dbc:	81 c3 e0 08 	retl 
    5dc0:	c4 20 40 00 	st  %g2, [ %g1 ]

00005dc4 <__ajit_do_spi_transfer_inner__>:
    5dc4:	96 0a e0 01 	and  %o3, 1, %o3
    5dc8:	92 0a 60 07 	and  %o1, 7, %o1
    5dcc:	96 02 c0 0b 	add  %o3, %o3, %o3
    5dd0:	83 2a 60 03 	sll  %o1, 3, %g1
    5dd4:	80 a2 20 00 	cmp  %o0, 0
    5dd8:	82 10 60 01 	or  %g1, 1, %g1
    5ddc:	02 80 00 0b 	be  5e08 <__ajit_do_spi_transfer_inner__+0x44>
    5de0:	82 12 c0 01 	or  %o3, %g1, %g1
    5de4:	05 3f ff cc 	sethi  %hi(0xffff3000), %g2
    5de8:	86 10 a3 00 	or  %g2, 0x300, %g3	! ffff3300 <main+0xfffed1e4>
    5dec:	d4 20 c0 00 	st  %o2, [ %g3 ]
    5df0:	82 08 60 ff 	and  %g1, 0xff, %g1
    5df4:	84 10 a3 08 	or  %g2, 0x308, %g2
    5df8:	90 10 00 0a 	mov  %o2, %o0
    5dfc:	c2 20 80 00 	st  %g1, [ %g2 ]
    5e00:	81 c3 e0 08 	retl 
    5e04:	90 0a 20 ff 	and  %o0, 0xff, %o0
    5e08:	07 3f ff cc 	sethi  %hi(0xffff3000), %g3
    5e0c:	84 10 e3 00 	or  %g3, 0x300, %g2	! ffff3300 <main+0xfffed1e4>
    5e10:	d4 a0 84 00 	sta  %o2, [ %g2 ] #ASI_SCRATCHPAD
    5e14:	86 10 e3 08 	or  %g3, 0x308, %g3
    5e18:	c2 a0 c4 00 	sta  %g1, [ %g3 ] #ASI_SCRATCHPAD
    5e1c:	10 80 00 04 	b  5e2c <__ajit_do_spi_transfer_inner__+0x68>
    5e20:	03 00 00 08 	sethi  %hi(0x2000), %g1
    5e24:	02 80 00 07 	be  5e40 <__ajit_do_spi_transfer_inner__+0x7c>
    5e28:	15 3f ff cc 	sethi  %hi(0xffff3000), %o2
    5e2c:	c4 80 c4 00 	lda  [ %g3 ] #ASI_SCRATCHPAD, %g2
    5e30:	80 88 a0 01 	btst  1, %g2
    5e34:	32 bf ff fc 	bne,a   5e24 <__ajit_do_spi_transfer_inner__+0x60>
    5e38:	82 80 7f ff 	addcc  %g1, -1, %g1
    5e3c:	15 3f ff cc 	sethi  %hi(0xffff3000), %o2
    5e40:	94 12 a3 00 	or  %o2, 0x300, %o2	! ffff3300 <main+0xfffed1e4>
    5e44:	d0 82 84 00 	lda  [ %o2 ] #ASI_SCRATCHPAD, %o0
    5e48:	81 c3 e0 08 	retl 
    5e4c:	90 0a 20 ff 	and  %o0, 0xff, %o0

00005e50 <__ajit_gpio_xfer__>:
    5e50:	09 3f ff cc 	sethi  %hi(0xffff3000), %g4
    5e54:	82 11 23 00 	or  %g4, 0x300, %g1	! ffff3300 <main+0xfffed1e4>
    5e58:	d2 a0 44 00 	sta  %o1, [ %g1 ] #ASI_SCRATCHPAD
    5e5c:	90 0a 20 07 	and  %o0, 7, %o0
    5e60:	88 11 23 08 	or  %g4, 0x308, %g4
    5e64:	91 2a 20 03 	sll  %o0, 3, %o0
    5e68:	90 12 20 03 	or  %o0, 3, %o0
    5e6c:	d0 a1 04 00 	sta  %o0, [ %g4 ] #ASI_SCRATCHPAD
    5e70:	82 10 21 00 	mov  0x100, %g1
    5e74:	c4 81 04 00 	lda  [ %g4 ] #ASI_SCRATCHPAD, %g2
    5e78:	82 00 7f ff 	add  %g1, -1, %g1
    5e7c:	87 38 60 1f 	sra  %g1, 0x1f, %g3
    5e80:	86 20 c0 01 	sub  %g3, %g1, %g3
    5e84:	87 30 e0 1f 	srl  %g3, 0x1f, %g3
    5e88:	80 88 c0 02 	btst  %g3, %g2
    5e8c:	12 bf ff fa 	bne  5e74 <__ajit_gpio_xfer__+0x24>
    5e90:	11 3f ff cc 	sethi  %hi(0xffff3000), %o0
    5e94:	90 12 23 00 	or  %o0, 0x300, %o0	! ffff3300 <main+0xfffed1e4>
    5e98:	d0 82 04 00 	lda  [ %o0 ] #ASI_SCRATCHPAD, %o0
    5e9c:	81 c3 e0 08 	retl 
    5ea0:	90 0a 20 ff 	and  %o0, 0xff, %o0

00005ea4 <__ajit_read_gpio_32_via_vmap__>:
    5ea4:	03 3f ff cd 	sethi  %hi(0xffff3400), %g1
    5ea8:	82 10 60 04 	or  %g1, 4, %g1	! ffff3404 <main+0xfffed2e8>
    5eac:	81 c3 e0 08 	retl 
    5eb0:	d0 00 40 00 	ld  [ %g1 ], %o0

00005eb4 <__ajit_write_gpio_32_via_vmap__>:
    5eb4:	03 3f ff cd 	sethi  %hi(0xffff3400), %g1
    5eb8:	81 c3 e0 08 	retl 
    5ebc:	d0 20 40 00 	st  %o0, [ %g1 ]

00005ec0 <__ajit_read_gpio_32_via_bypass__>:
    5ec0:	11 3f ff cd 	sethi  %hi(0xffff3400), %o0
    5ec4:	90 12 20 04 	or  %o0, 4, %o0	! ffff3404 <main+0xfffed2e8>
    5ec8:	d0 82 04 00 	lda  [ %o0 ] #ASI_SCRATCHPAD, %o0
    5ecc:	81 c3 e0 08 	retl 
    5ed0:	01 00 00 00 	nop 

00005ed4 <__ajit_write_gpio_32_via_bypass__>:
    5ed4:	03 3f ff cd 	sethi  %hi(0xffff3400), %g1
    5ed8:	d0 a0 44 00 	sta  %o0, [ %g1 ] #ASI_SCRATCHPAD
    5edc:	81 c3 e0 08 	retl 
    5ee0:	01 00 00 00 	nop 

00005ee4 <__ajit_init_thread_performance_counters>:
    5ee4:	c0 22 80 00 	clr  [ %o2 ]
    5ee8:	c0 22 a0 04 	clr  [ %o2 + 4 ]
    5eec:	c0 22 a0 08 	clr  [ %o2 + 8 ]
    5ef0:	c0 22 a0 0c 	clr  [ %o2 + 0xc ]
    5ef4:	c0 22 a0 10 	clr  [ %o2 + 0x10 ]
    5ef8:	c0 22 a0 14 	clr  [ %o2 + 0x14 ]
    5efc:	c0 22 a0 18 	clr  [ %o2 + 0x18 ]
    5f00:	c0 22 a0 1c 	clr  [ %o2 + 0x1c ]
    5f04:	c0 22 a0 20 	clr  [ %o2 + 0x20 ]
    5f08:	c0 22 a0 24 	clr  [ %o2 + 0x24 ]
    5f0c:	c0 22 a0 28 	clr  [ %o2 + 0x28 ]
    5f10:	c0 22 a0 2c 	clr  [ %o2 + 0x2c ]
    5f14:	c0 22 a0 30 	clr  [ %o2 + 0x30 ]
    5f18:	c0 22 a0 34 	clr  [ %o2 + 0x34 ]
    5f1c:	c0 22 a0 38 	clr  [ %o2 + 0x38 ]
    5f20:	c0 22 a0 3c 	clr  [ %o2 + 0x3c ]
    5f24:	c0 22 a0 40 	clr  [ %o2 + 0x40 ]
    5f28:	c0 22 a0 44 	clr  [ %o2 + 0x44 ]
    5f2c:	c0 22 a0 48 	clr  [ %o2 + 0x48 ]
    5f30:	81 c3 e0 08 	retl 
    5f34:	c0 22 a0 4c 	clr  [ %o2 + 0x4c ]

00005f38 <__ajit_sample_thread_performance_counters>:
    5f38:	9d e3 bf a0 	save  %sp, -96, %sp
    5f3c:	b0 06 00 18 	add  %i0, %i0, %i0
    5f40:	b2 06 00 19 	add  %i0, %i1, %i1
    5f44:	ae 10 20 00 	clr  %l7
    5f48:	ba 10 20 00 	clr  %i5
    5f4c:	03 00 3f ff 	sethi  %hi(0xfffc00), %g1
    5f50:	82 10 63 40 	or  %g1, 0x340, %g1	! ffff40 <main+0xff9e24>
    5f54:	82 06 40 01 	add  %i1, %g1, %g1
    5f58:	b2 10 20 00 	clr  %i1
    5f5c:	83 28 60 08 	sll  %g1, 8, %g1
    5f60:	e0 00 60 04 	ld  [ %g1 + 4 ], %l0
    5f64:	ec 00 40 00 	ld  [ %g1 ], %l6
    5f68:	f8 00 60 08 	ld  [ %g1 + 8 ], %i4
    5f6c:	d0 00 60 0c 	ld  [ %g1 + 0xc ], %o0
    5f70:	f0 00 60 10 	ld  [ %g1 + 0x10 ], %i0
    5f74:	d4 00 60 14 	ld  [ %g1 + 0x14 ], %o2
    5f78:	d8 00 60 1c 	ld  [ %g1 + 0x1c ], %o4
    5f7c:	e8 00 60 24 	ld  [ %g1 + 0x24 ], %l4
    5f80:	e4 00 60 2c 	ld  [ %g1 + 0x2c ], %l2
    5f84:	c4 00 60 34 	ld  [ %g1 + 0x34 ], %g2
    5f88:	a2 10 00 10 	mov  %l0, %l1
    5f8c:	92 10 00 08 	mov  %o0, %o1
    5f90:	a2 14 40 17 	or  %l1, %l7, %l1
    5f94:	92 17 40 09 	or  %i5, %o1, %o1
    5f98:	96 10 00 0a 	mov  %o2, %o3
    5f9c:	ba 10 20 00 	clr  %i5
    5fa0:	96 16 40 0b 	or  %i1, %o3, %o3
    5fa4:	ae 10 20 00 	clr  %l7
    5fa8:	b2 10 20 00 	clr  %i1
    5fac:	a0 10 20 00 	clr  %l0
    5fb0:	90 10 20 00 	clr  %o0
    5fb4:	a0 14 00 16 	or  %l0, %l6, %l0
    5fb8:	90 17 00 08 	or  %i4, %o0, %o0
    5fbc:	ec 00 60 20 	ld  [ %g1 + 0x20 ], %l6
    5fc0:	f8 00 60 18 	ld  [ %g1 + 0x18 ], %i4
    5fc4:	94 10 20 00 	clr  %o2
    5fc8:	94 16 00 0a 	or  %i0, %o2, %o2
    5fcc:	f0 00 60 28 	ld  [ %g1 + 0x28 ], %i0
    5fd0:	a6 10 00 12 	mov  %l2, %l3
    5fd4:	86 10 00 02 	mov  %g2, %g3
    5fd8:	9a 10 00 0c 	mov  %o4, %o5
    5fdc:	aa 10 00 14 	mov  %l4, %l5
    5fe0:	9a 17 40 0d 	or  %i5, %o5, %o5
    5fe4:	aa 15 c0 15 	or  %l7, %l5, %l5
    5fe8:	a4 10 20 00 	clr  %l2
    5fec:	ae 16 40 13 	or  %i1, %l3, %l7
    5ff0:	84 10 20 00 	clr  %g2
    5ff4:	ba 10 20 00 	clr  %i5
    5ff8:	98 10 20 00 	clr  %o4
    5ffc:	b2 17 40 03 	or  %i5, %g3, %i1
    6000:	98 17 00 0c 	or  %i4, %o4, %o4
    6004:	a8 10 20 00 	clr  %l4
    6008:	f8 00 60 30 	ld  [ %g1 + 0x30 ], %i4
    600c:	a8 15 80 14 	or  %l6, %l4, %l4
    6010:	ac 16 00 12 	or  %i0, %l2, %l6
    6014:	b0 17 00 02 	or  %i4, %g2, %i0
    6018:	f6 00 60 3c 	ld  [ %g1 + 0x3c ], %i3
    601c:	de 00 60 44 	ld  [ %g1 + 0x44 ], %o7
    6020:	c8 00 60 4c 	ld  [ %g1 + 0x4c ], %g4
    6024:	f8 00 60 40 	ld  [ %g1 + 0x40 ], %i4
    6028:	f0 3e a0 30 	std  %i0, [ %i2 + 0x30 ]
    602c:	f0 00 60 38 	ld  [ %g1 + 0x38 ], %i0
    6030:	b2 10 20 00 	clr  %i1
    6034:	c4 00 60 48 	ld  [ %g1 + 0x48 ], %g2
    6038:	a6 16 40 1b 	or  %i1, %i3, %l3
    603c:	a4 10 20 00 	clr  %l2
    6040:	ba 10 20 00 	clr  %i5
    6044:	a4 16 00 12 	or  %i0, %l2, %l2
    6048:	b2 17 40 0f 	or  %i5, %o7, %i1
    604c:	b0 10 20 00 	clr  %i0
    6050:	86 10 20 00 	clr  %g3
    6054:	b0 17 00 18 	or  %i4, %i0, %i0
    6058:	86 10 c0 04 	or  %g3, %g4, %g3
    605c:	b8 10 20 00 	clr  %i4
    6060:	e0 3e 80 00 	std  %l0, [ %i2 ]
    6064:	84 10 80 1c 	or  %g2, %i4, %g2
    6068:	d0 3e a0 08 	std  %o0, [ %i2 + 8 ]
    606c:	d4 3e a0 10 	std  %o2, [ %i2 + 0x10 ]
    6070:	d8 3e a0 18 	std  %o4, [ %i2 + 0x18 ]
    6074:	e8 3e a0 20 	std  %l4, [ %i2 + 0x20 ]
    6078:	ec 3e a0 28 	std  %l6, [ %i2 + 0x28 ]
    607c:	e4 3e a0 38 	std  %l2, [ %i2 + 0x38 ]
    6080:	f0 3e a0 40 	std  %i0, [ %i2 + 0x40 ]
    6084:	c4 3e a0 48 	std  %g2, [ %i2 + 0x48 ]
    6088:	81 c7 e0 08 	ret 
    608c:	81 e8 00 00 	restore 

00006090 <__ajit_ta_0__>:
    6090:	91 d0 20 00 	ta  0
    6094:	01 00 00 00 	nop 
    6098:	01 00 00 00 	nop 
    609c:	81 c3 e0 08 	retl 
    60a0:	01 00 00 00 	nop 

000060a4 <__ajit_fsqrtd__>:
    60a4:	c1 1a 00 00 	ldd  [ %o0 ], %f0
    60a8:	85 a0 05 40 	fsqrtd  %f0, %f2
    60ac:	c5 3a 40 00 	std  %f2, [ %o1 ]
    60b0:	81 c3 e0 08 	retl 
    60b4:	01 00 00 00 	nop 

000060b8 <__ajit_fsqrts__>:
    60b8:	c1 02 00 00 	ld  [ %o0 ], %f0
    60bc:	83 a0 05 20 	fsqrts  %f0, %f1
    60c0:	c3 22 40 00 	st  %f1, [ %o1 ]
    60c4:	81 c3 e0 08 	retl 
    60c8:	01 00 00 00 	nop 

000060cc <__ajit_fitod__>:
    60cc:	c1 02 00 00 	ld  [ %o0 ], %f0
    60d0:	85 a0 19 00 	fitod  %f0, %f2
    60d4:	c5 3a 40 00 	std  %f2, [ %o1 ]
    60d8:	81 c3 e0 08 	retl 
    60dc:	01 00 00 00 	nop 

000060e0 <__ajit_fitos__>:
    60e0:	c1 02 00 00 	ld  [ %o0 ], %f0
    60e4:	83 a0 18 80 	fitos  %f0, %f1
    60e8:	c3 22 40 00 	st  %f1, [ %o1 ]
    60ec:	81 c3 e0 08 	retl 
    60f0:	01 00 00 00 	nop 

000060f4 <__ajit_fdtoi__>:
    60f4:	c1 1a 00 00 	ldd  [ %o0 ], %f0
    60f8:	85 a0 1a 40 	fdtoi  %f0, %f2
    60fc:	c5 22 40 00 	st  %f2, [ %o1 ]
    6100:	81 c3 e0 08 	retl 
    6104:	01 00 00 00 	nop 

00006108 <__ajit_fstoi__>:
    6108:	c1 02 00 00 	ld  [ %o0 ], %f0
    610c:	83 a0 1a 20 	fstoi  %f0, %f1
    6110:	c3 22 40 00 	st  %f1, [ %o1 ]
    6114:	81 c3 e0 08 	retl 
    6118:	01 00 00 00 	nop 

0000611c <main>:
    611c:	9d e3 bf a0 	save  %sp, -96, %sp
    6120:	94 10 20 00 	clr  %o2
    6124:	90 10 20 01 	mov  1, %o0
    6128:	7f ff fc 12 	call  5170 <__ajit_serial_configure_via_bypass__>
    612c:	92 10 20 00 	clr  %o1
    6130:	13 01 31 2d 	sethi  %hi(0x4c4b400), %o1
    6134:	11 00 00 70 	sethi  %hi(0x1c000), %o0
    6138:	7f ff fc 22 	call  51c0 <__ajit_serial_set_baudrate_via_bypass__>
    613c:	90 12 22 00 	or  %o0, 0x200, %o0	! 1c200 <main+0x160e4>
    6140:	90 10 20 00 	clr  %o0
    6144:	7f ff fc 4e 	call  527c <__ajit_serial_set_uart_reset_via_bypass__>
    6148:	31 00 00 40 	sethi  %hi(0x10000), %i0
    614c:	7f ff f5 62 	call  36d4 <ee_printf>
    6150:	91 ee 20 58 	restore  %i0, 0x58, %o0
